ARM GAS  /tmp/cctpb7uZ.s 			page 1


   1              		.syntax unified
   2              		.cpu cortex-m3
   3              		.fpu softvfp
   4              		.eabi_attribute 20, 1
   5              		.eabi_attribute 21, 1
   6              		.eabi_attribute 23, 3
   7              		.eabi_attribute 24, 1
   8              		.eabi_attribute 25, 1
   9              		.eabi_attribute 26, 1
  10              		.eabi_attribute 30, 2
  11              		.eabi_attribute 18, 4
  12              		.thumb
  13              		.file	"chheap.c"
  14              		.text
  15              	.Ltext0:
  16              		.cfi_sections	.debug_frame
  17              		.section	.text._heap_init,"ax",%progbits
  18              		.align	2
  19              		.p2align 4,,15
  20              		.global	_heap_init
  21              		.thumb
  22              		.thumb_func
  23              		.type	_heap_init, %function
  24              	_heap_init:
  25              	.LFB7:
  26              		.file 1 "../../os/kernel/src/chheap.c"
  27              		.loc 1 75 0
  28              		.cfi_startproc
  29              		@ args = 0, pretend = 0, frame = 0
  30              		@ frame_needed = 0, uses_anonymous_args = 0
  31              		@ link register save eliminated.
  32              		.loc 1 76 0
  33 0000 40F20003 		movw	r3, #:lower16:.LANCHOR0
  34 0004 C0F20003 		movt	r3, #:upper16:.LANCHOR0
  35 0008 40F20001 		movw	r1, #:lower16:chCoreAlloc
  36              		.loc 1 77 0
  37 000c 0022     		movs	r2, #0
  38              		.loc 1 76 0
  39 000e C0F20001 		movt	r1, #:upper16:chCoreAlloc
  40              		.loc 1 80 0
  41 0012 03F11000 		add	r0, r3, #16
  42              		.loc 1 76 0
  43 0016 1960     		str	r1, [r3, #0]
  44              		.loc 1 77 0
  45 0018 9A60     		str	r2, [r3, #8]
  46              		.loc 1 78 0
  47 001a DA60     		str	r2, [r3, #12]
  48              		.loc 1 84 0
  49              		.loc 1 80 0
  50 001c FFF7FEBF 		b	chMtxInit
  51              		.cfi_endproc
  52              	.LFE7:
  53              		.size	_heap_init, .-_heap_init
  54              		.section	.text.chHeapInit,"ax",%progbits
  55              		.align	2
  56              		.p2align 4,,15
  57              		.global	chHeapInit
ARM GAS  /tmp/cctpb7uZ.s 			page 2


  58              		.thumb
  59              		.thumb_func
  60              		.type	chHeapInit, %function
  61              	chHeapInit:
  62              	.LFB8:
  63              		.loc 1 99 0
  64              		.cfi_startproc
  65              		@ args = 0, pretend = 0, frame = 0
  66              		@ frame_needed = 0, uses_anonymous_args = 0
  67              		@ link register save eliminated.
  68              	.LVL0:
  69              		.loc 1 104 0
  70 0000 0023     		movs	r3, #0
  71 0002 0360     		str	r3, [r0, #0]
  72              	.LVL1:
  73              		.loc 1 105 0
  74 0004 8160     		str	r1, [r0, #8]
  75              		.loc 1 106 0
  76 0006 C360     		str	r3, [r0, #12]
  77              		.loc 1 108 0
  78 0008 083A     		subs	r2, r2, #8
  79              	.LVL2:
  80              		.loc 1 110 0
  81 000a 1030     		adds	r0, r0, #16
  82              	.LVL3:
  83              		.loc 1 107 0
  84 000c 0B60     		str	r3, [r1, #0]
  85              		.loc 1 108 0
  86 000e 4A60     		str	r2, [r1, #4]
  87              		.loc 1 114 0
  88              		.loc 1 110 0
  89 0010 FFF7FEBF 		b	chMtxInit
  90              	.LVL4:
  91              	.LVL5:
  92              	.LVL6:
  93              	.LVL7:
  94              		.cfi_endproc
  95              	.LFE8:
  96              		.size	chHeapInit, .-chHeapInit
  97 0014 AFF30080 		.section	.text.chHeapAlloc,"ax",%progbits
  97      AFF30080 
  97      AFF30080 
  98              		.align	2
  99              		.p2align 4,,15
 100              		.global	chHeapAlloc
 101              		.thumb
 102              		.thumb_func
 103              		.type	chHeapAlloc, %function
 104              	chHeapAlloc:
 105              	.LFB9:
 106              		.loc 1 132 0
 107              		.cfi_startproc
 108              		@ args = 0, pretend = 0, frame = 0
 109              		@ frame_needed = 0, uses_anonymous_args = 0
 110              	.LVL8:
 111 0000 F8B5     		push	{r3, r4, r5, r6, r7, lr}
 112              	.LCFI0:
ARM GAS  /tmp/cctpb7uZ.s 			page 3


 113              		.cfi_def_cfa_offset 24
 114              		.cfi_offset 14, -4
 115              		.cfi_offset 7, -8
 116              		.cfi_offset 6, -12
 117              		.cfi_offset 5, -16
 118              		.cfi_offset 4, -20
 119              		.cfi_offset 3, -24
 120              		.loc 1 136 0
 121 0002 204E     		ldr	r6, .L16
 122              		.loc 1 138 0
 123 0004 0731     		adds	r1, r1, #7
 124              	.LVL9:
 125              		.loc 1 136 0
 126 0006 0028     		cmp	r0, #0
 127 0008 18BF     		it	ne
 128 000a 0646     		movne	r6, r0
 129              	.LVL10:
 130              		.loc 1 140 0
 131 000c 06F11000 		add	r0, r6, #16
 132              		.loc 1 138 0
 133 0010 21F00705 		bic	r5, r1, #7
 134              	.LVL11:
 135              		.loc 1 139 0
 136 0014 06F10804 		add	r4, r6, #8
 137              	.LVL12:
 138              		.loc 1 140 0
 139 0018 FFF7FEFF 		bl	chMtxLock
 140              		.loc 1 142 0
 141 001c 00E0     		b	.L5
 142              	.LVL13:
 143              	.L11:
 144              		.loc 1 144 0
 145 001e 1C46     		mov	r4, r3
 146              	.LVL14:
 147              	.L5:
 148              		.loc 1 142 0 discriminator 1
 149 0020 2368     		ldr	r3, [r4, #0]
 150 0022 F3B1     		cbz	r3, .L14
 151              	.LVL15:
 152              		.loc 1 144 0
 153 0024 5A68     		ldr	r2, [r3, #4]
 154 0026 9542     		cmp	r5, r2
 155 0028 F9D8     		bhi	.L11
 156              		.loc 1 145 0
 157 002a 05F10801 		add	r1, r5, #8
 158 002e 8A42     		cmp	r2, r1
 159 0030 14D3     		bcc	.L15
 160              		.loc 1 155 0
 161 0032 4FF6F870 		movw	r0, #65528
 162 0036 CFF6FF70 		movt	r0, 65535
 163              		.loc 1 154 0
 164 003a D3F800E0 		ldr	lr, [r3, #0]
 165              		.loc 1 155 0
 166 003e 401B     		subs	r0, r0, r5
 167              		.loc 1 153 0
 168 0040 5F18     		adds	r7, r3, r1
 169              	.LVL16:
ARM GAS  /tmp/cctpb7uZ.s 			page 4


 170              		.loc 1 155 0
 171 0042 8218     		adds	r2, r0, r2
 172              		.loc 1 154 0
 173 0044 43F801E0 		str	lr, [r3, r1]
 174              		.loc 1 155 0
 175 0048 7A60     		str	r2, [r7, #4]
 176              		.loc 1 156 0
 177 004a 2760     		str	r7, [r4, #0]
 178              		.loc 1 157 0
 179 004c 5D60     		str	r5, [r3, #4]
 180              	.LVL17:
 181              	.L7:
 182              		.loc 1 159 0
 183 004e 1C46     		mov	r4, r3
 184              	.LVL18:
 185 0050 44F8086B 		str	r6, [r4], #8
 186              		.loc 1 161 0
 187 0054 FFF7FEFF 		bl	chMtxUnlock
 188              	.LVL19:
 189              	.L8:
 190              		.loc 1 181 0
 191 0058 2046     		mov	r0, r4
 192 005a F8BD     		pop	{r3, r4, r5, r6, r7, pc}
 193              	.LVL20:
 194              	.L15:
 195              		.loc 1 149 0
 196 005c 1A68     		ldr	r2, [r3, #0]
 197 005e 2260     		str	r2, [r4, #0]
 198 0060 F5E7     		b	.L7
 199              	.LVL21:
 200              	.L14:
 201              		.loc 1 167 0
 202 0062 FFF7FEFF 		bl	chMtxUnlock
 203              		.loc 1 171 0
 204 0066 3468     		ldr	r4, [r6, #0]
 205              	.LVL22:
 206 0068 002C     		cmp	r4, #0
 207 006a F5D0     		beq	.L8
 208              		.loc 1 172 0
 209 006c 05F10800 		add	r0, r5, #8
 210 0070 A047     		blx	r4
 211              	.LVL23:
 212              		.loc 1 173 0
 213 0072 0446     		mov	r4, r0
 214 0074 0028     		cmp	r0, #0
 215 0076 EFD0     		beq	.L8
 216              		.loc 1 177 0
 217 0078 0834     		adds	r4, r4, #8
 218              		.loc 1 174 0
 219 007a 0660     		str	r6, [r0, #0]
 220              		.loc 1 175 0
 221 007c 4560     		str	r5, [r0, #4]
 222              	.LVL24:
 223              		.loc 1 181 0
 224 007e 2046     		mov	r0, r4
 225 0080 F8BD     		pop	{r3, r4, r5, r6, r7, pc}
 226              	.L17:
ARM GAS  /tmp/cctpb7uZ.s 			page 5


 227 0082 00BF     		.align	2
 228              	.L16:
 229 0084 00000000 		.word	.LANCHOR0
 230              		.cfi_endproc
 231              	.LFE9:
 232              		.size	chHeapAlloc, .-chHeapAlloc
 233 0088 AFF30080 		.section	.text.chHeapFree,"ax",%progbits
 233      AFF30080 
 234              		.align	2
 235              		.p2align 4,,15
 236              		.global	chHeapFree
 237              		.thumb
 238              		.thumb_func
 239              		.type	chHeapFree, %function
 240              	chHeapFree:
 241              	.LFB10:
 242              		.loc 1 194 0
 243              		.cfi_startproc
 244              		@ args = 0, pretend = 0, frame = 0
 245              		@ frame_needed = 0, uses_anonymous_args = 0
 246              	.LVL25:
 247 0000 70B5     		push	{r4, r5, r6, lr}
 248              	.LCFI1:
 249              		.cfi_def_cfa_offset 16
 250              		.cfi_offset 14, -4
 251              		.cfi_offset 6, -8
 252              		.cfi_offset 5, -12
 253              		.cfi_offset 4, -16
 254              		.loc 1 194 0
 255 0002 0646     		mov	r6, r0
 256              		.loc 1 201 0
 257 0004 50F8080C 		ldr	r0, [r0, #-8]
 258              	.LVL26:
 259              		.loc 1 200 0
 260 0008 A6F10804 		sub	r4, r6, #8
 261              	.LVL27:
 262              		.loc 1 202 0
 263 000c 00F10805 		add	r5, r0, #8
 264              	.LVL28:
 265              		.loc 1 203 0
 266 0010 1030     		adds	r0, r0, #16
 267 0012 FFF7FEFF 		bl	chMtxLock
 268              	.LVL29:
 269              		.loc 1 202 0
 270 0016 2B46     		mov	r3, r5
 271              	.LVL30:
 272              	.L26:
 273              		.loc 1 210 0
 274 0018 591B     		subs	r1, r3, r5
 275 001a 4A42     		rsbs	r2, r1, #0
 276 001c 42EB0102 		adc	r2, r2, r1
 277 0020 9C42     		cmp	r4, r3
 278 0022 88BF     		it	hi
 279 0024 42F00102 		orrhi	r2, r2, #1
 280 0028 2AB1     		cbz	r2, .L19
 281              		.loc 1 211 0 discriminator 1
 282 002a 1A68     		ldr	r2, [r3, #0]
ARM GAS  /tmp/cctpb7uZ.s 			page 6


 283              		.loc 1 210 0 discriminator 1
 284 002c 2AB1     		cbz	r2, .L20
 285              		.loc 1 211 0
 286 002e 9442     		cmp	r4, r2
 287 0030 03D3     		bcc	.L20
 288 0032 1346     		mov	r3, r2
 289              	.LVL31:
 290              		.loc 1 229 0
 291 0034 F0E7     		b	.L26
 292              	.LVL32:
 293              	.L19:
 294              		.loc 1 224 0
 295 0036 1B68     		ldr	r3, [r3, #0]
 296              	.LVL33:
 297 0038 EEE7     		b	.L26
 298              	.LVL34:
 299              	.L20:
 300              		.loc 1 216 0
 301 003a 56F8041C 		ldr	r1, [r6, #-4]
 302              		.loc 1 213 0
 303 003e 46F8082C 		str	r2, [r6, #-8]
 304              		.loc 1 214 0
 305 0042 1C60     		str	r4, [r3, #0]
 306              		.loc 1 216 0
 307 0044 01F10802 		add	r2, r1, #8
 308 0048 56F8085C 		ldr	r5, [r6, #-8]
 309              	.LVL35:
 310 004c A018     		adds	r0, r4, r2
 311 004e A842     		cmp	r0, r5
 312 0050 09D0     		beq	.L27
 313              		.loc 1 221 0
 314 0052 5A68     		ldr	r2, [r3, #4]
 315 0054 02F10801 		add	r1, r2, #8
 316 0058 5918     		adds	r1, r3, r1
 317 005a 8C42     		cmp	r4, r1
 318 005c 11D0     		beq	.L28
 319              	.L23:
 320              		.loc 1 233 0
 321 005e BDE87040 		pop	{r4, r5, r6, lr}
 322              		.loc 1 231 0
 323 0062 FFF7FEBF 		b	chMtxUnlock
 324              	.LVL36:
 325              	.L27:
 326              		.loc 1 218 0
 327 0066 4068     		ldr	r0, [r0, #4]
 328              		.loc 1 219 0
 329 0068 A258     		ldr	r2, [r4, r2]
 330              		.loc 1 218 0
 331 006a 0918     		adds	r1, r1, r0
 332 006c 0831     		adds	r1, r1, #8
 333 006e 46F8041C 		str	r1, [r6, #-4]
 334              		.loc 1 219 0
 335 0072 46F8082C 		str	r2, [r6, #-8]
 336              		.loc 1 221 0
 337 0076 5A68     		ldr	r2, [r3, #4]
 338 0078 02F10801 		add	r1, r2, #8
 339 007c 5918     		adds	r1, r3, r1
ARM GAS  /tmp/cctpb7uZ.s 			page 7


 340 007e 8C42     		cmp	r4, r1
 341 0080 EDD1     		bne	.L23
 342              	.L28:
 343              		.loc 1 223 0
 344 0082 56F8040C 		ldr	r0, [r6, #-4]
 345              		.loc 1 224 0
 346 0086 56F8081C 		ldr	r1, [r6, #-8]
 347              		.loc 1 223 0
 348 008a 1218     		adds	r2, r2, r0
 349 008c 0832     		adds	r2, r2, #8
 350              		.loc 1 224 0
 351 008e 83E80600 		stmia	r3, {r1, r2}
 352 0092 E4E7     		b	.L23
 353              		.cfi_endproc
 354              	.LFE10:
 355              		.size	chHeapFree, .-chHeapFree
 356 0094 AFF30080 		.section	.text.chHeapStatus,"ax",%progbits
 356      AFF30080 
 356      AFF30080 
 357              		.align	2
 358              		.p2align 4,,15
 359              		.global	chHeapStatus
 360              		.thumb
 361              		.thumb_func
 362              		.type	chHeapStatus, %function
 363              	chHeapStatus:
 364              	.LFB11:
 365              		.loc 1 250 0
 366              		.cfi_startproc
 367              		@ args = 0, pretend = 0, frame = 0
 368              		@ frame_needed = 0, uses_anonymous_args = 0
 369              	.LVL37:
 370 0000 38B5     		push	{r3, r4, r5, lr}
 371              	.LCFI2:
 372              		.cfi_def_cfa_offset 16
 373              		.cfi_offset 14, -4
 374              		.cfi_offset 5, -8
 375              		.cfi_offset 4, -12
 376              		.cfi_offset 3, -16
 377              		.loc 1 255 0
 378 0002 0D4C     		ldr	r4, .L37
 379              		.loc 1 250 0
 380 0004 0D46     		mov	r5, r1
 381              		.loc 1 255 0
 382 0006 0028     		cmp	r0, #0
 383 0008 18BF     		it	ne
 384 000a 0446     		movne	r4, r0
 385              	.LVL38:
 386              		.loc 1 257 0
 387 000c 04F11000 		add	r0, r4, #16
 388 0010 FFF7FEFF 		bl	chMtxLock
 389              	.LVL39:
 390              		.loc 1 260 0
 391 0014 A368     		ldr	r3, [r4, #8]
 392              		.loc 1 259 0
 393 0016 1A46     		mov	r2, r3
 394              		.loc 1 260 0
ARM GAS  /tmp/cctpb7uZ.s 			page 8


 395 0018 1C46     		mov	r4, r3
 396              	.LVL40:
 397 001a 3BB1     		cbz	r3, .L31
 398 001c 0022     		movs	r2, #0
 399 001e 1446     		mov	r4, r2
 400              	.LVL41:
 401              	.L32:
 402              		.loc 1 261 0 discriminator 2
 403 0020 5968     		ldr	r1, [r3, #4]
 404              		.loc 1 260 0 discriminator 2
 405 0022 1B68     		ldr	r3, [r3, #0]
 406              		.loc 1 261 0 discriminator 2
 407 0024 5218     		adds	r2, r2, r1
 408              	.LVL42:
 409              		.loc 1 260 0 discriminator 2
 410 0026 0134     		adds	r4, r4, #1
 411              	.LVL43:
 412 0028 002B     		cmp	r3, #0
 413 002a F9D1     		bne	.L32
 414              	.LVL44:
 415              	.L31:
 416              		.loc 1 262 0
 417 002c 05B1     		cbz	r5, .L33
 418              		.loc 1 263 0
 419 002e 2A60     		str	r2, [r5, #0]
 420              	.L33:
 421              		.loc 1 265 0
 422 0030 FFF7FEFF 		bl	chMtxUnlock
 423              		.loc 1 267 0
 424 0034 2046     		mov	r0, r4
 425 0036 38BD     		pop	{r3, r4, r5, pc}
 426              	.L38:
 427              		.align	2
 428              	.L37:
 429 0038 00000000 		.word	.LANCHOR0
 430              		.cfi_endproc
 431              	.LFE11:
 432              		.size	chHeapStatus, .-chHeapStatus
 433 003c AFF30080 		.section	.bss.default_heap,"aw",%nobits
 434              		.align	3
 435              		.set	.LANCHOR0,. + 0
 436              		.type	default_heap, %object
 437              		.size	default_heap, 32
 438              	default_heap:
 439 0000 00000000 		.space	32
 439      00000000 
 439      00000000 
 439      00000000 
 439      00000000 
 440              		.text
 441              	.Letext0:
 442              		.file 2 "/opt/paparazzi/arm-multilib/lib/gcc/arm-none-eabi/4.6.2/include/stddef.h"
 443              		.file 3 "/opt/paparazzi/arm-multilib/lib/gcc/arm-none-eabi/4.6.2/../../../../arm-none-eabi/include
 444              		.file 4 "../../os/ports/GCC/ARMCMx/chtypes.h"
 445              		.file 5 "../../os/kernel/include/chlists.h"
 446              		.file 6 "../../os/kernel/include/chthreads.h"
 447              		.file 7 "../../os/ports/GCC/ARMCMx/chcore_v7m.h"
ARM GAS  /tmp/cctpb7uZ.s 			page 9


 448              		.file 8 "../../os/kernel/include/chmtx.h"
 449              		.file 9 "../../os/kernel/include/chmemcore.h"
 450              		.file 10 "../../os/kernel/include/chheap.h"