ARM GAS  /tmp/cczI0x3f.s 			page 1


   1              		.syntax unified
   2              		.cpu cortex-m3
   3              		.fpu softvfp
   4              		.eabi_attribute 20, 1
   5              		.eabi_attribute 21, 1
   6              		.eabi_attribute 23, 3
   7              		.eabi_attribute 24, 1
   8              		.eabi_attribute 25, 1
   9              		.eabi_attribute 26, 1
  10              		.eabi_attribute 30, 2
  11              		.eabi_attribute 18, 4
  12              		.thumb
  13              		.file	"chmtx.c"
  14              		.text
  15              	.Ltext0:
  16              		.cfi_sections	.debug_frame
  17              		.section	.text.chMtxInit,"ax",%progbits
  18              		.align	2
  19              		.p2align 4,,15
  20              		.global	chMtxInit
  21              		.thumb
  22              		.thumb_func
  23              		.type	chMtxInit, %function
  24              	chMtxInit:
  25              	.LFB7:
  26              		.file 1 "../../os/kernel/src/chmtx.c"
  27              		.loc 1 86 0
  28              		.cfi_startproc
  29              		@ args = 0, pretend = 0, frame = 0
  30              		@ frame_needed = 0, uses_anonymous_args = 0
  31              		@ link register save eliminated.
  32              	.LVL0:
  33              		.loc 1 91 0
  34 0000 0023     		movs	r3, #0
  35              		.loc 1 90 0
  36 0002 4060     		str	r0, [r0, #4]
  37 0004 0060     		str	r0, [r0, #0]
  38              		.loc 1 91 0
  39 0006 8360     		str	r3, [r0, #8]
  40              		.loc 1 92 0
  41 0008 7047     		bx	lr
  42              		.cfi_endproc
  43              	.LFE7:
  44              		.size	chMtxInit, .-chMtxInit
  45 000a 00BFAFF3 		.section	.text.chMtxLockS,"ax",%progbits
  45      0080
  46              		.align	2
  47              		.p2align 4,,15
  48              		.global	chMtxLockS
  49              		.thumb
  50              		.thumb_func
  51              		.type	chMtxLockS, %function
  52              	chMtxLockS:
  53              	.LFB9:
  54              		.loc 1 121 0
  55              		.cfi_startproc
  56              		@ args = 0, pretend = 0, frame = 0
ARM GAS  /tmp/cczI0x3f.s 			page 2


  57              		@ frame_needed = 0, uses_anonymous_args = 0
  58              	.LVL1:
  59 0000 F8B5     		push	{r3, r4, r5, r6, r7, lr}
  60              	.LCFI0:
  61              		.cfi_def_cfa_offset 24
  62              		.cfi_offset 14, -4
  63              		.cfi_offset 7, -8
  64              		.cfi_offset 6, -12
  65              		.cfi_offset 5, -16
  66              		.cfi_offset 4, -20
  67              		.cfi_offset 3, -24
  68              		.loc 1 122 0
  69 0002 2F4A     		ldr	r2, .L24
  70              		.loc 1 128 0
  71 0004 8368     		ldr	r3, [r0, #8]
  72              		.loc 1 121 0
  73 0006 0546     		mov	r5, r0
  74              		.loc 1 122 0
  75 0008 9469     		ldr	r4, [r2, #24]
  76              	.LVL2:
  77              		.loc 1 128 0
  78 000a 002B     		cmp	r3, #0
  79 000c 51D0     		beq	.L3
  80              	.LVL3:
  81              	.LBB33:
  82              		.loc 1 135 0 discriminator 1
  83 000e A168     		ldr	r1, [r4, #8]
  84 0010 9A68     		ldr	r2, [r3, #8]
  85              	.LVL4:
  86 0012 9142     		cmp	r1, r2
  87 0014 06D9     		bls	.L4
  88              	.LVL5:
  89              	.L18:
  90              		.loc 1 139 0
  91 0016 1A7F     		ldrb	r2, [r3, #28]	@ zero_extendqisi2
  92              		.loc 1 137 0
  93 0018 9960     		str	r1, [r3, #8]
  94              		.loc 1 139 0
  95 001a 042A     		cmp	r2, #4
  96 001c 31D0     		beq	.L6
  97 001e 052A     		cmp	r2, #5
  98 0020 1CD0     		beq	.L7
  99 0022 92B1     		cbz	r2, .L5
 100              	.LVL6:
 101              	.L4:
 102              		.file 2 "../../os/kernel/include/chinline.h"
 103              		.loc 2 43 0
 104 0024 2B46     		mov	r3, r5
 105              	.LVL7:
 106              	.L14:
 107              	.LBB34:
 108              	.LBB35:
 109              		.loc 2 45 0
 110 0026 1B68     		ldr	r3, [r3, #0]
 111              	.LVL8:
 112              		.loc 2 46 0
 113 0028 9D42     		cmp	r5, r3
ARM GAS  /tmp/cczI0x3f.s 			page 3


 114 002a 03D0     		beq	.L13
 115 002c 9968     		ldr	r1, [r3, #8]
 116 002e A268     		ldr	r2, [r4, #8]
 117 0030 9142     		cmp	r1, r2
 118 0032 F8D2     		bcs	.L14
 119              	.L13:
 120              		.loc 2 48 0
 121 0034 5A68     		ldr	r2, [r3, #4]
 122              	.LBE35:
 123              	.LBE34:
 124              		.loc 1 175 0
 125 0036 0420     		movs	r0, #4
 126              	.LBB37:
 127              	.LBB36:
 128              		.loc 2 47 0
 129 0038 2360     		str	r3, [r4, #0]
 130              		.loc 2 48 0
 131 003a 6260     		str	r2, [r4, #4]
 132              		.loc 2 49 0
 133 003c 1460     		str	r4, [r2, #0]
 134 003e 5C60     		str	r4, [r3, #4]
 135              	.LBE36:
 136              	.LBE37:
 137              		.loc 1 174 0
 138 0040 6562     		str	r5, [r4, #36]
 139              	.LBE33:
 140              		.loc 1 187 0
 141 0042 BDE8F840 		pop	{r3, r4, r5, r6, r7, lr}
 142              	.LBB60:
 143              		.loc 1 175 0
 144 0046 FFF7FEBF 		b	chSchGoSleepS
 145              	.LVL9:
 146              	.L5:
 147              	.LBB38:
 148              	.LBB39:
 149              		.loc 2 75 0
 150 004a 93E80600 		ldmia	r3, {r1, r2}
 151 004e 1160     		str	r1, [r2, #0]
 152              	.LBE39:
 153              	.LBE38:
 154              		.loc 1 167 0
 155 0050 1846     		mov	r0, r3
 156              	.LBB41:
 157              	.LBB40:
 158              		.loc 2 76 0
 159 0052 1B68     		ldr	r3, [r3, #0]
 160              	.LVL10:
 161 0054 5A60     		str	r2, [r3, #4]
 162              	.LBE40:
 163              	.LBE41:
 164              		.loc 1 167 0
 165 0056 FFF7FEFF 		bl	chSchReadyI
 166              	.LVL11:
 167              		.loc 1 168 0
 168 005a E3E7     		b	.L4
 169              	.LVL12:
 170              	.L7:
ARM GAS  /tmp/cczI0x3f.s 			page 4


 171              	.LBB42:
 172              	.LBB43:
 173              		.loc 2 75 0
 174 005c 5868     		ldr	r0, [r3, #4]
 175 005e 1A68     		ldr	r2, [r3, #0]
 176              	.LBE43:
 177              	.LBE42:
 178              		.loc 1 158 0
 179 0060 5E6A     		ldr	r6, [r3, #36]
 180              	.LVL13:
 181              	.LBB46:
 182              	.LBB44:
 183              		.loc 2 75 0
 184 0062 0260     		str	r2, [r0, #0]
 185              		.loc 2 76 0
 186 0064 1F68     		ldr	r7, [r3, #0]
 187              	.LBE44:
 188              	.LBE46:
 189              		.loc 2 43 0
 190 0066 3246     		mov	r2, r6
 191              	.LBB47:
 192              	.LBB45:
 193              		.loc 2 76 0
 194 0068 7860     		str	r0, [r7, #4]
 195              	.LVL14:
 196              	.L12:
 197              	.LBE45:
 198              	.LBE47:
 199              	.LBB48:
 200              	.LBB49:
 201              		.loc 2 45 0
 202 006a 1268     		ldr	r2, [r2, #0]
 203              	.LVL15:
 204              		.loc 2 46 0
 205 006c 9642     		cmp	r6, r2
 206 006e 02D0     		beq	.L11
 207 0070 9068     		ldr	r0, [r2, #8]
 208 0072 8842     		cmp	r0, r1
 209 0074 F9D2     		bcs	.L12
 210              	.L11:
 211              		.loc 2 48 0
 212 0076 5168     		ldr	r1, [r2, #4]
 213              		.loc 2 47 0
 214 0078 1A60     		str	r2, [r3, #0]
 215              		.loc 2 48 0
 216 007a 5960     		str	r1, [r3, #4]
 217              		.loc 2 49 0
 218 007c 0B60     		str	r3, [r1, #0]
 219 007e 5360     		str	r3, [r2, #4]
 220 0080 D0E7     		b	.L4
 221              	.LVL16:
 222              	.L6:
 223              	.LBE49:
 224              	.LBE48:
 225              	.LBB50:
 226              	.LBB51:
 227              		.loc 2 75 0
ARM GAS  /tmp/cczI0x3f.s 			page 5


 228 0082 5868     		ldr	r0, [r3, #4]
 229 0084 1A68     		ldr	r2, [r3, #0]
 230              	.LBE51:
 231              	.LBE50:
 232              		.loc 1 142 0
 233 0086 5E6A     		ldr	r6, [r3, #36]
 234              	.LVL17:
 235              	.LBB54:
 236              	.LBB52:
 237              		.loc 2 75 0
 238 0088 0260     		str	r2, [r0, #0]
 239              		.loc 2 76 0
 240 008a 1F68     		ldr	r7, [r3, #0]
 241              	.LBE52:
 242              	.LBE54:
 243              		.loc 1 142 0
 244 008c 3246     		mov	r2, r6
 245              	.LBB55:
 246              	.LBB53:
 247              		.loc 2 76 0
 248 008e 7860     		str	r0, [r7, #4]
 249              	.LVL18:
 250              	.L9:
 251              	.LBE53:
 252              	.LBE55:
 253              	.LBB56:
 254              	.LBB57:
 255              		.loc 2 45 0
 256 0090 1268     		ldr	r2, [r2, #0]
 257              	.LVL19:
 258              		.loc 2 46 0
 259 0092 9642     		cmp	r6, r2
 260 0094 12D0     		beq	.L15
 261 0096 9068     		ldr	r0, [r2, #8]
 262 0098 8842     		cmp	r0, r1
 263 009a F9D2     		bcs	.L9
 264              	.LVL20:
 265              	.L8:
 266              		.loc 2 48 0
 267 009c 5168     		ldr	r1, [r2, #4]
 268              		.loc 2 47 0
 269 009e 1A60     		str	r2, [r3, #0]
 270              		.loc 2 48 0
 271 00a0 5960     		str	r1, [r3, #4]
 272              		.loc 2 49 0
 273 00a2 0B60     		str	r3, [r1, #0]
 274 00a4 5360     		str	r3, [r2, #4]
 275              	.LBE57:
 276              	.LBE56:
 277              		.loc 1 143 0
 278 00a6 B368     		ldr	r3, [r6, #8]
 279              	.LVL21:
 280              		.loc 1 135 0
 281 00a8 A168     		ldr	r1, [r4, #8]
 282 00aa 9A68     		ldr	r2, [r3, #8]
 283              	.LVL22:
 284 00ac 8A42     		cmp	r2, r1
ARM GAS  /tmp/cczI0x3f.s 			page 6


 285 00ae B2D3     		bcc	.L18
 286 00b0 B8E7     		b	.L4
 287              	.LVL23:
 288              	.L3:
 289              	.LBE60:
 290              		.loc 1 184 0
 291 00b2 E36B     		ldr	r3, [r4, #60]
 292              		.loc 1 183 0
 293 00b4 8460     		str	r4, [r0, #8]
 294              		.loc 1 184 0
 295 00b6 C360     		str	r3, [r0, #12]
 296              		.loc 1 185 0
 297 00b8 E063     		str	r0, [r4, #60]
 298              		.loc 1 187 0
 299 00ba F8BD     		pop	{r3, r4, r5, r6, r7, pc}
 300              	.LVL24:
 301              	.L15:
 302              	.LBB61:
 303              	.LBB59:
 304              	.LBB58:
 305              		.loc 2 45 0
 306 00bc 3246     		mov	r2, r6
 307              	.LVL25:
 308 00be EDE7     		b	.L8
 309              	.L25:
 310              		.align	2
 311              	.L24:
 312 00c0 00000000 		.word	rlist
 313              	.LBE58:
 314              	.LBE59:
 315              	.LBE61:
 316              		.cfi_endproc
 317              	.LFE9:
 318              		.size	chMtxLockS, .-chMtxLockS
 319 00c4 AFF30080 		.section	.text.chMtxLock,"ax",%progbits
 319      AFF30080 
 319      AFF30080 
 320              		.align	2
 321              		.p2align 4,,15
 322              		.global	chMtxLock
 323              		.thumb
 324              		.thumb_func
 325              		.type	chMtxLock, %function
 326              	chMtxLock:
 327              	.LFB8:
 328              		.loc 1 103 0
 329              		.cfi_startproc
 330              		@ args = 0, pretend = 0, frame = 0
 331              		@ frame_needed = 0, uses_anonymous_args = 0
 332              	.LVL26:
 333 0000 08B5     		push	{r3, lr}
 334              	.LCFI1:
 335              		.cfi_def_cfa_offset 8
 336              		.cfi_offset 14, -4
 337              		.cfi_offset 3, -8
 338              	.LBB62:
 339              		.loc 1 105 0
ARM GAS  /tmp/cczI0x3f.s 			page 7


 340 0002 2023     		movs	r3, #32
 341              	.LVL27:
 342              	@ 105 "../../os/kernel/src/chmtx.c" 1
 343 0004 83F31188 		msr     BASEPRI, r3
 344              	@ 0 "" 2
 345              	.LVL28:
 346              		.thumb
 347              	.LBE62:
 348              		.loc 1 107 0
 349 0008 FFF7FEFF 		bl	chMtxLockS
 350              	.LVL29:
 351              	.LBB63:
 352              		.loc 1 109 0
 353 000c 0023     		movs	r3, #0
 354              	.LVL30:
 355              	@ 109 "../../os/kernel/src/chmtx.c" 1
 356 000e 83F31188 		msr     BASEPRI, r3
 357              	@ 0 "" 2
 358              	.LVL31:
 359              		.thumb
 360              	.LBE63:
 361              		.loc 1 110 0
 362 0012 08BD     		pop	{r3, pc}
 363              		.cfi_endproc
 364              	.LFE8:
 365              		.size	chMtxLock, .-chMtxLock
 366 0014 AFF30080 		.section	.text.chMtxTryLock,"ax",%progbits
 366      AFF30080 
 366      AFF30080 
 367              		.align	2
 368              		.p2align 4,,15
 369              		.global	chMtxTryLock
 370              		.thumb
 371              		.thumb_func
 372              		.type	chMtxTryLock, %function
 373              	chMtxTryLock:
 374              	.LFB10:
 375              		.loc 1 206 0
 376              		.cfi_startproc
 377              		@ args = 0, pretend = 0, frame = 0
 378              		@ frame_needed = 0, uses_anonymous_args = 0
 379              		@ link register save eliminated.
 380              	.LVL32:
 381              		.loc 1 206 0
 382 0000 0246     		mov	r2, r0
 383              	.LBB64:
 384              		.loc 1 209 0
 385 0002 2023     		movs	r3, #32
 386              	.LVL33:
 387              	@ 209 "../../os/kernel/src/chmtx.c" 1
 388 0004 83F31188 		msr     BASEPRI, r3
 389              	@ 0 "" 2
 390              	.LVL34:
 391              		.thumb
 392              	.LBE64:
 393              	.LBB65:
 394              	.LBB66:
ARM GAS  /tmp/cczI0x3f.s 			page 8


 395              		.loc 1 239 0
 396 0008 8368     		ldr	r3, [r0, #8]
 397              	.LVL35:
 398              		.loc 1 240 0
 399 000a 0020     		movs	r0, #0
 400              	.LVL36:
 401              		.loc 1 239 0
 402 000c 1BB1     		cbz	r3, .L30
 403              	.L28:
 404              	.LBE66:
 405              	.LBE65:
 406              	.LBB68:
 407              		.loc 1 213 0
 408 000e 0023     		movs	r3, #0
 409              	.LVL37:
 410              	@ 213 "../../os/kernel/src/chmtx.c" 1
 411 0010 83F31188 		msr     BASEPRI, r3
 412              	@ 0 "" 2
 413              	.LVL38:
 414              		.thumb
 415              	.LBE68:
 416              		.loc 1 215 0
 417 0014 7047     		bx	lr
 418              	.LVL39:
 419              	.L30:
 420              	.LBB69:
 421              	.LBB67:
 422              		.loc 1 241 0
 423 0016 044B     		ldr	r3, .L31
 424              		.loc 1 244 0
 425 0018 0120     		movs	r0, #1
 426              		.loc 1 241 0
 427 001a 9B69     		ldr	r3, [r3, #24]
 428              		.loc 1 242 0
 429 001c D96B     		ldr	r1, [r3, #60]
 430              		.loc 1 241 0
 431 001e 9360     		str	r3, [r2, #8]
 432              		.loc 1 242 0
 433 0020 D160     		str	r1, [r2, #12]
 434              		.loc 1 243 0
 435 0022 DA63     		str	r2, [r3, #60]
 436 0024 F3E7     		b	.L28
 437              	.L32:
 438 0026 00BF     		.align	2
 439              	.L31:
 440 0028 00000000 		.word	rlist
 441              	.LBE67:
 442              	.LBE69:
 443              		.cfi_endproc
 444              	.LFE10:
 445              		.size	chMtxTryLock, .-chMtxTryLock
 446 002c AFF30080 		.section	.text.chMtxTryLockS,"ax",%progbits
 447              		.align	2
 448              		.p2align 4,,15
 449              		.global	chMtxTryLockS
 450              		.thumb
 451              		.thumb_func
ARM GAS  /tmp/cczI0x3f.s 			page 9


 452              		.type	chMtxTryLockS, %function
 453              	chMtxTryLockS:
 454              	.LFB11:
 455              		.loc 1 234 0
 456              		.cfi_startproc
 457              		@ args = 0, pretend = 0, frame = 0
 458              		@ frame_needed = 0, uses_anonymous_args = 0
 459              		@ link register save eliminated.
 460              	.LVL40:
 461              		.loc 1 239 0
 462 0000 8268     		ldr	r2, [r0, #8]
 463              		.loc 1 234 0
 464 0002 0346     		mov	r3, r0
 465              		.loc 1 239 0
 466 0004 0AB1     		cbz	r2, .L36
 467              		.loc 1 240 0
 468 0006 0020     		movs	r0, #0
 469              	.LVL41:
 470              		.loc 1 245 0
 471 0008 7047     		bx	lr
 472              	.L36:
 473              		.loc 1 241 0
 474 000a 044A     		ldr	r2, .L37
 475              		.loc 1 244 0
 476 000c 0120     		movs	r0, #1
 477              		.loc 1 241 0
 478 000e 9269     		ldr	r2, [r2, #24]
 479              		.loc 1 242 0
 480 0010 D16B     		ldr	r1, [r2, #60]
 481              		.loc 1 241 0
 482 0012 9A60     		str	r2, [r3, #8]
 483              		.loc 1 242 0
 484 0014 D960     		str	r1, [r3, #12]
 485              		.loc 1 243 0
 486 0016 D363     		str	r3, [r2, #60]
 487              		.loc 1 244 0
 488 0018 7047     		bx	lr
 489              	.L38:
 490 001a 00BF     		.align	2
 491              	.L37:
 492 001c 00000000 		.word	rlist
 493              		.cfi_endproc
 494              	.LFE11:
 495              		.size	chMtxTryLockS, .-chMtxTryLockS
 496              		.section	.text.chMtxUnlock,"ax",%progbits
 497              		.align	2
 498              		.p2align 4,,15
 499              		.global	chMtxUnlock
 500              		.thumb
 501              		.thumb_func
 502              		.type	chMtxUnlock, %function
 503              	chMtxUnlock:
 504              	.LFB12:
 505              		.loc 1 257 0
 506              		.cfi_startproc
 507              		@ args = 0, pretend = 0, frame = 0
 508              		@ frame_needed = 0, uses_anonymous_args = 0
ARM GAS  /tmp/cczI0x3f.s 			page 10


 509              		.loc 1 258 0
 510 0000 154A     		ldr	r2, .L47
 511              		.loc 1 257 0
 512 0002 F8B5     		push	{r3, r4, r5, r6, r7, lr}
 513              	.LCFI2:
 514              		.cfi_def_cfa_offset 24
 515              		.cfi_offset 14, -4
 516              		.cfi_offset 7, -8
 517              		.cfi_offset 6, -12
 518              		.cfi_offset 5, -16
 519              		.cfi_offset 4, -20
 520              		.cfi_offset 3, -24
 521              		.loc 1 258 0
 522 0004 9269     		ldr	r2, [r2, #24]
 523              	.LVL42:
 524              	.LBB70:
 525              		.loc 1 261 0
 526 0006 2023     		movs	r3, #32
 527              	.LVL43:
 528              	@ 261 "../../os/kernel/src/chmtx.c" 1
 529 0008 83F31188 		msr     BASEPRI, r3
 530              	@ 0 "" 2
 531              	.LVL44:
 532              		.thumb
 533              	.LBE70:
 534              		.loc 1 270 0
 535 000c D46B     		ldr	r4, [r2, #60]
 536              	.LVL45:
 537              		.loc 1 273 0
 538 000e 2368     		ldr	r3, [r4, #0]
 539              	.LVL46:
 540              		.loc 1 271 0
 541 0010 E168     		ldr	r1, [r4, #12]
 542              		.loc 1 273 0
 543 0012 A342     		cmp	r3, r4
 544              		.loc 1 271 0
 545 0014 D163     		str	r1, [r2, #60]
 546              		.loc 1 273 0
 547 0016 1CD0     		beq	.L40
 548              	.LBB71:
 549              		.loc 1 278 0
 550 0018 176C     		ldr	r7, [r2, #64]
 551              	.LVL47:
 552              		.loc 1 280 0
 553 001a 49B1     		cbz	r1, .L41
 554              	.LVL48:
 555              	.L45:
 556              		.loc 1 284 0
 557 001c 0868     		ldr	r0, [r1, #0]
 558 001e 8842     		cmp	r0, r1
 559 0020 03D0     		beq	.L42
 560              		.loc 1 284 0 is_stmt 0 discriminator 1
 561 0022 8068     		ldr	r0, [r0, #8]
 562 0024 8742     		cmp	r7, r0
 563 0026 38BF     		it	cc
 564 0028 0746     		movcc	r7, r0
 565              	.LVL49:
ARM GAS  /tmp/cczI0x3f.s 			page 11


 566              	.L42:
 567              		.loc 1 286 0 is_stmt 1
 568 002a C968     		ldr	r1, [r1, #12]
 569              	.LVL50:
 570              		.loc 1 280 0
 571 002c 0029     		cmp	r1, #0
 572 002e F5D1     		bne	.L45
 573              	.L41:
 574              	.LBB72:
 575              	.LBB73:
 576              		.loc 2 62 0
 577 0030 1D68     		ldr	r5, [r3, #0]
 578              	.LBE73:
 579              	.LBE72:
 580              		.loc 1 295 0
 581 0032 DE6B     		ldr	r6, [r3, #60]
 582              		.loc 1 290 0
 583 0034 9760     		str	r7, [r2, #8]
 584              	.LVL51:
 585              		.loc 1 297 0
 586 0036 1846     		mov	r0, r3
 587              	.LBB76:
 588              	.LBB74:
 589              		.loc 2 62 0
 590 0038 2560     		str	r5, [r4, #0]
 591              	.LBE74:
 592              	.LBE76:
 593              		.loc 1 297 0
 594 003a 0021     		movs	r1, #0
 595              	.LVL52:
 596              	.LBB77:
 597              	.LBB75:
 598              		.loc 2 62 0
 599 003c 6C60     		str	r4, [r5, #4]
 600              	.LBE75:
 601              	.LBE77:
 602              		.loc 1 294 0
 603 003e A360     		str	r3, [r4, #8]
 604              		.loc 1 295 0
 605 0040 E660     		str	r6, [r4, #12]
 606              		.loc 1 296 0
 607 0042 DC63     		str	r4, [r3, #60]
 608              		.loc 1 297 0
 609 0044 FFF7FEFF 		bl	chSchWakeupS
 610              	.LVL53:
 611              	.L44:
 612              	.LBE71:
 613              	.LBB78:
 614              		.loc 1 301 0
 615 0048 0023     		movs	r3, #0
 616              	.LVL54:
 617              	@ 301 "../../os/kernel/src/chmtx.c" 1
 618 004a 83F31188 		msr     BASEPRI, r3
 619              	@ 0 "" 2
 620              	.LVL55:
 621              		.thumb
 622              	.LBE78:
ARM GAS  /tmp/cczI0x3f.s 			page 12


 623              		.loc 1 303 0
 624 004e 2046     		mov	r0, r4
 625 0050 F8BD     		pop	{r3, r4, r5, r6, r7, pc}
 626              	.LVL56:
 627              	.L40:
 628              		.loc 1 300 0
 629 0052 0023     		movs	r3, #0
 630 0054 A360     		str	r3, [r4, #8]
 631 0056 F7E7     		b	.L44
 632              	.L48:
 633              		.align	2
 634              	.L47:
 635 0058 00000000 		.word	rlist
 636              		.cfi_endproc
 637              	.LFE12:
 638              		.size	chMtxUnlock, .-chMtxUnlock
 639 005c AFF30080 		.section	.text.chMtxUnlockS,"ax",%progbits
 640              		.align	2
 641              		.p2align 4,,15
 642              		.global	chMtxUnlockS
 643              		.thumb
 644              		.thumb_func
 645              		.type	chMtxUnlockS, %function
 646              	chMtxUnlockS:
 647              	.LFB13:
 648              		.loc 1 317 0
 649              		.cfi_startproc
 650              		@ args = 0, pretend = 0, frame = 0
 651              		@ frame_needed = 0, uses_anonymous_args = 0
 652              		.loc 1 318 0
 653 0000 124B     		ldr	r3, .L57
 654              		.loc 1 317 0
 655 0002 70B5     		push	{r4, r5, r6, lr}
 656              	.LCFI3:
 657              		.cfi_def_cfa_offset 16
 658              		.cfi_offset 14, -4
 659              		.cfi_offset 6, -8
 660              		.cfi_offset 5, -12
 661              		.cfi_offset 4, -16
 662              		.loc 1 318 0
 663 0004 9969     		ldr	r1, [r3, #24]
 664              	.LVL57:
 665              		.loc 1 331 0
 666 0006 CC6B     		ldr	r4, [r1, #60]
 667              	.LVL58:
 668              		.loc 1 334 0
 669 0008 2368     		ldr	r3, [r4, #0]
 670              	.LVL59:
 671              		.loc 1 332 0
 672 000a E268     		ldr	r2, [r4, #12]
 673              		.loc 1 334 0
 674 000c A342     		cmp	r3, r4
 675              		.loc 1 332 0
 676 000e CA63     		str	r2, [r1, #60]
 677              		.loc 1 334 0
 678 0010 18D0     		beq	.L50
 679              	.LBB79:
ARM GAS  /tmp/cczI0x3f.s 			page 13


 680              		.loc 1 339 0
 681 0012 0E6C     		ldr	r6, [r1, #64]
 682              	.LVL60:
 683              		.loc 1 341 0
 684 0014 4AB1     		cbz	r2, .L51
 685              	.LVL61:
 686              	.L55:
 687              		.loc 1 345 0
 688 0016 1068     		ldr	r0, [r2, #0]
 689 0018 9042     		cmp	r0, r2
 690 001a 03D0     		beq	.L52
 691              		.loc 1 345 0 is_stmt 0 discriminator 1
 692 001c 8068     		ldr	r0, [r0, #8]
 693 001e 8642     		cmp	r6, r0
 694 0020 38BF     		it	cc
 695 0022 0646     		movcc	r6, r0
 696              	.LVL62:
 697              	.L52:
 698              		.loc 1 347 0 is_stmt 1
 699 0024 D268     		ldr	r2, [r2, #12]
 700              	.LVL63:
 701              		.loc 1 341 0
 702 0026 002A     		cmp	r2, #0
 703 0028 F5D1     		bne	.L55
 704              	.L51:
 705              	.LBB80:
 706              	.LBB81:
 707              		.loc 2 62 0
 708 002a 1A68     		ldr	r2, [r3, #0]
 709              	.LVL64:
 710              	.LBE81:
 711              	.LBE80:
 712              		.loc 1 354 0
 713 002c DD6B     		ldr	r5, [r3, #60]
 714              		.loc 1 349 0
 715 002e 8E60     		str	r6, [r1, #8]
 716              	.LVL65:
 717              		.loc 1 356 0
 718 0030 1846     		mov	r0, r3
 719              	.LBB83:
 720              	.LBB82:
 721              		.loc 2 62 0
 722 0032 2260     		str	r2, [r4, #0]
 723 0034 5460     		str	r4, [r2, #4]
 724              	.LBE82:
 725              	.LBE83:
 726              		.loc 1 353 0
 727 0036 A360     		str	r3, [r4, #8]
 728              		.loc 1 354 0
 729 0038 E560     		str	r5, [r4, #12]
 730              		.loc 1 355 0
 731 003a DC63     		str	r4, [r3, #60]
 732              		.loc 1 356 0
 733 003c FFF7FEFF 		bl	chSchReadyI
 734              	.LVL66:
 735              	.LBE79:
 736              		.loc 1 361 0
ARM GAS  /tmp/cczI0x3f.s 			page 14


 737 0040 2046     		mov	r0, r4
 738 0042 70BD     		pop	{r4, r5, r6, pc}
 739              	.LVL67:
 740              	.L50:
 741              		.loc 1 359 0
 742 0044 0023     		movs	r3, #0
 743 0046 A360     		str	r3, [r4, #8]
 744              		.loc 1 361 0
 745 0048 2046     		mov	r0, r4
 746 004a 70BD     		pop	{r4, r5, r6, pc}
 747              	.L58:
 748              		.align	2
 749              	.L57:
 750 004c 00000000 		.word	rlist
 751              		.cfi_endproc
 752              	.LFE13:
 753              		.size	chMtxUnlockS, .-chMtxUnlockS
 754              		.section	.text.chMtxUnlockAll,"ax",%progbits
 755              		.align	2
 756              		.p2align 4,,15
 757              		.global	chMtxUnlockAll
 758              		.thumb
 759              		.thumb_func
 760              		.type	chMtxUnlockAll, %function
 761              	chMtxUnlockAll:
 762              	.LFB14:
 763              		.loc 1 374 0
 764              		.cfi_startproc
 765              		@ args = 0, pretend = 0, frame = 0
 766              		@ frame_needed = 0, uses_anonymous_args = 0
 767              		.loc 1 375 0
 768 0000 124A     		ldr	r2, .L66
 769              		.loc 1 374 0
 770 0002 70B5     		push	{r4, r5, r6, lr}
 771              	.LCFI4:
 772              		.cfi_def_cfa_offset 16
 773              		.cfi_offset 14, -4
 774              		.cfi_offset 6, -8
 775              		.cfi_offset 5, -12
 776              		.cfi_offset 4, -16
 777              	.LBB84:
 778              		.loc 1 377 0
 779 0004 2023     		movs	r3, #32
 780              	.LVL68:
 781              	.LBE84:
 782              		.loc 1 375 0
 783 0006 9469     		ldr	r4, [r2, #24]
 784              	.LVL69:
 785              	.LBB85:
 786              		.loc 1 377 0
 787              	@ 377 "../../os/kernel/src/chmtx.c" 1
 788 0008 83F31188 		msr     BASEPRI, r3
 789              	@ 0 "" 2
 790              	.LVL70:
 791              		.thumb
 792              	.LBE85:
 793              		.loc 1 378 0
ARM GAS  /tmp/cczI0x3f.s 			page 15


 794 000c E36B     		ldr	r3, [r4, #60]
 795              	.LVL71:
 796 000e C3B1     		cbz	r3, .L60
 797              	.LBB86:
 798              		.loc 1 390 0
 799 0010 0025     		movs	r5, #0
 800              	.LVL72:
 801              	.L64:
 802              		.loc 1 382 0
 803 0012 1A68     		ldr	r2, [r3, #0]
 804              		.loc 1 381 0
 805 0014 D968     		ldr	r1, [r3, #12]
 806              		.loc 1 382 0
 807 0016 9A42     		cmp	r2, r3
 808              		.loc 1 381 0
 809 0018 E163     		str	r1, [r4, #60]
 810              	.LBB87:
 811              		.loc 1 387 0
 812 001a 1046     		mov	r0, r2
 813              	.LBE87:
 814              		.loc 1 390 0
 815 001c 08BF     		it	eq
 816 001e 9D60     		streq	r5, [r3, #8]
 817              		.loc 1 382 0
 818 0020 08D0     		beq	.L62
 819              	.LVL73:
 820              	.LBB92:
 821              	.LBB88:
 822              	.LBB89:
 823              		.loc 2 62 0
 824 0022 1168     		ldr	r1, [r2, #0]
 825              	.LBE89:
 826              	.LBE88:
 827              		.loc 1 385 0
 828 0024 D66B     		ldr	r6, [r2, #60]
 829              	.LBB91:
 830              	.LBB90:
 831              		.loc 2 62 0
 832 0026 1960     		str	r1, [r3, #0]
 833 0028 4B60     		str	r3, [r1, #4]
 834              	.LBE90:
 835              	.LBE91:
 836              		.loc 1 384 0
 837 002a 9A60     		str	r2, [r3, #8]
 838              		.loc 1 385 0
 839 002c DE60     		str	r6, [r3, #12]
 840              		.loc 1 386 0
 841 002e D363     		str	r3, [r2, #60]
 842              		.loc 1 387 0
 843 0030 FFF7FEFF 		bl	chSchReadyI
 844              	.LVL74:
 845              	.L62:
 846              	.LBE92:
 847              	.LBE86:
 848              		.loc 1 391 0
 849 0034 E36B     		ldr	r3, [r4, #60]
 850 0036 002B     		cmp	r3, #0
ARM GAS  /tmp/cczI0x3f.s 			page 16


 851 0038 EBD1     		bne	.L64
 852              		.loc 1 392 0
 853 003a 236C     		ldr	r3, [r4, #64]
 854 003c A360     		str	r3, [r4, #8]
 855              		.loc 1 393 0
 856 003e FFF7FEFF 		bl	chSchRescheduleS
 857              	.L60:
 858              	.LBB93:
 859              		.loc 1 395 0
 860 0042 0023     		movs	r3, #0
 861              	.LVL75:
 862              	@ 395 "../../os/kernel/src/chmtx.c" 1
 863 0044 83F31188 		msr     BASEPRI, r3
 864              	@ 0 "" 2
 865              	.LVL76:
 866              		.thumb
 867              	.LBE93:
 868              		.loc 1 396 0
 869 0048 70BD     		pop	{r4, r5, r6, pc}
 870              	.L67:
 871 004a 00BF     		.align	2
 872              	.L66:
 873 004c 00000000 		.word	rlist
 874              		.cfi_endproc
 875              	.LFE14:
 876              		.size	chMtxUnlockAll, .-chMtxUnlockAll
 877              		.text
 878              	.Letext0:
 879              		.file 3 "/opt/paparazzi/arm-multilib/lib/gcc/arm-none-eabi/4.6.2/../../../../arm-none-eabi/include
 880              		.file 4 "../../os/ports/GCC/ARMCMx/chtypes.h"
 881              		.file 5 "../../os/kernel/include/chlists.h"
 882              		.file 6 "../../os/kernel/include/chthreads.h"
 883              		.file 7 "../../os/ports/GCC/ARMCMx/chcore_v7m.h"
 884              		.file 8 "../../os/kernel/include/chschd.h"
 885              		.file 9 "../../os/kernel/include/chmtx.h"