ARM GAS  /tmp/ccEpE98v.s 			page 1


   1              		.syntax unified
   2              		.cpu cortex-m3
   3              		.fpu softvfp
   4              		.eabi_attribute 20, 1
   5              		.eabi_attribute 21, 1
   6              		.eabi_attribute 23, 3
   7              		.eabi_attribute 24, 1
   8              		.eabi_attribute 25, 1
   9              		.eabi_attribute 26, 1
  10              		.eabi_attribute 30, 2
  11              		.eabi_attribute 18, 4
  12              		.thumb
  13              		.file	"chsys.c"
  14              		.text
  15              	.Ltext0:
  16              		.cfi_sections	.debug_frame
  17              		.section	.text._idle_thread,"ax",%progbits
  18              		.align	2
  19              		.p2align 4,,15
  20              		.global	_idle_thread
  21              		.thumb
  22              		.thumb_func
  23              		.type	_idle_thread, %function
  24              	_idle_thread:
  25              	.LFB7:
  26              		.file 1 "../../os/kernel/src/chsys.c"
  27              		.loc 1 61 0
  28              		.cfi_startproc
  29              		@ args = 0, pretend = 0, frame = 0
  30              		@ frame_needed = 0, uses_anonymous_args = 0
  31              		@ link register save eliminated.
  32              	.LVL0:
  33              		.loc 1 64 0
  34 0000 024B     		ldr	r3, .L4
  35 0002 034A     		ldr	r2, .L4+4
  36 0004 9B69     		ldr	r3, [r3, #24]
  37 0006 9A61     		str	r2, [r3, #24]
  38              	.L2:
  39 0008 FEE7     		b	.L2
  40              	.L5:
  41 000a 00BF     		.align	2
  42              	.L4:
  43 000c 00000000 		.word	rlist
  44 0010 00000000 		.word	.LC0
  45              		.cfi_endproc
  46              	.LFE7:
  47              		.size	_idle_thread, .-_idle_thread
  48 0014 AFF30080 		.section	.text.chSysInit,"ax",%progbits
  48      AFF30080 
  48      AFF30080 
  49              		.align	2
  50              		.p2align 4,,15
  51              		.global	chSysInit
  52              		.thumb
  53              		.thumb_func
  54              		.type	chSysInit, %function
  55              	chSysInit:
ARM GAS  /tmp/ccEpE98v.s 			page 2


  56              	.LFB8:
  57              		.loc 1 84 0
  58              		.cfi_startproc
  59              		@ args = 0, pretend = 0, frame = 0
  60              		@ frame_needed = 0, uses_anonymous_args = 0
  61 0000 10B5     		push	{r4, lr}
  62              	.LCFI0:
  63              		.cfi_def_cfa_offset 8
  64              		.cfi_offset 14, -4
  65              		.cfi_offset 4, -8
  66 0002 82B0     		sub	sp, sp, #8
  67              	.LCFI1:
  68              		.cfi_def_cfa_offset 16
  69              		.loc 1 90 0
  70 0004 FFF7FEFF 		bl	_port_init
  71              		.loc 1 91 0
  72 0008 FFF7FEFF 		bl	_scheduler_init
  73              		.loc 1 92 0
  74 000c FFF7FEFF 		bl	_vt_init
  75              		.loc 1 94 0
  76 0010 FFF7FEFF 		bl	_core_init
  77              		.loc 1 97 0
  78 0014 FFF7FEFF 		bl	_heap_init
  79              		.loc 1 104 0
  80 0018 40F20000 		movw	r0, #:lower16:.LANCHOR0
  81 001c 4021     		movs	r1, #64
  82 001e C0F20000 		movt	r0, #:upper16:.LANCHOR0
  83 0022 FFF7FEFF 		bl	_thread_init
  84 0026 40F20001 		movw	r1, #:lower16:rlist
  85 002a C0F20001 		movt	r1, #:upper16:rlist
  86 002e 8861     		str	r0, [r1, #24]
  87              		.loc 1 105 0
  88 0030 0122     		movs	r2, #1
  89 0032 0277     		strb	r2, [r0, #28]
  90              	.LBB2:
  91              		.loc 1 111 0
  92 0034 0023     		movs	r3, #0
  93              	.LVL1:
  94              	@ 111 "../../os/kernel/src/chsys.c" 1
  95 0036 83F31188 		msr     BASEPRI, r3                    
  96 003a 62B6     		cpsie   i
  97              	@ 0 "" 2
  98              	.LVL2:
  99              		.thumb
 100              	.LBE2:
 101              		.loc 1 115 0
 102 003c 8969     		ldr	r1, [r1, #24]
 103              		.loc 1 121 0
 104 003e 1C46     		mov	r4, r3
 105              		.loc 1 115 0
 106 0040 40F20003 		movw	r3, #:lower16:ch_debug
 107              	.LVL3:
 108 0044 C0F20003 		movt	r3, #:upper16:ch_debug
 109 0048 8B61     		str	r3, [r1, #24]
 110              		.loc 1 121 0
 111 004a 40F20000 		movw	r0, #:lower16:.LANCHOR1
 112 004e 40F20003 		movw	r3, #:lower16:_idle_thread
ARM GAS  /tmp/ccEpE98v.s 			page 3


 113 0052 C021     		movs	r1, #192
 114 0054 C0F20003 		movt	r3, #:upper16:_idle_thread
 115 0058 C0F20000 		movt	r0, #:upper16:.LANCHOR1
 116 005c 0094     		str	r4, [sp, #0]
 117              	.LVL4:
 118 005e FFF7FEFF 		bl	chThdCreateStatic
 119              		.loc 1 124 0
 120 0062 02B0     		add	sp, sp, #8
 121 0064 10BD     		pop	{r4, pc}
 122              		.cfi_endproc
 123              	.LFE8:
 124              		.size	chSysInit, .-chSysInit
 125 0066 00BFAFF3 		.section	.text.chSysTimerHandlerI,"ax",%progbits
 125      0080AFF3 
 125      0080
 126              		.align	2
 127              		.p2align 4,,15
 128              		.global	chSysTimerHandlerI
 129              		.thumb
 130              		.thumb_func
 131              		.type	chSysTimerHandlerI, %function
 132              	chSysTimerHandlerI:
 133              	.LFB9:
 134              		.loc 1 137 0
 135              		.cfi_startproc
 136              		@ args = 0, pretend = 0, frame = 0
 137              		@ frame_needed = 0, uses_anonymous_args = 0
 138 0000 38B5     		push	{r3, r4, r5, lr}
 139              	.LCFI2:
 140              		.cfi_def_cfa_offset 16
 141              		.cfi_offset 14, -4
 142              		.cfi_offset 5, -8
 143              		.cfi_offset 4, -12
 144              		.cfi_offset 3, -16
 145              		.loc 1 143 0
 146 0002 134B     		ldr	r3, .L13
 147 0004 9B69     		ldr	r3, [r3, #24]
 148 0006 DA7F     		ldrb	r2, [r3, #31]	@ zero_extendqisi2
 149 0008 0AB1     		cbz	r2, .L8
 150              		.loc 1 145 0
 151 000a 013A     		subs	r2, r2, #1
 152 000c DA77     		strb	r2, [r3, #31]
 153              	.L8:
 154              		.loc 1 148 0
 155 000e 1A6A     		ldr	r2, [r3, #32]
 156              		.loc 1 150 0
 157 0010 104C     		ldr	r4, .L13+4
 158              		.loc 1 148 0
 159 0012 0132     		adds	r2, r2, #1
 160 0014 1A62     		str	r2, [r3, #32]
 161              		.loc 1 150 0
 162 0016 E368     		ldr	r3, [r4, #12]
 163 0018 2168     		ldr	r1, [r4, #0]
 164 001a 0133     		adds	r3, r3, #1
 165 001c A142     		cmp	r1, r4
 166 001e E360     		str	r3, [r4, #12]
 167 0020 14D0     		beq	.L7
ARM GAS  /tmp/ccEpE98v.s 			page 4


 168              	.LBB3:
 169              		.loc 1 150 0 is_stmt 0 discriminator 1
 170 0022 8D68     		ldr	r5, [r1, #8]
 171 0024 013D     		subs	r5, r5, #1
 172 0026 8D60     		str	r5, [r1, #8]
 173              	.LVL5:
 174 0028 85B9     		cbnz	r5, .L7
 175              	.LVL6:
 176              	.L11:
 177              	.LBB4:
 178              		.loc 1 150 0 discriminator 3
 179 002a 0B68     		ldr	r3, [r1, #0]
 180 002c CA68     		ldr	r2, [r1, #12]
 181              	.LVL7:
 182 002e 5C60     		str	r4, [r3, #4]
 183 0030 2360     		str	r3, [r4, #0]
 184 0032 CD60     		str	r5, [r1, #12]
 185              	.LBB5:
 186 0034 0023     		movs	r3, #0
 187              	.LVL8:
 188              	@ 150 "../../os/kernel/src/chsys.c" 1
 189 0036 83F31188 		msr     BASEPRI, r3
 190              	@ 0 "" 2
 191              	.LVL9:
 192              		.thumb
 193              	.LBE5:
 194 003a 0869     		ldr	r0, [r1, #16]
 195 003c 9047     		blx	r2
 196              	.LVL10:
 197              	.LBB6:
 198 003e 2023     		movs	r3, #32
 199              	.LVL11:
 200              	@ 150 "../../os/kernel/src/chsys.c" 1
 201 0040 83F31188 		msr     BASEPRI, r3
 202              	@ 0 "" 2
 203              	.LVL12:
 204              		.thumb
 205              	.LBE6:
 206              	.LBE4:
 207 0044 2168     		ldr	r1, [r4, #0]
 208              	.LVL13:
 209 0046 8B68     		ldr	r3, [r1, #8]
 210              	.LVL14:
 211 0048 002B     		cmp	r3, #0
 212 004a EED0     		beq	.L11
 213              	.LVL15:
 214              	.L7:
 215 004c 38BD     		pop	{r3, r4, r5, pc}
 216              	.L14:
 217 004e 00BF     		.align	2
 218              	.L13:
 219 0050 00000000 		.word	rlist
 220 0054 00000000 		.word	vtlist
 221              	.LBE3:
 222              		.cfi_endproc
 223              	.LFE9:
 224              		.size	chSysTimerHandlerI, .-chSysTimerHandlerI
ARM GAS  /tmp/ccEpE98v.s 			page 5


 225              		.global	_idle_thread_wa
 226 0058 AFF30080 		.section	.bss.mainthread.1984,"aw",%nobits
 226      AFF30080 
 227              		.align	2
 228              		.set	.LANCHOR0,. + 0
 229              		.type	mainthread.1984, %object
 230              		.size	mainthread.1984, 72
 231              	mainthread.1984:
 232 0000 00000000 		.space	72
 232      00000000 
 232      00000000 
 232      00000000 
 232      00000000 
 233              		.section	.rodata.str1.4,"aMS",%progbits,1
 234              		.align	2
 235              	.LC0:
 236 0000 69646C65 		.ascii	"idle\000"
 236      00
 237 0005 000000   		.section	.bss._idle_thread_wa,"aw",%nobits
 238              		.align	3
 239              		.set	.LANCHOR1,. + 0
 240              		.type	_idle_thread_wa, %object
 241              		.size	_idle_thread_wa, 192
 242              	_idle_thread_wa:
 243 0000 00000000 		.space	192
 243      00000000 
 243      00000000 
 243      00000000 
 243      00000000 
 244              		.text
 245              	.Letext0:
 246              		.file 2 "/opt/paparazzi/arm-multilib/lib/gcc/arm-none-eabi/4.6.2/../../../../arm-none-eabi/include
 247              		.file 3 "../../os/ports/GCC/ARMCMx/chtypes.h"
 248              		.file 4 "../../os/kernel/include/chlists.h"
 249              		.file 5 "../../os/kernel/include/chthreads.h"
 250              		.file 6 "../../os/ports/GCC/ARMCMx/chcore_v7m.h"
 251              		.file 7 "../../os/kernel/include/chvt.h"
 252              		.file 8 "../../os/kernel/include/chschd.h"
 253              		.file 9 "../../os/kernel/include/chmtx.h"
 254              		.file 10 "../../os/kernel/include/chregistry.h"
 255              		.file 11 "../../os/kernel/include/ch.h"