ARM GAS  /tmp/cczSZQkm.s 			page 1


   1              		.syntax unified
   2              		.cpu cortex-m3
   3              		.fpu softvfp
   4              		.eabi_attribute 20, 1
   5              		.eabi_attribute 21, 1
   6              		.eabi_attribute 23, 3
   7              		.eabi_attribute 24, 1
   8              		.eabi_attribute 25, 1
   9              		.eabi_attribute 26, 1
  10              		.eabi_attribute 30, 2
  11              		.eabi_attribute 18, 4
  12              		.thumb
  13              		.file	"pal.c"
  14              		.text
  15              	.Ltext0:
  16              		.cfi_sections	.debug_frame
  17              		.section	.text.palReadBus,"ax",%progbits
  18              		.align	2
  19              		.p2align 4,,15
  20              		.global	palReadBus
  21              		.thumb
  22              		.thumb_func
  23              		.type	palReadBus, %function
  24              	palReadBus:
  25              	.LFB63:
  26              		.file 1 "../../os/hal/src/pal.c"
  27              		.loc 1 77 0
  28              		.cfi_startproc
  29              		@ args = 0, pretend = 0, frame = 0
  30              		@ frame_needed = 0, uses_anonymous_args = 0
  31              		@ link register save eliminated.
  32              	.LVL0:
  33              		.loc 1 82 0
  34 0000 0368     		ldr	r3, [r0, #0]
  35 0002 8268     		ldr	r2, [r0, #8]
  36 0004 9968     		ldr	r1, [r3, #8]
  37 0006 4368     		ldr	r3, [r0, #4]
  38 0008 31FA02F0 		lsrs	r0, r1, r2
  39              	.LVL1:
  40              		.loc 1 83 0
  41 000c 1840     		ands	r0, r0, r3
  42 000e 7047     		bx	lr
  43              		.cfi_endproc
  44              	.LFE63:
  45              		.size	palReadBus, .-palReadBus
  46              		.section	.text.palWriteBus,"ax",%progbits
  47              		.align	2
  48              		.p2align 4,,15
  49              		.global	palWriteBus
  50              		.thumb
  51              		.thumb_func
  52              		.type	palWriteBus, %function
  53              	palWriteBus:
  54              	.LFB64:
  55              		.loc 1 103 0
  56              		.cfi_startproc
  57              		@ args = 0, pretend = 0, frame = 0
ARM GAS  /tmp/cczSZQkm.s 			page 2


  58              		@ frame_needed = 0, uses_anonymous_args = 0
  59              		@ link register save eliminated.
  60              	.LVL2:
  61              		.loc 1 108 0
  62 0000 4268     		ldr	r2, [r0, #4]
  63 0002 8368     		ldr	r3, [r0, #8]
  64              		.loc 1 103 0
  65 0004 30B4     		push	{r4, r5}
  66              	.LCFI0:
  67              		.cfi_def_cfa_offset 8
  68              		.cfi_offset 5, -4
  69              		.cfi_offset 4, -8
  70              		.loc 1 108 0
  71 0006 22EA0105 		bic	r5, r2, r1
  72 000a 03F11004 		add	r4, r3, #16
  73 000e 0A40     		ands	r2, r2, r1
  74 0010 15FA04F4 		lsls	r4, r5, r4
  75 0014 12FA03F3 		lsls	r3, r2, r3
  76 0018 0068     		ldr	r0, [r0, #0]
  77              	.LVL3:
  78 001a 2343     		orrs	r3, r3, r4
  79 001c 0361     		str	r3, [r0, #16]
  80              		.loc 1 109 0
  81 001e 30BC     		pop	{r4, r5}
  82 0020 7047     		bx	lr
  83              		.cfi_endproc
  84              	.LFE64:
  85              		.size	palWriteBus, .-palWriteBus
  86 0022 00BFAFF3 		.section	.text.palSetBusMode,"ax",%progbits
  86      0080AFF3 
  86      0080AFF3 
  86      0080
  87              		.align	2
  88              		.p2align 4,,15
  89              		.global	palSetBusMode
  90              		.thumb
  91              		.thumb_func
  92              		.type	palSetBusMode, %function
  93              	palSetBusMode:
  94              	.LFB65:
  95              		.loc 1 127 0
  96              		.cfi_startproc
  97              		@ args = 0, pretend = 0, frame = 0
  98              		@ frame_needed = 0, uses_anonymous_args = 0
  99              		@ link register save eliminated.
 100              	.LVL4:
 101              		.loc 1 132 0
 102 0000 8368     		ldr	r3, [r0, #8]
 103              		.loc 1 127 0
 104 0002 10B4     		push	{r4}
 105              	.LCFI1:
 106              		.cfi_def_cfa_offset 4
 107              		.cfi_offset 4, -4
 108              		.loc 1 132 0
 109 0004 4468     		ldr	r4, [r0, #4]
 110              		.loc 1 127 0
 111 0006 0A46     		mov	r2, r1
ARM GAS  /tmp/cczSZQkm.s 			page 3


 112              		.loc 1 132 0
 113 0008 14FA03F1 		lsls	r1, r4, r3
 114              	.LVL5:
 115 000c 0068     		ldr	r0, [r0, #0]
 116              	.LVL6:
 117              		.loc 1 133 0
 118 000e 10BC     		pop	{r4}
 119              		.loc 1 132 0
 120 0010 FFF7FEBF 		b	_pal_lld_setgroupmode
 121              	.LVL7:
 122              		.cfi_endproc
 123              	.LFE65:
 124              		.size	palSetBusMode, .-palSetBusMode
 125 0014 AFF30080 		.text
 125      AFF30080 
 125      AFF30080 
 126              	.Letext0:
 127              		.file 2 "/opt/paparazzi/arm-multilib/lib/gcc/arm-none-eabi/4.6.2/../../../../arm-none-eabi/include
 128              		.file 3 "../../os/hal/platforms/STM32F1xx/stm32f10x.h"
 129              		.file 4 "../../os/hal/platforms/STM32/GPIOv1/pal_lld.h"
 130              		.file 5 "../../os/hal/include/pal.h"
 131              		.file 6 "../../os/ports/common/ARMCMx/CMSIS/include/core_cm3.h"