ARM GAS  /tmp/cc6uzPxP.s 			page 1


   1              		.syntax unified
   2              		.cpu cortex-m3
   3              		.fpu softvfp
   4              		.eabi_attribute 20, 1
   5              		.eabi_attribute 21, 1
   6              		.eabi_attribute 23, 3
   7              		.eabi_attribute 24, 1
   8              		.eabi_attribute 25, 1
   9              		.eabi_attribute 26, 1
  10              		.eabi_attribute 30, 2
  11              		.eabi_attribute 18, 4
  12              		.thumb
  13              		.file	"serial_lld.c"
  14              		.text
  15              	.Ltext0:
  16              		.cfi_sections	.debug_frame
  17              		.section	.text.notify4,"ax",%progbits
  18              		.align	2
  19              		.p2align 4,,15
  20              		.thumb
  21              		.thumb_func
  22              		.type	notify4, %function
  23              	notify4:
  24              	.LFB67:
  25              		.file 1 "../../os/hal/platforms/STM32/USARTv1/serial_lld.c"
  26              		.loc 1 226 0
  27              		.cfi_startproc
  28              		@ args = 0, pretend = 0, frame = 0
  29              		@ frame_needed = 0, uses_anonymous_args = 0
  30              		@ link register save eliminated.
  31              	.LVL0:
  32              		.loc 1 229 0
  33 0000 4FF49843 		mov	r3, #19456
  34 0004 C4F20003 		movt	r3, 16384
  35 0008 9A89     		ldrh	r2, [r3, #12]
  36 000a 92B2     		uxth	r2, r2
  37 000c 42F08002 		orr	r2, r2, #128
  38 0010 9A81     		strh	r2, [r3, #12]	@ movhi
  39              		.loc 1 230 0
  40 0012 7047     		bx	lr
  41              		.cfi_endproc
  42              	.LFE67:
  43              		.size	notify4, .-notify4
  44 0014 AFF30080 		.section	.text.Vector110,"ax",%progbits
  44      AFF30080 
  44      AFF30080 
  45              		.align	2
  46              		.p2align 4,,15
  47              		.global	Vector110
  48              		.thumb
  49              		.thumb_func
  50              		.type	Vector110, %function
  51              	Vector110:
  52              	.LFB68:
  53              		.loc 1 319 0
  54              		.cfi_startproc
  55              		@ args = 0, pretend = 0, frame = 0
ARM GAS  /tmp/cc6uzPxP.s 			page 2


  56              		@ frame_needed = 0, uses_anonymous_args = 0
  57              	.LVL1:
  58 0000 F8B5     		push	{r3, r4, r5, r6, r7, lr}
  59              	.LCFI0:
  60              		.cfi_def_cfa_offset 24
  61              		.cfi_offset 14, -4
  62              		.cfi_offset 7, -8
  63              		.cfi_offset 6, -12
  64              		.cfi_offset 5, -16
  65              		.cfi_offset 4, -20
  66              		.cfi_offset 3, -24
  67              	.LBB47:
  68              	.LBB48:
  69              		.loc 1 157 0
  70 0002 3D4B     		ldr	r3, .L20
  71 0004 5D6F     		ldr	r5, [r3, #116]
  72              	.LVL2:
  73              		.loc 1 158 0
  74 0006 AE89     		ldrh	r6, [r5, #12]
  75              		.loc 1 159 0
  76 0008 2C88     		ldrh	r4, [r5, #0]
  77              		.loc 1 160 0
  78 000a AF88     		ldrh	r7, [r5, #4]
  79              		.loc 1 159 0
  80 000c A4B2     		uxth	r4, r4
  81              		.loc 1 163 0
  82 000e 2207     		lsls	r2, r4, #28
  83              		.loc 1 158 0
  84 0010 B6B2     		uxth	r6, r6
  85              	.LVL3:
  86              		.loc 1 160 0
  87 0012 BFB2     		uxth	r7, r7
  88              	.LVL4:
  89              		.loc 1 163 0
  90 0014 18D0     		beq	.L3
  91              	.LVL5:
  92              	.LBB49:
  93              	.LBB50:
  94              		.loc 1 138 0
  95 0016 14F00801 		ands	r1, r4, #8
  96              		.loc 1 139 0
  97 001a 18BF     		it	ne
  98 001c 8021     		movne	r1, #128
  99              	.LVL6:
 100              		.loc 1 140 0
 101 001e E307     		lsls	r3, r4, #31
 102              		.loc 1 141 0
 103 0020 48BF     		it	mi
 104 0022 41F02001 		orrmi	r1, r1, #32
 105              	.LVL7:
 106              		.loc 1 142 0
 107 0026 A007     		lsls	r0, r4, #30
 108              		.loc 1 143 0
 109 0028 48BF     		it	mi
 110 002a 41F04001 		orrmi	r1, r1, #64
 111              	.LVL8:
 112              		.loc 1 144 0
ARM GAS  /tmp/cc6uzPxP.s 			page 3


 113 002e 6207     		lsls	r2, r4, #29
 114              		.loc 1 145 0
 115 0030 48BF     		it	mi
 116 0032 41F48071 		orrmi	r1, r1, #256
 117              	.LVL9:
 118              	.LBB51:
 119              		.loc 1 146 0
 120 0036 2023     		movs	r3, #32
 121              	.LVL10:
 122              	@ 146 "../../os/hal/platforms/STM32/USARTv1/serial_lld.c" 1
 123 0038 83F31188 		msr     BASEPRI, r3
 124              	@ 0 "" 2
 125              	.LVL11:
 126              		.thumb
 127              	.LBE51:
 128              		.loc 1 147 0
 129 003c 2F48     		ldr	r0, .L20+4
 130 003e FFF7FEFF 		bl	chEvtBroadcastFlagsI
 131              	.LVL12:
 132              	.LBB52:
 133              		.loc 1 148 0
 134 0042 0023     		movs	r3, #0
 135              	.LVL13:
 136              	@ 148 "../../os/hal/platforms/STM32/USARTv1/serial_lld.c" 1
 137 0044 83F31188 		msr     BASEPRI, r3
 138              	@ 0 "" 2
 139              	.LVL14:
 140              		.thumb
 141              	.L3:
 142              	.LBE52:
 143              	.LBE50:
 144              	.LBE49:
 145              		.loc 1 166 0
 146 0048 E305     		lsls	r3, r4, #23
 147              	.LVL15:
 148 004a 2AD4     		bmi	.L16
 149              	.L8:
 150              		.loc 1 173 0
 151 004c A006     		lsls	r0, r4, #26
 152 004e 1DD4     		bmi	.L17
 153              	.LVL16:
 154              	.L9:
 155              		.loc 1 179 0
 156 0050 3106     		lsls	r1, r6, #24
 157 0052 01D5     		bpl	.L10
 158 0054 2206     		lsls	r2, r4, #24
 159 0056 36D4     		bmi	.L18
 160              	.LVL17:
 161              	.L10:
 162              		.loc 1 192 0
 163 0058 6306     		lsls	r3, r4, #25
 164              	.LVL18:
 165 005a 13D5     		bpl	.L13
 166              	.LBB53:
 167              		.loc 1 193 0
 168 005c 2023     		movs	r3, #32
 169              	.LVL19:
ARM GAS  /tmp/cc6uzPxP.s 			page 4


 170              	@ 193 "../../os/hal/platforms/STM32/USARTv1/serial_lld.c" 1
 171 005e 83F31188 		msr     BASEPRI, r3
 172              	@ 0 "" 2
 173              	.LVL20:
 174              		.thumb
 175              	.LBE53:
 176              		.loc 1 194 0
 177 0062 2648     		ldr	r0, .L20+4
 178 0064 1021     		movs	r1, #16
 179 0066 FFF7FEFF 		bl	chEvtBroadcastFlagsI
 180              	.LVL21:
 181              	.LBB54:
 182              		.loc 1 195 0
 183 006a 0023     		movs	r3, #0
 184              	.LVL22:
 185              	@ 195 "../../os/hal/platforms/STM32/USARTv1/serial_lld.c" 1
 186 006c 83F31188 		msr     BASEPRI, r3
 187              	@ 0 "" 2
 188              	.LVL23:
 189              		.thumb
 190              	.LBE54:
 191              		.loc 1 196 0
 192 0070 4FF6BF73 		movw	r3, #65471
 193              	.LVL24:
 194 0074 3340     		ands	r3, r3, r6
 195 0076 AB81     		strh	r3, [r5, #12]	@ movhi
 196              		.loc 1 197 0
 197 0078 2B88     		ldrh	r3, [r5, #0]
 198 007a 23F04003 		bic	r3, r3, #64
 199 007e 1B04     		lsls	r3, r3, #16
 200 0080 1B0C     		lsrs	r3, r3, #16
 201 0082 2B80     		strh	r3, [r5, #0]	@ movhi
 202              	.L13:
 203              	.LBE48:
 204              	.LBE47:
 205              		.loc 1 326 0
 206 0084 BDE8F840 		pop	{r3, r4, r5, r6, r7, lr}
 207              		.loc 1 325 0
 208 0088 FFF7FEBF 		b	_port_irq_epilogue
 209              	.L17:
 210              	.LBB63:
 211              	.LBB62:
 212              	.LBB55:
 213              		.loc 1 174 0
 214 008c 2023     		movs	r3, #32
 215              	.LVL25:
 216              	@ 174 "../../os/hal/platforms/STM32/USARTv1/serial_lld.c" 1
 217 008e 83F31188 		msr     BASEPRI, r3
 218              	@ 0 "" 2
 219              	.LVL26:
 220              		.thumb
 221              	.LBE55:
 222              		.loc 1 175 0
 223 0092 1948     		ldr	r0, .L20
 224 0094 F9B2     		uxtb	r1, r7
 225 0096 FFF7FEFF 		bl	sdIncomingDataI
 226              	.LVL27:
ARM GAS  /tmp/cc6uzPxP.s 			page 5


 227              	.LBB56:
 228              		.loc 1 176 0
 229 009a 0023     		movs	r3, #0
 230              	@ 176 "../../os/hal/platforms/STM32/USARTv1/serial_lld.c" 1
 231 009c 83F31188 		msr     BASEPRI, r3
 232              	@ 0 "" 2
 233              	.LVL28:
 234              		.thumb
 235 00a0 D6E7     		b	.L9
 236              	.LVL29:
 237              	.L16:
 238              	.LBE56:
 239              	.LBB57:
 240              		.loc 1 167 0
 241 00a2 2023     		movs	r3, #32
 242              	.LVL30:
 243              	@ 167 "../../os/hal/platforms/STM32/USARTv1/serial_lld.c" 1
 244 00a4 83F31188 		msr     BASEPRI, r3
 245              	@ 0 "" 2
 246              	.LVL31:
 247              		.thumb
 248              	.LBE57:
 249              		.loc 1 168 0
 250 00a8 1448     		ldr	r0, .L20+4
 251 00aa 4FF40071 		mov	r1, #512
 252 00ae FFF7FEFF 		bl	chEvtBroadcastFlagsI
 253              	.LVL32:
 254              	.LBB58:
 255              		.loc 1 169 0
 256 00b2 0023     		movs	r3, #0
 257              	.LVL33:
 258              	@ 169 "../../os/hal/platforms/STM32/USARTv1/serial_lld.c" 1
 259 00b4 83F31188 		msr     BASEPRI, r3
 260              	@ 0 "" 2
 261              	.LVL34:
 262              		.thumb
 263              	.LBE58:
 264              		.loc 1 170 0
 265 00b8 2B88     		ldrh	r3, [r5, #0]
 266              	.LVL35:
 267 00ba 23F48073 		bic	r3, r3, #256
 268 00be 1B04     		lsls	r3, r3, #16
 269 00c0 1B0C     		lsrs	r3, r3, #16
 270 00c2 2B80     		strh	r3, [r5, #0]	@ movhi
 271 00c4 C2E7     		b	.L8
 272              	.LVL36:
 273              	.L18:
 274              	.LBB59:
 275              	.LBB60:
 276              		.loc 1 181 0
 277 00c6 2023     		movs	r3, #32
 278              	.LVL37:
 279              	@ 181 "../../os/hal/platforms/STM32/USARTv1/serial_lld.c" 1
 280 00c8 83F31188 		msr     BASEPRI, r3
 281              	@ 0 "" 2
 282              	.LVL38:
 283              		.thumb
ARM GAS  /tmp/cc6uzPxP.s 			page 6


 284              	.LBE60:
 285              		.loc 1 182 0
 286 00cc 0C48     		ldr	r0, .L20+8
 287 00ce FFF7FEFF 		bl	chOQGetI
 288              	.LVL39:
 289              		.loc 1 183 0
 290 00d2 0028     		cmp	r0, #0
 291              		.loc 1 188 0
 292 00d4 A4BF     		itt	ge
 293 00d6 80B2     		uxthge	r0, r0
 294              	.LVL40:
 295 00d8 A880     		strhge	r0, [r5, #4]	@ movhi
 296              		.loc 1 183 0
 297 00da 03DB     		blt	.L19
 298              	.L12:
 299              	.LBB61:
 300              		.loc 1 189 0
 301 00dc 0023     		movs	r3, #0
 302              	@ 189 "../../os/hal/platforms/STM32/USARTv1/serial_lld.c" 1
 303 00de 83F31188 		msr     BASEPRI, r3
 304              	@ 0 "" 2
 305              	.LVL41:
 306              		.thumb
 307 00e2 B9E7     		b	.L10
 308              	.LVL42:
 309              	.L19:
 310              	.LBE61:
 311              		.loc 1 184 0
 312 00e4 0548     		ldr	r0, .L20+4
 313 00e6 0821     		movs	r1, #8
 314 00e8 FFF7FEFF 		bl	chEvtBroadcastFlagsI
 315              		.loc 1 185 0
 316 00ec 26F0C003 		bic	r3, r6, #192
 317 00f0 43F04003 		orr	r3, r3, #64
 318 00f4 AB81     		strh	r3, [r5, #12]	@ movhi
 319 00f6 F1E7     		b	.L12
 320              	.L21:
 321              		.align	2
 322              	.L20:
 323 00f8 00000000 		.word	.LANCHOR0
 324 00fc 04000000 		.word	.LANCHOR0+4
 325 0100 30000000 		.word	.LANCHOR0+48
 326              	.LBE59:
 327              	.LBE62:
 328              	.LBE63:
 329              		.cfi_endproc
 330              	.LFE68:
 331              		.size	Vector110, .-Vector110
 332 0104 AFF30080 		.section	.text.sd_lld_init,"ax",%progbits
 332      AFF30080 
 332      AFF30080 
 333              		.align	2
 334              		.p2align 4,,15
 335              		.global	sd_lld_init
 336              		.thumb
 337              		.thumb_func
 338              		.type	sd_lld_init, %function
ARM GAS  /tmp/cc6uzPxP.s 			page 7


 339              	sd_lld_init:
 340              	.LFB69:
 341              		.loc 1 376 0
 342              		.cfi_startproc
 343              		@ args = 0, pretend = 0, frame = 0
 344              		@ frame_needed = 0, uses_anonymous_args = 0
 345 0000 10B5     		push	{r4, lr}
 346              	.LCFI1:
 347              		.cfi_def_cfa_offset 8
 348              		.cfi_offset 14, -4
 349              		.cfi_offset 4, -8
 350              		.loc 1 394 0
 351 0002 40F20004 		movw	r4, #:lower16:.LANCHOR0
 352 0006 C0F20004 		movt	r4, #:upper16:.LANCHOR0
 353 000a 40F20002 		movw	r2, #:lower16:notify4
 354 000e 2046     		mov	r0, r4
 355 0010 0021     		movs	r1, #0
 356 0012 C0F20002 		movt	r2, #:upper16:notify4
 357 0016 FFF7FEFF 		bl	sdObjectInit
 358              		.loc 1 395 0
 359 001a 4FF49843 		mov	r3, #19456
 360 001e C4F20003 		movt	r3, 16384
 361 0022 6367     		str	r3, [r4, #116]
 362              		.loc 1 407 0
 363 0024 10BD     		pop	{r4, pc}
 364              		.cfi_endproc
 365              	.LFE69:
 366              		.size	sd_lld_init, .-sd_lld_init
 367 0026 00BFAFF3 		.section	.text.sd_lld_start,"ax",%progbits
 367      0080AFF3 
 367      0080
 368              		.align	2
 369              		.p2align 4,,15
 370              		.global	sd_lld_start
 371              		.thumb
 372              		.thumb_func
 373              		.type	sd_lld_start, %function
 374              	sd_lld_start:
 375              	.LFB70:
 376              		.loc 1 419 0
 377              		.cfi_startproc
 378              		@ args = 0, pretend = 0, frame = 0
 379              		@ frame_needed = 0, uses_anonymous_args = 0
 380              	.LVL43:
 381 0000 38B5     		push	{r3, r4, r5, lr}
 382              	.LCFI2:
 383              		.cfi_def_cfa_offset 16
 384              		.cfi_offset 14, -4
 385              		.cfi_offset 5, -8
 386              		.cfi_offset 4, -12
 387              		.cfi_offset 3, -16
 388              		.loc 1 424 0
 389 0002 037A     		ldrb	r3, [r0, #8]	@ zero_extendqisi2
 390              		.loc 1 422 0
 391 0004 204C     		ldr	r4, .L30
 392              		.loc 1 419 0
 393 0006 0546     		mov	r5, r0
ARM GAS  /tmp/cc6uzPxP.s 			page 8


 394              		.loc 1 422 0
 395 0008 0029     		cmp	r1, #0
 396 000a 18BF     		it	ne
 397 000c 0C46     		movne	r4, r1
 398              	.LVL44:
 399              		.loc 1 424 0
 400 000e 012B     		cmp	r3, #1
 401 0010 29D0     		beq	.L29
 402              	.LVL45:
 403              	.L25:
 404              	.LBB64:
 405              	.LBB65:
 406              		.loc 1 93 0
 407 0012 6B6F     		ldr	r3, [r5, #116]
 408              	.LVL46:
 409              		.loc 1 99 0
 410 0014 4FF46052 		mov	r2, #14336
 411 0018 C4F20102 		movt	r2, 16385
 412 001c 9342     		cmp	r3, r2
 413              		.loc 1 101 0
 414 001e 2168     		ldr	r1, [r4, #0]
 415 0020 0BBF     		itete	eq
 416 0022 4FF42242 		moveq	r2, #41472
 417              		.loc 1 103 0
 418 0026 4FF4A242 		movne	r2, #20736
 419              		.loc 1 101 0
 420 002a C0F24A42 		movteq	r2, 1098
 421              		.loc 1 103 0
 422 002e C0F22522 		movtne	r2, 549
 423 0032 B2FBF1F2 		udiv	r2, r2, r1
 424 0036 92B2     		uxth	r2, r2
 425 0038 1A81     		strh	r2, [r3, #8]	@ movhi
 426              		.loc 1 108 0
 427 003a A288     		ldrh	r2, [r4, #4]
 428              		.loc 1 106 0
 429 003c E088     		ldrh	r0, [r4, #6]
 430              		.loc 1 107 0
 431 003e 2189     		ldrh	r1, [r4, #8]
 432              		.loc 1 108 0
 433 0040 42F40452 		orr	r2, r2, #8448
 434              		.loc 1 106 0
 435 0044 40F04000 		orr	r0, r0, #64
 436              		.loc 1 107 0
 437 0048 41F00101 		orr	r1, r1, #1
 438              		.loc 1 108 0
 439 004c 42F02C02 		orr	r2, r2, #44
 440 0050 92B2     		uxth	r2, r2
 441              		.loc 1 106 0
 442 0052 80B2     		uxth	r0, r0
 443              		.loc 1 107 0
 444 0054 89B2     		uxth	r1, r1
 445              		.loc 1 106 0
 446 0056 1882     		strh	r0, [r3, #16]	@ movhi
 447              		.loc 1 107 0
 448 0058 9982     		strh	r1, [r3, #20]	@ movhi
 449              		.loc 1 108 0
 450 005a 9A81     		strh	r2, [r3, #12]	@ movhi
ARM GAS  /tmp/cc6uzPxP.s 			page 9


 451              		.loc 1 111 0
 452 005c 0022     		movs	r2, #0
 453 005e 1A80     		strh	r2, [r3, #0]	@ movhi
 454              		.loc 1 112 0
 455 0060 1A88     		ldrh	r2, [r3, #0]
 456              		.loc 1 113 0
 457 0062 9B88     		ldrh	r3, [r3, #4]
 458              	.LBE65:
 459              	.LBE64:
 460              		.loc 1 469 0
 461 0064 38BD     		pop	{r3, r4, r5, pc}
 462              	.LVL47:
 463              	.L29:
 464              		.loc 1 447 0
 465 0066 094B     		ldr	r3, .L30+4
 466 0068 9842     		cmp	r0, r3
 467 006a D2D1     		bne	.L25
 468              		.loc 1 448 0
 469 006c 4FF48053 		mov	r3, #4096
 470 0070 C4F20203 		movt	r3, 16386
 471 0074 DA69     		ldr	r2, [r3, #28]
 472              		.loc 1 449 0
 473 0076 3420     		movs	r0, #52
 474              		.loc 1 448 0
 475 0078 42F40022 		orr	r2, r2, #524288
 476 007c DA61     		str	r2, [r3, #28]
 477              		.loc 1 449 0
 478 007e C021     		movs	r1, #192
 479 0080 FFF7FEFF 		bl	nvicEnableVector
 480 0084 C5E7     		b	.L25
 481              	.L31:
 482 0086 00BF     		.align	2
 483              	.L30:
 484 0088 00000000 		.word	.LANCHOR1
 485 008c 00000000 		.word	.LANCHOR0
 486              		.cfi_endproc
 487              	.LFE70:
 488              		.size	sd_lld_start, .-sd_lld_start
 489              		.section	.text.sd_lld_stop,"ax",%progbits
 490              		.align	2
 491              		.p2align 4,,15
 492              		.global	sd_lld_stop
 493              		.thumb
 494              		.thumb_func
 495              		.type	sd_lld_stop, %function
 496              	sd_lld_stop:
 497              	.LFB71:
 498              		.loc 1 480 0
 499              		.cfi_startproc
 500              		@ args = 0, pretend = 0, frame = 0
 501              		@ frame_needed = 0, uses_anonymous_args = 0
 502              		@ link register save eliminated.
 503              	.LVL48:
 504              		.loc 1 482 0
 505 0000 037A     		ldrb	r3, [r0, #8]	@ zero_extendqisi2
 506 0002 022B     		cmp	r3, #2
 507 0004 00D0     		beq	.L34
ARM GAS  /tmp/cc6uzPxP.s 			page 10


 508              	.L32:
 509 0006 7047     		bx	lr
 510              	.LVL49:
 511              	.L34:
 512              		.loc 1 483 0
 513 0008 436F     		ldr	r3, [r0, #116]
 514              	.LVL50:
 515              	.LBB66:
 516              	.LBB67:
 517              		.loc 1 124 0
 518 000a 0022     		movs	r2, #0
 519 000c 9A81     		strh	r2, [r3, #12]	@ movhi
 520              		.loc 1 125 0
 521 000e 1A82     		strh	r2, [r3, #16]	@ movhi
 522              		.loc 1 126 0
 523 0010 9A82     		strh	r2, [r3, #20]	@ movhi
 524              	.LBE67:
 525              	.LBE66:
 526              		.loc 1 506 0
 527 0012 074B     		ldr	r3, .L35
 528 0014 9842     		cmp	r0, r3
 529 0016 F6D1     		bne	.L32
 530              		.loc 1 507 0
 531 0018 4FF48053 		mov	r3, #4096
 532 001c C4F20203 		movt	r3, 16386
 533 0020 DA69     		ldr	r2, [r3, #28]
 534              		.loc 1 508 0
 535 0022 3420     		movs	r0, #52
 536              	.LVL51:
 537              		.loc 1 507 0
 538 0024 22F40022 		bic	r2, r2, #524288
 539 0028 DA61     		str	r2, [r3, #28]
 540              		.loc 1 527 0
 541              		.loc 1 508 0
 542 002a FFF7FEBF 		b	nvicDisableVector
 543              	.L36:
 544 002e 00BF     		.align	2
 545              	.L35:
 546 0030 00000000 		.word	.LANCHOR0
 547              		.cfi_endproc
 548              	.LFE71:
 549              		.size	sd_lld_stop, .-sd_lld_stop
 550              		.global	SD4
 551 0034 AFF30080 		.section	.rodata.default_config,"a",%progbits
 551      AFF30080 
 551      AFF30080 
 552              		.align	2
 553              		.set	.LANCHOR1,. + 0
 554              		.type	default_config, %object
 555              		.size	default_config, 12
 556              	default_config:
 557 0000 00960000 		.word	38400
 558 0004 0000     		.short	0
 559 0006 0040     		.short	16384
 560 0008 0000     		.short	0
 561 000a 0000     		.space	2
 562              		.section	.bss.SD4,"aw",%nobits
ARM GAS  /tmp/cc6uzPxP.s 			page 11


 563              		.align	2
 564              		.set	.LANCHOR0,. + 0
 565              		.type	SD4, %object
 566              		.size	SD4, 120
 567              	SD4:
 568 0000 00000000 		.space	120
 568      00000000 
 568      00000000 
 568      00000000 
 568      00000000 
 569              		.text
 570              	.Letext0:
 571              		.file 2 "/opt/paparazzi/arm-multilib/lib/gcc/arm-none-eabi/4.6.2/include/stddef.h"
 572              		.file 3 "/opt/paparazzi/arm-multilib/lib/gcc/arm-none-eabi/4.6.2/../../../../arm-none-eabi/include
 573              		.file 4 "../../os/ports/GCC/ARMCMx/chtypes.h"
 574              		.file 5 "../../os/kernel/include/chlists.h"
 575              		.file 6 "../../os/kernel/include/chthreads.h"
 576              		.file 7 "../../os/ports/GCC/ARMCMx/chcore_v7m.h"
 577              		.file 8 "../../os/kernel/include/chmtx.h"
 578              		.file 9 "../../os/kernel/include/chevents.h"
 579              		.file 10 "../../os/kernel/include/chqueues.h"
 580              		.file 11 "../../os/hal/platforms/STM32F1xx/stm32f10x.h"
 581              		.file 12 "../../os/hal/include/serial.h"
 582              		.file 13 "../../os/hal/platforms/STM32/USARTv1/serial_lld.h"
 583              		.file 14 "../../os/ports/common/ARMCMx/CMSIS/include/core_cm3.h"