ARM GAS  /tmp/cc6uzPxP.s 			page 1


   1              		.syntax unified
   2              		.cpu cortex-m3
   3              		.fpu softvfp
   4              		.eabi_attribute 20, 1
   5              		.eabi_attribute 21, 1
   6              		.eabi_attribute 23, 3
   7              		.eabi_attribute 24, 1
   8              		.eabi_attribute 25, 1
   9              		.eabi_attribute 26, 1
  10              		.eabi_attribute 30, 2
  11              		.eabi_attribute 18, 4
  12              		.thumb
  13              		.file	"serial_lld.c"
  14              		.text
  15              	.Ltext0:
  16              		.cfi_sections	.debug_frame
  17              		.section	.text.notify4,"ax",%progbits
  18              		.align	2
  19              		.p2align 4,,15
  20              		.thumb
  21              		.thumb_func
  22              		.type	notify4, %function
  23              	notify4:
  24              	.LFB67:
  25              		.file 1 "../../os/hal/platforms/STM32/USARTv1/serial_lld.c"
  26              		.loc 1 226 0
  27              		.cfi_startproc
  28              		@ args = 0, pretend = 0, frame = 0
  29              		@ frame_needed = 0, uses_anonymous_args = 0
  30              		@ link register save eliminated.
  31              	.LVL0:
  32              		.loc 1 229 0
  33 0000 4FF49843 		mov	r3, #19456
  34 0004 C4F20003 		movt	r3, 16384
  35 0008 9A89     		ldrh	r2, [r3, #12]
  36 000a 92B2     		uxth	r2, r2
  37 000c 42F08002 		orr	r2, r2, #128
  38 0010 9A81     		strh	r2, [r3, #12]	@ movhi
  39              		.loc 1 230 0
  40 0012 7047     		bx	lr
  41              		.cfi_endproc
  42              	.LFE67:
  43              		.size	notify4, .-notify4
  44 0014 AFF30080 		.section	.text.Vector110,"ax",%progbits
  44      AFF30080 
  44      AFF30080 
  45              		.align	2
  46              		.p2align 4,,15
  47              		.global	Vector110
  48              		.thumb
  49              		.thumb_func
  50              		.type	Vector110, %function
  51              	Vector110:
  52              	.LFB68:
  53              		.loc 1 319 0
  54              		.cfi_startproc
  55              		@ args = 0, pretend = 0, frame = 0
ARM GAS  /tmp/cc6uzPxP.s 			page 2


  56              		@ frame_needed = 0, uses_anonymous_args = 0
  57              	.LVL1:
  58 0000 F8B5     		push	{r3, r4, r5, r6, r7, lr}
  59              	.LCFI0:
  60              		.cfi_def_cfa_offset 24
  61              		.cfi_offset 14, -4
  62              		.cfi_offset 7, -8
  63              		.cfi_offset 6, -12
  64              		.cfi_offset 5, -16
  65              		.cfi_offset 4, -20
  66              		.cfi_offset 3, -24
  67              	.LBB47:
  68              	.LBB48:
  69              		.loc 1 157 0
  70 0002 3D4B     		ldr	r3, .L20
  71 0004 5D6F     		ldr	r5, [r3, #116]
  72              	.LVL2:
  73              		.loc 1 158 0
  74 0006 AE89     		ldrh	r6, [r5, #12]
  75              		.loc 1 159 0
  76 0008 2C88     		ldrh	r4, [r5, #0]
  77              		.loc 1 160 0
  78 000a AF88     		ldrh	r7, [r5, #4]
  79              		.loc 1 159 0
  80 000c A4B2     		uxth	r4, r4
  81              		.loc 1 163 0
  82 000e 2207     		lsls	r2, r4, #28
  83              		.loc 1 158 0
  84 0010 B6B2     		uxth	r6, r6
  85              	.LVL3:
  86              		.loc 1 160 0
  87 0012 BFB2     		uxth	r7, r7
  88              	.LVL4:
  89              		.loc 1 163 0
  90 0014 18D0     		beq	.L3
  91              	.LVL5:
  92              	.LBB49:
  93              	.LBB50:
  94              		.loc 1 138 0
  95 0016 14F00801 		ands	r1, r4, #8
  96              		.loc 1 139 0
  97 001a 18BF     		it	ne
  98 001c 8021     		movne	r1, #128
  99              	.LVL6:
 100              		.loc 1 140 0
 101 001e E307     		lsls	r3, r4, #31
 102              		.loc 1 141 0
 103 0020 48BF     		it	mi
 104 0022 41F02001 		orrmi	r1, r1, #32
 105              	.LVL7:
 106              		.loc 1 142 0
 107 0026 A007     		lsls	r0, r4, #30
 108              		.loc 1 143 0
 109 0028 48BF     		it	mi
 110 002a 41F04001 		orrmi	r1, r1, #64
 111              	.LVL8:
 112              		.loc 1 144 0
ARM GAS  /tmp/cc6uzPxP.s 			page 3


 113 002e 6207     		lsls	r2, r4, #29
 114              		.loc 1 145 0
 115 0030 48BF     		it	mi
 116 0032 41F48071 		orrmi	r1, r1, #256
 117              	.LVL9:
 118              	.LBB51:
 119              		.loc 1 146 0
 120 0036 2023     		movs	r3, #32
 121              	.LVL10:
 122              	@ 146 "../../os/hal/platforms/STM32/USARTv1/serial_lld.c" 1
 123 0038 83F31188 		msr     BASEPRI, r3
 124              	@ 0 "" 2
 125              	.LVL11:
 126              		.thumb
 127              	.LBE51:
 128              		.loc 1 147 0
 129 003c 2F48     		ldr	r0, .L20+4
 130 003e FFF7FEFF 		bl	chEvtBroadcastFlagsI
 131              	.LVL12:
 132              	.LBB52:
 133              		.loc 1 148 0
 134 0042 0023     		movs	r3, #0
 135              	.LVL13:
 136              	@ 148 "../../os/hal/platforms/STM32/USARTv1/serial_lld.c" 1
 137 0044 83F31188 		msr     BASEPRI, r3
 138              	@ 0 "" 2
 139              	.LVL14:
 140              		.thumb
 141              	.L3:
 142              	.LBE52:
 143              	.LBE50:
 144              	.LBE49:
 145              		.loc 1 166 0
 146 0048 E305     		lsls	r3, r4, #23
 147              	.LVL15:
 148 004a 2AD4     		bmi	.L16
 149              	.L8:
 150              		.loc 1 173 0
 151 004c A006     		lsls	r0, r4, #26
 152 004e 1DD4     		bmi	.L17
 153              	.LVL16:
 154              	.L9:
 155              		.loc 1 179 0
 156 0050 3106     		lsls	r1, r6, #24
 157 0052 01D5     		bpl	.L10
 158 0054 2206     		lsls	r2, r4, #24
 159 0056 36D4     		bmi	.L18
 160              	.LVL17:
 161              	.L10:
 162              		.loc 1 192 0
 163 0058 6306     		lsls	r3, r4, #25
 164              	.LVL18:
 165 005a 13D5     		bpl	.L13
 166              	.LBB53:
 167              		.loc 1 193 0
 168 005c 2023     		movs	r3, #32
 169              	.LVL19:
ARM GAS  /tmp/cc6uzPxP.s 			page 4


 170              	@ 193 "../../os/hal/platforms/STM32/USARTv1/serial_lld.c" 1
 171 005e 83F31188 		msr     BASEPRI, r3
 172              	@ 0 "" 2
 173              	.LVL20:
 174              		.thumb
 175              	.LBE53:
 176              		.loc 1 194 0
 177 0062 2648     		ldr	r0, .L20+4
 178 0064 1021     		movs	r1, #16
 179 0066 FFF7FEFF 		bl	chEvtBroadcastFlagsI
 180              	.LVL21:
 181              	.LBB54:
 182              		.loc 1 195 0
 183 006a 0023     		movs	r3, #0
 184              	.LVL22:
 185              	@ 195 "../../os/hal/platforms/STM32/USARTv1/serial_lld.c" 1
 186 006c 83F31188 		msr     BASEPRI, r3
 187              	@ 0 "" 2
 188              	.LVL23:
 189              		.thumb
 190              	.LBE54:
 191              		.loc 1 196 0
 192 0070 4FF6BF73 		movw	r3, #65471
 193              	.LVL24:
 194 0074 3340     		ands	r3, r3, r6
 195 0076 AB81     		strh	r3, [r5, #12]	@ movhi
 196              		.loc 1 197 0
 197 0078 2B88     		ldrh	r3, [r5, #0]
 198 007a 23F04003 		bic	r3, r3, #64
 199 007e 1B04     		lsls	r3, r3, #16
 200 0080 1B0C     		lsrs	r3, r3, #16
 201 0082 2B80     		strh	r3, [r5, #0]	@ movhi
 202              	.L13:
 203              	.LBE48:
 204              	.LBE47:
 205              		.loc 1 326 0
 206 0084 BDE8F840 		pop	{r3, r4, r5, r6, r7, lr}
 207              		.loc 1 325 0
 208 0088 FFF7FEBF 		b	_port_irq_epilogue
 209              	.L17:
 210              	.LBB63:
 211              	.LBB62:
 212              	.LBB55:
 213              		.loc 1 174 0
 214 008c 2023     		movs	r3, #32
 215              	.LVL25:
 216              	@ 174 "../../os/hal/platforms/STM32/USARTv1/serial_lld.c" 1
 217 008e 83F31188 		msr     BASEPRI, r3
 218              	@ 0 "" 2
 219              	.LVL26:
 220              		.thumb
 221              	.LBE55:
 222              		.loc 1 175 0
 223 0092 1948     		ldr	r0, .L20
 224 0094 F9B2     		uxtb	r1, r7
 225 0096 FFF7FEFF 		bl	sdIncomingDataI
 226              	.LVL27:
ARM GAS  /tmp/cc6uzPxP.s 			page 5


 227              	.LBB56:
 228              		.loc 1 176 0
 229 009a 0023     		movs	r3, #0
 230              	@ 176 "../../os/hal/platforms/STM32/USARTv1/serial_lld.c" 1
 231 009c 83F31188 		msr     BASEPRI, r3
 232              	@ 0 "" 2
 233              	.LVL28:
 234              		.thumb
 235 00a0 D6E7     		b	.L9
 236              	.LVL29:
 237              	.L16:
 238              	.LBE56:
 239              	.LBB57:
 240              		.loc 1 167 0
 241 00a2 2023     		movs	r3, #32
 242              	.LVL30:
 243              	@ 167 "../../os/hal/platforms/STM32/USARTv1/serial_lld.c" 1
 244 00a4 83F31188 		msr     BASEPRI, r3
 245              	@ 0 "" 2
 246              	.LVL31:
 247              		.thumb
 248              	.LBE57:
 249              		.loc 1 168 0
 250 00a8 1448     		ldr	r0, .L20+4
 251 00aa 4FF40071 		mov	r1, #512
 252 00ae FFF7FEFF 		bl	chEvtBroadcastFlagsI
 253              	.LVL32:
 254              	.LBB58:
 255              		.loc 1 169 0
 256 00b2 0023     		movs	r3, #0
 257              	.LVL33:
 258              	@ 169 "../../os/hal/platforms/STM32/USARTv1/serial_lld.c" 1
 259 00b4 83F31188 		msr     BASEPRI, r3
 260              	@ 0 "" 2
 261              	.LVL34:
 262              		.thumb
 263              	.LBE58:
 264              		.loc 1 170 0
 265 00b8 2B88     		ldrh	r3, [r5, #0]
 266              	.LVL35:
 267 00ba 23F48073 		bic	r3, r3, #256
 268 00be 1B04     		lsls	r3, r3, #16
 269 00c0 1B0C     		lsrs	r3, r3, #16
 270 00c2 2B80     		strh	r3, [r5, #0]	@ movhi
 271 00c4 C2E7     		b	.L8
 272              	.LVL36:
 273              	.L18:
 274              	.LBB59:
 275              	.LBB60:
 276              		.loc 1 181 0
 277 00c6 2023     		movs	r3, #32
 278              	.LVL37:
 279              	@ 181 "../../os/hal/platforms/STM32/USARTv1/serial_lld.c" 1
 280 00c8 83F31188 		msr     BASEPRI, r3
 281              	@ 0 "" 2
 282              	.LVL38:
 283              		.thumb
ARM GAS  /tmp/cc6uzPxP.s 			page 6


 284              	.LBE60:
 285              		.loc 1 182 0
 286 00cc 0C48     		ldr	r0, .L20+8
 287 00ce FFF7FEFF 		bl	chOQGetI
 288              	.LVL39:
 289              		.loc 1 183 0
 290 00d2 0028     		cmp	r0, #0
 291              		.loc 1 188 0
 292 00d4 A4BF     		itt	ge
 293 00d6 80B2     		uxthge	r0, r0
 294              	.LVL40:
 295 00d8 A880     		strhge	r0, [r5, #4]	@ movhi
 296              		.loc 1 183 0
 297 00da 03DB     		blt	.L19
 298              	.L12:
 299              	.LBB61:
 300              		.loc 1 189 0
 301 00dc 0023     		movs	r3, #0
 302              	@ 189 "../../os/hal/platforms/STM32/USARTv1/serial_lld.c" 1
 303 00de 83F31188 		msr     BASEPRI, r3
 304              	@ 0 "" 2
 305              	.LVL41:
 306              		.thumb
 307 00e2 B9E7     		b	.L10
 308              	.LVL42:
 309              	.L19:
 310              	.LBE61:
 311              		.loc 1 184 0
 312 00e4 0548     		ldr	r0, .L20+4
 313 00e6 0821     		movs	r1, #8
 314 00e8 FFF7FEFF 		bl	chEvtBroadcastFlagsI
 315              		.loc 1 185 0
 316 00ec 26F0C003 		bic	r3, r6, #192
 317 00f0 43F04003 		orr	r3, r3, #64
 318 00f4 AB81     		strh	r3, [r5, #12]	@ movhi
 319 00f6 F1E7     		b	.L12
 320              	.L21:
 321              		.align	2
 322              	.L20:
 323 00f8 00000000 		.word	.LANCHOR0
 324 00fc 04000000 		.word	.LANCHOR0+4
 325 0100 30000000 		.word	.LANCHOR0+48
 326              	.LBE59:
 327              	.LBE62:
 328              	.LBE63:
 329              		.cfi_endproc
 330              	.LFE68:
 331              		.size	Vector110, .-Vector110
 332 0104 AFF30080 		.section	.text.sd_lld_init,"ax",%progbits
 332      AFF30080 
 332      AFF30080 
 333              		.align	2
 334              		.p2align 4,,15
 335              		.global	sd_lld_init
 336              		.thumb
 337              		.thumb_func
 338              		.type	sd_lld_init, %function
ARM GAS  /tmp/cc6uzPxP.s 			page 7


 339              	sd_lld_init:
 340              	.LFB69:
 341              		.loc 1 376 0
 342              		.cfi_startproc
 343              		@ args = 0, pretend = 0, frame = 0
 344              		@ frame_needed = 0, uses_anonymous_args = 0
 345 0000 10B5     		push	{r4, lr}
 346              	.LCFI1:
 347              		.cfi_def_cfa_offset 8
 348              		.cfi_offset 14, -4
 349              		.cfi_offset 4, -8
 350              		.loc 1 394 0
 351 0002 40F20004 		movw	r4, #:lower16:.LANCHOR0
 352 0006 C0F20004 		movt	r4, #:upper16:.LANCHOR0
 353 000a 40F20002 		movw	r2, #:lower16:notify4
 354 000e 2046     		mov	r0, r4
 355 0010 0021     		movs	r1, #0
 356 0012 C0F20002 		movt	r2, #:upper16:notify4
 357 0016 FFF7FEFF 		bl	sdObjectInit
 358              		.loc 1 395 0
 359 001a 4FF49843 		mov	r3, #19456
 360 001e C4F20003 		movt	r3, 16384
 361 0022 6367     		str	r3, [r4, #116]
 362              		.loc 1 407 0
 363 0024 10BD     		pop	{r4, pc}
 364              		.cfi_endproc
 365              	.LFE69:
 366              		.size	sd_lld_init, .-sd_lld_init
 367 0026 00BFAFF3 		.section	.text.sd_lld_start,"ax",%progbits
 367      0080AFF3 
 367      0080
 368              		.align	2
 369              		.p2align 4,,15
 370              		.global	sd_lld_start
 371              		.thumb
 372              		.thumb_func
 373              		.type	sd_lld_start, %function
 374              	sd_lld_start:
 375              	.LFB70:
 376              		.loc 1 419 0
 377              		.cfi_startproc
 378              		@ args = 0, pretend = 0, frame = 0
 379              		@ frame_needed = 0, uses_anonymous_args = 0
 380              	.LVL43:
 381 0000 38B5     		push	{r3, r4, r5, lr}
 382              	.LCFI2:
 383              		.cfi_def_cfa_offset 16
 384              		.cfi_offset 14, -4
 385              		.cfi_offset 5, -8
 386              		.cfi_offset 4, -12
 387              		.cfi_offset 3, -16
 388              		.loc 1 424 0
 389 0002 037A     		ldrb	r3, [r0, #8]	@ zero_extendqisi2
 390              		.loc 1 422 0
 391 0004 204C     		ldr	r4, .L30
 392              		.loc 1 419 0
 393 0006 0546     		mov	r5, r0
ARM GAS  /tmp/cc6uzPxP.s 			page 8


 394              		.loc 1 422 0
 395 0008 0029     		cmp	r1, #0
 396 000a 18BF     		it	ne
 397 000c 0C46     		movne	r4, r1
 398              	.LVL44:
 399              		.loc 1 424 0
 400 000e 012B     		cmp	r3, #1
 401 0010 29D0     		beq	.L29
 402              	.LVL45:
 403              	.L25:
 404              	.LBB64:
 405              	.LBB65:
 406              		.loc 1 93 0
 407 0012 6B6F     		ldr	r3, [r5, #116]
 408              	.LVL46:
 409              		.loc 1 99 0
 410 0014 4FF46052 		mov	r2, #14336
 411 0018 C4F20102 		movt	r2, 16385
 412 001c 9342     		cmp	r3, r2
 413              		.loc 1 101 0
 414 001e 2168     		ldr	r1, [r4, #0]
 415 0020 0BBF     		itete	eq
 416 0022 4FF42242 		moveq	r2, #41472
 417              		.loc 1 103 0
 418 0026 4FF4A242 		movne	r2, #20736
 419              		.loc 1 101 0
 420 002a C0F24A42 		movteq	r2, 1098
 421              		.loc 1 103 0
 422 002e C0F22522 		movtne	r2, 549
 423 0032 B2FBF1F2 		udiv	r2, r2, r1
 424 0036 92B2     		uxth	r2, r2
 425 0038 1A81     		strh	r2, [r3, #8]	@ movhi
 426              		.loc 1 108 0
 427 003a A288     		ldrh	r2, [r4, #4]
 428              		.loc 1 106 0
 429 003c E088     		ldrh	r0, [r4, #6]
 430              		.loc 1 107 0
 431 003e 2189     		ldrh	r1, [r4, #8]
 432              		.loc 1 108 0
 433 0040 42F40452 		orr	r2, r2, #8448
 434              		.loc 1 106 0
 435 0044 40F04000 		orr	r0, r0, #64
 436              		.loc 1 107 0
 437 0048 41F00101 		orr	r1, r1, #1
 438              		.loc 1 108 0
 439 004c 42F02C02 		orr	r2, r2, #44
 440 0050 92B2     		uxth	r2, r2
 441              		.loc 1 106 0
 442 0052 80B2     		uxth	r0, r0
 443              		.loc 1 107 0
 444 0054 89B2     		uxth	r1, r1
 445              		.loc 1 106 0
 446 0056 1882     		strh	r0, [r3, #16]	@ movhi
 447              		.loc 1 107 0
 448 0058 9982     		strh	r1, [r3, #20]	@ movhi
 449              		.loc 1 108 0
 450 005a 9A81     		strh	r2, [r3, #12]	@ movhi
ARM GAS  /tmp/cc6uzPxP.s 			page 9


 451              		.loc 1 111 0
 452 005c 0022     		movs	r2, #0
 453 005e 1A80     		strh	r2, [r3, #0]	@ movhi
 454              		.loc 1 112 0
 455 0060 1A88     		ldrh	r2, [r3, #0]
 456              		.loc 1 113 0
 457 0062 9B88     		ldrh	r3, [r3, #4]
 458              	.LBE65:
 459              	.LBE64:
 460              		.loc 1 469 0
 461 0064 38BD     		pop	{r3, r4, r5, pc}
 462              	.LVL47:
 463              	.L29:
 464              		.loc 1 447 0
 465 0066 094B     		ldr	r3, .L30+4
 466 0068 9842     		cmp	r0, r3
 467 006a D2D1     		bne	.L25
 468              		.loc 1 448 0
 469 006c 4FF48053 		mov	r3, #4096
 470 0070 C4F20203 		movt	r3, 16386
 471 0074 DA69     		ldr	r2, [r3, #28]
 472              		.loc 1 449 0
 473 0076 3420     		movs	r0, #52
 474              		.loc 1 448 0
 475 0078 42F40022 		orr	r2, r2, #524288
 476 007c DA61     		str	r2, [r3, #28]
 477              		.loc 1 449 0
 478 007e C021     		movs	r1, #192
 479 0080 FFF7FEFF 		bl	nvicEnableVector
 480 0084 C5E7     		b	.L25
 481              	.L31:
 482 0086 00BF     		.align	2
 483              	.L30:
 484 0088 00000000 		.word	.LANCHOR1
 485 008c 00000000 		.word	.LANCHOR0
 486              		.cfi_endproc
 487              	.LFE70:
 488              		.size	sd_lld_start, .-sd_lld_start
 489              		.section	.text.sd_lld_stop,"ax",%progbits
 490              		.align	2
 491              		.p2align 4,,15
 492              		.global	sd_lld_stop
 493              		.thumb
 494              		.thumb_func
 495              		.type	sd_lld_stop, %function
 496              	sd_lld_stop:
 497              	.LFB71:
 498              		.loc 1 480 0
 499              		.cfi_startproc
 500              		@ args = 0, pretend = 0, frame = 0
 501              		@ frame_needed = 0, uses_anonymous_args = 0
 502              		@ link register save eliminated.
 503              	.LVL48:
 504              		.loc 1 482 0
 505 0000 037A     		ldrb	r3, [r0, #8]	@ zero_extendqisi2
 506 0002 022B     		cmp	r3, #2
 507 0004 00D0     		beq	.L34
ARM GAS  /tmp/cc6uzPxP.s 			page 10


 508              	.L32:
 509 0006 7047     		bx	lr
 510              	.LVL49:
 511              	.L34:
 512              		.loc 1 483 0
 513 0008 436F     		ldr	r3, [r0, #116]
 514              	.LVL50:
 515              	.LBB66:
 516              	.LBB67:
 517              		.loc 1 124 0
 518 000a 0022     		movs	r2, #0
 519 000c 9A81     		strh	r2, [r3, #12]	@ movhi
 520              		.loc 1 125 0
 521 000e 1A82     		strh	r2, [r3, #16]	@ movhi
 522              		.loc 1 126 0
 523 0010 9A82     		strh	r2, [r3, #20]	@ movhi
 524              	.LBE67:
 525              	.LBE66:
 526              		.loc 1 506 0
 527 0012 074B     		ldr	r3, .L35
 528 0014 9842     		cmp	r0, r3
 529 0016 F6D1     		bne	.L32
 530              		.loc 1 507 0
 531 0018 4FF48053 		mov	r3, #4096
 532 001c C4F20203 		movt	r3, 16386
 533 0020 DA69     		ldr	r2, [r3, #28]
 534              		.loc 1 508 0
 535 0022 3420     		movs	r0, #52
 536              	.LVL51:
 537              		.loc 1 507 0
 538 0024 22F40022 		bic	r2, r2, #524288
 539 0028 DA61     		str	r2, [r3, #28]
 540              		.loc 1 527 0
 541              		.loc 1 508 0
 542 002a FFF7FEBF 		b	nvicDisableVector
 543              	.L36:
 544 002e 00BF     		.align	2
 545              	.L35:
 546 0030 00000000 		.word	.LANCHOR0
 547              		.cfi_endproc
 548              	.LFE71:
 549              		.size	sd_lld_stop, .-sd_lld_stop
 550              		.global	SD4
 551 0034 AFF30080 		.section	.rodata.default_config,"a",%progbits
 551      AFF30080 
 551      AFF30080 
 552              		.align	2
 553              		.set	.LANCHOR1,. + 0
 554              		.type	default_config, %object
 555              		.size	default_config, 12
 556              	default_config:
 557 0000 00960000 		.word	38400
 558 0004 0000     		.short	0
 559 0006 0040     		.short	16384
 560 0008 0000     		.short	0
 561 000a 0000     		.space	2
 562              		.section	.bss.SD4,"aw",%nobits
ARM GAS  /tmp/cc6uzPxP.s 			page 11


 563              		.align	2
 564              		.set	.LANCHOR0,. + 0
 565              		.type	SD4, %object
 566              		.size	SD4, 120
 567              	SD4:
 568 0000 00000000 		.space	120
 568      00000000 
 568      00000000 
 568      00000000 
 568      00000000 
 569              		.text
 570              	.Letext0:
 571              		.file 2 "/opt/paparazzi/arm-multilib/lib/gcc/arm-none-eabi/4.6.2/include/stddef.h"
 572              		.file 3 "/opt/paparazzi/arm-multilib/lib/gcc/arm-none-eabi/4.6.2/../../../../arm-none-eabi/include
 573              		.file 4 "../../os/ports/GCC/ARMCMx/chtypes.h"
 574              		.file 5 "../../os/kernel/include/chlists.h"
 575              		.file 6 "../../os/kernel/include/chthreads.h"
 576              		.file 7 "../../os/ports/GCC/ARMCMx/chcore_v7m.h"
 577              		.file 8 "../../os/kernel/include/chmtx.h"
 578              		.file 9 "../../os/kernel/include/chevents.h"
 579              		.file 10 "../../os/kernel/include/chqueues.h"
 580              		.file 11 "../../os/hal/platforms/STM32F1xx/stm32f10x.h"
 581              		.file 12 "../../os/hal/include/serial.h"
 582              		.file 13 "../../os/hal/platforms/STM32/USARTv1/serial_lld.h"
 583              		.file 14 "../../os/ports/common/ARMCMx/CMSIS/include/core_cm3.h"
 584              		.section	.debug_info,"",%progbits
 585              	.Ldebug_info0:
 586 0000 670F0000 		.4byte	0xf67
 587 0004 0200     		.2byte	0x2
 588 0006 00000000 		.4byte	.Ldebug_abbrev0
 589 000a 04       		.byte	0x4
 590 000b 01       		.uleb128 0x1
 591 000c 5B070000 		.4byte	.LASF193
 592 0010 01       		.byte	0x1
 593 0011 4E080000 		.4byte	.LASF194
 594 0015 10070000 		.4byte	.LASF195
 595 0019 00000000 		.4byte	0
 596 001d 00000000 		.4byte	0
 597 0021 30000000 		.4byte	.Ldebug_ranges0+0x30
 598 0025 00000000 		.4byte	.Ldebug_line0
 599 0029 02       		.uleb128 0x2
 600 002a 04       		.byte	0x4
 601 002b 05       		.byte	0x5
 602 002c 696E7400 		.ascii	"int\000"
 603 0030 03       		.uleb128 0x3
 604 0031 22000000 		.4byte	.LASF2
 605 0035 02       		.byte	0x2
 606 0036 D4       		.byte	0xd4
 607 0037 3B000000 		.4byte	0x3b
 608 003b 04       		.uleb128 0x4
 609 003c 04       		.byte	0x4
 610 003d 07       		.byte	0x7
 611 003e 57020000 		.4byte	.LASF0
 612 0042 04       		.uleb128 0x4
 613 0043 01       		.byte	0x1
 614 0044 06       		.byte	0x6
 615 0045 0F010000 		.4byte	.LASF1
ARM GAS  /tmp/cc6uzPxP.s 			page 12


 616 0049 03       		.uleb128 0x3
 617 004a 04080000 		.4byte	.LASF3
 618 004e 03       		.byte	0x3
 619 004f 2A       		.byte	0x2a
 620 0050 54000000 		.4byte	0x54
 621 0054 04       		.uleb128 0x4
 622 0055 01       		.byte	0x1
 623 0056 08       		.byte	0x8
 624 0057 0F050000 		.4byte	.LASF4
 625 005b 04       		.uleb128 0x4
 626 005c 02       		.byte	0x2
 627 005d 05       		.byte	0x5
 628 005e 55050000 		.4byte	.LASF5
 629 0062 03       		.uleb128 0x3
 630 0063 64020000 		.4byte	.LASF6
 631 0067 03       		.byte	0x3
 632 0068 36       		.byte	0x36
 633 0069 6D000000 		.4byte	0x6d
 634 006d 04       		.uleb128 0x4
 635 006e 02       		.byte	0x2
 636 006f 07       		.byte	0x7
 637 0070 D6020000 		.4byte	.LASF7
 638 0074 03       		.uleb128 0x3
 639 0075 07050000 		.4byte	.LASF8
 640 0079 03       		.byte	0x3
 641 007a 4F       		.byte	0x4f
 642 007b 7F000000 		.4byte	0x7f
 643 007f 04       		.uleb128 0x4
 644 0080 04       		.byte	0x4
 645 0081 05       		.byte	0x5
 646 0082 80010000 		.4byte	.LASF9
 647 0086 03       		.uleb128 0x3
 648 0087 0D060000 		.4byte	.LASF10
 649 008b 03       		.byte	0x3
 650 008c 50       		.byte	0x50
 651 008d 91000000 		.4byte	0x91
 652 0091 04       		.uleb128 0x4
 653 0092 04       		.byte	0x4
 654 0093 07       		.byte	0x7
 655 0094 3F060000 		.4byte	.LASF11
 656 0098 04       		.uleb128 0x4
 657 0099 08       		.byte	0x8
 658 009a 05       		.byte	0x5
 659 009b 01010000 		.4byte	.LASF12
 660 009f 04       		.uleb128 0x4
 661 00a0 08       		.byte	0x8
 662 00a1 07       		.byte	0x7
 663 00a2 7D000000 		.4byte	.LASF13
 664 00a6 04       		.uleb128 0x4
 665 00a7 01       		.byte	0x1
 666 00a8 02       		.byte	0x2
 667 00a9 01050000 		.4byte	.LASF14
 668 00ad 03       		.uleb128 0x3
 669 00ae 43030000 		.4byte	.LASF15
 670 00b2 04       		.byte	0x4
 671 00b3 2C       		.byte	0x2c
 672 00b4 49000000 		.4byte	0x49
ARM GAS  /tmp/cc6uzPxP.s 			page 13


 673 00b8 03       		.uleb128 0x3
 674 00b9 92010000 		.4byte	.LASF16
 675 00bd 04       		.byte	0x4
 676 00be 2D       		.byte	0x2d
 677 00bf 49000000 		.4byte	0x49
 678 00c3 03       		.uleb128 0x3
 679 00c4 9A040000 		.4byte	.LASF17
 680 00c8 04       		.byte	0x4
 681 00c9 2E       		.byte	0x2e
 682 00ca 49000000 		.4byte	0x49
 683 00ce 03       		.uleb128 0x3
 684 00cf 4E010000 		.4byte	.LASF18
 685 00d3 04       		.byte	0x4
 686 00d4 2F       		.byte	0x2f
 687 00d5 49000000 		.4byte	0x49
 688 00d9 03       		.uleb128 0x3
 689 00da E5040000 		.4byte	.LASF19
 690 00de 04       		.byte	0x4
 691 00df 30       		.byte	0x30
 692 00e0 86000000 		.4byte	0x86
 693 00e4 03       		.uleb128 0x3
 694 00e5 08030000 		.4byte	.LASF20
 695 00e9 04       		.byte	0x4
 696 00ea 31       		.byte	0x31
 697 00eb 74000000 		.4byte	0x74
 698 00ef 03       		.uleb128 0x3
 699 00f0 57030000 		.4byte	.LASF21
 700 00f4 04       		.byte	0x4
 701 00f5 33       		.byte	0x33
 702 00f6 86000000 		.4byte	0x86
 703 00fa 03       		.uleb128 0x3
 704 00fb A7000000 		.4byte	.LASF22
 705 00ff 04       		.byte	0x4
 706 0100 34       		.byte	0x34
 707 0101 86000000 		.4byte	0x86
 708 0105 03       		.uleb128 0x3
 709 0106 BA060000 		.4byte	.LASF23
 710 010a 04       		.byte	0x4
 711 010b 35       		.byte	0x35
 712 010c 86000000 		.4byte	0x86
 713 0110 03       		.uleb128 0x3
 714 0111 CC050000 		.4byte	.LASF24
 715 0115 05       		.byte	0x5
 716 0116 2A       		.byte	0x2a
 717 0117 1B010000 		.4byte	0x11b
 718 011b 05       		.uleb128 0x5
 719 011c CC050000 		.4byte	.LASF24
 720 0120 48       		.byte	0x48
 721 0121 06       		.byte	0x6
 722 0122 5E       		.byte	0x5e
 723 0123 40020000 		.4byte	0x240
 724 0127 06       		.uleb128 0x6
 725 0128 FB030000 		.4byte	.LASF25
 726 012c 06       		.byte	0x6
 727 012d 5F       		.byte	0x5f
 728 012e 65020000 		.4byte	0x265
 729 0132 02       		.byte	0x2
ARM GAS  /tmp/cc6uzPxP.s 			page 14


 730 0133 23       		.byte	0x23
 731 0134 00       		.uleb128 0
 732 0135 06       		.uleb128 0x6
 733 0136 D4040000 		.4byte	.LASF26
 734 013a 06       		.byte	0x6
 735 013b 61       		.byte	0x61
 736 013c 65020000 		.4byte	0x265
 737 0140 02       		.byte	0x2
 738 0141 23       		.byte	0x23
 739 0142 04       		.uleb128 0x4
 740 0143 06       		.uleb128 0x6
 741 0144 EA000000 		.4byte	.LASF27
 742 0148 06       		.byte	0x6
 743 0149 63       		.byte	0x63
 744 014a D9000000 		.4byte	0xd9
 745 014e 02       		.byte	0x2
 746 014f 23       		.byte	0x23
 747 0150 08       		.uleb128 0x8
 748 0151 06       		.uleb128 0x6
 749 0152 C7080000 		.4byte	.LASF28
 750 0156 06       		.byte	0x6
 751 0157 64       		.byte	0x64
 752 0158 33030000 		.4byte	0x333
 753 015c 02       		.byte	0x2
 754 015d 23       		.byte	0x23
 755 015e 0C       		.uleb128 0xc
 756 015f 06       		.uleb128 0x6
 757 0160 DA010000 		.4byte	.LASF29
 758 0164 06       		.byte	0x6
 759 0165 66       		.byte	0x66
 760 0166 65020000 		.4byte	0x265
 761 016a 02       		.byte	0x2
 762 016b 23       		.byte	0x23
 763 016c 10       		.uleb128 0x10
 764 016d 06       		.uleb128 0x6
 765 016e 74050000 		.4byte	.LASF30
 766 0172 06       		.byte	0x6
 767 0173 67       		.byte	0x67
 768 0174 65020000 		.4byte	0x265
 769 0178 02       		.byte	0x2
 770 0179 23       		.byte	0x23
 771 017a 14       		.uleb128 0x14
 772 017b 06       		.uleb128 0x6
 773 017c F5060000 		.4byte	.LASF31
 774 0180 06       		.byte	0x6
 775 0181 6E       		.byte	0x6e
 776 0182 59040000 		.4byte	0x459
 777 0186 02       		.byte	0x2
 778 0187 23       		.byte	0x23
 779 0188 18       		.uleb128 0x18
 780 0189 06       		.uleb128 0x6
 781 018a 2E010000 		.4byte	.LASF32
 782 018e 06       		.byte	0x6
 783 018f 79       		.byte	0x79
 784 0190 B8000000 		.4byte	0xb8
 785 0194 02       		.byte	0x2
 786 0195 23       		.byte	0x23
ARM GAS  /tmp/cc6uzPxP.s 			page 15


 787 0196 1C       		.uleb128 0x1c
 788 0197 06       		.uleb128 0x6
 789 0198 A1050000 		.4byte	.LASF33
 790 019c 06       		.byte	0x6
 791 019d 7D       		.byte	0x7d
 792 019e AD000000 		.4byte	0xad
 793 01a2 02       		.byte	0x2
 794 01a3 23       		.byte	0x23
 795 01a4 1D       		.uleb128 0x1d
 796 01a5 06       		.uleb128 0x6
 797 01a6 A8010000 		.4byte	.LASF34
 798 01aa 06       		.byte	0x6
 799 01ab 82       		.byte	0x82
 800 01ac C3000000 		.4byte	0xc3
 801 01b0 02       		.byte	0x2
 802 01b1 23       		.byte	0x23
 803 01b2 1E       		.uleb128 0x1e
 804 01b3 06       		.uleb128 0x6
 805 01b4 6A050000 		.4byte	.LASF35
 806 01b8 06       		.byte	0x6
 807 01b9 88       		.byte	0x88
 808 01ba CE000000 		.4byte	0xce
 809 01be 02       		.byte	0x2
 810 01bf 23       		.byte	0x23
 811 01c0 1F       		.uleb128 0x1f
 812 01c1 06       		.uleb128 0x6
 813 01c2 7D020000 		.4byte	.LASF36
 814 01c6 06       		.byte	0x6
 815 01c7 8F       		.byte	0x8f
 816 01c8 5B030000 		.4byte	0x35b
 817 01cc 02       		.byte	0x2
 818 01cd 23       		.byte	0x23
 819 01ce 20       		.uleb128 0x20
 820 01cf 07       		.uleb128 0x7
 821 01d0 705F7500 		.ascii	"p_u\000"
 822 01d4 06       		.byte	0x6
 823 01d5 B4       		.byte	0xb4
 824 01d6 24040000 		.4byte	0x424
 825 01da 02       		.byte	0x2
 826 01db 23       		.byte	0x23
 827 01dc 24       		.uleb128 0x24
 828 01dd 06       		.uleb128 0x6
 829 01de CD080000 		.4byte	.LASF37
 830 01e2 06       		.byte	0x6
 831 01e3 B9       		.byte	0xb9
 832 01e4 8D020000 		.4byte	0x28d
 833 01e8 02       		.byte	0x2
 834 01e9 23       		.byte	0x23
 835 01ea 28       		.uleb128 0x28
 836 01eb 06       		.uleb128 0x6
 837 01ec A1020000 		.4byte	.LASF38
 838 01f0 06       		.byte	0x6
 839 01f1 BF       		.byte	0xbf
 840 01f2 6B020000 		.4byte	0x26b
 841 01f6 02       		.byte	0x2
 842 01f7 23       		.byte	0x23
 843 01f8 2C       		.uleb128 0x2c
ARM GAS  /tmp/cc6uzPxP.s 			page 16


 844 01f9 06       		.uleb128 0x6
 845 01fa F8070000 		.4byte	.LASF39
 846 01fe 06       		.byte	0x6
 847 01ff C3       		.byte	0xc3
 848 0200 E4000000 		.4byte	0xe4
 849 0204 02       		.byte	0x2
 850 0205 23       		.byte	0x23
 851 0206 34       		.uleb128 0x34
 852 0207 06       		.uleb128 0x6
 853 0208 EE050000 		.4byte	.LASF40
 854 020c 06       		.byte	0x6
 855 020d C9       		.byte	0xc9
 856 020e EF000000 		.4byte	0xef
 857 0212 02       		.byte	0x2
 858 0213 23       		.byte	0x23
 859 0214 38       		.uleb128 0x38
 860 0215 06       		.uleb128 0x6
 861 0216 4B050000 		.4byte	.LASF41
 862 021a 06       		.byte	0x6
 863 021b D0       		.byte	0xd0
 864 021c 6B040000 		.4byte	0x46b
 865 0220 02       		.byte	0x2
 866 0221 23       		.byte	0x23
 867 0222 3C       		.uleb128 0x3c
 868 0223 06       		.uleb128 0x6
 869 0224 17000000 		.4byte	.LASF42
 870 0228 06       		.byte	0x6
 871 0229 D4       		.byte	0xd4
 872 022a D9000000 		.4byte	0xd9
 873 022e 02       		.byte	0x2
 874 022f 23       		.byte	0x23
 875 0230 40       		.uleb128 0x40
 876 0231 06       		.uleb128 0x6
 877 0232 36010000 		.4byte	.LASF43
 878 0236 06       		.byte	0x6
 879 0237 DA       		.byte	0xda
 880 0238 A3020000 		.4byte	0x2a3
 881 023c 02       		.byte	0x2
 882 023d 23       		.byte	0x23
 883 023e 44       		.uleb128 0x44
 884 023f 00       		.byte	0
 885 0240 08       		.uleb128 0x8
 886 0241 08       		.byte	0x8
 887 0242 05       		.byte	0x5
 888 0243 61       		.byte	0x61
 889 0244 65020000 		.4byte	0x265
 890 0248 06       		.uleb128 0x6
 891 0249 FB030000 		.4byte	.LASF25
 892 024d 05       		.byte	0x5
 893 024e 62       		.byte	0x62
 894 024f 65020000 		.4byte	0x265
 895 0253 02       		.byte	0x2
 896 0254 23       		.byte	0x23
 897 0255 00       		.uleb128 0
 898 0256 06       		.uleb128 0x6
 899 0257 D4040000 		.4byte	.LASF26
 900 025b 05       		.byte	0x5
ARM GAS  /tmp/cc6uzPxP.s 			page 17


 901 025c 64       		.byte	0x64
 902 025d 65020000 		.4byte	0x265
 903 0261 02       		.byte	0x2
 904 0262 23       		.byte	0x23
 905 0263 04       		.uleb128 0x4
 906 0264 00       		.byte	0
 907 0265 09       		.uleb128 0x9
 908 0266 04       		.byte	0x4
 909 0267 10010000 		.4byte	0x110
 910 026b 03       		.uleb128 0x3
 911 026c 35040000 		.4byte	.LASF44
 912 0270 05       		.byte	0x5
 913 0271 66       		.byte	0x66
 914 0272 40020000 		.4byte	0x240
 915 0276 08       		.uleb128 0x8
 916 0277 04       		.byte	0x4
 917 0278 05       		.byte	0x5
 918 0279 6B       		.byte	0x6b
 919 027a 8D020000 		.4byte	0x28d
 920 027e 06       		.uleb128 0x6
 921 027f FB030000 		.4byte	.LASF25
 922 0283 05       		.byte	0x5
 923 0284 6D       		.byte	0x6d
 924 0285 65020000 		.4byte	0x265
 925 0289 02       		.byte	0x2
 926 028a 23       		.byte	0x23
 927 028b 00       		.uleb128 0
 928 028c 00       		.byte	0
 929 028d 03       		.uleb128 0x3
 930 028e 4B030000 		.4byte	.LASF45
 931 0292 05       		.byte	0x5
 932 0293 70       		.byte	0x70
 933 0294 76020000 		.4byte	0x276
 934 0298 03       		.uleb128 0x3
 935 0299 17020000 		.4byte	.LASF46
 936 029d 07       		.byte	0x7
 937 029e E5       		.byte	0xe5
 938 029f A3020000 		.4byte	0x2a3
 939 02a3 0A       		.uleb128 0xa
 940 02a4 04       		.byte	0x4
 941 02a5 0B       		.uleb128 0xb
 942 02a6 7D070000 		.4byte	.LASF47
 943 02aa 24       		.byte	0x24
 944 02ab 07       		.byte	0x7
 945 02ac 0C01     		.2byte	0x10c
 946 02ae 33030000 		.4byte	0x333
 947 02b2 0C       		.uleb128 0xc
 948 02b3 723400   		.ascii	"r4\000"
 949 02b6 07       		.byte	0x7
 950 02b7 1F01     		.2byte	0x11f
 951 02b9 98020000 		.4byte	0x298
 952 02bd 02       		.byte	0x2
 953 02be 23       		.byte	0x23
 954 02bf 00       		.uleb128 0
 955 02c0 0C       		.uleb128 0xc
 956 02c1 723500   		.ascii	"r5\000"
 957 02c4 07       		.byte	0x7
ARM GAS  /tmp/cc6uzPxP.s 			page 18


 958 02c5 2001     		.2byte	0x120
 959 02c7 98020000 		.4byte	0x298
 960 02cb 02       		.byte	0x2
 961 02cc 23       		.byte	0x23
 962 02cd 04       		.uleb128 0x4
 963 02ce 0C       		.uleb128 0xc
 964 02cf 723600   		.ascii	"r6\000"
 965 02d2 07       		.byte	0x7
 966 02d3 2101     		.2byte	0x121
 967 02d5 98020000 		.4byte	0x298
 968 02d9 02       		.byte	0x2
 969 02da 23       		.byte	0x23
 970 02db 08       		.uleb128 0x8
 971 02dc 0C       		.uleb128 0xc
 972 02dd 723700   		.ascii	"r7\000"
 973 02e0 07       		.byte	0x7
 974 02e1 2201     		.2byte	0x122
 975 02e3 98020000 		.4byte	0x298
 976 02e7 02       		.byte	0x2
 977 02e8 23       		.byte	0x23
 978 02e9 0C       		.uleb128 0xc
 979 02ea 0C       		.uleb128 0xc
 980 02eb 723800   		.ascii	"r8\000"
 981 02ee 07       		.byte	0x7
 982 02ef 2301     		.2byte	0x123
 983 02f1 98020000 		.4byte	0x298
 984 02f5 02       		.byte	0x2
 985 02f6 23       		.byte	0x23
 986 02f7 10       		.uleb128 0x10
 987 02f8 0C       		.uleb128 0xc
 988 02f9 723900   		.ascii	"r9\000"
 989 02fc 07       		.byte	0x7
 990 02fd 2401     		.2byte	0x124
 991 02ff 98020000 		.4byte	0x298
 992 0303 02       		.byte	0x2
 993 0304 23       		.byte	0x23
 994 0305 14       		.uleb128 0x14
 995 0306 0C       		.uleb128 0xc
 996 0307 72313000 		.ascii	"r10\000"
 997 030b 07       		.byte	0x7
 998 030c 2501     		.2byte	0x125
 999 030e 98020000 		.4byte	0x298
 1000 0312 02       		.byte	0x2
 1001 0313 23       		.byte	0x23
 1002 0314 18       		.uleb128 0x18
 1003 0315 0C       		.uleb128 0xc
 1004 0316 72313100 		.ascii	"r11\000"
 1005 031a 07       		.byte	0x7
 1006 031b 2601     		.2byte	0x126
 1007 031d 98020000 		.4byte	0x298
 1008 0321 02       		.byte	0x2
 1009 0322 23       		.byte	0x23
 1010 0323 1C       		.uleb128 0x1c
 1011 0324 0C       		.uleb128 0xc
 1012 0325 6C7200   		.ascii	"lr\000"
 1013 0328 07       		.byte	0x7
 1014 0329 2701     		.2byte	0x127
ARM GAS  /tmp/cc6uzPxP.s 			page 19


 1015 032b 98020000 		.4byte	0x298
 1016 032f 02       		.byte	0x2
 1017 0330 23       		.byte	0x23
 1018 0331 20       		.uleb128 0x20
 1019 0332 00       		.byte	0
 1020 0333 0B       		.uleb128 0xb
 1021 0334 53070000 		.4byte	.LASF48
 1022 0338 04       		.byte	0x4
 1023 0339 07       		.byte	0x7
 1024 033a 3101     		.2byte	0x131
 1025 033c 50030000 		.4byte	0x350
 1026 0340 0C       		.uleb128 0xc
 1027 0341 72313300 		.ascii	"r13\000"
 1028 0345 07       		.byte	0x7
 1029 0346 3201     		.2byte	0x132
 1030 0348 50030000 		.4byte	0x350
 1031 034c 02       		.byte	0x2
 1032 034d 23       		.byte	0x23
 1033 034e 00       		.uleb128 0
 1034 034f 00       		.byte	0
 1035 0350 09       		.uleb128 0x9
 1036 0351 04       		.byte	0x4
 1037 0352 A5020000 		.4byte	0x2a5
 1038 0356 0D       		.uleb128 0xd
 1039 0357 86000000 		.4byte	0x86
 1040 035b 0D       		.uleb128 0xd
 1041 035c 05010000 		.4byte	0x105
 1042 0360 05       		.uleb128 0x5
 1043 0361 E2030000 		.4byte	.LASF49
 1044 0365 10       		.byte	0x10
 1045 0366 08       		.byte	0x8
 1046 0367 2C       		.byte	0x2c
 1047 0368 97030000 		.4byte	0x397
 1048 036c 06       		.uleb128 0x6
 1049 036d 3E010000 		.4byte	.LASF50
 1050 0371 08       		.byte	0x8
 1051 0372 2D       		.byte	0x2d
 1052 0373 6B020000 		.4byte	0x26b
 1053 0377 02       		.byte	0x2
 1054 0378 23       		.byte	0x23
 1055 0379 00       		.uleb128 0
 1056 037a 06       		.uleb128 0x6
 1057 037b B1080000 		.4byte	.LASF51
 1058 037f 08       		.byte	0x8
 1059 0380 2F       		.byte	0x2f
 1060 0381 65020000 		.4byte	0x265
 1061 0385 02       		.byte	0x2
 1062 0386 23       		.byte	0x23
 1063 0387 08       		.uleb128 0x8
 1064 0388 06       		.uleb128 0x6
 1065 0389 B3060000 		.4byte	.LASF52
 1066 038d 08       		.byte	0x8
 1067 038e 31       		.byte	0x31
 1068 038f 97030000 		.4byte	0x397
 1069 0393 02       		.byte	0x2
 1070 0394 23       		.byte	0x23
 1071 0395 0C       		.uleb128 0xc
ARM GAS  /tmp/cc6uzPxP.s 			page 20


 1072 0396 00       		.byte	0
 1073 0397 09       		.uleb128 0x9
 1074 0398 04       		.byte	0x4
 1075 0399 60030000 		.4byte	0x360
 1076 039d 03       		.uleb128 0x3
 1077 039e E2030000 		.4byte	.LASF49
 1078 03a2 08       		.byte	0x8
 1079 03a3 33       		.byte	0x33
 1080 03a4 60030000 		.4byte	0x360
 1081 03a8 03       		.uleb128 0x3
 1082 03a9 15080000 		.4byte	.LASF53
 1083 03ad 09       		.byte	0x9
 1084 03ae 2C       		.byte	0x2c
 1085 03af B3030000 		.4byte	0x3b3
 1086 03b3 05       		.uleb128 0x5
 1087 03b4 15080000 		.4byte	.LASF53
 1088 03b8 10       		.byte	0x10
 1089 03b9 09       		.byte	0x9
 1090 03ba 31       		.byte	0x31
 1091 03bb F8030000 		.4byte	0x3f8
 1092 03bf 06       		.uleb128 0x6
 1093 03c0 A9050000 		.4byte	.LASF54
 1094 03c4 09       		.byte	0x9
 1095 03c5 32       		.byte	0x32
 1096 03c6 F8030000 		.4byte	0x3f8
 1097 03ca 02       		.byte	0x2
 1098 03cb 23       		.byte	0x23
 1099 03cc 00       		.uleb128 0
 1100 03cd 06       		.uleb128 0x6
 1101 03ce 2A050000 		.4byte	.LASF55
 1102 03d2 09       		.byte	0x9
 1103 03d3 35       		.byte	0x35
 1104 03d4 65020000 		.4byte	0x265
 1105 03d8 02       		.byte	0x2
 1106 03d9 23       		.byte	0x23
 1107 03da 04       		.uleb128 0x4
 1108 03db 06       		.uleb128 0x6
 1109 03dc 72040000 		.4byte	.LASF56
 1110 03e0 09       		.byte	0x9
 1111 03e1 37       		.byte	0x37
 1112 03e2 EF000000 		.4byte	0xef
 1113 03e6 02       		.byte	0x2
 1114 03e7 23       		.byte	0x23
 1115 03e8 08       		.uleb128 0x8
 1116 03e9 06       		.uleb128 0x6
 1117 03ea 36050000 		.4byte	.LASF57
 1118 03ee 09       		.byte	0x9
 1119 03ef 3A       		.byte	0x3a
 1120 03f0 FA000000 		.4byte	0xfa
 1121 03f4 02       		.byte	0x2
 1122 03f5 23       		.byte	0x23
 1123 03f6 0C       		.uleb128 0xc
 1124 03f7 00       		.byte	0
 1125 03f8 09       		.uleb128 0x9
 1126 03f9 04       		.byte	0x4
 1127 03fa A8030000 		.4byte	0x3a8
 1128 03fe 05       		.uleb128 0x5
ARM GAS  /tmp/cc6uzPxP.s 			page 21


 1129 03ff 37020000 		.4byte	.LASF58
 1130 0403 04       		.byte	0x4
 1131 0404 09       		.byte	0x9
 1132 0405 41       		.byte	0x41
 1133 0406 19040000 		.4byte	0x419
 1134 040a 06       		.uleb128 0x6
 1135 040b CB070000 		.4byte	.LASF59
 1136 040f 09       		.byte	0x9
 1137 0410 42       		.byte	0x42
 1138 0411 F8030000 		.4byte	0x3f8
 1139 0415 02       		.byte	0x2
 1140 0416 23       		.byte	0x23
 1141 0417 00       		.uleb128 0
 1142 0418 00       		.byte	0
 1143 0419 03       		.uleb128 0x3
 1144 041a 37020000 		.4byte	.LASF58
 1145 041e 09       		.byte	0x9
 1146 041f 45       		.byte	0x45
 1147 0420 FE030000 		.4byte	0x3fe
 1148 0424 0E       		.uleb128 0xe
 1149 0425 04       		.byte	0x4
 1150 0426 06       		.byte	0x6
 1151 0427 96       		.byte	0x96
 1152 0428 59040000 		.4byte	0x459
 1153 042c 0F       		.uleb128 0xf
 1154 042d 29000000 		.4byte	.LASF60
 1155 0431 06       		.byte	0x6
 1156 0432 9D       		.byte	0x9d
 1157 0433 E4000000 		.4byte	0xe4
 1158 0437 0F       		.uleb128 0xf
 1159 0438 B3000000 		.4byte	.LASF61
 1160 043c 06       		.byte	0x6
 1161 043d A4       		.byte	0xa4
 1162 043e E4000000 		.4byte	0xe4
 1163 0442 0F       		.uleb128 0xf
 1164 0443 23080000 		.4byte	.LASF62
 1165 0447 06       		.byte	0x6
 1166 0448 AB       		.byte	0xab
 1167 0449 A3020000 		.4byte	0x2a3
 1168 044d 0F       		.uleb128 0xf
 1169 044e 9A050000 		.4byte	.LASF63
 1170 0452 06       		.byte	0x6
 1171 0453 B2       		.byte	0xb2
 1172 0454 EF000000 		.4byte	0xef
 1173 0458 00       		.byte	0
 1174 0459 09       		.uleb128 0x9
 1175 045a 04       		.byte	0x4
 1176 045b 5F040000 		.4byte	0x45f
 1177 045f 10       		.uleb128 0x10
 1178 0460 64040000 		.4byte	0x464
 1179 0464 04       		.uleb128 0x4
 1180 0465 01       		.byte	0x1
 1181 0466 08       		.byte	0x8
 1182 0467 56060000 		.4byte	.LASF64
 1183 046b 09       		.uleb128 0x9
 1184 046c 04       		.byte	0x4
 1185 046d 9D030000 		.4byte	0x39d
ARM GAS  /tmp/cc6uzPxP.s 			page 22


 1186 0471 09       		.uleb128 0x9
 1187 0472 04       		.byte	0x4
 1188 0473 77040000 		.4byte	0x477
 1189 0477 11       		.uleb128 0x11
 1190 0478 01       		.byte	0x1
 1191 0479 E4000000 		.4byte	0xe4
 1192 047d 87040000 		.4byte	0x487
 1193 0481 12       		.uleb128 0x12
 1194 0482 A3020000 		.4byte	0x2a3
 1195 0486 00       		.byte	0
 1196 0487 03       		.uleb128 0x3
 1197 0488 E2010000 		.4byte	.LASF65
 1198 048c 0A       		.byte	0xa
 1199 048d 37       		.byte	0x37
 1200 048e 92040000 		.4byte	0x492
 1201 0492 05       		.uleb128 0x5
 1202 0493 E2010000 		.4byte	.LASF65
 1203 0497 24       		.byte	0x24
 1204 0498 0A       		.byte	0xa
 1205 0499 45       		.byte	0x45
 1206 049a 0F050000 		.4byte	0x50f
 1207 049e 06       		.uleb128 0x6
 1208 049f F7000000 		.4byte	.LASF66
 1209 04a3 0A       		.byte	0xa
 1210 04a4 46       		.byte	0x46
 1211 04a5 6B020000 		.4byte	0x26b
 1212 04a9 02       		.byte	0x2
 1213 04aa 23       		.byte	0x23
 1214 04ab 00       		.uleb128 0
 1215 04ac 06       		.uleb128 0x6
 1216 04ad D8030000 		.4byte	.LASF67
 1217 04b1 0A       		.byte	0xa
 1218 04b2 47       		.byte	0x47
 1219 04b3 30000000 		.4byte	0x30
 1220 04b7 02       		.byte	0x2
 1221 04b8 23       		.byte	0x23
 1222 04b9 08       		.uleb128 0x8
 1223 04ba 06       		.uleb128 0x6
 1224 04bb AF010000 		.4byte	.LASF68
 1225 04bf 0A       		.byte	0xa
 1226 04c0 48       		.byte	0x48
 1227 04c1 32050000 		.4byte	0x532
 1228 04c5 02       		.byte	0x2
 1229 04c6 23       		.byte	0x23
 1230 04c7 0C       		.uleb128 0xc
 1231 04c8 06       		.uleb128 0x6
 1232 04c9 BA070000 		.4byte	.LASF69
 1233 04cd 0A       		.byte	0xa
 1234 04ce 49       		.byte	0x49
 1235 04cf 32050000 		.4byte	0x532
 1236 04d3 02       		.byte	0x2
 1237 04d4 23       		.byte	0x23
 1238 04d5 10       		.uleb128 0x10
 1239 04d6 06       		.uleb128 0x6
 1240 04d7 C6010000 		.4byte	.LASF70
 1241 04db 0A       		.byte	0xa
 1242 04dc 4B       		.byte	0x4b
ARM GAS  /tmp/cc6uzPxP.s 			page 23


 1243 04dd 32050000 		.4byte	0x532
 1244 04e1 02       		.byte	0x2
 1245 04e2 23       		.byte	0x23
 1246 04e3 14       		.uleb128 0x14
 1247 04e4 06       		.uleb128 0x6
 1248 04e5 ED040000 		.4byte	.LASF71
 1249 04e9 0A       		.byte	0xa
 1250 04ea 4C       		.byte	0x4c
 1251 04eb 32050000 		.4byte	0x532
 1252 04ef 02       		.byte	0x2
 1253 04f0 23       		.byte	0x23
 1254 04f1 18       		.uleb128 0x18
 1255 04f2 06       		.uleb128 0x6
 1256 04f3 E4070000 		.4byte	.LASF72
 1257 04f7 0A       		.byte	0xa
 1258 04f8 4D       		.byte	0x4d
 1259 04f9 0F050000 		.4byte	0x50f
 1260 04fd 02       		.byte	0x2
 1261 04fe 23       		.byte	0x23
 1262 04ff 1C       		.uleb128 0x1c
 1263 0500 06       		.uleb128 0x6
 1264 0501 A0080000 		.4byte	.LASF73
 1265 0505 0A       		.byte	0xa
 1266 0506 4E       		.byte	0x4e
 1267 0507 A3020000 		.4byte	0x2a3
 1268 050b 02       		.byte	0x2
 1269 050c 23       		.byte	0x23
 1270 050d 20       		.uleb128 0x20
 1271 050e 00       		.byte	0
 1272 050f 03       		.uleb128 0x3
 1273 0510 20020000 		.4byte	.LASF74
 1274 0514 0A       		.byte	0xa
 1275 0515 3A       		.byte	0x3a
 1276 0516 1A050000 		.4byte	0x51a
 1277 051a 09       		.uleb128 0x9
 1278 051b 04       		.byte	0x4
 1279 051c 20050000 		.4byte	0x520
 1280 0520 13       		.uleb128 0x13
 1281 0521 01       		.byte	0x1
 1282 0522 2C050000 		.4byte	0x52c
 1283 0526 12       		.uleb128 0x12
 1284 0527 2C050000 		.4byte	0x52c
 1285 052b 00       		.byte	0
 1286 052c 09       		.uleb128 0x9
 1287 052d 04       		.byte	0x4
 1288 052e 87040000 		.4byte	0x487
 1289 0532 09       		.uleb128 0x9
 1290 0533 04       		.byte	0x4
 1291 0534 49000000 		.4byte	0x49
 1292 0538 03       		.uleb128 0x3
 1293 0539 63030000 		.4byte	.LASF75
 1294 053d 0A       		.byte	0xa
 1295 053e 82       		.byte	0x82
 1296 053f 87040000 		.4byte	0x487
 1297 0543 03       		.uleb128 0x3
 1298 0544 30000000 		.4byte	.LASF76
 1299 0548 0A       		.byte	0xa
ARM GAS  /tmp/cc6uzPxP.s 			page 24


 1300 0549 F5       		.byte	0xf5
 1301 054a 87040000 		.4byte	0x487
 1302 054e 11       		.uleb128 0x11
 1303 054f 01       		.byte	0x1
 1304 0550 30000000 		.4byte	0x30
 1305 0554 68050000 		.4byte	0x568
 1306 0558 12       		.uleb128 0x12
 1307 0559 A3020000 		.4byte	0x2a3
 1308 055d 12       		.uleb128 0x12
 1309 055e 68050000 		.4byte	0x568
 1310 0562 12       		.uleb128 0x12
 1311 0563 30000000 		.4byte	0x30
 1312 0567 00       		.byte	0
 1313 0568 09       		.uleb128 0x9
 1314 0569 04       		.byte	0x4
 1315 056a 6E050000 		.4byte	0x56e
 1316 056e 10       		.uleb128 0x10
 1317 056f 49000000 		.4byte	0x49
 1318 0573 09       		.uleb128 0x9
 1319 0574 04       		.byte	0x4
 1320 0575 4E050000 		.4byte	0x54e
 1321 0579 11       		.uleb128 0x11
 1322 057a 01       		.byte	0x1
 1323 057b 30000000 		.4byte	0x30
 1324 057f 93050000 		.4byte	0x593
 1325 0583 12       		.uleb128 0x12
 1326 0584 A3020000 		.4byte	0x2a3
 1327 0588 12       		.uleb128 0x12
 1328 0589 32050000 		.4byte	0x532
 1329 058d 12       		.uleb128 0x12
 1330 058e 30000000 		.4byte	0x30
 1331 0592 00       		.byte	0
 1332 0593 09       		.uleb128 0x9
 1333 0594 04       		.byte	0x4
 1334 0595 79050000 		.4byte	0x579
 1335 0599 11       		.uleb128 0x11
 1336 059a 01       		.byte	0x1
 1337 059b E4000000 		.4byte	0xe4
 1338 059f AE050000 		.4byte	0x5ae
 1339 05a3 12       		.uleb128 0x12
 1340 05a4 A3020000 		.4byte	0x2a3
 1341 05a8 12       		.uleb128 0x12
 1342 05a9 49000000 		.4byte	0x49
 1343 05ad 00       		.byte	0
 1344 05ae 09       		.uleb128 0x9
 1345 05af 04       		.byte	0x4
 1346 05b0 99050000 		.4byte	0x599
 1347 05b4 14       		.uleb128 0x14
 1348 05b5 A7030000 		.4byte	.LASF196
 1349 05b9 01       		.byte	0x1
 1350 05ba 0B       		.byte	0xb
 1351 05bb A9       		.byte	0xa9
 1352 05bc 63070000 		.4byte	0x763
 1353 05c0 15       		.uleb128 0x15
 1354 05c1 C4060000 		.4byte	.LASF77
 1355 05c5 72       		.sleb128 -14
 1356 05c6 15       		.uleb128 0x15
ARM GAS  /tmp/cc6uzPxP.s 			page 25


 1357 05c7 84020000 		.4byte	.LASF78
 1358 05cb 74       		.sleb128 -12
 1359 05cc 15       		.uleb128 0x15
 1360 05cd 6E060000 		.4byte	.LASF79
 1361 05d1 75       		.sleb128 -11
 1362 05d2 15       		.uleb128 0x15
 1363 05d3 22060000 		.4byte	.LASF80
 1364 05d7 76       		.sleb128 -10
 1365 05d8 15       		.uleb128 0x15
 1366 05d9 F5040000 		.4byte	.LASF81
 1367 05dd 7B       		.sleb128 -5
 1368 05de 15       		.uleb128 0x15
 1369 05df 0C040000 		.4byte	.LASF82
 1370 05e3 7C       		.sleb128 -4
 1371 05e4 15       		.uleb128 0x15
 1372 05e5 0B020000 		.4byte	.LASF83
 1373 05e9 7E       		.sleb128 -2
 1374 05ea 15       		.uleb128 0x15
 1375 05eb 87030000 		.4byte	.LASF84
 1376 05ef 7F       		.sleb128 -1
 1377 05f0 15       		.uleb128 0x15
 1378 05f1 E0000000 		.4byte	.LASF85
 1379 05f5 00       		.sleb128 0
 1380 05f6 15       		.uleb128 0x15
 1381 05f7 00000000 		.4byte	.LASF86
 1382 05fb 01       		.sleb128 1
 1383 05fc 15       		.uleb128 0x15
 1384 05fd 04070000 		.4byte	.LASF87
 1385 0601 02       		.sleb128 2
 1386 0602 15       		.uleb128 0x15
 1387 0603 8D080000 		.4byte	.LASF88
 1388 0607 03       		.sleb128 3
 1389 0608 15       		.uleb128 0x15
 1390 0609 E3050000 		.4byte	.LASF89
 1391 060d 04       		.sleb128 4
 1392 060e 15       		.uleb128 0x15
 1393 060f 0C080000 		.4byte	.LASF90
 1394 0613 05       		.sleb128 5
 1395 0614 15       		.uleb128 0x15
 1396 0615 C0070000 		.4byte	.LASF91
 1397 0619 06       		.sleb128 6
 1398 061a 15       		.uleb128 0x15
 1399 061b DE080000 		.4byte	.LASF92
 1400 061f 07       		.sleb128 7
 1401 0620 15       		.uleb128 0x15
 1402 0621 B1050000 		.4byte	.LASF93
 1403 0625 08       		.sleb128 8
 1404 0626 15       		.uleb128 0x15
 1405 0627 ED070000 		.4byte	.LASF94
 1406 062b 09       		.sleb128 9
 1407 062c 15       		.uleb128 0x15
 1408 062d 5F050000 		.4byte	.LASF95
 1409 0631 0A       		.sleb128 10
 1410 0632 15       		.uleb128 0x15
 1411 0633 87040000 		.4byte	.LASF96
 1412 0637 0B       		.sleb128 11
 1413 0638 15       		.uleb128 0x15
ARM GAS  /tmp/cc6uzPxP.s 			page 26


 1414 0639 BC030000 		.4byte	.LASF97
 1415 063d 0C       		.sleb128 12
 1416 063e 15       		.uleb128 0x15
 1417 063f 87050000 		.4byte	.LASF98
 1418 0643 0D       		.sleb128 13
 1419 0644 15       		.uleb128 0x15
 1420 0645 74030000 		.4byte	.LASF99
 1421 0649 0E       		.sleb128 14
 1422 064a 15       		.uleb128 0x15
 1423 064b C3020000 		.4byte	.LASF100
 1424 064f 0F       		.sleb128 15
 1425 0650 15       		.uleb128 0x15
 1426 0651 E2060000 		.4byte	.LASF101
 1427 0655 10       		.sleb128 16
 1428 0656 15       		.uleb128 0x15
 1429 0657 2A080000 		.4byte	.LASF102
 1430 065b 11       		.sleb128 17
 1431 065c 15       		.uleb128 0x15
 1432 065d CE010000 		.4byte	.LASF103
 1433 0661 12       		.sleb128 18
 1434 0662 15       		.uleb128 0x15
 1435 0663 FB020000 		.4byte	.LASF104
 1436 0667 13       		.sleb128 19
 1437 0668 15       		.uleb128 0x15
 1438 0669 43020000 		.4byte	.LASF105
 1439 066d 14       		.sleb128 20
 1440 066e 15       		.uleb128 0x15
 1441 066f 6F000000 		.4byte	.LASF106
 1442 0673 15       		.sleb128 21
 1443 0674 15       		.uleb128 0x15
 1444 0675 A5060000 		.4byte	.LASF107
 1445 0679 16       		.sleb128 22
 1446 067a 15       		.uleb128 0x15
 1447 067b 9B010000 		.4byte	.LASF108
 1448 067f 17       		.sleb128 23
 1449 0680 15       		.uleb128 0x15
 1450 0681 8D060000 		.4byte	.LASF109
 1451 0685 18       		.sleb128 24
 1452 0686 15       		.uleb128 0x15
 1453 0687 62000000 		.4byte	.LASF110
 1454 068b 19       		.sleb128 25
 1455 068c 15       		.uleb128 0x15
 1456 068d E9020000 		.4byte	.LASF111
 1457 0691 1A       		.sleb128 26
 1458 0692 15       		.uleb128 0x15
 1459 0693 94030000 		.4byte	.LASF112
 1460 0697 1B       		.sleb128 27
 1461 0698 15       		.uleb128 0x15
 1462 0699 B0070000 		.4byte	.LASF113
 1463 069d 1C       		.sleb128 28
 1464 069e 15       		.uleb128 0x15
 1465 069f A7080000 		.4byte	.LASF114
 1466 06a3 1D       		.sleb128 29
 1467 06a4 15       		.uleb128 0x15
 1468 06a5 C9000000 		.4byte	.LASF115
 1469 06a9 1E       		.sleb128 30
 1470 06aa 15       		.uleb128 0x15
ARM GAS  /tmp/cc6uzPxP.s 			page 27


 1471 06ab 3C000000 		.4byte	.LASF116
 1472 06af 1F       		.sleb128 31
 1473 06b0 15       		.uleb128 0x15
 1474 06b1 80080000 		.4byte	.LASF117
 1475 06b5 20       		.sleb128 32
 1476 06b6 15       		.uleb128 0x15
 1477 06b7 8D070000 		.4byte	.LASF118
 1478 06bb 21       		.sleb128 33
 1479 06bc 15       		.uleb128 0x15
 1480 06bd BC000000 		.4byte	.LASF119
 1481 06c1 22       		.sleb128 34
 1482 06c2 15       		.uleb128 0x15
 1483 06c3 24030000 		.4byte	.LASF120
 1484 06c7 23       		.sleb128 35
 1485 06c8 15       		.uleb128 0x15
 1486 06c9 1E040000 		.4byte	.LASF121
 1487 06cd 24       		.sleb128 36
 1488 06ce 15       		.uleb128 0x15
 1489 06cf D3070000 		.4byte	.LASF122
 1490 06d3 25       		.sleb128 37
 1491 06d4 15       		.uleb128 0x15
 1492 06d5 16060000 		.4byte	.LASF123
 1493 06d9 26       		.sleb128 38
 1494 06da 15       		.uleb128 0x15
 1495 06db 9A070000 		.4byte	.LASF124
 1496 06df 27       		.sleb128 39
 1497 06e0 15       		.uleb128 0x15
 1498 06e1 15030000 		.4byte	.LASF125
 1499 06e5 28       		.sleb128 40
 1500 06e6 15       		.uleb128 0x15
 1501 06e7 49000000 		.4byte	.LASF126
 1502 06eb 29       		.sleb128 41
 1503 06ec 15       		.uleb128 0x15
 1504 06ed FA010000 		.4byte	.LASF127
 1505 06f1 2A       		.sleb128 42
 1506 06f2 15       		.uleb128 0x15
 1507 06f3 02040000 		.4byte	.LASF128
 1508 06f7 32       		.sleb128 50
 1509 06f8 15       		.uleb128 0x15
 1510 06f9 96080000 		.4byte	.LASF129
 1511 06fd 33       		.sleb128 51
 1512 06fe 15       		.uleb128 0x15
 1513 06ff EF010000 		.4byte	.LASF130
 1514 0703 34       		.sleb128 52
 1515 0704 15       		.uleb128 0x15
 1516 0705 7C050000 		.4byte	.LASF131
 1517 0709 35       		.sleb128 53
 1518 070a 15       		.uleb128 0x15
 1519 070b 7C060000 		.4byte	.LASF132
 1520 070f 36       		.sleb128 54
 1521 0710 15       		.uleb128 0x15
 1522 0711 9B060000 		.4byte	.LASF133
 1523 0715 37       		.sleb128 55
 1524 0716 15       		.uleb128 0x15
 1525 0717 94000000 		.4byte	.LASF134
 1526 071b 38       		.sleb128 56
 1527 071c 15       		.uleb128 0x15
ARM GAS  /tmp/cc6uzPxP.s 			page 28


 1528 071d E8030000 		.4byte	.LASF135
 1529 0721 39       		.sleb128 57
 1530 0722 15       		.uleb128 0x15
 1531 0723 4E040000 		.4byte	.LASF136
 1532 0727 3A       		.sleb128 58
 1533 0728 15       		.uleb128 0x15
 1534 0729 5B060000 		.4byte	.LASF137
 1535 072d 3B       		.sleb128 59
 1536 072e 15       		.uleb128 0x15
 1537 072f 58010000 		.4byte	.LASF138
 1538 0733 3C       		.sleb128 60
 1539 0734 15       		.uleb128 0x15
 1540 0735 CF030000 		.4byte	.LASF139
 1541 0739 3D       		.sleb128 61
 1542 073a 15       		.uleb128 0x15
 1543 073b B8010000 		.4byte	.LASF140
 1544 073f 3E       		.sleb128 62
 1545 0740 15       		.uleb128 0x15
 1546 0741 28040000 		.4byte	.LASF141
 1547 0745 3F       		.sleb128 63
 1548 0746 15       		.uleb128 0x15
 1549 0747 09000000 		.4byte	.LASF142
 1550 074b C000     		.sleb128 64
 1551 074d 15       		.uleb128 0x15
 1552 074e 1B010000 		.4byte	.LASF143
 1553 0752 C100     		.sleb128 65
 1554 0754 15       		.uleb128 0x15
 1555 0755 B9080000 		.4byte	.LASF144
 1556 0759 C200     		.sleb128 66
 1557 075b 15       		.uleb128 0x15
 1558 075c 42040000 		.4byte	.LASF145
 1559 0760 C300     		.sleb128 67
 1560 0762 00       		.byte	0
 1561 0763 0D       		.uleb128 0xd
 1562 0764 62000000 		.4byte	0x62
 1563 0768 0D       		.uleb128 0xd
 1564 0769 74000000 		.4byte	0x74
 1565 076d 16       		.uleb128 0x16
 1566 076e 30       		.byte	0x30
 1567 076f 0B       		.byte	0xb
 1568 0770 4204     		.2byte	0x442
 1569 0772 2A080000 		.4byte	0x82a
 1570 0776 0C       		.uleb128 0xc
 1571 0777 435200   		.ascii	"CR\000"
 1572 077a 0B       		.byte	0xb
 1573 077b 4404     		.2byte	0x444
 1574 077d 56030000 		.4byte	0x356
 1575 0781 02       		.byte	0x2
 1576 0782 23       		.byte	0x23
 1577 0783 00       		.uleb128 0
 1578 0784 17       		.uleb128 0x17
 1579 0785 49080000 		.4byte	.LASF146
 1580 0789 0B       		.byte	0xb
 1581 078a 4504     		.2byte	0x445
 1582 078c 56030000 		.4byte	0x356
 1583 0790 02       		.byte	0x2
 1584 0791 23       		.byte	0x23
ARM GAS  /tmp/cc6uzPxP.s 			page 29


 1585 0792 04       		.uleb128 0x4
 1586 0793 0C       		.uleb128 0xc
 1587 0794 43495200 		.ascii	"CIR\000"
 1588 0798 0B       		.byte	0xb
 1589 0799 4604     		.2byte	0x446
 1590 079b 56030000 		.4byte	0x356
 1591 079f 02       		.byte	0x2
 1592 07a0 23       		.byte	0x23
 1593 07a1 08       		.uleb128 0x8
 1594 07a2 17       		.uleb128 0x17
 1595 07a3 89010000 		.4byte	.LASF147
 1596 07a7 0B       		.byte	0xb
 1597 07a8 4704     		.2byte	0x447
 1598 07aa 56030000 		.4byte	0x356
 1599 07ae 02       		.byte	0x2
 1600 07af 23       		.byte	0x23
 1601 07b0 0C       		.uleb128 0xc
 1602 07b1 17       		.uleb128 0x17
 1603 07b2 69040000 		.4byte	.LASF148
 1604 07b6 0B       		.byte	0xb
 1605 07b7 4804     		.2byte	0x448
 1606 07b9 56030000 		.4byte	0x356
 1607 07bd 02       		.byte	0x2
 1608 07be 23       		.byte	0x23
 1609 07bf 10       		.uleb128 0x10
 1610 07c0 17       		.uleb128 0x17
 1611 07c1 D7080000 		.4byte	.LASF149
 1612 07c5 0B       		.byte	0xb
 1613 07c6 4904     		.2byte	0x449
 1614 07c8 56030000 		.4byte	0x356
 1615 07cc 02       		.byte	0x2
 1616 07cd 23       		.byte	0x23
 1617 07ce 14       		.uleb128 0x14
 1618 07cf 17       		.uleb128 0x17
 1619 07d0 C4050000 		.4byte	.LASF150
 1620 07d4 0B       		.byte	0xb
 1621 07d5 4A04     		.2byte	0x44a
 1622 07d7 56030000 		.4byte	0x356
 1623 07db 02       		.byte	0x2
 1624 07dc 23       		.byte	0x23
 1625 07dd 18       		.uleb128 0x18
 1626 07de 17       		.uleb128 0x17
 1627 07df FC060000 		.4byte	.LASF151
 1628 07e3 0B       		.byte	0xb
 1629 07e4 4B04     		.2byte	0x44b
 1630 07e6 56030000 		.4byte	0x356
 1631 07ea 02       		.byte	0x2
 1632 07eb 23       		.byte	0x23
 1633 07ec 1C       		.uleb128 0x1c
 1634 07ed 17       		.uleb128 0x17
 1635 07ee DF070000 		.4byte	.LASF152
 1636 07f2 0B       		.byte	0xb
 1637 07f3 4C04     		.2byte	0x44c
 1638 07f5 56030000 		.4byte	0x356
 1639 07f9 02       		.byte	0x2
 1640 07fa 23       		.byte	0x23
 1641 07fb 20       		.uleb128 0x20
ARM GAS  /tmp/cc6uzPxP.s 			page 30


 1642 07fc 0C       		.uleb128 0xc
 1643 07fd 43535200 		.ascii	"CSR\000"
 1644 0801 0B       		.byte	0xb
 1645 0802 4D04     		.2byte	0x44d
 1646 0804 56030000 		.4byte	0x356
 1647 0808 02       		.byte	0x2
 1648 0809 23       		.byte	0x23
 1649 080a 24       		.uleb128 0x24
 1650 080b 17       		.uleb128 0x17
 1651 080c 61040000 		.4byte	.LASF153
 1652 0810 0B       		.byte	0xb
 1653 0811 5004     		.2byte	0x450
 1654 0813 56030000 		.4byte	0x356
 1655 0817 02       		.byte	0x2
 1656 0818 23       		.byte	0x23
 1657 0819 28       		.uleb128 0x28
 1658 081a 17       		.uleb128 0x17
 1659 081b FE070000 		.4byte	.LASF154
 1660 081f 0B       		.byte	0xb
 1661 0820 5104     		.2byte	0x451
 1662 0822 56030000 		.4byte	0x356
 1663 0826 02       		.byte	0x2
 1664 0827 23       		.byte	0x23
 1665 0828 2C       		.uleb128 0x2c
 1666 0829 00       		.byte	0
 1667 082a 18       		.uleb128 0x18
 1668 082b 3F050000 		.4byte	.LASF155
 1669 082f 0B       		.byte	0xb
 1670 0830 5804     		.2byte	0x458
 1671 0832 6D070000 		.4byte	0x76d
 1672 0836 16       		.uleb128 0x16
 1673 0837 1C       		.byte	0x1c
 1674 0838 0B       		.byte	0xb
 1675 0839 E004     		.2byte	0x4e0
 1676 083b 10090000 		.4byte	0x910
 1677 083f 0C       		.uleb128 0xc
 1678 0840 535200   		.ascii	"SR\000"
 1679 0843 0B       		.byte	0xb
 1680 0844 E204     		.2byte	0x4e2
 1681 0846 63070000 		.4byte	0x763
 1682 084a 02       		.byte	0x2
 1683 084b 23       		.byte	0x23
 1684 084c 00       		.uleb128 0
 1685 084d 17       		.uleb128 0x17
 1686 084e A2040000 		.4byte	.LASF156
 1687 0852 0B       		.byte	0xb
 1688 0853 E304     		.2byte	0x4e3
 1689 0855 62000000 		.4byte	0x62
 1690 0859 02       		.byte	0x2
 1691 085a 23       		.byte	0x23
 1692 085b 02       		.uleb128 0x2
 1693 085c 0C       		.uleb128 0xc
 1694 085d 445200   		.ascii	"DR\000"
 1695 0860 0B       		.byte	0xb
 1696 0861 E404     		.2byte	0x4e4
 1697 0863 63070000 		.4byte	0x763
 1698 0867 02       		.byte	0x2
ARM GAS  /tmp/cc6uzPxP.s 			page 31


 1699 0868 23       		.byte	0x23
 1700 0869 04       		.uleb128 0x4
 1701 086a 17       		.uleb128 0x17
 1702 086b AC040000 		.4byte	.LASF157
 1703 086f 0B       		.byte	0xb
 1704 0870 E504     		.2byte	0x4e5
 1705 0872 62000000 		.4byte	0x62
 1706 0876 02       		.byte	0x2
 1707 0877 23       		.byte	0x23
 1708 0878 06       		.uleb128 0x6
 1709 0879 0C       		.uleb128 0xc
 1710 087a 42525200 		.ascii	"BRR\000"
 1711 087e 0B       		.byte	0xb
 1712 087f E604     		.2byte	0x4e6
 1713 0881 63070000 		.4byte	0x763
 1714 0885 02       		.byte	0x2
 1715 0886 23       		.byte	0x23
 1716 0887 08       		.uleb128 0x8
 1717 0888 17       		.uleb128 0x17
 1718 0889 B6040000 		.4byte	.LASF158
 1719 088d 0B       		.byte	0xb
 1720 088e E704     		.2byte	0x4e7
 1721 0890 62000000 		.4byte	0x62
 1722 0894 02       		.byte	0x2
 1723 0895 23       		.byte	0x23
 1724 0896 0A       		.uleb128 0xa
 1725 0897 0C       		.uleb128 0xc
 1726 0898 43523100 		.ascii	"CR1\000"
 1727 089c 0B       		.byte	0xb
 1728 089d E804     		.2byte	0x4e8
 1729 089f 63070000 		.4byte	0x763
 1730 08a3 02       		.byte	0x2
 1731 08a4 23       		.byte	0x23
 1732 08a5 0C       		.uleb128 0xc
 1733 08a6 17       		.uleb128 0x17
 1734 08a7 C0040000 		.4byte	.LASF159
 1735 08ab 0B       		.byte	0xb
 1736 08ac E904     		.2byte	0x4e9
 1737 08ae 62000000 		.4byte	0x62
 1738 08b2 02       		.byte	0x2
 1739 08b3 23       		.byte	0x23
 1740 08b4 0E       		.uleb128 0xe
 1741 08b5 0C       		.uleb128 0xc
 1742 08b6 43523200 		.ascii	"CR2\000"
 1743 08ba 0B       		.byte	0xb
 1744 08bb EA04     		.2byte	0x4ea
 1745 08bd 63070000 		.4byte	0x763
 1746 08c1 02       		.byte	0x2
 1747 08c2 23       		.byte	0x23
 1748 08c3 10       		.uleb128 0x10
 1749 08c4 17       		.uleb128 0x17
 1750 08c5 CA040000 		.4byte	.LASF160
 1751 08c9 0B       		.byte	0xb
 1752 08ca EB04     		.2byte	0x4eb
 1753 08cc 62000000 		.4byte	0x62
 1754 08d0 02       		.byte	0x2
 1755 08d1 23       		.byte	0x23
ARM GAS  /tmp/cc6uzPxP.s 			page 32


 1756 08d2 12       		.uleb128 0x12
 1757 08d3 0C       		.uleb128 0xc
 1758 08d4 43523300 		.ascii	"CR3\000"
 1759 08d8 0B       		.byte	0xb
 1760 08d9 EC04     		.2byte	0x4ec
 1761 08db 63070000 		.4byte	0x763
 1762 08df 02       		.byte	0x2
 1763 08e0 23       		.byte	0x23
 1764 08e1 14       		.uleb128 0x14
 1765 08e2 17       		.uleb128 0x17
 1766 08e3 03060000 		.4byte	.LASF161
 1767 08e7 0B       		.byte	0xb
 1768 08e8 ED04     		.2byte	0x4ed
 1769 08ea 62000000 		.4byte	0x62
 1770 08ee 02       		.byte	0x2
 1771 08ef 23       		.byte	0x23
 1772 08f0 16       		.uleb128 0x16
 1773 08f1 17       		.uleb128 0x17
 1774 08f2 29010000 		.4byte	.LASF162
 1775 08f6 0B       		.byte	0xb
 1776 08f7 EE04     		.2byte	0x4ee
 1777 08f9 63070000 		.4byte	0x763
 1778 08fd 02       		.byte	0x2
 1779 08fe 23       		.byte	0x23
 1780 08ff 18       		.uleb128 0x18
 1781 0900 17       		.uleb128 0x17
 1782 0901 DB040000 		.4byte	.LASF163
 1783 0905 0B       		.byte	0xb
 1784 0906 EF04     		.2byte	0x4ef
 1785 0908 62000000 		.4byte	0x62
 1786 090c 02       		.byte	0x2
 1787 090d 23       		.byte	0x23
 1788 090e 1A       		.uleb128 0x1a
 1789 090f 00       		.byte	0
 1790 0910 18       		.uleb128 0x18
 1791 0911 2E030000 		.4byte	.LASF164
 1792 0915 0B       		.byte	0xb
 1793 0916 F004     		.2byte	0x4f0
 1794 0918 36080000 		.4byte	0x836
 1795 091c 11       		.uleb128 0x11
 1796 091d 01       		.byte	0x1
 1797 091e E4000000 		.4byte	0xe4
 1798 0922 36090000 		.4byte	0x936
 1799 0926 12       		.uleb128 0x12
 1800 0927 A3020000 		.4byte	0x2a3
 1801 092b 12       		.uleb128 0x12
 1802 092c 49000000 		.4byte	0x49
 1803 0930 12       		.uleb128 0x12
 1804 0931 05010000 		.4byte	0x105
 1805 0935 00       		.byte	0
 1806 0936 09       		.uleb128 0x9
 1807 0937 04       		.byte	0x4
 1808 0938 1C090000 		.4byte	0x91c
 1809 093c 11       		.uleb128 0x11
 1810 093d 01       		.byte	0x1
 1811 093e E4000000 		.4byte	0xe4
 1812 0942 51090000 		.4byte	0x951
ARM GAS  /tmp/cc6uzPxP.s 			page 33


 1813 0946 12       		.uleb128 0x12
 1814 0947 A3020000 		.4byte	0x2a3
 1815 094b 12       		.uleb128 0x12
 1816 094c 05010000 		.4byte	0x105
 1817 0950 00       		.byte	0
 1818 0951 09       		.uleb128 0x9
 1819 0952 04       		.byte	0x4
 1820 0953 3C090000 		.4byte	0x93c
 1821 0957 11       		.uleb128 0x11
 1822 0958 01       		.byte	0x1
 1823 0959 30000000 		.4byte	0x30
 1824 095d 76090000 		.4byte	0x976
 1825 0961 12       		.uleb128 0x12
 1826 0962 A3020000 		.4byte	0x2a3
 1827 0966 12       		.uleb128 0x12
 1828 0967 68050000 		.4byte	0x568
 1829 096b 12       		.uleb128 0x12
 1830 096c 30000000 		.4byte	0x30
 1831 0970 12       		.uleb128 0x12
 1832 0971 05010000 		.4byte	0x105
 1833 0975 00       		.byte	0
 1834 0976 09       		.uleb128 0x9
 1835 0977 04       		.byte	0x4
 1836 0978 57090000 		.4byte	0x957
 1837 097c 11       		.uleb128 0x11
 1838 097d 01       		.byte	0x1
 1839 097e 30000000 		.4byte	0x30
 1840 0982 9B090000 		.4byte	0x99b
 1841 0986 12       		.uleb128 0x12
 1842 0987 A3020000 		.4byte	0x2a3
 1843 098b 12       		.uleb128 0x12
 1844 098c 32050000 		.4byte	0x532
 1845 0990 12       		.uleb128 0x12
 1846 0991 30000000 		.4byte	0x30
 1847 0995 12       		.uleb128 0x12
 1848 0996 05010000 		.4byte	0x105
 1849 099a 00       		.byte	0
 1850 099b 09       		.uleb128 0x9
 1851 099c 04       		.byte	0x4
 1852 099d 7C090000 		.4byte	0x97c
 1853 09a1 19       		.uleb128 0x19
 1854 09a2 01       		.byte	0x1
 1855 09a3 0C       		.byte	0xc
 1856 09a4 64       		.byte	0x64
 1857 09a5 BC090000 		.4byte	0x9bc
 1858 09a9 15       		.uleb128 0x15
 1859 09aa F9050000 		.4byte	.LASF165
 1860 09ae 00       		.sleb128 0
 1861 09af 15       		.uleb128 0x15
 1862 09b0 BC050000 		.4byte	.LASF166
 1863 09b4 01       		.sleb128 1
 1864 09b5 15       		.uleb128 0x15
 1865 09b6 84070000 		.4byte	.LASF167
 1866 09ba 02       		.sleb128 2
 1867 09bb 00       		.byte	0
 1868 09bc 03       		.uleb128 0x3
 1869 09bd A6070000 		.4byte	.LASF168
ARM GAS  /tmp/cc6uzPxP.s 			page 34


 1870 09c1 0C       		.byte	0xc
 1871 09c2 68       		.byte	0x68
 1872 09c3 A1090000 		.4byte	0x9a1
 1873 09c7 03       		.uleb128 0x3
 1874 09c8 32060000 		.4byte	.LASF169
 1875 09cc 0C       		.byte	0xc
 1876 09cd 6D       		.byte	0x6d
 1877 09ce D2090000 		.4byte	0x9d2
 1878 09d2 05       		.uleb128 0x5
 1879 09d3 32060000 		.4byte	.LASF169
 1880 09d7 78       		.byte	0x78
 1881 09d8 0C       		.byte	0xc
 1882 09d9 87       		.byte	0x87
 1883 09da 4D0A0000 		.4byte	0xa4d
 1884 09de 07       		.uleb128 0x7
 1885 09df 766D7400 		.ascii	"vmt\000"
 1886 09e3 0C       		.byte	0xc
 1887 09e4 89       		.byte	0x89
 1888 09e5 160B0000 		.4byte	0xb16
 1889 09e9 02       		.byte	0x2
 1890 09ea 23       		.byte	0x23
 1891 09eb 00       		.uleb128 0
 1892 09ec 06       		.uleb128 0x6
 1893 09ed BD020000 		.4byte	.LASF170
 1894 09f1 0C       		.byte	0xc
 1895 09f2 8A       		.byte	0x8a
 1896 09f3 19040000 		.4byte	0x419
 1897 09f7 02       		.byte	0x2
 1898 09f8 23       		.byte	0x23
 1899 09f9 04       		.uleb128 0x4
 1900 09fa 06       		.uleb128 0x6
 1901 09fb 7A010000 		.4byte	.LASF171
 1902 09ff 0C       		.byte	0xc
 1903 0a00 8A       		.byte	0x8a
 1904 0a01 BC090000 		.4byte	0x9bc
 1905 0a05 02       		.byte	0x2
 1906 0a06 23       		.byte	0x23
 1907 0a07 08       		.uleb128 0x8
 1908 0a08 06       		.uleb128 0x6
 1909 0a09 9A020000 		.4byte	.LASF172
 1910 0a0d 0C       		.byte	0xc
 1911 0a0e 8A       		.byte	0x8a
 1912 0a0f 38050000 		.4byte	0x538
 1913 0a13 02       		.byte	0x2
 1914 0a14 23       		.byte	0x23
 1915 0a15 0C       		.uleb128 0xc
 1916 0a16 06       		.uleb128 0x6
 1917 0a17 0E030000 		.4byte	.LASF173
 1918 0a1b 0C       		.byte	0xc
 1919 0a1c 8A       		.byte	0x8a
 1920 0a1d 43050000 		.4byte	0x543
 1921 0a21 02       		.byte	0x2
 1922 0a22 23       		.byte	0x23
 1923 0a23 30       		.uleb128 0x30
 1924 0a24 07       		.uleb128 0x7
 1925 0a25 696200   		.ascii	"ib\000"
 1926 0a28 0C       		.byte	0xc
ARM GAS  /tmp/cc6uzPxP.s 			page 35


 1927 0a29 8A       		.byte	0x8a
 1928 0a2a 210B0000 		.4byte	0xb21
 1929 0a2e 02       		.byte	0x2
 1930 0a2f 23       		.byte	0x23
 1931 0a30 54       		.uleb128 0x54
 1932 0a31 07       		.uleb128 0x7
 1933 0a32 6F6200   		.ascii	"ob\000"
 1934 0a35 0C       		.byte	0xc
 1935 0a36 8A       		.byte	0x8a
 1936 0a37 210B0000 		.4byte	0xb21
 1937 0a3b 02       		.byte	0x2
 1938 0a3c 23       		.byte	0x23
 1939 0a3d 64       		.uleb128 0x64
 1940 0a3e 06       		.uleb128 0x6
 1941 0a3f 51020000 		.4byte	.LASF174
 1942 0a43 0C       		.byte	0xc
 1943 0a44 8A       		.byte	0x8a
 1944 0a45 310B0000 		.4byte	0xb31
 1945 0a49 02       		.byte	0x2
 1946 0a4a 23       		.byte	0x23
 1947 0a4b 74       		.uleb128 0x74
 1948 0a4c 00       		.byte	0
 1949 0a4d 08       		.uleb128 0x8
 1950 0a4e 0C       		.byte	0xc
 1951 0a4f 0D       		.byte	0xd
 1952 0a50 D7       		.byte	0xd7
 1953 0a51 8E0A0000 		.4byte	0xa8e
 1954 0a55 06       		.uleb128 0x6
 1955 0a56 6E030000 		.4byte	.LASF175
 1956 0a5a 0D       		.byte	0xd
 1957 0a5b DB       		.byte	0xdb
 1958 0a5c 86000000 		.4byte	0x86
 1959 0a60 02       		.byte	0x2
 1960 0a61 23       		.byte	0x23
 1961 0a62 00       		.uleb128 0
 1962 0a63 07       		.uleb128 0x7
 1963 0a64 63723100 		.ascii	"cr1\000"
 1964 0a68 0D       		.byte	0xd
 1965 0a69 E0       		.byte	0xe0
 1966 0a6a 62000000 		.4byte	0x62
 1967 0a6e 02       		.byte	0x2
 1968 0a6f 23       		.byte	0x23
 1969 0a70 04       		.uleb128 0x4
 1970 0a71 07       		.uleb128 0x7
 1971 0a72 63723200 		.ascii	"cr2\000"
 1972 0a76 0D       		.byte	0xd
 1973 0a77 E4       		.byte	0xe4
 1974 0a78 62000000 		.4byte	0x62
 1975 0a7c 02       		.byte	0x2
 1976 0a7d 23       		.byte	0x23
 1977 0a7e 06       		.uleb128 0x6
 1978 0a7f 07       		.uleb128 0x7
 1979 0a80 63723300 		.ascii	"cr3\000"
 1980 0a84 0D       		.byte	0xd
 1981 0a85 E8       		.byte	0xe8
 1982 0a86 62000000 		.4byte	0x62
 1983 0a8a 02       		.byte	0x2
ARM GAS  /tmp/cc6uzPxP.s 			page 36


 1984 0a8b 23       		.byte	0x23
 1985 0a8c 08       		.uleb128 0x8
 1986 0a8d 00       		.byte	0
 1987 0a8e 03       		.uleb128 0x3
 1988 0a8f 7A040000 		.4byte	.LASF176
 1989 0a93 0D       		.byte	0xd
 1990 0a94 E9       		.byte	0xe9
 1991 0a95 4D0A0000 		.4byte	0xa4d
 1992 0a99 05       		.uleb128 0x5
 1993 0a9a 6D020000 		.4byte	.LASF177
 1994 0a9e 20       		.byte	0x20
 1995 0a9f 0C       		.byte	0xc
 1996 0aa0 7C       		.byte	0x7c
 1997 0aa1 160B0000 		.4byte	0xb16
 1998 0aa5 06       		.uleb128 0x6
 1999 0aa6 A1030000 		.4byte	.LASF178
 2000 0aaa 0C       		.byte	0xc
 2001 0aab 7D       		.byte	0x7d
 2002 0aac 73050000 		.4byte	0x573
 2003 0ab0 02       		.byte	0x2
 2004 0ab1 23       		.byte	0x23
 2005 0ab2 00       		.uleb128 0
 2006 0ab3 06       		.uleb128 0x6
 2007 0ab4 51060000 		.4byte	.LASF179
 2008 0ab8 0C       		.byte	0xc
 2009 0ab9 7D       		.byte	0x7d
 2010 0aba 93050000 		.4byte	0x593
 2011 0abe 02       		.byte	0x2
 2012 0abf 23       		.byte	0x23
 2013 0ac0 04       		.uleb128 0x4
 2014 0ac1 07       		.uleb128 0x7
 2015 0ac2 70757400 		.ascii	"put\000"
 2016 0ac6 0C       		.byte	0xc
 2017 0ac7 7D       		.byte	0x7d
 2018 0ac8 AE050000 		.4byte	0x5ae
 2019 0acc 02       		.byte	0x2
 2020 0acd 23       		.byte	0x23
 2021 0ace 08       		.uleb128 0x8
 2022 0acf 07       		.uleb128 0x7
 2023 0ad0 67657400 		.ascii	"get\000"
 2024 0ad4 0C       		.byte	0xc
 2025 0ad5 7D       		.byte	0x7d
 2026 0ad6 71040000 		.4byte	0x471
 2027 0ada 02       		.byte	0x2
 2028 0adb 23       		.byte	0x23
 2029 0adc 0C       		.uleb128 0xc
 2030 0add 06       		.uleb128 0x6
 2031 0ade AC030000 		.4byte	.LASF180
 2032 0ae2 0C       		.byte	0xc
 2033 0ae3 7D       		.byte	0x7d
 2034 0ae4 36090000 		.4byte	0x936
 2035 0ae8 02       		.byte	0x2
 2036 0ae9 23       		.byte	0x23
 2037 0aea 10       		.uleb128 0x10
 2038 0aeb 06       		.uleb128 0x6
 2039 0aec B8020000 		.4byte	.LASF181
 2040 0af0 0C       		.byte	0xc
ARM GAS  /tmp/cc6uzPxP.s 			page 37


 2041 0af1 7D       		.byte	0x7d
 2042 0af2 51090000 		.4byte	0x951
 2043 0af6 02       		.byte	0x2
 2044 0af7 23       		.byte	0x23
 2045 0af8 14       		.uleb128 0x14
 2046 0af9 06       		.uleb128 0x6
 2047 0afa 3C030000 		.4byte	.LASF182
 2048 0afe 0C       		.byte	0xc
 2049 0aff 7D       		.byte	0x7d
 2050 0b00 76090000 		.4byte	0x976
 2051 0b04 02       		.byte	0x2
 2052 0b05 23       		.byte	0x23
 2053 0b06 18       		.uleb128 0x18
 2054 0b07 06       		.uleb128 0x6
 2055 0b08 F1000000 		.4byte	.LASF183
 2056 0b0c 0C       		.byte	0xc
 2057 0b0d 7D       		.byte	0x7d
 2058 0b0e 9B090000 		.4byte	0x99b
 2059 0b12 02       		.byte	0x2
 2060 0b13 23       		.byte	0x23
 2061 0b14 1C       		.uleb128 0x1c
 2062 0b15 00       		.byte	0
 2063 0b16 09       		.uleb128 0x9
 2064 0b17 04       		.byte	0x4
 2065 0b18 1C0B0000 		.4byte	0xb1c
 2066 0b1c 10       		.uleb128 0x10
 2067 0b1d 990A0000 		.4byte	0xa99
 2068 0b21 1A       		.uleb128 0x1a
 2069 0b22 49000000 		.4byte	0x49
 2070 0b26 310B0000 		.4byte	0xb31
 2071 0b2a 1B       		.uleb128 0x1b
 2072 0b2b 3B000000 		.4byte	0x3b
 2073 0b2f 0F       		.byte	0xf
 2074 0b30 00       		.byte	0
 2075 0b31 09       		.uleb128 0x9
 2076 0b32 04       		.byte	0x4
 2077 0b33 10090000 		.4byte	0x910
 2078 0b37 1C       		.uleb128 0x1c
 2079 0b38 58000000 		.4byte	.LASF184
 2080 0b3c 01       		.byte	0x1
 2081 0b3d 87       		.byte	0x87
 2082 0b3e 01       		.byte	0x1
 2083 0b3f 01       		.byte	0x1
 2084 0b40 830B0000 		.4byte	0xb83
 2085 0b44 1D       		.uleb128 0x1d
 2086 0b45 73647000 		.ascii	"sdp\000"
 2087 0b49 01       		.byte	0x1
 2088 0b4a 87       		.byte	0x87
 2089 0b4b 830B0000 		.4byte	0xb83
 2090 0b4f 1D       		.uleb128 0x1d
 2091 0b50 737200   		.ascii	"sr\000"
 2092 0b53 01       		.byte	0x1
 2093 0b54 87       		.byte	0x87
 2094 0b55 62000000 		.4byte	0x62
 2095 0b59 1E       		.uleb128 0x1e
 2096 0b5a 73747300 		.ascii	"sts\000"
 2097 0b5e 01       		.byte	0x1
ARM GAS  /tmp/cc6uzPxP.s 			page 38


 2098 0b5f 88       		.byte	0x88
 2099 0b60 FA000000 		.4byte	0xfa
 2100 0b64 1F       		.uleb128 0x1f
 2101 0b65 750B0000 		.4byte	0xb75
 2102 0b69 1E       		.uleb128 0x1e
 2103 0b6a 746D7000 		.ascii	"tmp\000"
 2104 0b6e 01       		.byte	0x1
 2105 0b6f 92       		.byte	0x92
 2106 0b70 86000000 		.4byte	0x86
 2107 0b74 00       		.byte	0
 2108 0b75 20       		.uleb128 0x20
 2109 0b76 1E       		.uleb128 0x1e
 2110 0b77 746D7000 		.ascii	"tmp\000"
 2111 0b7b 01       		.byte	0x1
 2112 0b7c 94       		.byte	0x94
 2113 0b7d 86000000 		.4byte	0x86
 2114 0b81 00       		.byte	0
 2115 0b82 00       		.byte	0
 2116 0b83 09       		.uleb128 0x9
 2117 0b84 04       		.byte	0x4
 2118 0b85 C7090000 		.4byte	0x9c7
 2119 0b89 1C       		.uleb128 0x1c
 2120 0b8a B1030000 		.4byte	.LASF185
 2121 0b8e 01       		.byte	0x1
 2122 0b8f 5C       		.byte	0x5c
 2123 0b90 01       		.byte	0x1
 2124 0b91 01       		.byte	0x1
 2125 0b92 B60B0000 		.4byte	0xbb6
 2126 0b96 1D       		.uleb128 0x1d
 2127 0b97 73647000 		.ascii	"sdp\000"
 2128 0b9b 01       		.byte	0x1
 2129 0b9c 5C       		.byte	0x5c
 2130 0b9d 830B0000 		.4byte	0xb83
 2131 0ba1 21       		.uleb128 0x21
 2132 0ba2 86060000 		.4byte	.LASF186
 2133 0ba6 01       		.byte	0x1
 2134 0ba7 5C       		.byte	0x5c
 2135 0ba8 B60B0000 		.4byte	0xbb6
 2136 0bac 1E       		.uleb128 0x1e
 2137 0bad 7500     		.ascii	"u\000"
 2138 0baf 01       		.byte	0x1
 2139 0bb0 5D       		.byte	0x5d
 2140 0bb1 310B0000 		.4byte	0xb31
 2141 0bb5 00       		.byte	0
 2142 0bb6 09       		.uleb128 0x9
 2143 0bb7 04       		.byte	0x4
 2144 0bb8 BC0B0000 		.4byte	0xbbc
 2145 0bbc 10       		.uleb128 0x10
 2146 0bbd 8E0A0000 		.4byte	0xa8e
 2147 0bc1 1C       		.uleb128 0x1c
 2148 0bc2 2A020000 		.4byte	.LASF187
 2149 0bc6 01       		.byte	0x1
 2150 0bc7 7A       		.byte	0x7a
 2151 0bc8 01       		.byte	0x1
 2152 0bc9 01       		.byte	0x1
 2153 0bca D80B0000 		.4byte	0xbd8
 2154 0bce 1D       		.uleb128 0x1d
ARM GAS  /tmp/cc6uzPxP.s 			page 39


 2155 0bcf 7500     		.ascii	"u\000"
 2156 0bd1 01       		.byte	0x1
 2157 0bd2 7A       		.byte	0x7a
 2158 0bd3 310B0000 		.4byte	0xb31
 2159 0bd7 00       		.byte	0
 2160 0bd8 1C       		.uleb128 0x1c
 2161 0bd9 D3050000 		.4byte	.LASF188
 2162 0bdd 01       		.byte	0x1
 2163 0bde 9C       		.byte	0x9c
 2164 0bdf 01       		.byte	0x1
 2165 0be0 01       		.byte	0x1
 2166 0be1 A80C0000 		.4byte	0xca8
 2167 0be5 1D       		.uleb128 0x1d
 2168 0be6 73647000 		.ascii	"sdp\000"
 2169 0bea 01       		.byte	0x1
 2170 0beb 9C       		.byte	0x9c
 2171 0bec 830B0000 		.4byte	0xb83
 2172 0bf0 1E       		.uleb128 0x1e
 2173 0bf1 7500     		.ascii	"u\000"
 2174 0bf3 01       		.byte	0x1
 2175 0bf4 9D       		.byte	0x9d
 2176 0bf5 310B0000 		.4byte	0xb31
 2177 0bf9 1E       		.uleb128 0x1e
 2178 0bfa 63723100 		.ascii	"cr1\000"
 2179 0bfe 01       		.byte	0x1
 2180 0bff 9E       		.byte	0x9e
 2181 0c00 62000000 		.4byte	0x62
 2182 0c04 1E       		.uleb128 0x1e
 2183 0c05 737200   		.ascii	"sr\000"
 2184 0c08 01       		.byte	0x1
 2185 0c09 9F       		.byte	0x9f
 2186 0c0a 62000000 		.4byte	0x62
 2187 0c0e 1E       		.uleb128 0x1e
 2188 0c0f 647200   		.ascii	"dr\000"
 2189 0c12 01       		.byte	0x1
 2190 0c13 A0       		.byte	0xa0
 2191 0c14 62000000 		.4byte	0x62
 2192 0c18 1F       		.uleb128 0x1f
 2193 0c19 290C0000 		.4byte	0xc29
 2194 0c1d 1E       		.uleb128 0x1e
 2195 0c1e 746D7000 		.ascii	"tmp\000"
 2196 0c22 01       		.byte	0x1
 2197 0c23 A7       		.byte	0xa7
 2198 0c24 86000000 		.4byte	0x86
 2199 0c28 00       		.byte	0
 2200 0c29 1F       		.uleb128 0x1f
 2201 0c2a 3A0C0000 		.4byte	0xc3a
 2202 0c2e 1E       		.uleb128 0x1e
 2203 0c2f 746D7000 		.ascii	"tmp\000"
 2204 0c33 01       		.byte	0x1
 2205 0c34 A9       		.byte	0xa9
 2206 0c35 86000000 		.4byte	0x86
 2207 0c39 00       		.byte	0
 2208 0c3a 1F       		.uleb128 0x1f
 2209 0c3b 4B0C0000 		.4byte	0xc4b
 2210 0c3f 1E       		.uleb128 0x1e
 2211 0c40 746D7000 		.ascii	"tmp\000"
ARM GAS  /tmp/cc6uzPxP.s 			page 40


 2212 0c44 01       		.byte	0x1
 2213 0c45 AE       		.byte	0xae
 2214 0c46 86000000 		.4byte	0x86
 2215 0c4a 00       		.byte	0
 2216 0c4b 1F       		.uleb128 0x1f
 2217 0c4c 5C0C0000 		.4byte	0xc5c
 2218 0c50 1E       		.uleb128 0x1e
 2219 0c51 746D7000 		.ascii	"tmp\000"
 2220 0c55 01       		.byte	0x1
 2221 0c56 B0       		.byte	0xb0
 2222 0c57 86000000 		.4byte	0x86
 2223 0c5b 00       		.byte	0
 2224 0c5c 1F       		.uleb128 0x1f
 2225 0c5d 890C0000 		.4byte	0xc89
 2226 0c61 1E       		.uleb128 0x1e
 2227 0c62 6200     		.ascii	"b\000"
 2228 0c64 01       		.byte	0x1
 2229 0c65 B4       		.byte	0xb4
 2230 0c66 E4000000 		.4byte	0xe4
 2231 0c6a 1F       		.uleb128 0x1f
 2232 0c6b 7B0C0000 		.4byte	0xc7b
 2233 0c6f 1E       		.uleb128 0x1e
 2234 0c70 746D7000 		.ascii	"tmp\000"
 2235 0c74 01       		.byte	0x1
 2236 0c75 B5       		.byte	0xb5
 2237 0c76 86000000 		.4byte	0x86
 2238 0c7a 00       		.byte	0
 2239 0c7b 20       		.uleb128 0x20
 2240 0c7c 1E       		.uleb128 0x1e
 2241 0c7d 746D7000 		.ascii	"tmp\000"
 2242 0c81 01       		.byte	0x1
 2243 0c82 BD       		.byte	0xbd
 2244 0c83 86000000 		.4byte	0x86
 2245 0c87 00       		.byte	0
 2246 0c88 00       		.byte	0
 2247 0c89 1F       		.uleb128 0x1f
 2248 0c8a 9A0C0000 		.4byte	0xc9a
 2249 0c8e 1E       		.uleb128 0x1e
 2250 0c8f 746D7000 		.ascii	"tmp\000"
 2251 0c93 01       		.byte	0x1
 2252 0c94 C1       		.byte	0xc1
 2253 0c95 86000000 		.4byte	0x86
 2254 0c99 00       		.byte	0
 2255 0c9a 20       		.uleb128 0x20
 2256 0c9b 1E       		.uleb128 0x1e
 2257 0c9c 746D7000 		.ascii	"tmp\000"
 2258 0ca0 01       		.byte	0x1
 2259 0ca1 C3       		.byte	0xc3
 2260 0ca2 86000000 		.4byte	0x86
 2261 0ca6 00       		.byte	0
 2262 0ca7 00       		.byte	0
 2263 0ca8 22       		.uleb128 0x22
 2264 0ca9 46010000 		.4byte	.LASF197
 2265 0cad 01       		.byte	0x1
 2266 0cae E2       		.byte	0xe2
 2267 0caf 01       		.byte	0x1
 2268 0cb0 00000000 		.4byte	.LFB67
ARM GAS  /tmp/cc6uzPxP.s 			page 41


 2269 0cb4 14000000 		.4byte	.LFE67
 2270 0cb8 02       		.byte	0x2
 2271 0cb9 7D       		.byte	0x7d
 2272 0cba 00       		.sleb128 0
 2273 0cbb CC0C0000 		.4byte	0xccc
 2274 0cbf 23       		.uleb128 0x23
 2275 0cc0 717000   		.ascii	"qp\000"
 2276 0cc3 01       		.byte	0x1
 2277 0cc4 E2       		.byte	0xe2
 2278 0cc5 2C050000 		.4byte	0x52c
 2279 0cc9 01       		.byte	0x1
 2280 0cca 50       		.byte	0x50
 2281 0ccb 00       		.byte	0
 2282 0ccc 24       		.uleb128 0x24
 2283 0ccd 01       		.byte	0x1
 2284 0cce D8060000 		.4byte	.LASF189
 2285 0cd2 01       		.byte	0x1
 2286 0cd3 3F01     		.2byte	0x13f
 2287 0cd5 01       		.byte	0x1
 2288 0cd6 00000000 		.4byte	.LFB68
 2289 0cda 04010000 		.4byte	.LFE68
 2290 0cde 00000000 		.4byte	.LLST0
 2291 0ce2 520E0000 		.4byte	0xe52
 2292 0ce6 25       		.uleb128 0x25
 2293 0ce7 D80B0000 		.4byte	0xbd8
 2294 0ceb 02000000 		.4byte	.LBB47
 2295 0cef 00000000 		.4byte	.Ldebug_ranges0+0
 2296 0cf3 01       		.byte	0x1
 2297 0cf4 4301     		.2byte	0x143
 2298 0cf6 26       		.uleb128 0x26
 2299 0cf7 18000000 		.4byte	.Ldebug_ranges0+0x18
 2300 0cfb 27       		.uleb128 0x27
 2301 0cfc F00B0000 		.4byte	0xbf0
 2302 0d00 20000000 		.4byte	.LLST1
 2303 0d04 28       		.uleb128 0x28
 2304 0d05 F90B0000 		.4byte	0xbf9
 2305 0d09 01       		.byte	0x1
 2306 0d0a 56       		.byte	0x56
 2307 0d0b 28       		.uleb128 0x28
 2308 0d0c 040C0000 		.4byte	0xc04
 2309 0d10 01       		.byte	0x1
 2310 0d11 54       		.byte	0x54
 2311 0d12 28       		.uleb128 0x28
 2312 0d13 0E0C0000 		.4byte	0xc0e
 2313 0d17 01       		.byte	0x1
 2314 0d18 57       		.byte	0x57
 2315 0d19 29       		.uleb128 0x29
 2316 0d1a E50B0000 		.4byte	0xbe5
 2317 0d1e 06       		.byte	0x6
 2318 0d1f 03       		.byte	0x3
 2319 0d20 00000000 		.4byte	SD4
 2320 0d24 9F       		.byte	0x9f
 2321 0d25 2A       		.uleb128 0x2a
 2322 0d26 370B0000 		.4byte	0xb37
 2323 0d2a 16000000 		.4byte	.LBB49
 2324 0d2e 48000000 		.4byte	.LBE49
 2325 0d32 01       		.byte	0x1
ARM GAS  /tmp/cc6uzPxP.s 			page 42


 2326 0d33 A4       		.byte	0xa4
 2327 0d34 880D0000 		.4byte	0xd88
 2328 0d38 2B       		.uleb128 0x2b
 2329 0d39 4F0B0000 		.4byte	0xb4f
 2330 0d3d 42000000 		.4byte	.LLST2
 2331 0d41 2B       		.uleb128 0x2b
 2332 0d42 440B0000 		.4byte	0xb44
 2333 0d46 55000000 		.4byte	.LLST3
 2334 0d4a 2C       		.uleb128 0x2c
 2335 0d4b 16000000 		.4byte	.LBB50
 2336 0d4f 48000000 		.4byte	.LBE50
 2337 0d53 27       		.uleb128 0x27
 2338 0d54 590B0000 		.4byte	0xb59
 2339 0d58 6D000000 		.4byte	.LLST4
 2340 0d5c 2D       		.uleb128 0x2d
 2341 0d5d 36000000 		.4byte	.LBB51
 2342 0d61 3C000000 		.4byte	.LBE51
 2343 0d65 730D0000 		.4byte	0xd73
 2344 0d69 27       		.uleb128 0x27
 2345 0d6a 690B0000 		.4byte	0xb69
 2346 0d6e 8C000000 		.4byte	.LLST5
 2347 0d72 00       		.byte	0
 2348 0d73 2C       		.uleb128 0x2c
 2349 0d74 42000000 		.4byte	.LBB52
 2350 0d78 48000000 		.4byte	.LBE52
 2351 0d7c 27       		.uleb128 0x27
 2352 0d7d 760B0000 		.4byte	0xb76
 2353 0d81 9F000000 		.4byte	.LLST6
 2354 0d85 00       		.byte	0
 2355 0d86 00       		.byte	0
 2356 0d87 00       		.byte	0
 2357 0d88 2D       		.uleb128 0x2d
 2358 0d89 5C000000 		.4byte	.LBB53
 2359 0d8d 62000000 		.4byte	.LBE53
 2360 0d91 9F0D0000 		.4byte	0xd9f
 2361 0d95 27       		.uleb128 0x27
 2362 0d96 8E0C0000 		.4byte	0xc8e
 2363 0d9a B2000000 		.4byte	.LLST7
 2364 0d9e 00       		.byte	0
 2365 0d9f 2D       		.uleb128 0x2d
 2366 0da0 6A000000 		.4byte	.LBB54
 2367 0da4 70000000 		.4byte	.LBE54
 2368 0da8 B60D0000 		.4byte	0xdb6
 2369 0dac 27       		.uleb128 0x27
 2370 0dad 9B0C0000 		.4byte	0xc9b
 2371 0db1 C5000000 		.4byte	.LLST8
 2372 0db5 00       		.byte	0
 2373 0db6 2D       		.uleb128 0x2d
 2374 0db7 8C000000 		.4byte	.LBB55
 2375 0dbb 92000000 		.4byte	.LBE55
 2376 0dbf CD0D0000 		.4byte	0xdcd
 2377 0dc3 27       		.uleb128 0x27
 2378 0dc4 3F0C0000 		.4byte	0xc3f
 2379 0dc8 D8000000 		.4byte	.LLST9
 2380 0dcc 00       		.byte	0
 2381 0dcd 2D       		.uleb128 0x2d
 2382 0dce 9A000000 		.4byte	.LBB56
ARM GAS  /tmp/cc6uzPxP.s 			page 43


 2383 0dd2 A2000000 		.4byte	.LBE56
 2384 0dd6 E40D0000 		.4byte	0xde4
 2385 0dda 27       		.uleb128 0x27
 2386 0ddb 500C0000 		.4byte	0xc50
 2387 0ddf EB000000 		.4byte	.LLST10
 2388 0de3 00       		.byte	0
 2389 0de4 2D       		.uleb128 0x2d
 2390 0de5 A2000000 		.4byte	.LBB57
 2391 0de9 A8000000 		.4byte	.LBE57
 2392 0ded FB0D0000 		.4byte	0xdfb
 2393 0df1 27       		.uleb128 0x27
 2394 0df2 1D0C0000 		.4byte	0xc1d
 2395 0df6 14010000 		.4byte	.LLST11
 2396 0dfa 00       		.byte	0
 2397 0dfb 2D       		.uleb128 0x2d
 2398 0dfc B2000000 		.4byte	.LBB58
 2399 0e00 B8000000 		.4byte	.LBE58
 2400 0e04 120E0000 		.4byte	0xe12
 2401 0e08 27       		.uleb128 0x27
 2402 0e09 2E0C0000 		.4byte	0xc2e
 2403 0e0d 27010000 		.4byte	.LLST12
 2404 0e11 00       		.byte	0
 2405 0e12 2C       		.uleb128 0x2c
 2406 0e13 C6000000 		.4byte	.LBB59
 2407 0e17 04010000 		.4byte	.LBE59
 2408 0e1b 27       		.uleb128 0x27
 2409 0e1c 610C0000 		.4byte	0xc61
 2410 0e20 3A010000 		.4byte	.LLST13
 2411 0e24 2D       		.uleb128 0x2d
 2412 0e25 C6000000 		.4byte	.LBB60
 2413 0e29 CC000000 		.4byte	.LBE60
 2414 0e2d 3B0E0000 		.4byte	0xe3b
 2415 0e31 27       		.uleb128 0x27
 2416 0e32 6F0C0000 		.4byte	0xc6f
 2417 0e36 4D010000 		.4byte	.LLST14
 2418 0e3a 00       		.byte	0
 2419 0e3b 2C       		.uleb128 0x2c
 2420 0e3c DC000000 		.4byte	.LBB61
 2421 0e40 E4000000 		.4byte	.LBE61
 2422 0e44 27       		.uleb128 0x27
 2423 0e45 7C0C0000 		.4byte	0xc7c
 2424 0e49 60010000 		.4byte	.LLST15
 2425 0e4d 00       		.byte	0
 2426 0e4e 00       		.byte	0
 2427 0e4f 00       		.byte	0
 2428 0e50 00       		.byte	0
 2429 0e51 00       		.byte	0
 2430 0e52 2E       		.uleb128 0x2e
 2431 0e53 01       		.byte	0x1
 2432 0e54 AC020000 		.4byte	.LASF198
 2433 0e58 01       		.byte	0x1
 2434 0e59 7801     		.2byte	0x178
 2435 0e5b 01       		.byte	0x1
 2436 0e5c 00000000 		.4byte	.LFB69
 2437 0e60 26000000 		.4byte	.LFE69
 2438 0e64 7E010000 		.4byte	.LLST16
 2439 0e68 24       		.uleb128 0x24
ARM GAS  /tmp/cc6uzPxP.s 			page 44


 2440 0e69 01       		.byte	0x1
 2441 0e6a 1D050000 		.4byte	.LASF190
 2442 0e6e 01       		.byte	0x1
 2443 0e6f A301     		.2byte	0x1a3
 2444 0e71 01       		.byte	0x1
 2445 0e72 00000000 		.4byte	.LFB70
 2446 0e76 90000000 		.4byte	.LFE70
 2447 0e7a 9E010000 		.4byte	.LLST17
 2448 0e7e D90E0000 		.4byte	0xed9
 2449 0e82 2F       		.uleb128 0x2f
 2450 0e83 73647000 		.ascii	"sdp\000"
 2451 0e87 01       		.byte	0x1
 2452 0e88 A301     		.2byte	0x1a3
 2453 0e8a 830B0000 		.4byte	0xb83
 2454 0e8e BE010000 		.4byte	.LLST18
 2455 0e92 30       		.uleb128 0x30
 2456 0e93 86060000 		.4byte	.LASF186
 2457 0e97 01       		.byte	0x1
 2458 0e98 A301     		.2byte	0x1a3
 2459 0e9a B60B0000 		.4byte	0xbb6
 2460 0e9e DC010000 		.4byte	.LLST19
 2461 0ea2 31       		.uleb128 0x31
 2462 0ea3 890B0000 		.4byte	0xb89
 2463 0ea7 12000000 		.4byte	.LBB64
 2464 0eab 64000000 		.4byte	.LBE64
 2465 0eaf 01       		.byte	0x1
 2466 0eb0 D401     		.2byte	0x1d4
 2467 0eb2 2B       		.uleb128 0x2b
 2468 0eb3 A10B0000 		.4byte	0xba1
 2469 0eb7 FA010000 		.4byte	.LLST20
 2470 0ebb 2B       		.uleb128 0x2b
 2471 0ebc 960B0000 		.4byte	0xb96
 2472 0ec0 0D020000 		.4byte	.LLST21
 2473 0ec4 2C       		.uleb128 0x2c
 2474 0ec5 12000000 		.4byte	.LBB65
 2475 0ec9 64000000 		.4byte	.LBE65
 2476 0ecd 27       		.uleb128 0x27
 2477 0ece AC0B0000 		.4byte	0xbac
 2478 0ed2 20020000 		.4byte	.LLST22
 2479 0ed6 00       		.byte	0
 2480 0ed7 00       		.byte	0
 2481 0ed8 00       		.byte	0
 2482 0ed9 32       		.uleb128 0x32
 2483 0eda 01       		.byte	0x1
 2484 0edb 3D080000 		.4byte	.LASF191
 2485 0edf 01       		.byte	0x1
 2486 0ee0 E001     		.2byte	0x1e0
 2487 0ee2 01       		.byte	0x1
 2488 0ee3 00000000 		.4byte	.LFB71
 2489 0ee7 34000000 		.4byte	.LFE71
 2490 0eeb 02       		.byte	0x2
 2491 0eec 7D       		.byte	0x7d
 2492 0eed 00       		.sleb128 0
 2493 0eee 1D0F0000 		.4byte	0xf1d
 2494 0ef2 2F       		.uleb128 0x2f
 2495 0ef3 73647000 		.ascii	"sdp\000"
 2496 0ef7 01       		.byte	0x1
ARM GAS  /tmp/cc6uzPxP.s 			page 45


 2497 0ef8 E001     		.2byte	0x1e0
 2498 0efa 830B0000 		.4byte	0xb83
 2499 0efe 35020000 		.4byte	.LLST23
 2500 0f02 31       		.uleb128 0x31
 2501 0f03 C10B0000 		.4byte	0xbc1
 2502 0f07 0A000000 		.4byte	.LBB66
 2503 0f0b 12000000 		.4byte	.LBE66
 2504 0f0f 01       		.byte	0x1
 2505 0f10 E301     		.2byte	0x1e3
 2506 0f12 2B       		.uleb128 0x2b
 2507 0f13 CE0B0000 		.4byte	0xbce
 2508 0f17 48020000 		.4byte	.LLST24
 2509 0f1b 00       		.byte	0
 2510 0f1c 00       		.byte	0
 2511 0f1d 33       		.uleb128 0x33
 2512 0f1e D3000000 		.4byte	.LASF192
 2513 0f22 0E       		.byte	0xe
 2514 0f23 0706     		.2byte	0x607
 2515 0f25 68070000 		.4byte	0x768
 2516 0f29 01       		.byte	0x1
 2517 0f2a 01       		.byte	0x1
 2518 0f2b 34       		.uleb128 0x34
 2519 0f2c 53443400 		.ascii	"SD4\000"
 2520 0f30 0D       		.byte	0xd
 2521 0f31 1801     		.2byte	0x118
 2522 0f33 C7090000 		.4byte	0x9c7
 2523 0f37 01       		.byte	0x1
 2524 0f38 01       		.byte	0x1
 2525 0f39 35       		.uleb128 0x35
 2526 0f3a 6B010000 		.4byte	.LASF199
 2527 0f3e 01       		.byte	0x1
 2528 0f3f 49       		.byte	0x49
 2529 0f40 BC0B0000 		.4byte	0xbbc
 2530 0f44 05       		.byte	0x5
 2531 0f45 03       		.byte	0x3
 2532 0f46 00000000 		.4byte	default_config
 2533 0f4a 33       		.uleb128 0x33
 2534 0f4b D3000000 		.4byte	.LASF192
 2535 0f4f 0E       		.byte	0xe
 2536 0f50 0706     		.2byte	0x607
 2537 0f52 68070000 		.4byte	0x768
 2538 0f56 01       		.byte	0x1
 2539 0f57 01       		.byte	0x1
 2540 0f58 36       		.uleb128 0x36
 2541 0f59 53443400 		.ascii	"SD4\000"
 2542 0f5d 01       		.byte	0x1
 2543 0f5e 37       		.byte	0x37
 2544 0f5f C7090000 		.4byte	0x9c7
 2545 0f63 01       		.byte	0x1
 2546 0f64 05       		.byte	0x5
 2547 0f65 03       		.byte	0x3
 2548 0f66 00000000 		.4byte	SD4
 2549 0f6a 00       		.byte	0
 2550              		.section	.debug_abbrev,"",%progbits
 2551              	.Ldebug_abbrev0:
 2552 0000 01       		.uleb128 0x1
 2553 0001 11       		.uleb128 0x11
ARM GAS  /tmp/cc6uzPxP.s 			page 46


 2554 0002 01       		.byte	0x1
 2555 0003 25       		.uleb128 0x25
 2556 0004 0E       		.uleb128 0xe
 2557 0005 13       		.uleb128 0x13
 2558 0006 0B       		.uleb128 0xb
 2559 0007 03       		.uleb128 0x3
 2560 0008 0E       		.uleb128 0xe
 2561 0009 1B       		.uleb128 0x1b
 2562 000a 0E       		.uleb128 0xe
 2563 000b 11       		.uleb128 0x11
 2564 000c 01       		.uleb128 0x1
 2565 000d 52       		.uleb128 0x52
 2566 000e 01       		.uleb128 0x1
 2567 000f 55       		.uleb128 0x55
 2568 0010 06       		.uleb128 0x6
 2569 0011 10       		.uleb128 0x10
 2570 0012 06       		.uleb128 0x6
 2571 0013 00       		.byte	0
 2572 0014 00       		.byte	0
 2573 0015 02       		.uleb128 0x2
 2574 0016 24       		.uleb128 0x24
 2575 0017 00       		.byte	0
 2576 0018 0B       		.uleb128 0xb
 2577 0019 0B       		.uleb128 0xb
 2578 001a 3E       		.uleb128 0x3e
 2579 001b 0B       		.uleb128 0xb
 2580 001c 03       		.uleb128 0x3
 2581 001d 08       		.uleb128 0x8
 2582 001e 00       		.byte	0
 2583 001f 00       		.byte	0
 2584 0020 03       		.uleb128 0x3
 2585 0021 16       		.uleb128 0x16
 2586 0022 00       		.byte	0
 2587 0023 03       		.uleb128 0x3
 2588 0024 0E       		.uleb128 0xe
 2589 0025 3A       		.uleb128 0x3a
 2590 0026 0B       		.uleb128 0xb
 2591 0027 3B       		.uleb128 0x3b
 2592 0028 0B       		.uleb128 0xb
 2593 0029 49       		.uleb128 0x49
 2594 002a 13       		.uleb128 0x13
 2595 002b 00       		.byte	0
 2596 002c 00       		.byte	0
 2597 002d 04       		.uleb128 0x4
 2598 002e 24       		.uleb128 0x24
 2599 002f 00       		.byte	0
 2600 0030 0B       		.uleb128 0xb
 2601 0031 0B       		.uleb128 0xb
 2602 0032 3E       		.uleb128 0x3e
 2603 0033 0B       		.uleb128 0xb
 2604 0034 03       		.uleb128 0x3
 2605 0035 0E       		.uleb128 0xe
 2606 0036 00       		.byte	0
 2607 0037 00       		.byte	0
 2608 0038 05       		.uleb128 0x5
 2609 0039 13       		.uleb128 0x13
 2610 003a 01       		.byte	0x1
ARM GAS  /tmp/cc6uzPxP.s 			page 47


 2611 003b 03       		.uleb128 0x3
 2612 003c 0E       		.uleb128 0xe
 2613 003d 0B       		.uleb128 0xb
 2614 003e 0B       		.uleb128 0xb
 2615 003f 3A       		.uleb128 0x3a
 2616 0040 0B       		.uleb128 0xb
 2617 0041 3B       		.uleb128 0x3b
 2618 0042 0B       		.uleb128 0xb
 2619 0043 01       		.uleb128 0x1
 2620 0044 13       		.uleb128 0x13
 2621 0045 00       		.byte	0
 2622 0046 00       		.byte	0
 2623 0047 06       		.uleb128 0x6
 2624 0048 0D       		.uleb128 0xd
 2625 0049 00       		.byte	0
 2626 004a 03       		.uleb128 0x3
 2627 004b 0E       		.uleb128 0xe
 2628 004c 3A       		.uleb128 0x3a
 2629 004d 0B       		.uleb128 0xb
 2630 004e 3B       		.uleb128 0x3b
 2631 004f 0B       		.uleb128 0xb
 2632 0050 49       		.uleb128 0x49
 2633 0051 13       		.uleb128 0x13
 2634 0052 38       		.uleb128 0x38
 2635 0053 0A       		.uleb128 0xa
 2636 0054 00       		.byte	0
 2637 0055 00       		.byte	0
 2638 0056 07       		.uleb128 0x7
 2639 0057 0D       		.uleb128 0xd
 2640 0058 00       		.byte	0
 2641 0059 03       		.uleb128 0x3
 2642 005a 08       		.uleb128 0x8
 2643 005b 3A       		.uleb128 0x3a
 2644 005c 0B       		.uleb128 0xb
 2645 005d 3B       		.uleb128 0x3b
 2646 005e 0B       		.uleb128 0xb
 2647 005f 49       		.uleb128 0x49
 2648 0060 13       		.uleb128 0x13
 2649 0061 38       		.uleb128 0x38
 2650 0062 0A       		.uleb128 0xa
 2651 0063 00       		.byte	0
 2652 0064 00       		.byte	0
 2653 0065 08       		.uleb128 0x8
 2654 0066 13       		.uleb128 0x13
 2655 0067 01       		.byte	0x1
 2656 0068 0B       		.uleb128 0xb
 2657 0069 0B       		.uleb128 0xb
 2658 006a 3A       		.uleb128 0x3a
 2659 006b 0B       		.uleb128 0xb
 2660 006c 3B       		.uleb128 0x3b
 2661 006d 0B       		.uleb128 0xb
 2662 006e 01       		.uleb128 0x1
 2663 006f 13       		.uleb128 0x13
 2664 0070 00       		.byte	0
 2665 0071 00       		.byte	0
 2666 0072 09       		.uleb128 0x9
 2667 0073 0F       		.uleb128 0xf
ARM GAS  /tmp/cc6uzPxP.s 			page 48


 2668 0074 00       		.byte	0
 2669 0075 0B       		.uleb128 0xb
 2670 0076 0B       		.uleb128 0xb
 2671 0077 49       		.uleb128 0x49
 2672 0078 13       		.uleb128 0x13
 2673 0079 00       		.byte	0
 2674 007a 00       		.byte	0
 2675 007b 0A       		.uleb128 0xa
 2676 007c 0F       		.uleb128 0xf
 2677 007d 00       		.byte	0
 2678 007e 0B       		.uleb128 0xb
 2679 007f 0B       		.uleb128 0xb
 2680 0080 00       		.byte	0
 2681 0081 00       		.byte	0
 2682 0082 0B       		.uleb128 0xb
 2683 0083 13       		.uleb128 0x13
 2684 0084 01       		.byte	0x1
 2685 0085 03       		.uleb128 0x3
 2686 0086 0E       		.uleb128 0xe
 2687 0087 0B       		.uleb128 0xb
 2688 0088 0B       		.uleb128 0xb
 2689 0089 3A       		.uleb128 0x3a
 2690 008a 0B       		.uleb128 0xb
 2691 008b 3B       		.uleb128 0x3b
 2692 008c 05       		.uleb128 0x5
 2693 008d 01       		.uleb128 0x1
 2694 008e 13       		.uleb128 0x13
 2695 008f 00       		.byte	0
 2696 0090 00       		.byte	0
 2697 0091 0C       		.uleb128 0xc
 2698 0092 0D       		.uleb128 0xd
 2699 0093 00       		.byte	0
 2700 0094 03       		.uleb128 0x3
 2701 0095 08       		.uleb128 0x8
 2702 0096 3A       		.uleb128 0x3a
 2703 0097 0B       		.uleb128 0xb
 2704 0098 3B       		.uleb128 0x3b
 2705 0099 05       		.uleb128 0x5
 2706 009a 49       		.uleb128 0x49
 2707 009b 13       		.uleb128 0x13
 2708 009c 38       		.uleb128 0x38
 2709 009d 0A       		.uleb128 0xa
 2710 009e 00       		.byte	0
 2711 009f 00       		.byte	0
 2712 00a0 0D       		.uleb128 0xd
 2713 00a1 35       		.uleb128 0x35
 2714 00a2 00       		.byte	0
 2715 00a3 49       		.uleb128 0x49
 2716 00a4 13       		.uleb128 0x13
 2717 00a5 00       		.byte	0
 2718 00a6 00       		.byte	0
 2719 00a7 0E       		.uleb128 0xe
 2720 00a8 17       		.uleb128 0x17
 2721 00a9 01       		.byte	0x1
 2722 00aa 0B       		.uleb128 0xb
 2723 00ab 0B       		.uleb128 0xb
 2724 00ac 3A       		.uleb128 0x3a
ARM GAS  /tmp/cc6uzPxP.s 			page 49


 2725 00ad 0B       		.uleb128 0xb
 2726 00ae 3B       		.uleb128 0x3b
 2727 00af 0B       		.uleb128 0xb
 2728 00b0 01       		.uleb128 0x1
 2729 00b1 13       		.uleb128 0x13
 2730 00b2 00       		.byte	0
 2731 00b3 00       		.byte	0
 2732 00b4 0F       		.uleb128 0xf
 2733 00b5 0D       		.uleb128 0xd
 2734 00b6 00       		.byte	0
 2735 00b7 03       		.uleb128 0x3
 2736 00b8 0E       		.uleb128 0xe
 2737 00b9 3A       		.uleb128 0x3a
 2738 00ba 0B       		.uleb128 0xb
 2739 00bb 3B       		.uleb128 0x3b
 2740 00bc 0B       		.uleb128 0xb
 2741 00bd 49       		.uleb128 0x49
 2742 00be 13       		.uleb128 0x13
 2743 00bf 00       		.byte	0
 2744 00c0 00       		.byte	0
 2745 00c1 10       		.uleb128 0x10
 2746 00c2 26       		.uleb128 0x26
 2747 00c3 00       		.byte	0
 2748 00c4 49       		.uleb128 0x49
 2749 00c5 13       		.uleb128 0x13
 2750 00c6 00       		.byte	0
 2751 00c7 00       		.byte	0
 2752 00c8 11       		.uleb128 0x11
 2753 00c9 15       		.uleb128 0x15
 2754 00ca 01       		.byte	0x1
 2755 00cb 27       		.uleb128 0x27
 2756 00cc 0C       		.uleb128 0xc
 2757 00cd 49       		.uleb128 0x49
 2758 00ce 13       		.uleb128 0x13
 2759 00cf 01       		.uleb128 0x1
 2760 00d0 13       		.uleb128 0x13
 2761 00d1 00       		.byte	0
 2762 00d2 00       		.byte	0
 2763 00d3 12       		.uleb128 0x12
 2764 00d4 05       		.uleb128 0x5
 2765 00d5 00       		.byte	0
 2766 00d6 49       		.uleb128 0x49
 2767 00d7 13       		.uleb128 0x13
 2768 00d8 00       		.byte	0
 2769 00d9 00       		.byte	0
 2770 00da 13       		.uleb128 0x13
 2771 00db 15       		.uleb128 0x15
 2772 00dc 01       		.byte	0x1
 2773 00dd 27       		.uleb128 0x27
 2774 00de 0C       		.uleb128 0xc
 2775 00df 01       		.uleb128 0x1
 2776 00e0 13       		.uleb128 0x13
 2777 00e1 00       		.byte	0
 2778 00e2 00       		.byte	0
 2779 00e3 14       		.uleb128 0x14
 2780 00e4 04       		.uleb128 0x4
 2781 00e5 01       		.byte	0x1
ARM GAS  /tmp/cc6uzPxP.s 			page 50


 2782 00e6 03       		.uleb128 0x3
 2783 00e7 0E       		.uleb128 0xe
 2784 00e8 0B       		.uleb128 0xb
 2785 00e9 0B       		.uleb128 0xb
 2786 00ea 3A       		.uleb128 0x3a
 2787 00eb 0B       		.uleb128 0xb
 2788 00ec 3B       		.uleb128 0x3b
 2789 00ed 0B       		.uleb128 0xb
 2790 00ee 01       		.uleb128 0x1
 2791 00ef 13       		.uleb128 0x13
 2792 00f0 00       		.byte	0
 2793 00f1 00       		.byte	0
 2794 00f2 15       		.uleb128 0x15
 2795 00f3 28       		.uleb128 0x28
 2796 00f4 00       		.byte	0
 2797 00f5 03       		.uleb128 0x3
 2798 00f6 0E       		.uleb128 0xe
 2799 00f7 1C       		.uleb128 0x1c
 2800 00f8 0D       		.uleb128 0xd
 2801 00f9 00       		.byte	0
 2802 00fa 00       		.byte	0
 2803 00fb 16       		.uleb128 0x16
 2804 00fc 13       		.uleb128 0x13
 2805 00fd 01       		.byte	0x1
 2806 00fe 0B       		.uleb128 0xb
 2807 00ff 0B       		.uleb128 0xb
 2808 0100 3A       		.uleb128 0x3a
 2809 0101 0B       		.uleb128 0xb
 2810 0102 3B       		.uleb128 0x3b
 2811 0103 05       		.uleb128 0x5
 2812 0104 01       		.uleb128 0x1
 2813 0105 13       		.uleb128 0x13
 2814 0106 00       		.byte	0
 2815 0107 00       		.byte	0
 2816 0108 17       		.uleb128 0x17
 2817 0109 0D       		.uleb128 0xd
 2818 010a 00       		.byte	0
 2819 010b 03       		.uleb128 0x3
 2820 010c 0E       		.uleb128 0xe
 2821 010d 3A       		.uleb128 0x3a
 2822 010e 0B       		.uleb128 0xb
 2823 010f 3B       		.uleb128 0x3b
 2824 0110 05       		.uleb128 0x5
 2825 0111 49       		.uleb128 0x49
 2826 0112 13       		.uleb128 0x13
 2827 0113 38       		.uleb128 0x38
 2828 0114 0A       		.uleb128 0xa
 2829 0115 00       		.byte	0
 2830 0116 00       		.byte	0
 2831 0117 18       		.uleb128 0x18
 2832 0118 16       		.uleb128 0x16
 2833 0119 00       		.byte	0
 2834 011a 03       		.uleb128 0x3
 2835 011b 0E       		.uleb128 0xe
 2836 011c 3A       		.uleb128 0x3a
 2837 011d 0B       		.uleb128 0xb
 2838 011e 3B       		.uleb128 0x3b
ARM GAS  /tmp/cc6uzPxP.s 			page 51


 2839 011f 05       		.uleb128 0x5
 2840 0120 49       		.uleb128 0x49
 2841 0121 13       		.uleb128 0x13
 2842 0122 00       		.byte	0
 2843 0123 00       		.byte	0
 2844 0124 19       		.uleb128 0x19
 2845 0125 04       		.uleb128 0x4
 2846 0126 01       		.byte	0x1
 2847 0127 0B       		.uleb128 0xb
 2848 0128 0B       		.uleb128 0xb
 2849 0129 3A       		.uleb128 0x3a
 2850 012a 0B       		.uleb128 0xb
 2851 012b 3B       		.uleb128 0x3b
 2852 012c 0B       		.uleb128 0xb
 2853 012d 01       		.uleb128 0x1
 2854 012e 13       		.uleb128 0x13
 2855 012f 00       		.byte	0
 2856 0130 00       		.byte	0
 2857 0131 1A       		.uleb128 0x1a
 2858 0132 01       		.uleb128 0x1
 2859 0133 01       		.byte	0x1
 2860 0134 49       		.uleb128 0x49
 2861 0135 13       		.uleb128 0x13
 2862 0136 01       		.uleb128 0x1
 2863 0137 13       		.uleb128 0x13
 2864 0138 00       		.byte	0
 2865 0139 00       		.byte	0
 2866 013a 1B       		.uleb128 0x1b
 2867 013b 21       		.uleb128 0x21
 2868 013c 00       		.byte	0
 2869 013d 49       		.uleb128 0x49
 2870 013e 13       		.uleb128 0x13
 2871 013f 2F       		.uleb128 0x2f
 2872 0140 0B       		.uleb128 0xb
 2873 0141 00       		.byte	0
 2874 0142 00       		.byte	0
 2875 0143 1C       		.uleb128 0x1c
 2876 0144 2E       		.uleb128 0x2e
 2877 0145 01       		.byte	0x1
 2878 0146 03       		.uleb128 0x3
 2879 0147 0E       		.uleb128 0xe
 2880 0148 3A       		.uleb128 0x3a
 2881 0149 0B       		.uleb128 0xb
 2882 014a 3B       		.uleb128 0x3b
 2883 014b 0B       		.uleb128 0xb
 2884 014c 27       		.uleb128 0x27
 2885 014d 0C       		.uleb128 0xc
 2886 014e 20       		.uleb128 0x20
 2887 014f 0B       		.uleb128 0xb
 2888 0150 01       		.uleb128 0x1
 2889 0151 13       		.uleb128 0x13
 2890 0152 00       		.byte	0
 2891 0153 00       		.byte	0
 2892 0154 1D       		.uleb128 0x1d
 2893 0155 05       		.uleb128 0x5
 2894 0156 00       		.byte	0
 2895 0157 03       		.uleb128 0x3
ARM GAS  /tmp/cc6uzPxP.s 			page 52


 2896 0158 08       		.uleb128 0x8
 2897 0159 3A       		.uleb128 0x3a
 2898 015a 0B       		.uleb128 0xb
 2899 015b 3B       		.uleb128 0x3b
 2900 015c 0B       		.uleb128 0xb
 2901 015d 49       		.uleb128 0x49
 2902 015e 13       		.uleb128 0x13
 2903 015f 00       		.byte	0
 2904 0160 00       		.byte	0
 2905 0161 1E       		.uleb128 0x1e
 2906 0162 34       		.uleb128 0x34
 2907 0163 00       		.byte	0
 2908 0164 03       		.uleb128 0x3
 2909 0165 08       		.uleb128 0x8
 2910 0166 3A       		.uleb128 0x3a
 2911 0167 0B       		.uleb128 0xb
 2912 0168 3B       		.uleb128 0x3b
 2913 0169 0B       		.uleb128 0xb
 2914 016a 49       		.uleb128 0x49
 2915 016b 13       		.uleb128 0x13
 2916 016c 00       		.byte	0
 2917 016d 00       		.byte	0
 2918 016e 1F       		.uleb128 0x1f
 2919 016f 0B       		.uleb128 0xb
 2920 0170 01       		.byte	0x1
 2921 0171 01       		.uleb128 0x1
 2922 0172 13       		.uleb128 0x13
 2923 0173 00       		.byte	0
 2924 0174 00       		.byte	0
 2925 0175 20       		.uleb128 0x20
 2926 0176 0B       		.uleb128 0xb
 2927 0177 01       		.byte	0x1
 2928 0178 00       		.byte	0
 2929 0179 00       		.byte	0
 2930 017a 21       		.uleb128 0x21
 2931 017b 05       		.uleb128 0x5
 2932 017c 00       		.byte	0
 2933 017d 03       		.uleb128 0x3
 2934 017e 0E       		.uleb128 0xe
 2935 017f 3A       		.uleb128 0x3a
 2936 0180 0B       		.uleb128 0xb
 2937 0181 3B       		.uleb128 0x3b
 2938 0182 0B       		.uleb128 0xb
 2939 0183 49       		.uleb128 0x49
 2940 0184 13       		.uleb128 0x13
 2941 0185 00       		.byte	0
 2942 0186 00       		.byte	0
 2943 0187 22       		.uleb128 0x22
 2944 0188 2E       		.uleb128 0x2e
 2945 0189 01       		.byte	0x1
 2946 018a 03       		.uleb128 0x3
 2947 018b 0E       		.uleb128 0xe
 2948 018c 3A       		.uleb128 0x3a
 2949 018d 0B       		.uleb128 0xb
 2950 018e 3B       		.uleb128 0x3b
 2951 018f 0B       		.uleb128 0xb
 2952 0190 27       		.uleb128 0x27
ARM GAS  /tmp/cc6uzPxP.s 			page 53


 2953 0191 0C       		.uleb128 0xc
 2954 0192 11       		.uleb128 0x11
 2955 0193 01       		.uleb128 0x1
 2956 0194 12       		.uleb128 0x12
 2957 0195 01       		.uleb128 0x1
 2958 0196 40       		.uleb128 0x40
 2959 0197 0A       		.uleb128 0xa
 2960 0198 01       		.uleb128 0x1
 2961 0199 13       		.uleb128 0x13
 2962 019a 00       		.byte	0
 2963 019b 00       		.byte	0
 2964 019c 23       		.uleb128 0x23
 2965 019d 05       		.uleb128 0x5
 2966 019e 00       		.byte	0
 2967 019f 03       		.uleb128 0x3
 2968 01a0 08       		.uleb128 0x8
 2969 01a1 3A       		.uleb128 0x3a
 2970 01a2 0B       		.uleb128 0xb
 2971 01a3 3B       		.uleb128 0x3b
 2972 01a4 0B       		.uleb128 0xb
 2973 01a5 49       		.uleb128 0x49
 2974 01a6 13       		.uleb128 0x13
 2975 01a7 02       		.uleb128 0x2
 2976 01a8 0A       		.uleb128 0xa
 2977 01a9 00       		.byte	0
 2978 01aa 00       		.byte	0
 2979 01ab 24       		.uleb128 0x24
 2980 01ac 2E       		.uleb128 0x2e
 2981 01ad 01       		.byte	0x1
 2982 01ae 3F       		.uleb128 0x3f
 2983 01af 0C       		.uleb128 0xc
 2984 01b0 03       		.uleb128 0x3
 2985 01b1 0E       		.uleb128 0xe
 2986 01b2 3A       		.uleb128 0x3a
 2987 01b3 0B       		.uleb128 0xb
 2988 01b4 3B       		.uleb128 0x3b
 2989 01b5 05       		.uleb128 0x5
 2990 01b6 27       		.uleb128 0x27
 2991 01b7 0C       		.uleb128 0xc
 2992 01b8 11       		.uleb128 0x11
 2993 01b9 01       		.uleb128 0x1
 2994 01ba 12       		.uleb128 0x12
 2995 01bb 01       		.uleb128 0x1
 2996 01bc 40       		.uleb128 0x40
 2997 01bd 06       		.uleb128 0x6
 2998 01be 01       		.uleb128 0x1
 2999 01bf 13       		.uleb128 0x13
 3000 01c0 00       		.byte	0
 3001 01c1 00       		.byte	0
 3002 01c2 25       		.uleb128 0x25
 3003 01c3 1D       		.uleb128 0x1d
 3004 01c4 01       		.byte	0x1
 3005 01c5 31       		.uleb128 0x31
 3006 01c6 13       		.uleb128 0x13
 3007 01c7 52       		.uleb128 0x52
 3008 01c8 01       		.uleb128 0x1
 3009 01c9 55       		.uleb128 0x55
ARM GAS  /tmp/cc6uzPxP.s 			page 54


 3010 01ca 06       		.uleb128 0x6
 3011 01cb 58       		.uleb128 0x58
 3012 01cc 0B       		.uleb128 0xb
 3013 01cd 59       		.uleb128 0x59
 3014 01ce 05       		.uleb128 0x5
 3015 01cf 00       		.byte	0
 3016 01d0 00       		.byte	0
 3017 01d1 26       		.uleb128 0x26
 3018 01d2 0B       		.uleb128 0xb
 3019 01d3 01       		.byte	0x1
 3020 01d4 55       		.uleb128 0x55
 3021 01d5 06       		.uleb128 0x6
 3022 01d6 00       		.byte	0
 3023 01d7 00       		.byte	0
 3024 01d8 27       		.uleb128 0x27
 3025 01d9 34       		.uleb128 0x34
 3026 01da 00       		.byte	0
 3027 01db 31       		.uleb128 0x31
 3028 01dc 13       		.uleb128 0x13
 3029 01dd 02       		.uleb128 0x2
 3030 01de 06       		.uleb128 0x6
 3031 01df 00       		.byte	0
 3032 01e0 00       		.byte	0
 3033 01e1 28       		.uleb128 0x28
 3034 01e2 34       		.uleb128 0x34
 3035 01e3 00       		.byte	0
 3036 01e4 31       		.uleb128 0x31
 3037 01e5 13       		.uleb128 0x13
 3038 01e6 02       		.uleb128 0x2
 3039 01e7 0A       		.uleb128 0xa
 3040 01e8 00       		.byte	0
 3041 01e9 00       		.byte	0
 3042 01ea 29       		.uleb128 0x29
 3043 01eb 05       		.uleb128 0x5
 3044 01ec 00       		.byte	0
 3045 01ed 31       		.uleb128 0x31
 3046 01ee 13       		.uleb128 0x13
 3047 01ef 02       		.uleb128 0x2
 3048 01f0 0A       		.uleb128 0xa
 3049 01f1 00       		.byte	0
 3050 01f2 00       		.byte	0
 3051 01f3 2A       		.uleb128 0x2a
 3052 01f4 1D       		.uleb128 0x1d
 3053 01f5 01       		.byte	0x1
 3054 01f6 31       		.uleb128 0x31
 3055 01f7 13       		.uleb128 0x13
 3056 01f8 11       		.uleb128 0x11
 3057 01f9 01       		.uleb128 0x1
 3058 01fa 12       		.uleb128 0x12
 3059 01fb 01       		.uleb128 0x1
 3060 01fc 58       		.uleb128 0x58
 3061 01fd 0B       		.uleb128 0xb
 3062 01fe 59       		.uleb128 0x59
 3063 01ff 0B       		.uleb128 0xb
 3064 0200 01       		.uleb128 0x1
 3065 0201 13       		.uleb128 0x13
 3066 0202 00       		.byte	0
ARM GAS  /tmp/cc6uzPxP.s 			page 55


 3067 0203 00       		.byte	0
 3068 0204 2B       		.uleb128 0x2b
 3069 0205 05       		.uleb128 0x5
 3070 0206 00       		.byte	0
 3071 0207 31       		.uleb128 0x31
 3072 0208 13       		.uleb128 0x13
 3073 0209 02       		.uleb128 0x2
 3074 020a 06       		.uleb128 0x6
 3075 020b 00       		.byte	0
 3076 020c 00       		.byte	0
 3077 020d 2C       		.uleb128 0x2c
 3078 020e 0B       		.uleb128 0xb
 3079 020f 01       		.byte	0x1
 3080 0210 11       		.uleb128 0x11
 3081 0211 01       		.uleb128 0x1
 3082 0212 12       		.uleb128 0x12
 3083 0213 01       		.uleb128 0x1
 3084 0214 00       		.byte	0
 3085 0215 00       		.byte	0
 3086 0216 2D       		.uleb128 0x2d
 3087 0217 0B       		.uleb128 0xb
 3088 0218 01       		.byte	0x1
 3089 0219 11       		.uleb128 0x11
 3090 021a 01       		.uleb128 0x1
 3091 021b 12       		.uleb128 0x12
 3092 021c 01       		.uleb128 0x1
 3093 021d 01       		.uleb128 0x1
 3094 021e 13       		.uleb128 0x13
 3095 021f 00       		.byte	0
 3096 0220 00       		.byte	0
 3097 0221 2E       		.uleb128 0x2e
 3098 0222 2E       		.uleb128 0x2e
 3099 0223 00       		.byte	0
 3100 0224 3F       		.uleb128 0x3f
 3101 0225 0C       		.uleb128 0xc
 3102 0226 03       		.uleb128 0x3
 3103 0227 0E       		.uleb128 0xe
 3104 0228 3A       		.uleb128 0x3a
 3105 0229 0B       		.uleb128 0xb
 3106 022a 3B       		.uleb128 0x3b
 3107 022b 05       		.uleb128 0x5
 3108 022c 27       		.uleb128 0x27
 3109 022d 0C       		.uleb128 0xc
 3110 022e 11       		.uleb128 0x11
 3111 022f 01       		.uleb128 0x1
 3112 0230 12       		.uleb128 0x12
 3113 0231 01       		.uleb128 0x1
 3114 0232 40       		.uleb128 0x40
 3115 0233 06       		.uleb128 0x6
 3116 0234 00       		.byte	0
 3117 0235 00       		.byte	0
 3118 0236 2F       		.uleb128 0x2f
 3119 0237 05       		.uleb128 0x5
 3120 0238 00       		.byte	0
 3121 0239 03       		.uleb128 0x3
 3122 023a 08       		.uleb128 0x8
 3123 023b 3A       		.uleb128 0x3a
ARM GAS  /tmp/cc6uzPxP.s 			page 56


 3124 023c 0B       		.uleb128 0xb
 3125 023d 3B       		.uleb128 0x3b
 3126 023e 05       		.uleb128 0x5
 3127 023f 49       		.uleb128 0x49
 3128 0240 13       		.uleb128 0x13
 3129 0241 02       		.uleb128 0x2
 3130 0242 06       		.uleb128 0x6
 3131 0243 00       		.byte	0
 3132 0244 00       		.byte	0
 3133 0245 30       		.uleb128 0x30
 3134 0246 05       		.uleb128 0x5
 3135 0247 00       		.byte	0
 3136 0248 03       		.uleb128 0x3
 3137 0249 0E       		.uleb128 0xe
 3138 024a 3A       		.uleb128 0x3a
 3139 024b 0B       		.uleb128 0xb
 3140 024c 3B       		.uleb128 0x3b
 3141 024d 05       		.uleb128 0x5
 3142 024e 49       		.uleb128 0x49
 3143 024f 13       		.uleb128 0x13
 3144 0250 02       		.uleb128 0x2
 3145 0251 06       		.uleb128 0x6
 3146 0252 00       		.byte	0
 3147 0253 00       		.byte	0
 3148 0254 31       		.uleb128 0x31
 3149 0255 1D       		.uleb128 0x1d
 3150 0256 01       		.byte	0x1
 3151 0257 31       		.uleb128 0x31
 3152 0258 13       		.uleb128 0x13
 3153 0259 11       		.uleb128 0x11
 3154 025a 01       		.uleb128 0x1
 3155 025b 12       		.uleb128 0x12
 3156 025c 01       		.uleb128 0x1
 3157 025d 58       		.uleb128 0x58
 3158 025e 0B       		.uleb128 0xb
 3159 025f 59       		.uleb128 0x59
 3160 0260 05       		.uleb128 0x5
 3161 0261 00       		.byte	0
 3162 0262 00       		.byte	0
 3163 0263 32       		.uleb128 0x32
 3164 0264 2E       		.uleb128 0x2e
 3165 0265 01       		.byte	0x1
 3166 0266 3F       		.uleb128 0x3f
 3167 0267 0C       		.uleb128 0xc
 3168 0268 03       		.uleb128 0x3
 3169 0269 0E       		.uleb128 0xe
 3170 026a 3A       		.uleb128 0x3a
 3171 026b 0B       		.uleb128 0xb
 3172 026c 3B       		.uleb128 0x3b
 3173 026d 05       		.uleb128 0x5
 3174 026e 27       		.uleb128 0x27
 3175 026f 0C       		.uleb128 0xc
 3176 0270 11       		.uleb128 0x11
 3177 0271 01       		.uleb128 0x1
 3178 0272 12       		.uleb128 0x12
 3179 0273 01       		.uleb128 0x1
 3180 0274 40       		.uleb128 0x40
ARM GAS  /tmp/cc6uzPxP.s 			page 57


 3181 0275 0A       		.uleb128 0xa
 3182 0276 01       		.uleb128 0x1
 3183 0277 13       		.uleb128 0x13
 3184 0278 00       		.byte	0
 3185 0279 00       		.byte	0
 3186 027a 33       		.uleb128 0x33
 3187 027b 34       		.uleb128 0x34
 3188 027c 00       		.byte	0
 3189 027d 03       		.uleb128 0x3
 3190 027e 0E       		.uleb128 0xe
 3191 027f 3A       		.uleb128 0x3a
 3192 0280 0B       		.uleb128 0xb
 3193 0281 3B       		.uleb128 0x3b
 3194 0282 05       		.uleb128 0x5
 3195 0283 49       		.uleb128 0x49
 3196 0284 13       		.uleb128 0x13
 3197 0285 3F       		.uleb128 0x3f
 3198 0286 0C       		.uleb128 0xc
 3199 0287 3C       		.uleb128 0x3c
 3200 0288 0C       		.uleb128 0xc
 3201 0289 00       		.byte	0
 3202 028a 00       		.byte	0
 3203 028b 34       		.uleb128 0x34
 3204 028c 34       		.uleb128 0x34
 3205 028d 00       		.byte	0
 3206 028e 03       		.uleb128 0x3
 3207 028f 08       		.uleb128 0x8
 3208 0290 3A       		.uleb128 0x3a
 3209 0291 0B       		.uleb128 0xb
 3210 0292 3B       		.uleb128 0x3b
 3211 0293 05       		.uleb128 0x5
 3212 0294 49       		.uleb128 0x49
 3213 0295 13       		.uleb128 0x13
 3214 0296 3F       		.uleb128 0x3f
 3215 0297 0C       		.uleb128 0xc
 3216 0298 3C       		.uleb128 0x3c
 3217 0299 0C       		.uleb128 0xc
 3218 029a 00       		.byte	0
 3219 029b 00       		.byte	0
 3220 029c 35       		.uleb128 0x35
 3221 029d 34       		.uleb128 0x34
 3222 029e 00       		.byte	0
 3223 029f 03       		.uleb128 0x3
 3224 02a0 0E       		.uleb128 0xe
 3225 02a1 3A       		.uleb128 0x3a
 3226 02a2 0B       		.uleb128 0xb
 3227 02a3 3B       		.uleb128 0x3b
 3228 02a4 0B       		.uleb128 0xb
 3229 02a5 49       		.uleb128 0x49
 3230 02a6 13       		.uleb128 0x13
 3231 02a7 02       		.uleb128 0x2
 3232 02a8 0A       		.uleb128 0xa
 3233 02a9 00       		.byte	0
 3234 02aa 00       		.byte	0
 3235 02ab 36       		.uleb128 0x36
 3236 02ac 34       		.uleb128 0x34
 3237 02ad 00       		.byte	0
ARM GAS  /tmp/cc6uzPxP.s 			page 58


 3238 02ae 03       		.uleb128 0x3
 3239 02af 08       		.uleb128 0x8
 3240 02b0 3A       		.uleb128 0x3a
 3241 02b1 0B       		.uleb128 0xb
 3242 02b2 3B       		.uleb128 0x3b
 3243 02b3 0B       		.uleb128 0xb
 3244 02b4 49       		.uleb128 0x49
 3245 02b5 13       		.uleb128 0x13
 3246 02b6 3F       		.uleb128 0x3f
 3247 02b7 0C       		.uleb128 0xc
 3248 02b8 02       		.uleb128 0x2
 3249 02b9 0A       		.uleb128 0xa
 3250 02ba 00       		.byte	0
 3251 02bb 00       		.byte	0
 3252 02bc 00       		.byte	0
 3253              		.section	.debug_loc,"",%progbits
 3254              	.Ldebug_loc0:
 3255              	.LLST0:
 3256 0000 00000000 		.4byte	.LFB68
 3257 0004 02000000 		.4byte	.LCFI0
 3258 0008 0200     		.2byte	0x2
 3259 000a 7D       		.byte	0x7d
 3260 000b 00       		.sleb128 0
 3261 000c 02000000 		.4byte	.LCFI0
 3262 0010 04010000 		.4byte	.LFE68
 3263 0014 0200     		.2byte	0x2
 3264 0016 7D       		.byte	0x7d
 3265 0017 18       		.sleb128 24
 3266 0018 00000000 		.4byte	0
 3267 001c 00000000 		.4byte	0
 3268              	.LLST1:
 3269 0020 06000000 		.4byte	.LVL2
 3270 0024 41000000 		.4byte	.LVL12-1
 3271 0028 0500     		.2byte	0x5
 3272 002a 03       		.byte	0x3
 3273 002b 74000000 		.4byte	SD4+116
 3274 002f 41000000 		.4byte	.LVL12-1
 3275 0033 04010000 		.4byte	.LFE68
 3276 0037 0100     		.2byte	0x1
 3277 0039 55       		.byte	0x55
 3278 003a 00000000 		.4byte	0
 3279 003e 00000000 		.4byte	0
 3280              	.LLST2:
 3281 0042 16000000 		.4byte	.LVL5
 3282 0046 48000000 		.4byte	.LVL14
 3283 004a 0100     		.2byte	0x1
 3284 004c 54       		.byte	0x54
 3285 004d 00000000 		.4byte	0
 3286 0051 00000000 		.4byte	0
 3287              	.LLST3:
 3288 0055 16000000 		.4byte	.LVL5
 3289 0059 48000000 		.4byte	.LVL14
 3290 005d 0600     		.2byte	0x6
 3291 005f 03       		.byte	0x3
 3292 0060 00000000 		.4byte	SD4
 3293 0064 9F       		.byte	0x9f
 3294 0065 00000000 		.4byte	0
ARM GAS  /tmp/cc6uzPxP.s 			page 59


 3295 0069 00000000 		.4byte	0
 3296              	.LLST4:
 3297 006d 16000000 		.4byte	.LVL5
 3298 0071 1E000000 		.4byte	.LVL6
 3299 0075 0200     		.2byte	0x2
 3300 0077 30       		.byte	0x30
 3301 0078 9F       		.byte	0x9f
 3302 0079 1E000000 		.4byte	.LVL6
 3303 007d 41000000 		.4byte	.LVL12-1
 3304 0081 0100     		.2byte	0x1
 3305 0083 51       		.byte	0x51
 3306 0084 00000000 		.4byte	0
 3307 0088 00000000 		.4byte	0
 3308              	.LLST5:
 3309 008c 3C000000 		.4byte	.LVL11
 3310 0090 41000000 		.4byte	.LVL12-1
 3311 0094 0100     		.2byte	0x1
 3312 0096 53       		.byte	0x53
 3313 0097 00000000 		.4byte	0
 3314 009b 00000000 		.4byte	0
 3315              	.LLST6:
 3316 009f 48000000 		.4byte	.LVL14
 3317 00a3 4A000000 		.4byte	.LVL15
 3318 00a7 0100     		.2byte	0x1
 3319 00a9 53       		.byte	0x53
 3320 00aa 00000000 		.4byte	0
 3321 00ae 00000000 		.4byte	0
 3322              	.LLST7:
 3323 00b2 62000000 		.4byte	.LVL20
 3324 00b6 69000000 		.4byte	.LVL21-1
 3325 00ba 0100     		.2byte	0x1
 3326 00bc 53       		.byte	0x53
 3327 00bd 00000000 		.4byte	0
 3328 00c1 00000000 		.4byte	0
 3329              	.LLST8:
 3330 00c5 70000000 		.4byte	.LVL23
 3331 00c9 74000000 		.4byte	.LVL24
 3332 00cd 0100     		.2byte	0x1
 3333 00cf 53       		.byte	0x53
 3334 00d0 00000000 		.4byte	0
 3335 00d4 00000000 		.4byte	0
 3336              	.LLST9:
 3337 00d8 92000000 		.4byte	.LVL26
 3338 00dc 99000000 		.4byte	.LVL27-1
 3339 00e0 0100     		.2byte	0x1
 3340 00e2 53       		.byte	0x53
 3341 00e3 00000000 		.4byte	0
 3342 00e7 00000000 		.4byte	0
 3343              	.LLST10:
 3344 00eb 50000000 		.4byte	.LVL16
 3345 00ef 5A000000 		.4byte	.LVL18
 3346 00f3 0100     		.2byte	0x1
 3347 00f5 53       		.byte	0x53
 3348 00f6 A0000000 		.4byte	.LVL28
 3349 00fa A2000000 		.4byte	.LVL29
 3350 00fe 0100     		.2byte	0x1
 3351 0100 53       		.byte	0x53
ARM GAS  /tmp/cc6uzPxP.s 			page 60


 3352 0101 C6000000 		.4byte	.LVL36
 3353 0105 C8000000 		.4byte	.LVL37
 3354 0109 0100     		.2byte	0x1
 3355 010b 53       		.byte	0x53
 3356 010c 00000000 		.4byte	0
 3357 0110 00000000 		.4byte	0
 3358              	.LLST11:
 3359 0114 A8000000 		.4byte	.LVL31
 3360 0118 B1000000 		.4byte	.LVL32-1
 3361 011c 0100     		.2byte	0x1
 3362 011e 53       		.byte	0x53
 3363 011f 00000000 		.4byte	0
 3364 0123 00000000 		.4byte	0
 3365              	.LLST12:
 3366 0127 B8000000 		.4byte	.LVL34
 3367 012b BA000000 		.4byte	.LVL35
 3368 012f 0100     		.2byte	0x1
 3369 0131 53       		.byte	0x53
 3370 0132 00000000 		.4byte	0
 3371 0136 00000000 		.4byte	0
 3372              	.LLST13:
 3373 013a D2000000 		.4byte	.LVL39
 3374 013e D8000000 		.4byte	.LVL40
 3375 0142 0100     		.2byte	0x1
 3376 0144 50       		.byte	0x50
 3377 0145 00000000 		.4byte	0
 3378 0149 00000000 		.4byte	0
 3379              	.LLST14:
 3380 014d CC000000 		.4byte	.LVL38
 3381 0151 D1000000 		.4byte	.LVL39-1
 3382 0155 0100     		.2byte	0x1
 3383 0157 53       		.byte	0x53
 3384 0158 00000000 		.4byte	0
 3385 015c 00000000 		.4byte	0
 3386              	.LLST15:
 3387 0160 58000000 		.4byte	.LVL17
 3388 0164 5A000000 		.4byte	.LVL18
 3389 0168 0100     		.2byte	0x1
 3390 016a 53       		.byte	0x53
 3391 016b E2000000 		.4byte	.LVL41
 3392 016f E4000000 		.4byte	.LVL42
 3393 0173 0100     		.2byte	0x1
 3394 0175 53       		.byte	0x53
 3395 0176 00000000 		.4byte	0
 3396 017a 00000000 		.4byte	0
 3397              	.LLST16:
 3398 017e 00000000 		.4byte	.LFB69
 3399 0182 02000000 		.4byte	.LCFI1
 3400 0186 0200     		.2byte	0x2
 3401 0188 7D       		.byte	0x7d
 3402 0189 00       		.sleb128 0
 3403 018a 02000000 		.4byte	.LCFI1
 3404 018e 26000000 		.4byte	.LFE69
 3405 0192 0200     		.2byte	0x2
 3406 0194 7D       		.byte	0x7d
 3407 0195 08       		.sleb128 8
 3408 0196 00000000 		.4byte	0
ARM GAS  /tmp/cc6uzPxP.s 			page 61


 3409 019a 00000000 		.4byte	0
 3410              	.LLST17:
 3411 019e 00000000 		.4byte	.LFB70
 3412 01a2 02000000 		.4byte	.LCFI2
 3413 01a6 0200     		.2byte	0x2
 3414 01a8 7D       		.byte	0x7d
 3415 01a9 00       		.sleb128 0
 3416 01aa 02000000 		.4byte	.LCFI2
 3417 01ae 90000000 		.4byte	.LFE70
 3418 01b2 0200     		.2byte	0x2
 3419 01b4 7D       		.byte	0x7d
 3420 01b5 10       		.sleb128 16
 3421 01b6 00000000 		.4byte	0
 3422 01ba 00000000 		.4byte	0
 3423              	.LLST18:
 3424 01be 00000000 		.4byte	.LVL43
 3425 01c2 12000000 		.4byte	.LVL45
 3426 01c6 0100     		.2byte	0x1
 3427 01c8 50       		.byte	0x50
 3428 01c9 12000000 		.4byte	.LVL45
 3429 01cd 90000000 		.4byte	.LFE70
 3430 01d1 0100     		.2byte	0x1
 3431 01d3 55       		.byte	0x55
 3432 01d4 00000000 		.4byte	0
 3433 01d8 00000000 		.4byte	0
 3434              	.LLST19:
 3435 01dc 00000000 		.4byte	.LVL43
 3436 01e0 0E000000 		.4byte	.LVL44
 3437 01e4 0100     		.2byte	0x1
 3438 01e6 51       		.byte	0x51
 3439 01e7 0E000000 		.4byte	.LVL44
 3440 01eb 90000000 		.4byte	.LFE70
 3441 01ef 0100     		.2byte	0x1
 3442 01f1 54       		.byte	0x54
 3443 01f2 00000000 		.4byte	0
 3444 01f6 00000000 		.4byte	0
 3445              	.LLST20:
 3446 01fa 12000000 		.4byte	.LVL45
 3447 01fe 66000000 		.4byte	.LVL47
 3448 0202 0100     		.2byte	0x1
 3449 0204 54       		.byte	0x54
 3450 0205 00000000 		.4byte	0
 3451 0209 00000000 		.4byte	0
 3452              	.LLST21:
 3453 020d 12000000 		.4byte	.LVL45
 3454 0211 66000000 		.4byte	.LVL47
 3455 0215 0100     		.2byte	0x1
 3456 0217 55       		.byte	0x55
 3457 0218 00000000 		.4byte	0
 3458 021c 00000000 		.4byte	0
 3459              	.LLST22:
 3460 0220 14000000 		.4byte	.LVL46
 3461 0224 66000000 		.4byte	.LVL47
 3462 0228 0300     		.2byte	0x3
 3463 022a 75       		.byte	0x75
 3464 022b F400     		.sleb128 116
 3465 022d 00000000 		.4byte	0
ARM GAS  /tmp/cc6uzPxP.s 			page 62


 3466 0231 00000000 		.4byte	0
 3467              	.LLST23:
 3468 0235 00000000 		.4byte	.LVL48
 3469 0239 24000000 		.4byte	.LVL51
 3470 023d 0100     		.2byte	0x1
 3471 023f 50       		.byte	0x50
 3472 0240 00000000 		.4byte	0
 3473 0244 00000000 		.4byte	0
 3474              	.LLST24:
 3475 0248 0A000000 		.4byte	.LVL50
 3476 024c 24000000 		.4byte	.LVL51
 3477 0250 0300     		.2byte	0x3
 3478 0252 70       		.byte	0x70
 3479 0253 F400     		.sleb128 116
 3480 0255 00000000 		.4byte	0
 3481 0259 00000000 		.4byte	0
 3482              		.section	.debug_aranges,"",%progbits
 3483 0000 3C000000 		.4byte	0x3c
 3484 0004 0200     		.2byte	0x2
 3485 0006 00000000 		.4byte	.Ldebug_info0
 3486 000a 04       		.byte	0x4
 3487 000b 00       		.byte	0
 3488 000c 0000     		.2byte	0
 3489 000e 0000     		.2byte	0
 3490 0010 00000000 		.4byte	.LFB67
 3491 0014 14000000 		.4byte	.LFE67-.LFB67
 3492 0018 00000000 		.4byte	.LFB68
 3493 001c 04010000 		.4byte	.LFE68-.LFB68
 3494 0020 00000000 		.4byte	.LFB69
 3495 0024 26000000 		.4byte	.LFE69-.LFB69
 3496 0028 00000000 		.4byte	.LFB70
 3497 002c 90000000 		.4byte	.LFE70-.LFB70
 3498 0030 00000000 		.4byte	.LFB71
 3499 0034 34000000 		.4byte	.LFE71-.LFB71
 3500 0038 00000000 		.4byte	0
 3501 003c 00000000 		.4byte	0
 3502              		.section	.debug_ranges,"",%progbits
 3503              	.Ldebug_ranges0:
 3504 0000 02000000 		.4byte	.LBB47
 3505 0004 84000000 		.4byte	.LBE47
 3506 0008 8C000000 		.4byte	.LBB63
 3507 000c 04010000 		.4byte	.LBE63
 3508 0010 00000000 		.4byte	0
 3509 0014 00000000 		.4byte	0
 3510 0018 02000000 		.4byte	.LBB48
 3511 001c 84000000 		.4byte	.LBE48
 3512 0020 8C000000 		.4byte	.LBB62
 3513 0024 04010000 		.4byte	.LBE62
 3514 0028 00000000 		.4byte	0
 3515 002c 00000000 		.4byte	0
 3516 0030 00000000 		.4byte	.LFB67
 3517 0034 14000000 		.4byte	.LFE67
 3518 0038 00000000 		.4byte	.LFB68
 3519 003c 04010000 		.4byte	.LFE68
 3520 0040 00000000 		.4byte	.LFB69
 3521 0044 26000000 		.4byte	.LFE69
 3522 0048 00000000 		.4byte	.LFB70
ARM GAS  /tmp/cc6uzPxP.s 			page 63


 3523 004c 90000000 		.4byte	.LFE70
 3524 0050 00000000 		.4byte	.LFB71
 3525 0054 34000000 		.4byte	.LFE71
 3526 0058 00000000 		.4byte	0
 3527 005c 00000000 		.4byte	0
 3528              		.section	.debug_line,"",%progbits
 3529              	.Ldebug_line0:
 3530 0000 03030000 		.section	.debug_str,"MS",%progbits,1
 3530      02002602 
 3530      00000201 
 3530      FB0E0D00 
 3530      01010101 
 3531              	.LASF86:
 3532 0000 5056445F 		.ascii	"PVD_IRQn\000"
 3532      4952516E 
 3532      00
 3533              	.LASF142:
 3534 0009 43414E32 		.ascii	"CAN2_RX0_IRQn\000"
 3534      5F525830 
 3534      5F495251 
 3534      6E00
 3535              	.LASF42:
 3536 0017 705F7265 		.ascii	"p_realprio\000"
 3536      616C7072 
 3536      696F00
 3537              	.LASF2:
 3538 0022 73697A65 		.ascii	"size_t\000"
 3538      5F7400
 3539              	.LASF60:
 3540 0029 7264796D 		.ascii	"rdymsg\000"
 3540      736700
 3541              	.LASF76:
 3542 0030 4F757470 		.ascii	"OutputQueue\000"
 3542      75745175 
 3542      65756500 
 3543              	.LASF116:
 3544 003c 49324331 		.ascii	"I2C1_EV_IRQn\000"
 3544      5F45565F 
 3544      4952516E 
 3544      00
 3545              	.LASF126:
 3546 0049 5254435F 		.ascii	"RTC_Alarm_IRQn\000"
 3546      416C6172 
 3546      6D5F4952 
 3546      516E00
 3547              	.LASF184:
 3548 0058 7365745F 		.ascii	"set_error\000"
 3548      6572726F 
 3548      7200
 3549              	.LASF110:
 3550 0062 54494D31 		.ascii	"TIM1_UP_IRQn\000"
 3550      5F55505F 
 3550      4952516E 
 3550      00
 3551              	.LASF106:
 3552 006f 43414E31 		.ascii	"CAN1_RX1_IRQn\000"
 3552      5F525831 
ARM GAS  /tmp/cc6uzPxP.s 			page 64


 3552      5F495251 
 3552      6E00
 3553              	.LASF13:
 3554 007d 6C6F6E67 		.ascii	"long long unsigned int\000"
 3554      206C6F6E 
 3554      6720756E 
 3554      7369676E 
 3554      65642069 
 3555              	.LASF134:
 3556 0094 444D4132 		.ascii	"DMA2_Channel1_IRQn\000"
 3556      5F436861 
 3556      6E6E656C 
 3556      315F4952 
 3556      516E00
 3557              	.LASF22:
 3558 00a7 666C6167 		.ascii	"flagsmask_t\000"
 3558      736D6173 
 3558      6B5F7400 
 3559              	.LASF61:
 3560 00b3 65786974 		.ascii	"exitcode\000"
 3560      636F6465 
 3560      00
 3561              	.LASF119:
 3562 00bc 49324332 		.ascii	"I2C2_ER_IRQn\000"
 3562      5F45525F 
 3562      4952516E 
 3562      00
 3563              	.LASF115:
 3564 00c9 54494D34 		.ascii	"TIM4_IRQn\000"
 3564      5F495251 
 3564      6E00
 3565              	.LASF192:
 3566 00d3 49544D5F 		.ascii	"ITM_RxBuffer\000"
 3566      52784275 
 3566      66666572 
 3566      00
 3567              	.LASF85:
 3568 00e0 57574447 		.ascii	"WWDG_IRQn\000"
 3568      5F495251 
 3568      6E00
 3569              	.LASF27:
 3570 00ea 705F7072 		.ascii	"p_prio\000"
 3570      696F00
 3571              	.LASF183:
 3572 00f1 72656164 		.ascii	"readt\000"
 3572      7400
 3573              	.LASF66:
 3574 00f7 715F7761 		.ascii	"q_waiting\000"
 3574      6974696E 
 3574      6700
 3575              	.LASF12:
 3576 0101 6C6F6E67 		.ascii	"long long int\000"
 3576      206C6F6E 
 3576      6720696E 
 3576      7400
 3577              	.LASF1:
 3578 010f 7369676E 		.ascii	"signed char\000"
ARM GAS  /tmp/cc6uzPxP.s 			page 65


 3578      65642063 
 3578      68617200 
 3579              	.LASF143:
 3580 011b 43414E32 		.ascii	"CAN2_RX1_IRQn\000"
 3580      5F525831 
 3580      5F495251 
 3580      6E00
 3581              	.LASF162:
 3582 0129 47545052 		.ascii	"GTPR\000"
 3582      00
 3583              	.LASF32:
 3584 012e 705F7374 		.ascii	"p_state\000"
 3584      61746500 
 3585              	.LASF43:
 3586 0136 705F6D70 		.ascii	"p_mpool\000"
 3586      6F6F6C00 
 3587              	.LASF50:
 3588 013e 6D5F7175 		.ascii	"m_queue\000"
 3588      65756500 
 3589              	.LASF197:
 3590 0146 6E6F7469 		.ascii	"notify4\000"
 3590      66793400 
 3591              	.LASF18:
 3592 014e 74736C69 		.ascii	"tslices_t\000"
 3592      6365735F 
 3592      7400
 3593              	.LASF138:
 3594 0158 444D4132 		.ascii	"DMA2_Channel5_IRQn\000"
 3594      5F436861 
 3594      6E6E656C 
 3594      355F4952 
 3594      516E00
 3595              	.LASF199:
 3596 016b 64656661 		.ascii	"default_config\000"
 3596      756C745F 
 3596      636F6E66 
 3596      696700
 3597              	.LASF171:
 3598 017a 73746174 		.ascii	"state\000"
 3598      6500
 3599              	.LASF9:
 3600 0180 6C6F6E67 		.ascii	"long int\000"
 3600      20696E74 
 3600      00
 3601              	.LASF147:
 3602 0189 41504232 		.ascii	"APB2RSTR\000"
 3602      52535452 
 3602      00
 3603              	.LASF16:
 3604 0192 74737461 		.ascii	"tstate_t\000"
 3604      74655F74 
 3604      00
 3605              	.LASF108:
 3606 019b 45585449 		.ascii	"EXTI9_5_IRQn\000"
 3606      395F355F 
 3606      4952516E 
 3606      00
ARM GAS  /tmp/cc6uzPxP.s 			page 66


 3607              	.LASF34:
 3608 01a8 705F7265 		.ascii	"p_refs\000"
 3608      667300
 3609              	.LASF68:
 3610 01af 715F6275 		.ascii	"q_buffer\000"
 3610      66666572 
 3610      00
 3611              	.LASF140:
 3612 01b8 4554485F 		.ascii	"ETH_WKUP_IRQn\000"
 3612      574B5550 
 3612      5F495251 
 3612      6E00
 3613              	.LASF70:
 3614 01c6 715F7772 		.ascii	"q_wrptr\000"
 3614      70747200 
 3615              	.LASF103:
 3616 01ce 41444331 		.ascii	"ADC1_2_IRQn\000"
 3616      5F325F49 
 3616      52516E00 
 3617              	.LASF29:
 3618 01da 705F6E65 		.ascii	"p_newer\000"
 3618      77657200 
 3619              	.LASF65:
 3620 01e2 47656E65 		.ascii	"GenericQueue\000"
 3620      72696351 
 3620      75657565 
 3620      00
 3621              	.LASF130:
 3622 01ef 55415254 		.ascii	"UART4_IRQn\000"
 3622      345F4952 
 3622      516E00
 3623              	.LASF127:
 3624 01fa 4F54475F 		.ascii	"OTG_FS_WKUP_IRQn\000"
 3624      46535F57 
 3624      4B55505F 
 3624      4952516E 
 3624      00
 3625              	.LASF83:
 3626 020b 50656E64 		.ascii	"PendSV_IRQn\000"
 3626      53565F49 
 3626      52516E00 
 3627              	.LASF46:
 3628 0217 72656761 		.ascii	"regarm_t\000"
 3628      726D5F74 
 3628      00
 3629              	.LASF74:
 3630 0220 716E6F74 		.ascii	"qnotify_t\000"
 3630      6966795F 
 3630      7400
 3631              	.LASF187:
 3632 022a 75736172 		.ascii	"usart_deinit\000"
 3632      745F6465 
 3632      696E6974 
 3632      00
 3633              	.LASF58:
 3634 0237 4576656E 		.ascii	"EventSource\000"
 3634      74536F75 
ARM GAS  /tmp/cc6uzPxP.s 			page 67


 3634      72636500 
 3635              	.LASF105:
 3636 0243 43414E31 		.ascii	"CAN1_RX0_IRQn\000"
 3636      5F525830 
 3636      5F495251 
 3636      6E00
 3637              	.LASF174:
 3638 0251 75736172 		.ascii	"usart\000"
 3638      7400
 3639              	.LASF0:
 3640 0257 756E7369 		.ascii	"unsigned int\000"
 3640      676E6564 
 3640      20696E74 
 3640      00
 3641              	.LASF6:
 3642 0264 75696E74 		.ascii	"uint16_t\000"
 3642      31365F74 
 3642      00
 3643              	.LASF177:
 3644 026d 53657269 		.ascii	"SerialDriverVMT\000"
 3644      616C4472 
 3644      69766572 
 3644      564D5400 
 3645              	.LASF36:
 3646 027d 705F7469 		.ascii	"p_time\000"
 3646      6D6500
 3647              	.LASF78:
 3648 0284 4D656D6F 		.ascii	"MemoryManagement_IRQn\000"
 3648      72794D61 
 3648      6E616765 
 3648      6D656E74 
 3648      5F495251 
 3649              	.LASF172:
 3650 029a 69717565 		.ascii	"iqueue\000"
 3650      756500
 3651              	.LASF38:
 3652 02a1 705F6D73 		.ascii	"p_msgqueue\000"
 3652      67717565 
 3652      756500
 3653              	.LASF198:
 3654 02ac 73645F6C 		.ascii	"sd_lld_init\000"
 3654      6C645F69 
 3654      6E697400 
 3655              	.LASF181:
 3656 02b8 67657474 		.ascii	"gett\000"
 3656      00
 3657              	.LASF170:
 3658 02bd 6576656E 		.ascii	"event\000"
 3658      7400
 3659              	.LASF100:
 3660 02c3 444D4131 		.ascii	"DMA1_Channel5_IRQn\000"
 3660      5F436861 
 3660      6E6E656C 
 3660      355F4952 
 3660      516E00
 3661              	.LASF7:
 3662 02d6 73686F72 		.ascii	"short unsigned int\000"
ARM GAS  /tmp/cc6uzPxP.s 			page 68


 3662      7420756E 
 3662      7369676E 
 3662      65642069 
 3662      6E7400
 3663              	.LASF111:
 3664 02e9 54494D31 		.ascii	"TIM1_TRG_COM_IRQn\000"
 3664      5F545247 
 3664      5F434F4D 
 3664      5F495251 
 3664      6E00
 3665              	.LASF104:
 3666 02fb 43414E31 		.ascii	"CAN1_TX_IRQn\000"
 3666      5F54585F 
 3666      4952516E 
 3666      00
 3667              	.LASF20:
 3668 0308 6D73675F 		.ascii	"msg_t\000"
 3668      7400
 3669              	.LASF173:
 3670 030e 6F717565 		.ascii	"oqueue\000"
 3670      756500
 3671              	.LASF125:
 3672 0315 45585449 		.ascii	"EXTI15_10_IRQn\000"
 3672      31355F31 
 3672      305F4952 
 3672      516E00
 3673              	.LASF120:
 3674 0324 53504931 		.ascii	"SPI1_IRQn\000"
 3674      5F495251 
 3674      6E00
 3675              	.LASF164:
 3676 032e 55534152 		.ascii	"USART_TypeDef\000"
 3676      545F5479 
 3676      70654465 
 3676      6600
 3677              	.LASF182:
 3678 033c 77726974 		.ascii	"writet\000"
 3678      657400
 3679              	.LASF15:
 3680 0343 746D6F64 		.ascii	"tmode_t\000"
 3680      655F7400 
 3681              	.LASF45:
 3682 034b 54687265 		.ascii	"ThreadsList\000"
 3682      6164734C 
 3682      69737400 
 3683              	.LASF21:
 3684 0357 6576656E 		.ascii	"eventmask_t\000"
 3684      746D6173 
 3684      6B5F7400 
 3685              	.LASF75:
 3686 0363 496E7075 		.ascii	"InputQueue\000"
 3686      74517565 
 3686      756500
 3687              	.LASF175:
 3688 036e 73706565 		.ascii	"speed\000"
 3688      6400
 3689              	.LASF99:
ARM GAS  /tmp/cc6uzPxP.s 			page 69


 3690 0374 444D4131 		.ascii	"DMA1_Channel4_IRQn\000"
 3690      5F436861 
 3690      6E6E656C 
 3690      345F4952 
 3690      516E00
 3691              	.LASF84:
 3692 0387 53797354 		.ascii	"SysTick_IRQn\000"
 3692      69636B5F 
 3692      4952516E 
 3692      00
 3693              	.LASF112:
 3694 0394 54494D31 		.ascii	"TIM1_CC_IRQn\000"
 3694      5F43435F 
 3694      4952516E 
 3694      00
 3695              	.LASF178:
 3696 03a1 77726974 		.ascii	"write\000"
 3696      6500
 3697              	.LASF196:
 3698 03a7 4952516E 		.ascii	"IRQn\000"
 3698      00
 3699              	.LASF180:
 3700 03ac 70757474 		.ascii	"putt\000"
 3700      00
 3701              	.LASF185:
 3702 03b1 75736172 		.ascii	"usart_init\000"
 3702      745F696E 
 3702      697400
 3703              	.LASF97:
 3704 03bc 444D4131 		.ascii	"DMA1_Channel2_IRQn\000"
 3704      5F436861 
 3704      6E6E656C 
 3704      325F4952 
 3704      516E00
 3705              	.LASF139:
 3706 03cf 4554485F 		.ascii	"ETH_IRQn\000"
 3706      4952516E 
 3706      00
 3707              	.LASF67:
 3708 03d8 715F636F 		.ascii	"q_counter\000"
 3708      756E7465 
 3708      7200
 3709              	.LASF49:
 3710 03e2 4D757465 		.ascii	"Mutex\000"
 3710      7800
 3711              	.LASF135:
 3712 03e8 444D4132 		.ascii	"DMA2_Channel2_IRQn\000"
 3712      5F436861 
 3712      6E6E656C 
 3712      325F4952 
 3712      516E00
 3713              	.LASF25:
 3714 03fb 705F6E65 		.ascii	"p_next\000"
 3714      787400
 3715              	.LASF128:
 3716 0402 54494D35 		.ascii	"TIM5_IRQn\000"
 3716      5F495251 
ARM GAS  /tmp/cc6uzPxP.s 			page 70


 3716      6E00
 3717              	.LASF82:
 3718 040c 44656275 		.ascii	"DebugMonitor_IRQn\000"
 3718      674D6F6E 
 3718      69746F72 
 3718      5F495251 
 3718      6E00
 3719              	.LASF121:
 3720 041e 53504932 		.ascii	"SPI2_IRQn\000"
 3720      5F495251 
 3720      6E00
 3721              	.LASF141:
 3722 0428 43414E32 		.ascii	"CAN2_TX_IRQn\000"
 3722      5F54585F 
 3722      4952516E 
 3722      00
 3723              	.LASF44:
 3724 0435 54687265 		.ascii	"ThreadsQueue\000"
 3724      61647351 
 3724      75657565 
 3724      00
 3725              	.LASF145:
 3726 0442 4F54475F 		.ascii	"OTG_FS_IRQn\000"
 3726      46535F49 
 3726      52516E00 
 3727              	.LASF136:
 3728 044e 444D4132 		.ascii	"DMA2_Channel3_IRQn\000"
 3728      5F436861 
 3728      6E6E656C 
 3728      335F4952 
 3728      516E00
 3729              	.LASF153:
 3730 0461 41484252 		.ascii	"AHBRSTR\000"
 3730      53545200 
 3731              	.LASF148:
 3732 0469 41504231 		.ascii	"APB1RSTR\000"
 3732      52535452 
 3732      00
 3733              	.LASF56:
 3734 0472 656C5F6D 		.ascii	"el_mask\000"
 3734      61736B00 
 3735              	.LASF176:
 3736 047a 53657269 		.ascii	"SerialConfig\000"
 3736      616C436F 
 3736      6E666967 
 3736      00
 3737              	.LASF96:
 3738 0487 444D4131 		.ascii	"DMA1_Channel1_IRQn\000"
 3738      5F436861 
 3738      6E6E656C 
 3738      315F4952 
 3738      516E00
 3739              	.LASF17:
 3740 049a 74726566 		.ascii	"trefs_t\000"
 3740      735F7400 
 3741              	.LASF156:
 3742 04a2 52455345 		.ascii	"RESERVED0\000"
ARM GAS  /tmp/cc6uzPxP.s 			page 71


 3742      52564544 
 3742      3000
 3743              	.LASF157:
 3744 04ac 52455345 		.ascii	"RESERVED1\000"
 3744      52564544 
 3744      3100
 3745              	.LASF158:
 3746 04b6 52455345 		.ascii	"RESERVED2\000"
 3746      52564544 
 3746      3200
 3747              	.LASF159:
 3748 04c0 52455345 		.ascii	"RESERVED3\000"
 3748      52564544 
 3748      3300
 3749              	.LASF160:
 3750 04ca 52455345 		.ascii	"RESERVED4\000"
 3750      52564544 
 3750      3400
 3751              	.LASF26:
 3752 04d4 705F7072 		.ascii	"p_prev\000"
 3752      657600
 3753              	.LASF163:
 3754 04db 52455345 		.ascii	"RESERVED6\000"
 3754      52564544 
 3754      3600
 3755              	.LASF19:
 3756 04e5 74707269 		.ascii	"tprio_t\000"
 3756      6F5F7400 
 3757              	.LASF71:
 3758 04ed 715F7264 		.ascii	"q_rdptr\000"
 3758      70747200 
 3759              	.LASF81:
 3760 04f5 53564361 		.ascii	"SVCall_IRQn\000"
 3760      6C6C5F49 
 3760      52516E00 
 3761              	.LASF14:
 3762 0501 5F426F6F 		.ascii	"_Bool\000"
 3762      6C00
 3763              	.LASF8:
 3764 0507 696E7433 		.ascii	"int32_t\000"
 3764      325F7400 
 3765              	.LASF4:
 3766 050f 756E7369 		.ascii	"unsigned char\000"
 3766      676E6564 
 3766      20636861 
 3766      7200
 3767              	.LASF190:
 3768 051d 73645F6C 		.ascii	"sd_lld_start\000"
 3768      6C645F73 
 3768      74617274 
 3768      00
 3769              	.LASF55:
 3770 052a 656C5F6C 		.ascii	"el_listener\000"
 3770      69737465 
 3770      6E657200 
 3771              	.LASF57:
 3772 0536 656C5F66 		.ascii	"el_flags\000"
ARM GAS  /tmp/cc6uzPxP.s 			page 72


 3772      6C616773 
 3772      00
 3773              	.LASF155:
 3774 053f 5243435F 		.ascii	"RCC_TypeDef\000"
 3774      54797065 
 3774      44656600 
 3775              	.LASF41:
 3776 054b 705F6D74 		.ascii	"p_mtxlist\000"
 3776      786C6973 
 3776      7400
 3777              	.LASF5:
 3778 0555 73686F72 		.ascii	"short int\000"
 3778      7420696E 
 3778      7400
 3779              	.LASF95:
 3780 055f 45585449 		.ascii	"EXTI4_IRQn\000"
 3780      345F4952 
 3780      516E00
 3781              	.LASF35:
 3782 056a 705F7072 		.ascii	"p_preempt\000"
 3782      65656D70 
 3782      7400
 3783              	.LASF30:
 3784 0574 705F6F6C 		.ascii	"p_older\000"
 3784      64657200 
 3785              	.LASF131:
 3786 057c 55415254 		.ascii	"UART5_IRQn\000"
 3786      355F4952 
 3786      516E00
 3787              	.LASF98:
 3788 0587 444D4131 		.ascii	"DMA1_Channel3_IRQn\000"
 3788      5F436861 
 3788      6E6E656C 
 3788      335F4952 
 3788      516E00
 3789              	.LASF63:
 3790 059a 65776D61 		.ascii	"ewmask\000"
 3790      736B00
 3791              	.LASF33:
 3792 05a1 705F666C 		.ascii	"p_flags\000"
 3792      61677300 
 3793              	.LASF54:
 3794 05a9 656C5F6E 		.ascii	"el_next\000"
 3794      65787400 
 3795              	.LASF93:
 3796 05b1 45585449 		.ascii	"EXTI2_IRQn\000"
 3796      325F4952 
 3796      516E00
 3797              	.LASF166:
 3798 05bc 53445F53 		.ascii	"SD_STOP\000"
 3798      544F5000 
 3799              	.LASF150:
 3800 05c4 41504232 		.ascii	"APB2ENR\000"
 3800      454E5200 
 3801              	.LASF24:
 3802 05cc 54687265 		.ascii	"Thread\000"
 3802      616400
ARM GAS  /tmp/cc6uzPxP.s 			page 73


 3803              	.LASF188:
 3804 05d3 73657276 		.ascii	"serve_interrupt\000"
 3804      655F696E 
 3804      74657272 
 3804      75707400 
 3805              	.LASF89:
 3806 05e3 464C4153 		.ascii	"FLASH_IRQn\000"
 3806      485F4952 
 3806      516E00
 3807              	.LASF40:
 3808 05ee 705F6570 		.ascii	"p_epending\000"
 3808      656E6469 
 3808      6E6700
 3809              	.LASF165:
 3810 05f9 53445F55 		.ascii	"SD_UNINIT\000"
 3810      4E494E49 
 3810      5400
 3811              	.LASF161:
 3812 0603 52455345 		.ascii	"RESERVED5\000"
 3812      52564544 
 3812      3500
 3813              	.LASF10:
 3814 060d 75696E74 		.ascii	"uint32_t\000"
 3814      33325F74 
 3814      00
 3815              	.LASF123:
 3816 0616 55534152 		.ascii	"USART2_IRQn\000"
 3816      54325F49 
 3816      52516E00 
 3817              	.LASF80:
 3818 0622 55736167 		.ascii	"UsageFault_IRQn\000"
 3818      65466175 
 3818      6C745F49 
 3818      52516E00 
 3819              	.LASF169:
 3820 0632 53657269 		.ascii	"SerialDriver\000"
 3820      616C4472 
 3820      69766572 
 3820      00
 3821              	.LASF11:
 3822 063f 6C6F6E67 		.ascii	"long unsigned int\000"
 3822      20756E73 
 3822      69676E65 
 3822      6420696E 
 3822      7400
 3823              	.LASF179:
 3824 0651 72656164 		.ascii	"read\000"
 3824      00
 3825              	.LASF64:
 3826 0656 63686172 		.ascii	"char\000"
 3826      00
 3827              	.LASF137:
 3828 065b 444D4132 		.ascii	"DMA2_Channel4_IRQn\000"
 3828      5F436861 
 3828      6E6E656C 
 3828      345F4952 
 3828      516E00
ARM GAS  /tmp/cc6uzPxP.s 			page 74


 3829              	.LASF79:
 3830 066e 42757346 		.ascii	"BusFault_IRQn\000"
 3830      61756C74 
 3830      5F495251 
 3830      6E00
 3831              	.LASF132:
 3832 067c 54494D36 		.ascii	"TIM6_IRQn\000"
 3832      5F495251 
 3832      6E00
 3833              	.LASF186:
 3834 0686 636F6E66 		.ascii	"config\000"
 3834      696700
 3835              	.LASF109:
 3836 068d 54494D31 		.ascii	"TIM1_BRK_IRQn\000"
 3836      5F42524B 
 3836      5F495251 
 3836      6E00
 3837              	.LASF133:
 3838 069b 54494D37 		.ascii	"TIM7_IRQn\000"
 3838      5F495251 
 3838      6E00
 3839              	.LASF107:
 3840 06a5 43414E31 		.ascii	"CAN1_SCE_IRQn\000"
 3840      5F534345 
 3840      5F495251 
 3840      6E00
 3841              	.LASF52:
 3842 06b3 6D5F6E65 		.ascii	"m_next\000"
 3842      787400
 3843              	.LASF23:
 3844 06ba 73797374 		.ascii	"systime_t\000"
 3844      696D655F 
 3844      7400
 3845              	.LASF77:
 3846 06c4 4E6F6E4D 		.ascii	"NonMaskableInt_IRQn\000"
 3846      61736B61 
 3846      626C6549 
 3846      6E745F49 
 3846      52516E00 
 3847              	.LASF189:
 3848 06d8 56656374 		.ascii	"Vector110\000"
 3848      6F723131 
 3848      3000
 3849              	.LASF101:
 3850 06e2 444D4131 		.ascii	"DMA1_Channel6_IRQn\000"
 3850      5F436861 
 3850      6E6E656C 
 3850      365F4952 
 3850      516E00
 3851              	.LASF31:
 3852 06f5 705F6E61 		.ascii	"p_name\000"
 3852      6D6500
 3853              	.LASF151:
 3854 06fc 41504231 		.ascii	"APB1ENR\000"
 3854      454E5200 
 3855              	.LASF87:
 3856 0704 54414D50 		.ascii	"TAMPER_IRQn\000"
ARM GAS  /tmp/cc6uzPxP.s 			page 75


 3856      45525F49 
 3856      52516E00 
 3857              	.LASF195:
 3858 0710 2F686F6D 		.ascii	"/home/aggieair/workspace/ChibiOS_2.6.1/demos/ARMCM3"
 3858      652F6167 
 3858      67696561 
 3858      69722F77 
 3858      6F726B73 
 3859 0743 2D53544D 		.ascii	"-STM32F105-LIA/\000"
 3859      33324631 
 3859      30352D4C 
 3859      49412F00 
 3860              	.LASF48:
 3861 0753 636F6E74 		.ascii	"context\000"
 3861      65787400 
 3862              	.LASF193:
 3863 075b 474E5520 		.ascii	"GNU C 4.6.2 20110908 (prerelease)\000"
 3863      4320342E 
 3863      362E3220 
 3863      32303131 
 3863      30393038 
 3864              	.LASF47:
 3865 077d 696E7463 		.ascii	"intctx\000"
 3865      747800
 3866              	.LASF167:
 3867 0784 53445F52 		.ascii	"SD_READY\000"
 3867      45414459 
 3867      00
 3868              	.LASF118:
 3869 078d 49324332 		.ascii	"I2C2_EV_IRQn\000"
 3869      5F45565F 
 3869      4952516E 
 3869      00
 3870              	.LASF124:
 3871 079a 55534152 		.ascii	"USART3_IRQn\000"
 3871      54335F49 
 3871      52516E00 
 3872              	.LASF168:
 3873 07a6 73647374 		.ascii	"sdstate_t\000"
 3873      6174655F 
 3873      7400
 3874              	.LASF113:
 3875 07b0 54494D32 		.ascii	"TIM2_IRQn\000"
 3875      5F495251 
 3875      6E00
 3876              	.LASF69:
 3877 07ba 715F746F 		.ascii	"q_top\000"
 3877      7000
 3878              	.LASF91:
 3879 07c0 45585449 		.ascii	"EXTI0_IRQn\000"
 3879      305F4952 
 3879      516E00
 3880              	.LASF59:
 3881 07cb 65735F6E 		.ascii	"es_next\000"
 3881      65787400 
 3882              	.LASF122:
 3883 07d3 55534152 		.ascii	"USART1_IRQn\000"
ARM GAS  /tmp/cc6uzPxP.s 			page 76


 3883      54315F49 
 3883      52516E00 
 3884              	.LASF152:
 3885 07df 42444352 		.ascii	"BDCR\000"
 3885      00
 3886              	.LASF72:
 3887 07e4 715F6E6F 		.ascii	"q_notify\000"
 3887      74696679 
 3887      00
 3888              	.LASF94:
 3889 07ed 45585449 		.ascii	"EXTI3_IRQn\000"
 3889      335F4952 
 3889      516E00
 3890              	.LASF39:
 3891 07f8 705F6D73 		.ascii	"p_msg\000"
 3891      6700
 3892              	.LASF154:
 3893 07fe 43464752 		.ascii	"CFGR2\000"
 3893      3200
 3894              	.LASF3:
 3895 0804 75696E74 		.ascii	"uint8_t\000"
 3895      385F7400 
 3896              	.LASF90:
 3897 080c 5243435F 		.ascii	"RCC_IRQn\000"
 3897      4952516E 
 3897      00
 3898              	.LASF53:
 3899 0815 4576656E 		.ascii	"EventListener\000"
 3899      744C6973 
 3899      74656E65 
 3899      7200
 3900              	.LASF62:
 3901 0823 77746F62 		.ascii	"wtobjp\000"
 3901      6A7000
 3902              	.LASF102:
 3903 082a 444D4131 		.ascii	"DMA1_Channel7_IRQn\000"
 3903      5F436861 
 3903      6E6E656C 
 3903      375F4952 
 3903      516E00
 3904              	.LASF191:
 3905 083d 73645F6C 		.ascii	"sd_lld_stop\000"
 3905      6C645F73 
 3905      746F7000 
 3906              	.LASF146:
 3907 0849 43464752 		.ascii	"CFGR\000"
 3907      00
 3908              	.LASF194:
 3909 084e 2E2E2F2E 		.ascii	"../../os/hal/platforms/STM32/USARTv1/serial_lld.c\000"
 3909      2E2F6F73 
 3909      2F68616C 
 3909      2F706C61 
 3909      74666F72 
 3910              	.LASF117:
 3911 0880 49324331 		.ascii	"I2C1_ER_IRQn\000"
 3911      5F45525F 
 3911      4952516E 
ARM GAS  /tmp/cc6uzPxP.s 			page 77


 3911      00
 3912              	.LASF88:
 3913 088d 5254435F 		.ascii	"RTC_IRQn\000"
 3913      4952516E 
 3913      00
 3914              	.LASF129:
 3915 0896 53504933 		.ascii	"SPI3_IRQn\000"
 3915      5F495251 
 3915      6E00
 3916              	.LASF73:
 3917 08a0 715F6C69 		.ascii	"q_link\000"
 3917      6E6B00
 3918              	.LASF114:
 3919 08a7 54494D33 		.ascii	"TIM3_IRQn\000"
 3919      5F495251 
 3919      6E00
 3920              	.LASF51:
 3921 08b1 6D5F6F77 		.ascii	"m_owner\000"
 3921      6E657200 
 3922              	.LASF144:
 3923 08b9 43414E32 		.ascii	"CAN2_SCE_IRQn\000"
 3923      5F534345 
 3923      5F495251 
 3923      6E00
 3924              	.LASF28:
 3925 08c7 705F6374 		.ascii	"p_ctx\000"
 3925      7800
 3926              	.LASF37:
 3927 08cd 705F7761 		.ascii	"p_waiting\000"
 3927      6974696E 
 3927      6700
 3928              	.LASF149:
 3929 08d7 41484245 		.ascii	"AHBENR\000"
 3929      4E5200
 3930              	.LASF92:
 3931 08de 45585449 		.ascii	"EXTI1_IRQn\000"
 3931      315F4952 
 3931      516E00
 3932              		.ident	"GCC: (Linaro GCC 4.6-2011.09-1) 4.6.2 20110908 (prerelease)"
ARM GAS  /tmp/cc6uzPxP.s 			page 78


DEFINED SYMBOLS
                            *ABS*:0000000000000000 serial_lld.c
     /tmp/cc6uzPxP.s:18     .text.notify4:0000000000000000 $t
     /tmp/cc6uzPxP.s:23     .text.notify4:0000000000000000 notify4
     /tmp/cc6uzPxP.s:45     .text.Vector110:0000000000000000 $t
     /tmp/cc6uzPxP.s:51     .text.Vector110:0000000000000000 Vector110
     /tmp/cc6uzPxP.s:323    .text.Vector110:00000000000000f8 $d
     /tmp/cc6uzPxP.s:333    .text.sd_lld_init:0000000000000000 $t
     /tmp/cc6uzPxP.s:339    .text.sd_lld_init:0000000000000000 sd_lld_init
     /tmp/cc6uzPxP.s:564    .bss.SD4:0000000000000000 .LANCHOR0
     /tmp/cc6uzPxP.s:368    .text.sd_lld_start:0000000000000000 $t
     /tmp/cc6uzPxP.s:374    .text.sd_lld_start:0000000000000000 sd_lld_start
     /tmp/cc6uzPxP.s:484    .text.sd_lld_start:0000000000000088 $d
     /tmp/cc6uzPxP.s:490    .text.sd_lld_stop:0000000000000000 $t
     /tmp/cc6uzPxP.s:496    .text.sd_lld_stop:0000000000000000 sd_lld_stop
     /tmp/cc6uzPxP.s:546    .text.sd_lld_stop:0000000000000030 $d
     /tmp/cc6uzPxP.s:567    .bss.SD4:0000000000000000 SD4
     /tmp/cc6uzPxP.s:552    .rodata.default_config:0000000000000000 $d
     /tmp/cc6uzPxP.s:556    .rodata.default_config:0000000000000000 default_config
     /tmp/cc6uzPxP.s:563    .bss.SD4:0000000000000000 $d
                     .debug_frame:0000000000000010 $d
     /tmp/cc6uzPxP.s:332    .text.Vector110:0000000000000104 $t
     /tmp/cc6uzPxP.s:551    .text.sd_lld_stop:0000000000000034 $t

UNDEFINED SYMBOLS
chEvtBroadcastFlagsI
_port_irq_epilogue
sdIncomingDataI
chOQGetI
sdObjectInit
nvicEnableVector
nvicDisableVector
