ARM GAS  /tmp/ccQ1YpDr.s 			page 1


   1              		.syntax unified
   2              		.cpu cortex-m3
   3              		.fpu softvfp
   4              		.eabi_attribute 20, 1
   5              		.eabi_attribute 21, 1
   6              		.eabi_attribute 23, 3
   7              		.eabi_attribute 24, 1
   8              		.eabi_attribute 25, 1
   9              		.eabi_attribute 26, 1
  10              		.eabi_attribute 30, 2
  11              		.eabi_attribute 18, 4
  12              		.thumb
  13              		.file	"serial.c"
  14              		.text
  15              	.Ltext0:
  16              		.cfi_sections	.debug_frame
  17              		.section	.text.readt,"ax",%progbits
  18              		.align	2
  19              		.p2align 4,,15
  20              		.thumb
  21              		.thumb_func
  22              		.type	readt, %function
  23              	readt:
  24              	.LFB70:
  25              		.file 1 "../../os/hal/src/serial.c"
  26              		.loc 1 99 0
  27              		.cfi_startproc
  28              		@ args = 0, pretend = 0, frame = 0
  29              		@ frame_needed = 0, uses_anonymous_args = 0
  30              		@ link register save eliminated.
  31              	.LVL0:
  32              		.loc 1 101 0
  33 0000 0C30     		adds	r0, r0, #12
  34              	.LVL1:
  35              		.loc 1 102 0
  36              		.loc 1 101 0
  37 0002 FFF7FEBF 		b	chIQReadTimeout
  38              	.LVL2:
  39              	.LVL3:
  40              	.LVL4:
  41              	.LVL5:
  42              		.cfi_endproc
  43              	.LFE70:
  44              		.size	readt, .-readt
  45 0006 00BFAFF3 		.section	.text.read,"ax",%progbits
  45      0080AFF3 
  45      0080
  46              		.align	2
  47              		.p2align 4,,15
  48              		.thumb
  49              		.thumb_func
  50              		.type	read, %function
  51              	read:
  52              	.LFB64:
  53              		.loc 1 68 0
  54              		.cfi_startproc
  55              		@ args = 0, pretend = 0, frame = 0
ARM GAS  /tmp/ccQ1YpDr.s 			page 2


  56              		@ frame_needed = 0, uses_anonymous_args = 0
  57              		@ link register save eliminated.
  58              	.LVL6:
  59              		.loc 1 70 0
  60 0000 0C30     		adds	r0, r0, #12
  61              	.LVL7:
  62 0002 4FF0FF33 		mov	r3, #-1
  63              		.loc 1 72 0
  64              		.loc 1 70 0
  65 0006 FFF7FEBF 		b	chIQReadTimeout
  66              	.LVL8:
  67              	.LVL9:
  68              	.LVL10:
  69              		.cfi_endproc
  70              	.LFE64:
  71              		.size	read, .-read
  72 000a 00BFAFF3 		.section	.text.writet,"ax",%progbits
  72      0080
  73              		.align	2
  74              		.p2align 4,,15
  75              		.thumb
  76              		.thumb_func
  77              		.type	writet, %function
  78              	writet:
  79              	.LFB69:
  80              		.loc 1 94 0
  81              		.cfi_startproc
  82              		@ args = 0, pretend = 0, frame = 0
  83              		@ frame_needed = 0, uses_anonymous_args = 0
  84              		@ link register save eliminated.
  85              	.LVL11:
  86              		.loc 1 96 0
  87 0000 3030     		adds	r0, r0, #48
  88              	.LVL12:
  89              		.loc 1 97 0
  90              		.loc 1 96 0
  91 0002 FFF7FEBF 		b	chOQWriteTimeout
  92              	.LVL13:
  93              	.LVL14:
  94              	.LVL15:
  95              	.LVL16:
  96              		.cfi_endproc
  97              	.LFE69:
  98              		.size	writet, .-writet
  99 0006 00BFAFF3 		.section	.text.write,"ax",%progbits
  99      0080AFF3 
  99      0080
 100              		.align	2
 101              		.p2align 4,,15
 102              		.thumb
 103              		.thumb_func
 104              		.type	write, %function
 105              	write:
 106              	.LFB63:
 107              		.loc 1 62 0
 108              		.cfi_startproc
 109              		@ args = 0, pretend = 0, frame = 0
ARM GAS  /tmp/ccQ1YpDr.s 			page 3


 110              		@ frame_needed = 0, uses_anonymous_args = 0
 111              		@ link register save eliminated.
 112              	.LVL17:
 113              		.loc 1 64 0
 114 0000 3030     		adds	r0, r0, #48
 115              	.LVL18:
 116 0002 4FF0FF33 		mov	r3, #-1
 117              		.loc 1 66 0
 118              		.loc 1 64 0
 119 0006 FFF7FEBF 		b	chOQWriteTimeout
 120              	.LVL19:
 121              	.LVL20:
 122              	.LVL21:
 123              		.cfi_endproc
 124              	.LFE63:
 125              		.size	write, .-write
 126 000a 00BFAFF3 		.section	.text.gett,"ax",%progbits
 126      0080
 127              		.align	2
 128              		.p2align 4,,15
 129              		.thumb
 130              		.thumb_func
 131              		.type	gett, %function
 132              	gett:
 133              	.LFB68:
 134              		.loc 1 89 0
 135              		.cfi_startproc
 136              		@ args = 0, pretend = 0, frame = 0
 137              		@ frame_needed = 0, uses_anonymous_args = 0
 138              		@ link register save eliminated.
 139              	.LVL22:
 140              		.loc 1 91 0
 141 0000 0C30     		adds	r0, r0, #12
 142              	.LVL23:
 143              		.loc 1 92 0
 144              		.loc 1 91 0
 145 0002 FFF7FEBF 		b	chIQGetTimeout
 146              	.LVL24:
 147              	.LVL25:
 148              		.cfi_endproc
 149              	.LFE68:
 150              		.size	gett, .-gett
 151 0006 00BFAFF3 		.section	.text.get,"ax",%progbits
 151      0080AFF3 
 151      0080
 152              		.align	2
 153              		.p2align 4,,15
 154              		.thumb
 155              		.thumb_func
 156              		.type	get, %function
 157              	get:
 158              	.LFB66:
 159              		.loc 1 79 0
 160              		.cfi_startproc
 161              		@ args = 0, pretend = 0, frame = 0
 162              		@ frame_needed = 0, uses_anonymous_args = 0
 163              		@ link register save eliminated.
ARM GAS  /tmp/ccQ1YpDr.s 			page 4


 164              	.LVL26:
 165              		.loc 1 81 0
 166 0000 0C30     		adds	r0, r0, #12
 167              	.LVL27:
 168 0002 4FF0FF31 		mov	r1, #-1
 169              		.loc 1 82 0
 170              		.loc 1 81 0
 171 0006 FFF7FEBF 		b	chIQGetTimeout
 172              	.LVL28:
 173              		.cfi_endproc
 174              	.LFE66:
 175              		.size	get, .-get
 176 000a 00BFAFF3 		.section	.text.putt,"ax",%progbits
 176      0080
 177              		.align	2
 178              		.p2align 4,,15
 179              		.thumb
 180              		.thumb_func
 181              		.type	putt, %function
 182              	putt:
 183              	.LFB67:
 184              		.loc 1 84 0
 185              		.cfi_startproc
 186              		@ args = 0, pretend = 0, frame = 0
 187              		@ frame_needed = 0, uses_anonymous_args = 0
 188              		@ link register save eliminated.
 189              	.LVL29:
 190              		.loc 1 86 0
 191 0000 3030     		adds	r0, r0, #48
 192              	.LVL30:
 193              		.loc 1 87 0
 194              		.loc 1 86 0
 195 0002 FFF7FEBF 		b	chOQPutTimeout
 196              	.LVL31:
 197              	.LVL32:
 198              	.LVL33:
 199              		.cfi_endproc
 200              	.LFE67:
 201              		.size	putt, .-putt
 202 0006 00BFAFF3 		.section	.text.put,"ax",%progbits
 202      0080AFF3 
 202      0080
 203              		.align	2
 204              		.p2align 4,,15
 205              		.thumb
 206              		.thumb_func
 207              		.type	put, %function
 208              	put:
 209              	.LFB65:
 210              		.loc 1 74 0
 211              		.cfi_startproc
 212              		@ args = 0, pretend = 0, frame = 0
 213              		@ frame_needed = 0, uses_anonymous_args = 0
 214              		@ link register save eliminated.
 215              	.LVL34:
 216              		.loc 1 76 0
 217 0000 3030     		adds	r0, r0, #48
ARM GAS  /tmp/ccQ1YpDr.s 			page 5


 218              	.LVL35:
 219 0002 4FF0FF32 		mov	r2, #-1
 220              		.loc 1 77 0
 221              		.loc 1 76 0
 222 0006 FFF7FEBF 		b	chOQPutTimeout
 223              	.LVL36:
 224              	.LVL37:
 225              		.cfi_endproc
 226              	.LFE65:
 227              		.size	put, .-put
 228 000a 00BFAFF3 		.section	.text.sdInit,"ax",%progbits
 228      0080
 229              		.align	2
 230              		.p2align 4,,15
 231              		.global	sdInit
 232              		.thumb
 233              		.thumb_func
 234              		.type	sdInit, %function
 235              	sdInit:
 236              	.LFB71:
 237              		.loc 1 120 0
 238              		.cfi_startproc
 239              		@ args = 0, pretend = 0, frame = 0
 240              		@ frame_needed = 0, uses_anonymous_args = 0
 241              		@ link register save eliminated.
 242              		.loc 1 123 0
 243              		.loc 1 122 0
 244 0000 FFF7FEBF 		b	sd_lld_init
 245              		.cfi_endproc
 246              	.LFE71:
 247              		.size	sdInit, .-sdInit
 248 0004 AFF30080 		.section	.text.sdObjectInit,"ax",%progbits
 248      AFF30080 
 248      AFF30080 
 249              		.align	2
 250              		.p2align 4,,15
 251              		.global	sdObjectInit
 252              		.thumb
 253              		.thumb_func
 254              		.type	sdObjectInit, %function
 255              	sdObjectInit:
 256              	.LFB72:
 257              		.loc 1 140 0
 258              		.cfi_startproc
 259              		@ args = 0, pretend = 0, frame = 0
 260              		@ frame_needed = 0, uses_anonymous_args = 0
 261              	.LVL38:
 262 0000 70B5     		push	{r4, r5, r6, lr}
 263              	.LCFI0:
 264              		.cfi_def_cfa_offset 16
 265              		.cfi_offset 14, -4
 266              		.cfi_offset 6, -8
 267              		.cfi_offset 5, -12
 268              		.cfi_offset 4, -16
 269 0002 0B46     		mov	r3, r1
 270              		.loc 1 142 0
 271 0004 40F20001 		movw	r1, #:lower16:.LANCHOR0
ARM GAS  /tmp/ccQ1YpDr.s 			page 6


 272              	.LVL39:
 273 0008 0646     		mov	r6, r0
 274 000a C0F20001 		movt	r1, #:upper16:.LANCHOR0
 275              		.loc 1 140 0
 276 000e 0446     		mov	r4, r0
 277              		.loc 1 142 0
 278 0010 46F8041B 		str	r1, [r6], #4
 279              		.loc 1 143 0
 280 0014 6660     		str	r6, [r4, #4]
 281              		.loc 1 144 0
 282 0016 0126     		movs	r6, #1
 283              		.loc 1 140 0
 284 0018 82B0     		sub	sp, sp, #8
 285              	.LCFI1:
 286              		.cfi_def_cfa_offset 24
 287              		.loc 1 140 0
 288 001a 1546     		mov	r5, r2
 289              		.loc 1 145 0
 290 001c 04F15401 		add	r1, r4, #84
 291 0020 1022     		movs	r2, #16
 292              	.LVL40:
 293              		.loc 1 144 0
 294 0022 2672     		strb	r6, [r4, #8]
 295              		.loc 1 145 0
 296 0024 00F10C00 		add	r0, r0, #12
 297              	.LVL41:
 298 0028 0094     		str	r4, [sp, #0]
 299 002a FFF7FEFF 		bl	chIQInit
 300              	.LVL42:
 301              		.loc 1 146 0
 302 002e 04F13000 		add	r0, r4, #48
 303 0032 04F16401 		add	r1, r4, #100
 304 0036 1022     		movs	r2, #16
 305 0038 2B46     		mov	r3, r5
 306 003a 0094     		str	r4, [sp, #0]
 307 003c FFF7FEFF 		bl	chOQInit
 308              		.loc 1 147 0
 309 0040 02B0     		add	sp, sp, #8
 310 0042 70BD     		pop	{r4, r5, r6, pc}
 311              		.cfi_endproc
 312              	.LFE72:
 313              		.size	sdObjectInit, .-sdObjectInit
 314 0044 AFF30080 		.section	.text.sdStart,"ax",%progbits
 314      AFF30080 
 314      AFF30080 
 315              		.align	2
 316              		.p2align 4,,15
 317              		.global	sdStart
 318              		.thumb
 319              		.thumb_func
 320              		.type	sdStart, %function
 321              	sdStart:
 322              	.LFB73:
 323              		.loc 1 159 0
 324              		.cfi_startproc
 325              		@ args = 0, pretend = 0, frame = 0
 326              		@ frame_needed = 0, uses_anonymous_args = 0
ARM GAS  /tmp/ccQ1YpDr.s 			page 7


 327              	.LVL43:
 328 0000 10B5     		push	{r4, lr}
 329              	.LCFI2:
 330              		.cfi_def_cfa_offset 8
 331              		.cfi_offset 14, -4
 332              		.cfi_offset 4, -8
 333              	.LBB2:
 334              		.loc 1 163 0
 335 0002 2023     		movs	r3, #32
 336              	.LVL44:
 337              	.LBE2:
 338              		.loc 1 159 0
 339 0004 0446     		mov	r4, r0
 340              	.LBB3:
 341              		.loc 1 163 0
 342              	@ 163 "../../os/hal/src/serial.c" 1
 343 0006 83F31188 		msr     BASEPRI, r3
 344              	@ 0 "" 2
 345              	.LVL45:
 346              		.thumb
 347              	.LBE3:
 348              		.loc 1 167 0
 349 000a FFF7FEFF 		bl	sd_lld_start
 350              	.LVL46:
 351              		.loc 1 168 0
 352 000e 0223     		movs	r3, #2
 353 0010 2372     		strb	r3, [r4, #8]
 354              	.LBB4:
 355              		.loc 1 169 0
 356 0012 0023     		movs	r3, #0
 357              	.LVL47:
 358              	@ 169 "../../os/hal/src/serial.c" 1
 359 0014 83F31188 		msr     BASEPRI, r3
 360              	@ 0 "" 2
 361              	.LVL48:
 362              		.thumb
 363              	.LBE4:
 364              		.loc 1 170 0
 365 0018 10BD     		pop	{r4, pc}
 366              		.cfi_endproc
 367              	.LFE73:
 368              		.size	sdStart, .-sdStart
 369 001a 00BFAFF3 		.section	.text.sdStop,"ax",%progbits
 369      0080
 370              		.align	2
 371              		.p2align 4,,15
 372              		.global	sdStop
 373              		.thumb
 374              		.thumb_func
 375              		.type	sdStop, %function
 376              	sdStop:
 377              	.LFB74:
 378              		.loc 1 181 0
 379              		.cfi_startproc
 380              		@ args = 0, pretend = 0, frame = 0
 381              		@ frame_needed = 0, uses_anonymous_args = 0
 382              	.LVL49:
ARM GAS  /tmp/ccQ1YpDr.s 			page 8


 383 0000 10B5     		push	{r4, lr}
 384              	.LCFI3:
 385              		.cfi_def_cfa_offset 8
 386              		.cfi_offset 14, -4
 387              		.cfi_offset 4, -8
 388              	.LBB5:
 389              		.loc 1 185 0
 390 0002 2023     		movs	r3, #32
 391              	.LVL50:
 392              	.LBE5:
 393              		.loc 1 181 0
 394 0004 0446     		mov	r4, r0
 395              	.LBB6:
 396              		.loc 1 185 0
 397              	@ 185 "../../os/hal/src/serial.c" 1
 398 0006 83F31188 		msr     BASEPRI, r3
 399              	@ 0 "" 2
 400              	.LVL51:
 401              		.thumb
 402              	.LBE6:
 403              		.loc 1 189 0
 404 000a FFF7FEFF 		bl	sd_lld_stop
 405              	.LVL52:
 406              		.loc 1 190 0
 407 000e 0123     		movs	r3, #1
 408 0010 2372     		strb	r3, [r4, #8]
 409              		.loc 1 191 0
 410 0012 04F13000 		add	r0, r4, #48
 411 0016 FFF7FEFF 		bl	chOQResetI
 412              		.loc 1 192 0
 413 001a 04F10C00 		add	r0, r4, #12
 414 001e FFF7FEFF 		bl	chIQResetI
 415              		.loc 1 193 0
 416 0022 FFF7FEFF 		bl	chSchRescheduleS
 417              	.LBB7:
 418              		.loc 1 194 0
 419 0026 0023     		movs	r3, #0
 420              	.LVL53:
 421              	@ 194 "../../os/hal/src/serial.c" 1
 422 0028 83F31188 		msr     BASEPRI, r3
 423              	@ 0 "" 2
 424              	.LVL54:
 425              		.thumb
 426              	.LBE7:
 427              		.loc 1 195 0
 428 002c 10BD     		pop	{r4, pc}
 429              		.cfi_endproc
 430              	.LFE74:
 431              		.size	sdStop, .-sdStop
 432 002e 00BF     		.section	.text.sdIncomingDataI,"ax",%progbits
 433              		.align	2
 434              		.p2align 4,,15
 435              		.global	sdIncomingDataI
 436              		.thumb
 437              		.thumb_func
 438              		.type	sdIncomingDataI, %function
 439              	sdIncomingDataI:
ARM GAS  /tmp/ccQ1YpDr.s 			page 9


 440              	.LFB75:
 441              		.loc 1 213 0
 442              		.cfi_startproc
 443              		@ args = 0, pretend = 0, frame = 0
 444              		@ frame_needed = 0, uses_anonymous_args = 0
 445              	.LVL55:
 446 0000 38B5     		push	{r3, r4, r5, lr}
 447              	.LCFI4:
 448              		.cfi_def_cfa_offset 16
 449              		.cfi_offset 14, -4
 450              		.cfi_offset 5, -8
 451              		.cfi_offset 4, -12
 452              		.cfi_offset 3, -16
 453              		.loc 1 218 0
 454 0002 4369     		ldr	r3, [r0, #20]
 455              		.loc 1 213 0
 456 0004 0446     		mov	r4, r0
 457 0006 0D46     		mov	r5, r1
 458              		.loc 1 218 0
 459 0008 3BB1     		cbz	r3, .L17
 460              		.loc 1 220 0
 461 000a 04F10C00 		add	r0, r4, #12
 462              	.LVL56:
 463 000e 2946     		mov	r1, r5
 464              	.LVL57:
 465 0010 FFF7FEFF 		bl	chIQPutI
 466 0014 0028     		cmp	r0, #0
 467 0016 0BDB     		blt	.L18
 468              	.L13:
 469 0018 38BD     		pop	{r3, r4, r5, pc}
 470              	.LVL58:
 471              	.L17:
 472              		.loc 1 219 0
 473 001a 0430     		adds	r0, r0, #4
 474 001c 0421     		movs	r1, #4
 475              	.LVL59:
 476 001e FFF7FEFF 		bl	chEvtBroadcastFlagsI
 477              		.loc 1 220 0
 478 0022 04F10C00 		add	r0, r4, #12
 479 0026 2946     		mov	r1, r5
 480 0028 FFF7FEFF 		bl	chIQPutI
 481 002c 0028     		cmp	r0, #0
 482 002e F3DA     		bge	.L13
 483              	.L18:
 484              		.loc 1 221 0
 485 0030 201D     		adds	r0, r4, #4
 486 0032 8021     		movs	r1, #128
 487              		.loc 1 222 0
 488 0034 BDE83840 		pop	{r3, r4, r5, lr}
 489              		.loc 1 221 0
 490 0038 FFF7FEBF 		b	chEvtBroadcastFlagsI
 491              		.cfi_endproc
 492              	.LFE75:
 493              		.size	sdIncomingDataI, .-sdIncomingDataI
 494 003c AFF30080 		.section	.text.sdRequestDataI,"ax",%progbits
 495              		.align	2
 496              		.p2align 4,,15
ARM GAS  /tmp/ccQ1YpDr.s 			page 10


 497              		.global	sdRequestDataI
 498              		.thumb
 499              		.thumb_func
 500              		.type	sdRequestDataI, %function
 501              	sdRequestDataI:
 502              	.LFB76:
 503              		.loc 1 239 0
 504              		.cfi_startproc
 505              		@ args = 0, pretend = 0, frame = 0
 506              		@ frame_needed = 0, uses_anonymous_args = 0
 507              	.LVL60:
 508 0000 38B5     		push	{r3, r4, r5, lr}
 509              	.LCFI5:
 510              		.cfi_def_cfa_offset 16
 511              		.cfi_offset 14, -4
 512              		.cfi_offset 5, -8
 513              		.cfi_offset 4, -12
 514              		.cfi_offset 3, -16
 515              		.loc 1 239 0
 516 0002 0546     		mov	r5, r0
 517              		.loc 1 245 0
 518 0004 00F13000 		add	r0, r0, #48
 519              	.LVL61:
 520 0008 FFF7FEFF 		bl	chOQGetI
 521              	.LVL62:
 522              		.loc 1 246 0
 523 000c 041E     		subs	r4, r0, #0
 524 000e 01DB     		blt	.L21
 525              		.loc 1 249 0
 526 0010 2046     		mov	r0, r4
 527 0012 38BD     		pop	{r3, r4, r5, pc}
 528              	.L21:
 529              		.loc 1 247 0
 530 0014 281D     		adds	r0, r5, #4
 531              	.LVL63:
 532 0016 0821     		movs	r1, #8
 533 0018 FFF7FEFF 		bl	chEvtBroadcastFlagsI
 534              		.loc 1 249 0
 535 001c 2046     		mov	r0, r4
 536 001e 38BD     		pop	{r3, r4, r5, pc}
 537              		.cfi_endproc
 538              	.LFE76:
 539              		.size	sdRequestDataI, .-sdRequestDataI
 540              		.section	.rodata.vmt,"a",%progbits
 541              		.align	2
 542              		.set	.LANCHOR0,. + 0
 543              		.type	vmt, %object
 544              		.size	vmt, 32
 545              	vmt:
 546 0000 00000000 		.word	write
 547 0004 00000000 		.word	read
 548 0008 00000000 		.word	put
 549 000c 00000000 		.word	get
 550 0010 00000000 		.word	putt
 551 0014 00000000 		.word	gett
 552 0018 00000000 		.word	writet
 553 001c 00000000 		.word	readt
ARM GAS  /tmp/ccQ1YpDr.s 			page 11


 554              		.text
 555              	.Letext0:
 556              		.file 2 "/opt/paparazzi/arm-multilib/lib/gcc/arm-none-eabi/4.6.2/include/stddef.h"
 557              		.file 3 "/opt/paparazzi/arm-multilib/lib/gcc/arm-none-eabi/4.6.2/../../../../arm-none-eabi/include
 558              		.file 4 "../../os/ports/GCC/ARMCMx/chtypes.h"
 559              		.file 5 "../../os/kernel/include/chlists.h"
 560              		.file 6 "../../os/kernel/include/chthreads.h"
 561              		.file 7 "../../os/ports/GCC/ARMCMx/chcore_v7m.h"
 562              		.file 8 "../../os/kernel/include/chmtx.h"
 563              		.file 9 "../../os/kernel/include/chevents.h"
 564              		.file 10 "../../os/kernel/include/chqueues.h"
 565              		.file 11 "../../os/hal/platforms/STM32F1xx/stm32f10x.h"
 566              		.file 12 "../../os/hal/include/serial.h"
 567              		.file 13 "../../os/hal/platforms/STM32/USARTv1/serial_lld.h"
 568              		.file 14 "../../os/ports/common/ARMCMx/CMSIS/include/core_cm3.h"