ARM GAS  /tmp/ccQ1YpDr.s 			page 1


   1              		.syntax unified
   2              		.cpu cortex-m3
   3              		.fpu softvfp
   4              		.eabi_attribute 20, 1
   5              		.eabi_attribute 21, 1
   6              		.eabi_attribute 23, 3
   7              		.eabi_attribute 24, 1
   8              		.eabi_attribute 25, 1
   9              		.eabi_attribute 26, 1
  10              		.eabi_attribute 30, 2
  11              		.eabi_attribute 18, 4
  12              		.thumb
  13              		.file	"serial.c"
  14              		.text
  15              	.Ltext0:
  16              		.cfi_sections	.debug_frame
  17              		.section	.text.readt,"ax",%progbits
  18              		.align	2
  19              		.p2align 4,,15
  20              		.thumb
  21              		.thumb_func
  22              		.type	readt, %function
  23              	readt:
  24              	.LFB70:
  25              		.file 1 "../../os/hal/src/serial.c"
  26              		.loc 1 99 0
  27              		.cfi_startproc
  28              		@ args = 0, pretend = 0, frame = 0
  29              		@ frame_needed = 0, uses_anonymous_args = 0
  30              		@ link register save eliminated.
  31              	.LVL0:
  32              		.loc 1 101 0
  33 0000 0C30     		adds	r0, r0, #12
  34              	.LVL1:
  35              		.loc 1 102 0
  36              		.loc 1 101 0
  37 0002 FFF7FEBF 		b	chIQReadTimeout
  38              	.LVL2:
  39              	.LVL3:
  40              	.LVL4:
  41              	.LVL5:
  42              		.cfi_endproc
  43              	.LFE70:
  44              		.size	readt, .-readt
  45 0006 00BFAFF3 		.section	.text.read,"ax",%progbits
  45      0080AFF3 
  45      0080
  46              		.align	2
  47              		.p2align 4,,15
  48              		.thumb
  49              		.thumb_func
  50              		.type	read, %function
  51              	read:
  52              	.LFB64:
  53              		.loc 1 68 0
  54              		.cfi_startproc
  55              		@ args = 0, pretend = 0, frame = 0
ARM GAS  /tmp/ccQ1YpDr.s 			page 2


  56              		@ frame_needed = 0, uses_anonymous_args = 0
  57              		@ link register save eliminated.
  58              	.LVL6:
  59              		.loc 1 70 0
  60 0000 0C30     		adds	r0, r0, #12
  61              	.LVL7:
  62 0002 4FF0FF33 		mov	r3, #-1
  63              		.loc 1 72 0
  64              		.loc 1 70 0
  65 0006 FFF7FEBF 		b	chIQReadTimeout
  66              	.LVL8:
  67              	.LVL9:
  68              	.LVL10:
  69              		.cfi_endproc
  70              	.LFE64:
  71              		.size	read, .-read
  72 000a 00BFAFF3 		.section	.text.writet,"ax",%progbits
  72      0080
  73              		.align	2
  74              		.p2align 4,,15
  75              		.thumb
  76              		.thumb_func
  77              		.type	writet, %function
  78              	writet:
  79              	.LFB69:
  80              		.loc 1 94 0
  81              		.cfi_startproc
  82              		@ args = 0, pretend = 0, frame = 0
  83              		@ frame_needed = 0, uses_anonymous_args = 0
  84              		@ link register save eliminated.
  85              	.LVL11:
  86              		.loc 1 96 0
  87 0000 3030     		adds	r0, r0, #48
  88              	.LVL12:
  89              		.loc 1 97 0
  90              		.loc 1 96 0
  91 0002 FFF7FEBF 		b	chOQWriteTimeout
  92              	.LVL13:
  93              	.LVL14:
  94              	.LVL15:
  95              	.LVL16:
  96              		.cfi_endproc
  97              	.LFE69:
  98              		.size	writet, .-writet
  99 0006 00BFAFF3 		.section	.text.write,"ax",%progbits
  99      0080AFF3 
  99      0080
 100              		.align	2
 101              		.p2align 4,,15
 102              		.thumb
 103              		.thumb_func
 104              		.type	write, %function
 105              	write:
 106              	.LFB63:
 107              		.loc 1 62 0
 108              		.cfi_startproc
 109              		@ args = 0, pretend = 0, frame = 0
ARM GAS  /tmp/ccQ1YpDr.s 			page 3


 110              		@ frame_needed = 0, uses_anonymous_args = 0
 111              		@ link register save eliminated.
 112              	.LVL17:
 113              		.loc 1 64 0
 114 0000 3030     		adds	r0, r0, #48
 115              	.LVL18:
 116 0002 4FF0FF33 		mov	r3, #-1
 117              		.loc 1 66 0
 118              		.loc 1 64 0
 119 0006 FFF7FEBF 		b	chOQWriteTimeout
 120              	.LVL19:
 121              	.LVL20:
 122              	.LVL21:
 123              		.cfi_endproc
 124              	.LFE63:
 125              		.size	write, .-write
 126 000a 00BFAFF3 		.section	.text.gett,"ax",%progbits
 126      0080
 127              		.align	2
 128              		.p2align 4,,15
 129              		.thumb
 130              		.thumb_func
 131              		.type	gett, %function
 132              	gett:
 133              	.LFB68:
 134              		.loc 1 89 0
 135              		.cfi_startproc
 136              		@ args = 0, pretend = 0, frame = 0
 137              		@ frame_needed = 0, uses_anonymous_args = 0
 138              		@ link register save eliminated.
 139              	.LVL22:
 140              		.loc 1 91 0
 141 0000 0C30     		adds	r0, r0, #12
 142              	.LVL23:
 143              		.loc 1 92 0
 144              		.loc 1 91 0
 145 0002 FFF7FEBF 		b	chIQGetTimeout
 146              	.LVL24:
 147              	.LVL25:
 148              		.cfi_endproc
 149              	.LFE68:
 150              		.size	gett, .-gett
 151 0006 00BFAFF3 		.section	.text.get,"ax",%progbits
 151      0080AFF3 
 151      0080
 152              		.align	2
 153              		.p2align 4,,15
 154              		.thumb
 155              		.thumb_func
 156              		.type	get, %function
 157              	get:
 158              	.LFB66:
 159              		.loc 1 79 0
 160              		.cfi_startproc
 161              		@ args = 0, pretend = 0, frame = 0
 162              		@ frame_needed = 0, uses_anonymous_args = 0
 163              		@ link register save eliminated.
ARM GAS  /tmp/ccQ1YpDr.s 			page 4


 164              	.LVL26:
 165              		.loc 1 81 0
 166 0000 0C30     		adds	r0, r0, #12
 167              	.LVL27:
 168 0002 4FF0FF31 		mov	r1, #-1
 169              		.loc 1 82 0
 170              		.loc 1 81 0
 171 0006 FFF7FEBF 		b	chIQGetTimeout
 172              	.LVL28:
 173              		.cfi_endproc
 174              	.LFE66:
 175              		.size	get, .-get
 176 000a 00BFAFF3 		.section	.text.putt,"ax",%progbits
 176      0080
 177              		.align	2
 178              		.p2align 4,,15
 179              		.thumb
 180              		.thumb_func
 181              		.type	putt, %function
 182              	putt:
 183              	.LFB67:
 184              		.loc 1 84 0
 185              		.cfi_startproc
 186              		@ args = 0, pretend = 0, frame = 0
 187              		@ frame_needed = 0, uses_anonymous_args = 0
 188              		@ link register save eliminated.
 189              	.LVL29:
 190              		.loc 1 86 0
 191 0000 3030     		adds	r0, r0, #48
 192              	.LVL30:
 193              		.loc 1 87 0
 194              		.loc 1 86 0
 195 0002 FFF7FEBF 		b	chOQPutTimeout
 196              	.LVL31:
 197              	.LVL32:
 198              	.LVL33:
 199              		.cfi_endproc
 200              	.LFE67:
 201              		.size	putt, .-putt
 202 0006 00BFAFF3 		.section	.text.put,"ax",%progbits
 202      0080AFF3 
 202      0080
 203              		.align	2
 204              		.p2align 4,,15
 205              		.thumb
 206              		.thumb_func
 207              		.type	put, %function
 208              	put:
 209              	.LFB65:
 210              		.loc 1 74 0
 211              		.cfi_startproc
 212              		@ args = 0, pretend = 0, frame = 0
 213              		@ frame_needed = 0, uses_anonymous_args = 0
 214              		@ link register save eliminated.
 215              	.LVL34:
 216              		.loc 1 76 0
 217 0000 3030     		adds	r0, r0, #48
ARM GAS  /tmp/ccQ1YpDr.s 			page 5


 218              	.LVL35:
 219 0002 4FF0FF32 		mov	r2, #-1
 220              		.loc 1 77 0
 221              		.loc 1 76 0
 222 0006 FFF7FEBF 		b	chOQPutTimeout
 223              	.LVL36:
 224              	.LVL37:
 225              		.cfi_endproc
 226              	.LFE65:
 227              		.size	put, .-put
 228 000a 00BFAFF3 		.section	.text.sdInit,"ax",%progbits
 228      0080
 229              		.align	2
 230              		.p2align 4,,15
 231              		.global	sdInit
 232              		.thumb
 233              		.thumb_func
 234              		.type	sdInit, %function
 235              	sdInit:
 236              	.LFB71:
 237              		.loc 1 120 0
 238              		.cfi_startproc
 239              		@ args = 0, pretend = 0, frame = 0
 240              		@ frame_needed = 0, uses_anonymous_args = 0
 241              		@ link register save eliminated.
 242              		.loc 1 123 0
 243              		.loc 1 122 0
 244 0000 FFF7FEBF 		b	sd_lld_init
 245              		.cfi_endproc
 246              	.LFE71:
 247              		.size	sdInit, .-sdInit
 248 0004 AFF30080 		.section	.text.sdObjectInit,"ax",%progbits
 248      AFF30080 
 248      AFF30080 
 249              		.align	2
 250              		.p2align 4,,15
 251              		.global	sdObjectInit
 252              		.thumb
 253              		.thumb_func
 254              		.type	sdObjectInit, %function
 255              	sdObjectInit:
 256              	.LFB72:
 257              		.loc 1 140 0
 258              		.cfi_startproc
 259              		@ args = 0, pretend = 0, frame = 0
 260              		@ frame_needed = 0, uses_anonymous_args = 0
 261              	.LVL38:
 262 0000 70B5     		push	{r4, r5, r6, lr}
 263              	.LCFI0:
 264              		.cfi_def_cfa_offset 16
 265              		.cfi_offset 14, -4
 266              		.cfi_offset 6, -8
 267              		.cfi_offset 5, -12
 268              		.cfi_offset 4, -16
 269 0002 0B46     		mov	r3, r1
 270              		.loc 1 142 0
 271 0004 40F20001 		movw	r1, #:lower16:.LANCHOR0
ARM GAS  /tmp/ccQ1YpDr.s 			page 6


 272              	.LVL39:
 273 0008 0646     		mov	r6, r0
 274 000a C0F20001 		movt	r1, #:upper16:.LANCHOR0
 275              		.loc 1 140 0
 276 000e 0446     		mov	r4, r0
 277              		.loc 1 142 0
 278 0010 46F8041B 		str	r1, [r6], #4
 279              		.loc 1 143 0
 280 0014 6660     		str	r6, [r4, #4]
 281              		.loc 1 144 0
 282 0016 0126     		movs	r6, #1
 283              		.loc 1 140 0
 284 0018 82B0     		sub	sp, sp, #8
 285              	.LCFI1:
 286              		.cfi_def_cfa_offset 24
 287              		.loc 1 140 0
 288 001a 1546     		mov	r5, r2
 289              		.loc 1 145 0
 290 001c 04F15401 		add	r1, r4, #84
 291 0020 1022     		movs	r2, #16
 292              	.LVL40:
 293              		.loc 1 144 0
 294 0022 2672     		strb	r6, [r4, #8]
 295              		.loc 1 145 0
 296 0024 00F10C00 		add	r0, r0, #12
 297              	.LVL41:
 298 0028 0094     		str	r4, [sp, #0]
 299 002a FFF7FEFF 		bl	chIQInit
 300              	.LVL42:
 301              		.loc 1 146 0
 302 002e 04F13000 		add	r0, r4, #48
 303 0032 04F16401 		add	r1, r4, #100
 304 0036 1022     		movs	r2, #16
 305 0038 2B46     		mov	r3, r5
 306 003a 0094     		str	r4, [sp, #0]
 307 003c FFF7FEFF 		bl	chOQInit
 308              		.loc 1 147 0
 309 0040 02B0     		add	sp, sp, #8
 310 0042 70BD     		pop	{r4, r5, r6, pc}
 311              		.cfi_endproc
 312              	.LFE72:
 313              		.size	sdObjectInit, .-sdObjectInit
 314 0044 AFF30080 		.section	.text.sdStart,"ax",%progbits
 314      AFF30080 
 314      AFF30080 
 315              		.align	2
 316              		.p2align 4,,15
 317              		.global	sdStart
 318              		.thumb
 319              		.thumb_func
 320              		.type	sdStart, %function
 321              	sdStart:
 322              	.LFB73:
 323              		.loc 1 159 0
 324              		.cfi_startproc
 325              		@ args = 0, pretend = 0, frame = 0
 326              		@ frame_needed = 0, uses_anonymous_args = 0
ARM GAS  /tmp/ccQ1YpDr.s 			page 7


 327              	.LVL43:
 328 0000 10B5     		push	{r4, lr}
 329              	.LCFI2:
 330              		.cfi_def_cfa_offset 8
 331              		.cfi_offset 14, -4
 332              		.cfi_offset 4, -8
 333              	.LBB2:
 334              		.loc 1 163 0
 335 0002 2023     		movs	r3, #32
 336              	.LVL44:
 337              	.LBE2:
 338              		.loc 1 159 0
 339 0004 0446     		mov	r4, r0
 340              	.LBB3:
 341              		.loc 1 163 0
 342              	@ 163 "../../os/hal/src/serial.c" 1
 343 0006 83F31188 		msr     BASEPRI, r3
 344              	@ 0 "" 2
 345              	.LVL45:
 346              		.thumb
 347              	.LBE3:
 348              		.loc 1 167 0
 349 000a FFF7FEFF 		bl	sd_lld_start
 350              	.LVL46:
 351              		.loc 1 168 0
 352 000e 0223     		movs	r3, #2
 353 0010 2372     		strb	r3, [r4, #8]
 354              	.LBB4:
 355              		.loc 1 169 0
 356 0012 0023     		movs	r3, #0
 357              	.LVL47:
 358              	@ 169 "../../os/hal/src/serial.c" 1
 359 0014 83F31188 		msr     BASEPRI, r3
 360              	@ 0 "" 2
 361              	.LVL48:
 362              		.thumb
 363              	.LBE4:
 364              		.loc 1 170 0
 365 0018 10BD     		pop	{r4, pc}
 366              		.cfi_endproc
 367              	.LFE73:
 368              		.size	sdStart, .-sdStart
 369 001a 00BFAFF3 		.section	.text.sdStop,"ax",%progbits
 369      0080
 370              		.align	2
 371              		.p2align 4,,15
 372              		.global	sdStop
 373              		.thumb
 374              		.thumb_func
 375              		.type	sdStop, %function
 376              	sdStop:
 377              	.LFB74:
 378              		.loc 1 181 0
 379              		.cfi_startproc
 380              		@ args = 0, pretend = 0, frame = 0
 381              		@ frame_needed = 0, uses_anonymous_args = 0
 382              	.LVL49:
ARM GAS  /tmp/ccQ1YpDr.s 			page 8


 383 0000 10B5     		push	{r4, lr}
 384              	.LCFI3:
 385              		.cfi_def_cfa_offset 8
 386              		.cfi_offset 14, -4
 387              		.cfi_offset 4, -8
 388              	.LBB5:
 389              		.loc 1 185 0
 390 0002 2023     		movs	r3, #32
 391              	.LVL50:
 392              	.LBE5:
 393              		.loc 1 181 0
 394 0004 0446     		mov	r4, r0
 395              	.LBB6:
 396              		.loc 1 185 0
 397              	@ 185 "../../os/hal/src/serial.c" 1
 398 0006 83F31188 		msr     BASEPRI, r3
 399              	@ 0 "" 2
 400              	.LVL51:
 401              		.thumb
 402              	.LBE6:
 403              		.loc 1 189 0
 404 000a FFF7FEFF 		bl	sd_lld_stop
 405              	.LVL52:
 406              		.loc 1 190 0
 407 000e 0123     		movs	r3, #1
 408 0010 2372     		strb	r3, [r4, #8]
 409              		.loc 1 191 0
 410 0012 04F13000 		add	r0, r4, #48
 411 0016 FFF7FEFF 		bl	chOQResetI
 412              		.loc 1 192 0
 413 001a 04F10C00 		add	r0, r4, #12
 414 001e FFF7FEFF 		bl	chIQResetI
 415              		.loc 1 193 0
 416 0022 FFF7FEFF 		bl	chSchRescheduleS
 417              	.LBB7:
 418              		.loc 1 194 0
 419 0026 0023     		movs	r3, #0
 420              	.LVL53:
 421              	@ 194 "../../os/hal/src/serial.c" 1
 422 0028 83F31188 		msr     BASEPRI, r3
 423              	@ 0 "" 2
 424              	.LVL54:
 425              		.thumb
 426              	.LBE7:
 427              		.loc 1 195 0
 428 002c 10BD     		pop	{r4, pc}
 429              		.cfi_endproc
 430              	.LFE74:
 431              		.size	sdStop, .-sdStop
 432 002e 00BF     		.section	.text.sdIncomingDataI,"ax",%progbits
 433              		.align	2
 434              		.p2align 4,,15
 435              		.global	sdIncomingDataI
 436              		.thumb
 437              		.thumb_func
 438              		.type	sdIncomingDataI, %function
 439              	sdIncomingDataI:
ARM GAS  /tmp/ccQ1YpDr.s 			page 9


 440              	.LFB75:
 441              		.loc 1 213 0
 442              		.cfi_startproc
 443              		@ args = 0, pretend = 0, frame = 0
 444              		@ frame_needed = 0, uses_anonymous_args = 0
 445              	.LVL55:
 446 0000 38B5     		push	{r3, r4, r5, lr}
 447              	.LCFI4:
 448              		.cfi_def_cfa_offset 16
 449              		.cfi_offset 14, -4
 450              		.cfi_offset 5, -8
 451              		.cfi_offset 4, -12
 452              		.cfi_offset 3, -16
 453              		.loc 1 218 0
 454 0002 4369     		ldr	r3, [r0, #20]
 455              		.loc 1 213 0
 456 0004 0446     		mov	r4, r0
 457 0006 0D46     		mov	r5, r1
 458              		.loc 1 218 0
 459 0008 3BB1     		cbz	r3, .L17
 460              		.loc 1 220 0
 461 000a 04F10C00 		add	r0, r4, #12
 462              	.LVL56:
 463 000e 2946     		mov	r1, r5
 464              	.LVL57:
 465 0010 FFF7FEFF 		bl	chIQPutI
 466 0014 0028     		cmp	r0, #0
 467 0016 0BDB     		blt	.L18
 468              	.L13:
 469 0018 38BD     		pop	{r3, r4, r5, pc}
 470              	.LVL58:
 471              	.L17:
 472              		.loc 1 219 0
 473 001a 0430     		adds	r0, r0, #4
 474 001c 0421     		movs	r1, #4
 475              	.LVL59:
 476 001e FFF7FEFF 		bl	chEvtBroadcastFlagsI
 477              		.loc 1 220 0
 478 0022 04F10C00 		add	r0, r4, #12
 479 0026 2946     		mov	r1, r5
 480 0028 FFF7FEFF 		bl	chIQPutI
 481 002c 0028     		cmp	r0, #0
 482 002e F3DA     		bge	.L13
 483              	.L18:
 484              		.loc 1 221 0
 485 0030 201D     		adds	r0, r4, #4
 486 0032 8021     		movs	r1, #128
 487              		.loc 1 222 0
 488 0034 BDE83840 		pop	{r3, r4, r5, lr}
 489              		.loc 1 221 0
 490 0038 FFF7FEBF 		b	chEvtBroadcastFlagsI
 491              		.cfi_endproc
 492              	.LFE75:
 493              		.size	sdIncomingDataI, .-sdIncomingDataI
 494 003c AFF30080 		.section	.text.sdRequestDataI,"ax",%progbits
 495              		.align	2
 496              		.p2align 4,,15
ARM GAS  /tmp/ccQ1YpDr.s 			page 10


 497              		.global	sdRequestDataI
 498              		.thumb
 499              		.thumb_func
 500              		.type	sdRequestDataI, %function
 501              	sdRequestDataI:
 502              	.LFB76:
 503              		.loc 1 239 0
 504              		.cfi_startproc
 505              		@ args = 0, pretend = 0, frame = 0
 506              		@ frame_needed = 0, uses_anonymous_args = 0
 507              	.LVL60:
 508 0000 38B5     		push	{r3, r4, r5, lr}
 509              	.LCFI5:
 510              		.cfi_def_cfa_offset 16
 511              		.cfi_offset 14, -4
 512              		.cfi_offset 5, -8
 513              		.cfi_offset 4, -12
 514              		.cfi_offset 3, -16
 515              		.loc 1 239 0
 516 0002 0546     		mov	r5, r0
 517              		.loc 1 245 0
 518 0004 00F13000 		add	r0, r0, #48
 519              	.LVL61:
 520 0008 FFF7FEFF 		bl	chOQGetI
 521              	.LVL62:
 522              		.loc 1 246 0
 523 000c 041E     		subs	r4, r0, #0
 524 000e 01DB     		blt	.L21
 525              		.loc 1 249 0
 526 0010 2046     		mov	r0, r4
 527 0012 38BD     		pop	{r3, r4, r5, pc}
 528              	.L21:
 529              		.loc 1 247 0
 530 0014 281D     		adds	r0, r5, #4
 531              	.LVL63:
 532 0016 0821     		movs	r1, #8
 533 0018 FFF7FEFF 		bl	chEvtBroadcastFlagsI
 534              		.loc 1 249 0
 535 001c 2046     		mov	r0, r4
 536 001e 38BD     		pop	{r3, r4, r5, pc}
 537              		.cfi_endproc
 538              	.LFE76:
 539              		.size	sdRequestDataI, .-sdRequestDataI
 540              		.section	.rodata.vmt,"a",%progbits
 541              		.align	2
 542              		.set	.LANCHOR0,. + 0
 543              		.type	vmt, %object
 544              		.size	vmt, 32
 545              	vmt:
 546 0000 00000000 		.word	write
 547 0004 00000000 		.word	read
 548 0008 00000000 		.word	put
 549 000c 00000000 		.word	get
 550 0010 00000000 		.word	putt
 551 0014 00000000 		.word	gett
 552 0018 00000000 		.word	writet
 553 001c 00000000 		.word	readt
ARM GAS  /tmp/ccQ1YpDr.s 			page 11


 554              		.text
 555              	.Letext0:
 556              		.file 2 "/opt/paparazzi/arm-multilib/lib/gcc/arm-none-eabi/4.6.2/include/stddef.h"
 557              		.file 3 "/opt/paparazzi/arm-multilib/lib/gcc/arm-none-eabi/4.6.2/../../../../arm-none-eabi/include
 558              		.file 4 "../../os/ports/GCC/ARMCMx/chtypes.h"
 559              		.file 5 "../../os/kernel/include/chlists.h"
 560              		.file 6 "../../os/kernel/include/chthreads.h"
 561              		.file 7 "../../os/ports/GCC/ARMCMx/chcore_v7m.h"
 562              		.file 8 "../../os/kernel/include/chmtx.h"
 563              		.file 9 "../../os/kernel/include/chevents.h"
 564              		.file 10 "../../os/kernel/include/chqueues.h"
 565              		.file 11 "../../os/hal/platforms/STM32F1xx/stm32f10x.h"
 566              		.file 12 "../../os/hal/include/serial.h"
 567              		.file 13 "../../os/hal/platforms/STM32/USARTv1/serial_lld.h"
 568              		.file 14 "../../os/ports/common/ARMCMx/CMSIS/include/core_cm3.h"
 569              		.section	.debug_info,"",%progbits
 570              	.Ldebug_info0:
 571 0000 A20C0000 		.4byte	0xca2
 572 0004 0200     		.2byte	0x2
 573 0006 00000000 		.4byte	.Ldebug_abbrev0
 574 000a 04       		.byte	0x4
 575 000b 01       		.uleb128 0x1
 576 000c 64010000 		.4byte	.LASF116
 577 0010 01       		.byte	0x1
 578 0011 59040000 		.4byte	.LASF117
 579 0015 BD030000 		.4byte	.LASF118
 580 0019 00000000 		.4byte	0
 581 001d 00000000 		.4byte	0
 582 0021 30000000 		.4byte	.Ldebug_ranges0+0x30
 583 0025 00000000 		.4byte	.Ldebug_line0
 584 0029 02       		.uleb128 0x2
 585 002a 04       		.byte	0x4
 586 002b 05       		.byte	0x5
 587 002c 696E7400 		.ascii	"int\000"
 588 0030 03       		.uleb128 0x3
 589 0031 00000000 		.4byte	.LASF2
 590 0035 02       		.byte	0x2
 591 0036 D4       		.byte	0xd4
 592 0037 3B000000 		.4byte	0x3b
 593 003b 04       		.uleb128 0x4
 594 003c 04       		.byte	0x4
 595 003d 07       		.byte	0x7
 596 003e FE000000 		.4byte	.LASF0
 597 0042 04       		.uleb128 0x4
 598 0043 01       		.byte	0x1
 599 0044 06       		.byte	0x6
 600 0045 72000000 		.4byte	.LASF1
 601 0049 03       		.uleb128 0x3
 602 004a 51040000 		.4byte	.LASF3
 603 004e 03       		.byte	0x3
 604 004f 2A       		.byte	0x2a
 605 0050 54000000 		.4byte	0x54
 606 0054 04       		.uleb128 0x4
 607 0055 01       		.byte	0x1
 608 0056 08       		.byte	0x8
 609 0057 B1020000 		.4byte	.LASF4
 610 005b 04       		.uleb128 0x4
ARM GAS  /tmp/ccQ1YpDr.s 			page 12


 611 005c 02       		.byte	0x2
 612 005d 05       		.byte	0x5
 613 005e E6020000 		.4byte	.LASF5
 614 0062 03       		.uleb128 0x3
 615 0063 0B010000 		.4byte	.LASF6
 616 0067 03       		.byte	0x3
 617 0068 36       		.byte	0x36
 618 0069 6D000000 		.4byte	0x6d
 619 006d 04       		.uleb128 0x4
 620 006e 02       		.byte	0x2
 621 006f 07       		.byte	0x7
 622 0070 51010000 		.4byte	.LASF7
 623 0074 03       		.uleb128 0x3
 624 0075 A9020000 		.4byte	.LASF8
 625 0079 03       		.byte	0x3
 626 007a 4F       		.byte	0x4f
 627 007b 7F000000 		.4byte	0x7f
 628 007f 04       		.uleb128 0x4
 629 0080 04       		.byte	0x4
 630 0081 05       		.byte	0x5
 631 0082 AA000000 		.4byte	.LASF9
 632 0086 03       		.uleb128 0x3
 633 0087 46030000 		.4byte	.LASF10
 634 008b 03       		.byte	0x3
 635 008c 50       		.byte	0x50
 636 008d 91000000 		.4byte	0x91
 637 0091 04       		.uleb128 0x4
 638 0092 04       		.byte	0x4
 639 0093 07       		.byte	0x7
 640 0094 66030000 		.4byte	.LASF11
 641 0098 04       		.uleb128 0x4
 642 0099 08       		.byte	0x8
 643 009a 05       		.byte	0x5
 644 009b 64000000 		.4byte	.LASF12
 645 009f 04       		.uleb128 0x4
 646 00a0 08       		.byte	0x8
 647 00a1 07       		.byte	0x7
 648 00a2 1A000000 		.4byte	.LASF13
 649 00a6 03       		.uleb128 0x3
 650 00a7 8B000000 		.4byte	.LASF14
 651 00ab 04       		.byte	0x4
 652 00ac 2B       		.byte	0x2b
 653 00ad B1000000 		.4byte	0xb1
 654 00b1 04       		.uleb128 0x4
 655 00b2 01       		.byte	0x1
 656 00b3 02       		.byte	0x2
 657 00b4 A3020000 		.4byte	.LASF15
 658 00b8 03       		.uleb128 0x3
 659 00b9 A8010000 		.4byte	.LASF16
 660 00bd 04       		.byte	0x4
 661 00be 2C       		.byte	0x2c
 662 00bf 49000000 		.4byte	0x49
 663 00c3 03       		.uleb128 0x3
 664 00c4 B3000000 		.4byte	.LASF17
 665 00c8 04       		.byte	0x4
 666 00c9 2D       		.byte	0x2d
 667 00ca 49000000 		.4byte	0x49
ARM GAS  /tmp/ccQ1YpDr.s 			page 13


 668 00ce 03       		.uleb128 0x3
 669 00cf 48020000 		.4byte	.LASF18
 670 00d3 04       		.byte	0x4
 671 00d4 2E       		.byte	0x2e
 672 00d5 49000000 		.4byte	0x49
 673 00d9 03       		.uleb128 0x3
 674 00da 9A000000 		.4byte	.LASF19
 675 00de 04       		.byte	0x4
 676 00df 2F       		.byte	0x2f
 677 00e0 49000000 		.4byte	0x49
 678 00e4 03       		.uleb128 0x3
 679 00e5 93020000 		.4byte	.LASF20
 680 00e9 04       		.byte	0x4
 681 00ea 30       		.byte	0x30
 682 00eb 86000000 		.4byte	0x86
 683 00ef 03       		.uleb128 0x3
 684 00f0 86010000 		.4byte	.LASF21
 685 00f4 04       		.byte	0x4
 686 00f5 31       		.byte	0x31
 687 00f6 74000000 		.4byte	0x74
 688 00fa 03       		.uleb128 0x3
 689 00fb BC010000 		.4byte	.LASF22
 690 00ff 04       		.byte	0x4
 691 0100 33       		.byte	0x33
 692 0101 86000000 		.4byte	0x86
 693 0105 03       		.uleb128 0x3
 694 0106 18040000 		.4byte	.LASF23
 695 010a 04       		.byte	0x4
 696 010b 34       		.byte	0x34
 697 010c 86000000 		.4byte	0x86
 698 0110 03       		.uleb128 0x3
 699 0111 A8030000 		.4byte	.LASF24
 700 0115 04       		.byte	0x4
 701 0116 35       		.byte	0x35
 702 0117 86000000 		.4byte	0x86
 703 011b 03       		.uleb128 0x3
 704 011c 20030000 		.4byte	.LASF25
 705 0120 05       		.byte	0x5
 706 0121 2A       		.byte	0x2a
 707 0122 26010000 		.4byte	0x126
 708 0126 05       		.uleb128 0x5
 709 0127 20030000 		.4byte	.LASF25
 710 012b 48       		.byte	0x48
 711 012c 06       		.byte	0x6
 712 012d 5E       		.byte	0x5e
 713 012e 4B020000 		.4byte	0x24b
 714 0132 06       		.uleb128 0x6
 715 0133 01030000 		.4byte	.LASF26
 716 0137 06       		.byte	0x6
 717 0138 5F       		.byte	0x5f
 718 0139 70020000 		.4byte	0x270
 719 013d 02       		.byte	0x2
 720 013e 23       		.byte	0x23
 721 013f 00       		.uleb128 0
 722 0140 06       		.uleb128 0x6
 723 0141 82020000 		.4byte	.LASF27
 724 0145 06       		.byte	0x6
ARM GAS  /tmp/ccQ1YpDr.s 			page 14


 725 0146 61       		.byte	0x61
 726 0147 70020000 		.4byte	0x270
 727 014b 02       		.byte	0x2
 728 014c 23       		.byte	0x23
 729 014d 04       		.uleb128 0x4
 730 014e 06       		.uleb128 0x6
 731 014f 0B020000 		.4byte	.LASF28
 732 0153 06       		.byte	0x6
 733 0154 63       		.byte	0x63
 734 0155 E4000000 		.4byte	0xe4
 735 0159 02       		.byte	0x2
 736 015a 23       		.byte	0x23
 737 015b 08       		.uleb128 0x8
 738 015c 06       		.uleb128 0x6
 739 015d AC040000 		.4byte	.LASF29
 740 0161 06       		.byte	0x6
 741 0162 64       		.byte	0x64
 742 0163 3E030000 		.4byte	0x33e
 743 0167 02       		.byte	0x2
 744 0168 23       		.byte	0x23
 745 0169 0C       		.uleb128 0xc
 746 016a 06       		.uleb128 0x6
 747 016b DB000000 		.4byte	.LASF30
 748 016f 06       		.byte	0x6
 749 0170 66       		.byte	0x66
 750 0171 70020000 		.4byte	0x270
 751 0175 02       		.byte	0x2
 752 0176 23       		.byte	0x23
 753 0177 10       		.uleb128 0x10
 754 0178 06       		.uleb128 0x6
 755 0179 1A020000 		.4byte	.LASF31
 756 017d 06       		.byte	0x6
 757 017e 67       		.byte	0x67
 758 017f 70020000 		.4byte	0x270
 759 0183 02       		.byte	0x2
 760 0184 23       		.byte	0x23
 761 0185 14       		.uleb128 0x14
 762 0186 06       		.uleb128 0x6
 763 0187 2A040000 		.4byte	.LASF32
 764 018b 06       		.byte	0x6
 765 018c 6E       		.byte	0x6e
 766 018d 5F040000 		.4byte	0x45f
 767 0191 02       		.byte	0x2
 768 0192 23       		.byte	0x23
 769 0193 18       		.uleb128 0x18
 770 0194 06       		.uleb128 0x6
 771 0195 D4020000 		.4byte	.LASF33
 772 0199 06       		.byte	0x6
 773 019a 79       		.byte	0x79
 774 019b C3000000 		.4byte	0xc3
 775 019f 02       		.byte	0x2
 776 01a0 23       		.byte	0x23
 777 01a1 1C       		.uleb128 0x1c
 778 01a2 06       		.uleb128 0x6
 779 01a3 08030000 		.4byte	.LASF34
 780 01a7 06       		.byte	0x6
 781 01a8 7D       		.byte	0x7d
ARM GAS  /tmp/ccQ1YpDr.s 			page 15


 782 01a9 B8000000 		.4byte	0xb8
 783 01ad 02       		.byte	0x2
 784 01ae 23       		.byte	0x23
 785 01af 1D       		.uleb128 0x1d
 786 01b0 06       		.uleb128 0x6
 787 01b1 BC000000 		.4byte	.LASF35
 788 01b5 06       		.byte	0x6
 789 01b6 82       		.byte	0x82
 790 01b7 CE000000 		.4byte	0xce
 791 01bb 02       		.byte	0x2
 792 01bc 23       		.byte	0x23
 793 01bd 1E       		.uleb128 0x1e
 794 01be 06       		.uleb128 0x6
 795 01bf F0020000 		.4byte	.LASF36
 796 01c3 06       		.byte	0x6
 797 01c4 88       		.byte	0x88
 798 01c5 D9000000 		.4byte	0xd9
 799 01c9 02       		.byte	0x2
 800 01ca 23       		.byte	0x23
 801 01cb 1F       		.uleb128 0x1f
 802 01cc 06       		.uleb128 0x6
 803 01cd D4000000 		.4byte	.LASF37
 804 01d1 06       		.byte	0x6
 805 01d2 8F       		.byte	0x8f
 806 01d3 61030000 		.4byte	0x361
 807 01d7 02       		.byte	0x2
 808 01d8 23       		.byte	0x23
 809 01d9 20       		.uleb128 0x20
 810 01da 07       		.uleb128 0x7
 811 01db 705F7500 		.ascii	"p_u\000"
 812 01df 06       		.byte	0x6
 813 01e0 B4       		.byte	0xb4
 814 01e1 2A040000 		.4byte	0x42a
 815 01e5 02       		.byte	0x2
 816 01e6 23       		.byte	0x23
 817 01e7 24       		.uleb128 0x24
 818 01e8 06       		.uleb128 0x6
 819 01e9 B2040000 		.4byte	.LASF38
 820 01ed 06       		.byte	0x6
 821 01ee B9       		.byte	0xb9
 822 01ef 98020000 		.4byte	0x298
 823 01f3 02       		.byte	0x2
 824 01f4 23       		.byte	0x23
 825 01f5 28       		.uleb128 0x28
 826 01f6 06       		.uleb128 0x6
 827 01f7 33010000 		.4byte	.LASF39
 828 01fb 06       		.byte	0x6
 829 01fc BF       		.byte	0xbf
 830 01fd 76020000 		.4byte	0x276
 831 0201 02       		.byte	0x2
 832 0202 23       		.byte	0x23
 833 0203 2C       		.uleb128 0x2c
 834 0204 06       		.uleb128 0x6
 835 0205 90040000 		.4byte	.LASF40
 836 0209 06       		.byte	0x6
 837 020a C3       		.byte	0xc3
 838 020b EF000000 		.4byte	0xef
ARM GAS  /tmp/ccQ1YpDr.s 			page 16


 839 020f 02       		.byte	0x2
 840 0210 23       		.byte	0x23
 841 0211 34       		.uleb128 0x34
 842 0212 06       		.uleb128 0x6
 843 0213 27030000 		.4byte	.LASF41
 844 0217 06       		.byte	0x6
 845 0218 C9       		.byte	0xc9
 846 0219 FA000000 		.4byte	0xfa
 847 021d 02       		.byte	0x2
 848 021e 23       		.byte	0x23
 849 021f 38       		.uleb128 0x38
 850 0220 06       		.uleb128 0x6
 851 0221 DC020000 		.4byte	.LASF42
 852 0225 06       		.byte	0x6
 853 0226 D0       		.byte	0xd0
 854 0227 71040000 		.4byte	0x471
 855 022b 02       		.byte	0x2
 856 022c 23       		.byte	0x23
 857 022d 3C       		.uleb128 0x3c
 858 022e 06       		.uleb128 0x6
 859 022f B2030000 		.4byte	.LASF43
 860 0233 06       		.byte	0x6
 861 0234 D4       		.byte	0xd4
 862 0235 E4000000 		.4byte	0xe4
 863 0239 02       		.byte	0x2
 864 023a 23       		.byte	0x23
 865 023b 40       		.uleb128 0x40
 866 023c 06       		.uleb128 0x6
 867 023d 83000000 		.4byte	.LASF44
 868 0241 06       		.byte	0x6
 869 0242 DA       		.byte	0xda
 870 0243 AE020000 		.4byte	0x2ae
 871 0247 02       		.byte	0x2
 872 0248 23       		.byte	0x23
 873 0249 44       		.uleb128 0x44
 874 024a 00       		.byte	0
 875 024b 08       		.uleb128 0x8
 876 024c 08       		.byte	0x8
 877 024d 05       		.byte	0x5
 878 024e 61       		.byte	0x61
 879 024f 70020000 		.4byte	0x270
 880 0253 06       		.uleb128 0x6
 881 0254 01030000 		.4byte	.LASF26
 882 0258 05       		.byte	0x5
 883 0259 62       		.byte	0x62
 884 025a 70020000 		.4byte	0x270
 885 025e 02       		.byte	0x2
 886 025f 23       		.byte	0x23
 887 0260 00       		.uleb128 0
 888 0261 06       		.uleb128 0x6
 889 0262 82020000 		.4byte	.LASF27
 890 0266 05       		.byte	0x5
 891 0267 64       		.byte	0x64
 892 0268 70020000 		.4byte	0x270
 893 026c 02       		.byte	0x2
 894 026d 23       		.byte	0x23
 895 026e 04       		.uleb128 0x4
ARM GAS  /tmp/ccQ1YpDr.s 			page 17


 896 026f 00       		.byte	0
 897 0270 09       		.uleb128 0x9
 898 0271 04       		.byte	0x4
 899 0272 1B010000 		.4byte	0x11b
 900 0276 03       		.uleb128 0x3
 901 0277 22020000 		.4byte	.LASF45
 902 027b 05       		.byte	0x5
 903 027c 66       		.byte	0x66
 904 027d 4B020000 		.4byte	0x24b
 905 0281 08       		.uleb128 0x8
 906 0282 04       		.byte	0x4
 907 0283 05       		.byte	0x5
 908 0284 6B       		.byte	0x6b
 909 0285 98020000 		.4byte	0x298
 910 0289 06       		.uleb128 0x6
 911 028a 01030000 		.4byte	.LASF26
 912 028e 05       		.byte	0x5
 913 028f 6D       		.byte	0x6d
 914 0290 70020000 		.4byte	0x270
 915 0294 02       		.byte	0x2
 916 0295 23       		.byte	0x23
 917 0296 00       		.uleb128 0
 918 0297 00       		.byte	0
 919 0298 03       		.uleb128 0x3
 920 0299 B0010000 		.4byte	.LASF46
 921 029d 05       		.byte	0x5
 922 029e 70       		.byte	0x70
 923 029f 81020000 		.4byte	0x281
 924 02a3 03       		.uleb128 0x3
 925 02a4 E3000000 		.4byte	.LASF47
 926 02a8 07       		.byte	0x7
 927 02a9 E5       		.byte	0xe5
 928 02aa AE020000 		.4byte	0x2ae
 929 02ae 0A       		.uleb128 0xa
 930 02af 04       		.byte	0x4
 931 02b0 0B       		.uleb128 0xb
 932 02b1 08040000 		.4byte	.LASF48
 933 02b5 24       		.byte	0x24
 934 02b6 07       		.byte	0x7
 935 02b7 0C01     		.2byte	0x10c
 936 02b9 3E030000 		.4byte	0x33e
 937 02bd 0C       		.uleb128 0xc
 938 02be 723400   		.ascii	"r4\000"
 939 02c1 07       		.byte	0x7
 940 02c2 1F01     		.2byte	0x11f
 941 02c4 A3020000 		.4byte	0x2a3
 942 02c8 02       		.byte	0x2
 943 02c9 23       		.byte	0x23
 944 02ca 00       		.uleb128 0
 945 02cb 0C       		.uleb128 0xc
 946 02cc 723500   		.ascii	"r5\000"
 947 02cf 07       		.byte	0x7
 948 02d0 2001     		.2byte	0x120
 949 02d2 A3020000 		.4byte	0x2a3
 950 02d6 02       		.byte	0x2
 951 02d7 23       		.byte	0x23
 952 02d8 04       		.uleb128 0x4
ARM GAS  /tmp/ccQ1YpDr.s 			page 18


 953 02d9 0C       		.uleb128 0xc
 954 02da 723600   		.ascii	"r6\000"
 955 02dd 07       		.byte	0x7
 956 02de 2101     		.2byte	0x121
 957 02e0 A3020000 		.4byte	0x2a3
 958 02e4 02       		.byte	0x2
 959 02e5 23       		.byte	0x23
 960 02e6 08       		.uleb128 0x8
 961 02e7 0C       		.uleb128 0xc
 962 02e8 723700   		.ascii	"r7\000"
 963 02eb 07       		.byte	0x7
 964 02ec 2201     		.2byte	0x122
 965 02ee A3020000 		.4byte	0x2a3
 966 02f2 02       		.byte	0x2
 967 02f3 23       		.byte	0x23
 968 02f4 0C       		.uleb128 0xc
 969 02f5 0C       		.uleb128 0xc
 970 02f6 723800   		.ascii	"r8\000"
 971 02f9 07       		.byte	0x7
 972 02fa 2301     		.2byte	0x123
 973 02fc A3020000 		.4byte	0x2a3
 974 0300 02       		.byte	0x2
 975 0301 23       		.byte	0x23
 976 0302 10       		.uleb128 0x10
 977 0303 0C       		.uleb128 0xc
 978 0304 723900   		.ascii	"r9\000"
 979 0307 07       		.byte	0x7
 980 0308 2401     		.2byte	0x124
 981 030a A3020000 		.4byte	0x2a3
 982 030e 02       		.byte	0x2
 983 030f 23       		.byte	0x23
 984 0310 14       		.uleb128 0x14
 985 0311 0C       		.uleb128 0xc
 986 0312 72313000 		.ascii	"r10\000"
 987 0316 07       		.byte	0x7
 988 0317 2501     		.2byte	0x125
 989 0319 A3020000 		.4byte	0x2a3
 990 031d 02       		.byte	0x2
 991 031e 23       		.byte	0x23
 992 031f 18       		.uleb128 0x18
 993 0320 0C       		.uleb128 0xc
 994 0321 72313100 		.ascii	"r11\000"
 995 0325 07       		.byte	0x7
 996 0326 2601     		.2byte	0x126
 997 0328 A3020000 		.4byte	0x2a3
 998 032c 02       		.byte	0x2
 999 032d 23       		.byte	0x23
 1000 032e 1C       		.uleb128 0x1c
 1001 032f 0C       		.uleb128 0xc
 1002 0330 6C7200   		.ascii	"lr\000"
 1003 0333 07       		.byte	0x7
 1004 0334 2701     		.2byte	0x127
 1005 0336 A3020000 		.4byte	0x2a3
 1006 033a 02       		.byte	0x2
 1007 033b 23       		.byte	0x23
 1008 033c 20       		.uleb128 0x20
 1009 033d 00       		.byte	0
ARM GAS  /tmp/ccQ1YpDr.s 			page 19


 1010 033e 0B       		.uleb128 0xb
 1011 033f 00040000 		.4byte	.LASF49
 1012 0343 04       		.byte	0x4
 1013 0344 07       		.byte	0x7
 1014 0345 3101     		.2byte	0x131
 1015 0347 5B030000 		.4byte	0x35b
 1016 034b 0C       		.uleb128 0xc
 1017 034c 72313300 		.ascii	"r13\000"
 1018 0350 07       		.byte	0x7
 1019 0351 3201     		.2byte	0x132
 1020 0353 5B030000 		.4byte	0x35b
 1021 0357 02       		.byte	0x2
 1022 0358 23       		.byte	0x23
 1023 0359 00       		.uleb128 0
 1024 035a 00       		.byte	0
 1025 035b 09       		.uleb128 0x9
 1026 035c 04       		.byte	0x4
 1027 035d B0020000 		.4byte	0x2b0
 1028 0361 0D       		.uleb128 0xd
 1029 0362 10010000 		.4byte	0x110
 1030 0366 05       		.uleb128 0x5
 1031 0367 05020000 		.4byte	.LASF50
 1032 036b 10       		.byte	0x10
 1033 036c 08       		.byte	0x8
 1034 036d 2C       		.byte	0x2c
 1035 036e 9D030000 		.4byte	0x39d
 1036 0372 06       		.uleb128 0x6
 1037 0373 92000000 		.4byte	.LASF51
 1038 0377 08       		.byte	0x8
 1039 0378 2D       		.byte	0x2d
 1040 0379 76020000 		.4byte	0x276
 1041 037d 02       		.byte	0x2
 1042 037e 23       		.byte	0x23
 1043 037f 00       		.uleb128 0
 1044 0380 06       		.uleb128 0x6
 1045 0381 A4040000 		.4byte	.LASF52
 1046 0385 08       		.byte	0x8
 1047 0386 2F       		.byte	0x2f
 1048 0387 70020000 		.4byte	0x270
 1049 038b 02       		.byte	0x2
 1050 038c 23       		.byte	0x23
 1051 038d 08       		.uleb128 0x8
 1052 038e 06       		.uleb128 0x6
 1053 038f A1030000 		.4byte	.LASF53
 1054 0393 08       		.byte	0x8
 1055 0394 31       		.byte	0x31
 1056 0395 9D030000 		.4byte	0x39d
 1057 0399 02       		.byte	0x2
 1058 039a 23       		.byte	0x23
 1059 039b 0C       		.uleb128 0xc
 1060 039c 00       		.byte	0
 1061 039d 09       		.uleb128 0x9
 1062 039e 04       		.byte	0x4
 1063 039f 66030000 		.4byte	0x366
 1064 03a3 03       		.uleb128 0x3
 1065 03a4 05020000 		.4byte	.LASF50
 1066 03a8 08       		.byte	0x8
ARM GAS  /tmp/ccQ1YpDr.s 			page 20


 1067 03a9 33       		.byte	0x33
 1068 03aa 66030000 		.4byte	0x366
 1069 03ae 03       		.uleb128 0x3
 1070 03af 7B040000 		.4byte	.LASF54
 1071 03b3 09       		.byte	0x9
 1072 03b4 2C       		.byte	0x2c
 1073 03b5 B9030000 		.4byte	0x3b9
 1074 03b9 05       		.uleb128 0x5
 1075 03ba 7B040000 		.4byte	.LASF54
 1076 03be 10       		.byte	0x10
 1077 03bf 09       		.byte	0x9
 1078 03c0 31       		.byte	0x31
 1079 03c1 FE030000 		.4byte	0x3fe
 1080 03c5 06       		.uleb128 0x6
 1081 03c6 10030000 		.4byte	.LASF55
 1082 03ca 09       		.byte	0x9
 1083 03cb 32       		.byte	0x32
 1084 03cc FE030000 		.4byte	0x3fe
 1085 03d0 02       		.byte	0x2
 1086 03d1 23       		.byte	0x23
 1087 03d2 00       		.uleb128 0
 1088 03d3 06       		.uleb128 0x6
 1089 03d4 BF020000 		.4byte	.LASF56
 1090 03d8 09       		.byte	0x9
 1091 03d9 35       		.byte	0x35
 1092 03da 70020000 		.4byte	0x270
 1093 03de 02       		.byte	0x2
 1094 03df 23       		.byte	0x23
 1095 03e0 04       		.uleb128 0x4
 1096 03e1 06       		.uleb128 0x6
 1097 03e2 12020000 		.4byte	.LASF57
 1098 03e6 09       		.byte	0x9
 1099 03e7 37       		.byte	0x37
 1100 03e8 FA000000 		.4byte	0xfa
 1101 03ec 02       		.byte	0x2
 1102 03ed 23       		.byte	0x23
 1103 03ee 08       		.uleb128 0x8
 1104 03ef 06       		.uleb128 0x6
 1105 03f0 CB020000 		.4byte	.LASF58
 1106 03f4 09       		.byte	0x9
 1107 03f5 3A       		.byte	0x3a
 1108 03f6 05010000 		.4byte	0x105
 1109 03fa 02       		.byte	0x2
 1110 03fb 23       		.byte	0x23
 1111 03fc 0C       		.uleb128 0xc
 1112 03fd 00       		.byte	0
 1113 03fe 09       		.uleb128 0x9
 1114 03ff 04       		.byte	0x4
 1115 0400 AE030000 		.4byte	0x3ae
 1116 0404 05       		.uleb128 0x5
 1117 0405 EC000000 		.4byte	.LASF59
 1118 0409 04       		.byte	0x4
 1119 040a 09       		.byte	0x9
 1120 040b 41       		.byte	0x41
 1121 040c 1F040000 		.4byte	0x41f
 1122 0410 06       		.uleb128 0x6
 1123 0411 31040000 		.4byte	.LASF60
ARM GAS  /tmp/ccQ1YpDr.s 			page 21


 1124 0415 09       		.byte	0x9
 1125 0416 42       		.byte	0x42
 1126 0417 FE030000 		.4byte	0x3fe
 1127 041b 02       		.byte	0x2
 1128 041c 23       		.byte	0x23
 1129 041d 00       		.uleb128 0
 1130 041e 00       		.byte	0
 1131 041f 03       		.uleb128 0x3
 1132 0420 EC000000 		.4byte	.LASF59
 1133 0424 09       		.byte	0x9
 1134 0425 45       		.byte	0x45
 1135 0426 04040000 		.4byte	0x404
 1136 042a 0E       		.uleb128 0xe
 1137 042b 04       		.byte	0x4
 1138 042c 06       		.byte	0x6
 1139 042d 96       		.byte	0x96
 1140 042e 5F040000 		.4byte	0x45f
 1141 0432 0F       		.uleb128 0xf
 1142 0433 07000000 		.4byte	.LASF61
 1143 0437 06       		.byte	0x6
 1144 0438 9D       		.byte	0x9d
 1145 0439 EF000000 		.4byte	0xef
 1146 043d 0F       		.uleb128 0xf
 1147 043e 31000000 		.4byte	.LASF62
 1148 0442 06       		.byte	0x6
 1149 0443 A4       		.byte	0xa4
 1150 0444 EF000000 		.4byte	0xef
 1151 0448 0F       		.uleb128 0xf
 1152 0449 89040000 		.4byte	.LASF63
 1153 044d 06       		.byte	0x6
 1154 044e AB       		.byte	0xab
 1155 044f AE020000 		.4byte	0x2ae
 1156 0453 0F       		.uleb128 0xf
 1157 0454 FA020000 		.4byte	.LASF64
 1158 0458 06       		.byte	0x6
 1159 0459 B2       		.byte	0xb2
 1160 045a FA000000 		.4byte	0xfa
 1161 045e 00       		.byte	0
 1162 045f 09       		.uleb128 0x9
 1163 0460 04       		.byte	0x4
 1164 0461 65040000 		.4byte	0x465
 1165 0465 10       		.uleb128 0x10
 1166 0466 6A040000 		.4byte	0x46a
 1167 046a 04       		.uleb128 0x4
 1168 046b 01       		.byte	0x1
 1169 046c 08       		.byte	0x8
 1170 046d 7D030000 		.4byte	.LASF65
 1171 0471 09       		.uleb128 0x9
 1172 0472 04       		.byte	0x4
 1173 0473 A3030000 		.4byte	0x3a3
 1174 0477 09       		.uleb128 0x9
 1175 0478 04       		.byte	0x4
 1176 0479 7D040000 		.4byte	0x47d
 1177 047d 11       		.uleb128 0x11
 1178 047e 01       		.byte	0x1
 1179 047f EF000000 		.4byte	0xef
 1180 0483 8D040000 		.4byte	0x48d
ARM GAS  /tmp/ccQ1YpDr.s 			page 22


 1181 0487 12       		.uleb128 0x12
 1182 0488 AE020000 		.4byte	0x2ae
 1183 048c 00       		.byte	0
 1184 048d 03       		.uleb128 0x3
 1185 048e E3010000 		.4byte	.LASF66
 1186 0492 0A       		.byte	0xa
 1187 0493 37       		.byte	0x37
 1188 0494 98040000 		.4byte	0x498
 1189 0498 05       		.uleb128 0x5
 1190 0499 E3010000 		.4byte	.LASF66
 1191 049d 24       		.byte	0x24
 1192 049e 0A       		.byte	0xa
 1193 049f 45       		.byte	0x45
 1194 04a0 15050000 		.4byte	0x515
 1195 04a4 06       		.uleb128 0x6
 1196 04a5 5A000000 		.4byte	.LASF67
 1197 04a9 0A       		.byte	0xa
 1198 04aa 46       		.byte	0x46
 1199 04ab 76020000 		.4byte	0x276
 1200 04af 02       		.byte	0x2
 1201 04b0 23       		.byte	0x23
 1202 04b1 00       		.uleb128 0
 1203 04b2 06       		.uleb128 0x6
 1204 04b3 FB010000 		.4byte	.LASF68
 1205 04b7 0A       		.byte	0xa
 1206 04b8 47       		.byte	0x47
 1207 04b9 30000000 		.4byte	0x30
 1208 04bd 02       		.byte	0x2
 1209 04be 23       		.byte	0x23
 1210 04bf 08       		.uleb128 0x8
 1211 04c0 06       		.uleb128 0x6
 1212 04c1 C3000000 		.4byte	.LASF69
 1213 04c5 0A       		.byte	0xa
 1214 04c6 48       		.byte	0x48
 1215 04c7 38050000 		.4byte	0x538
 1216 04cb 02       		.byte	0x2
 1217 04cc 23       		.byte	0x23
 1218 04cd 0C       		.uleb128 0xc
 1219 04ce 06       		.uleb128 0x6
 1220 04cf 24040000 		.4byte	.LASF70
 1221 04d3 0A       		.byte	0xa
 1222 04d4 49       		.byte	0x49
 1223 04d5 38050000 		.4byte	0x538
 1224 04d9 02       		.byte	0x2
 1225 04da 23       		.byte	0x23
 1226 04db 10       		.uleb128 0x10
 1227 04dc 06       		.uleb128 0x6
 1228 04dd CC000000 		.4byte	.LASF71
 1229 04e1 0A       		.byte	0xa
 1230 04e2 4B       		.byte	0x4b
 1231 04e3 38050000 		.4byte	0x538
 1232 04e7 02       		.byte	0x2
 1233 04e8 23       		.byte	0x23
 1234 04e9 14       		.uleb128 0x14
 1235 04ea 06       		.uleb128 0x6
 1236 04eb 9B020000 		.4byte	.LASF72
 1237 04ef 0A       		.byte	0xa
ARM GAS  /tmp/ccQ1YpDr.s 			page 23


 1238 04f0 4C       		.byte	0x4c
 1239 04f1 38050000 		.4byte	0x538
 1240 04f5 02       		.byte	0x2
 1241 04f6 23       		.byte	0x23
 1242 04f7 18       		.uleb128 0x18
 1243 04f8 06       		.uleb128 0x6
 1244 04f9 39040000 		.4byte	.LASF73
 1245 04fd 0A       		.byte	0xa
 1246 04fe 4D       		.byte	0x4d
 1247 04ff 15050000 		.4byte	0x515
 1248 0503 02       		.byte	0x2
 1249 0504 23       		.byte	0x23
 1250 0505 1C       		.uleb128 0x1c
 1251 0506 06       		.uleb128 0x6
 1252 0507 9D040000 		.4byte	.LASF74
 1253 050b 0A       		.byte	0xa
 1254 050c 4E       		.byte	0x4e
 1255 050d AE020000 		.4byte	0x2ae
 1256 0511 02       		.byte	0x2
 1257 0512 23       		.byte	0x23
 1258 0513 20       		.uleb128 0x20
 1259 0514 00       		.byte	0
 1260 0515 03       		.uleb128 0x3
 1261 0516 D9010000 		.4byte	.LASF75
 1262 051a 0A       		.byte	0xa
 1263 051b 3A       		.byte	0x3a
 1264 051c 20050000 		.4byte	0x520
 1265 0520 09       		.uleb128 0x9
 1266 0521 04       		.byte	0x4
 1267 0522 26050000 		.4byte	0x526
 1268 0526 13       		.uleb128 0x13
 1269 0527 01       		.byte	0x1
 1270 0528 32050000 		.4byte	0x532
 1271 052c 12       		.uleb128 0x12
 1272 052d 32050000 		.4byte	0x532
 1273 0531 00       		.byte	0
 1274 0532 09       		.uleb128 0x9
 1275 0533 04       		.byte	0x4
 1276 0534 8D040000 		.4byte	0x48d
 1277 0538 09       		.uleb128 0x9
 1278 0539 04       		.byte	0x4
 1279 053a 49000000 		.4byte	0x49
 1280 053e 03       		.uleb128 0x3
 1281 053f C8010000 		.4byte	.LASF76
 1282 0543 0A       		.byte	0xa
 1283 0544 82       		.byte	0x82
 1284 0545 8D040000 		.4byte	0x48d
 1285 0549 03       		.uleb128 0x3
 1286 054a 0E000000 		.4byte	.LASF77
 1287 054e 0A       		.byte	0xa
 1288 054f F5       		.byte	0xf5
 1289 0550 8D040000 		.4byte	0x48d
 1290 0554 11       		.uleb128 0x11
 1291 0555 01       		.byte	0x1
 1292 0556 30000000 		.4byte	0x30
 1293 055a 6E050000 		.4byte	0x56e
 1294 055e 12       		.uleb128 0x12
ARM GAS  /tmp/ccQ1YpDr.s 			page 24


 1295 055f AE020000 		.4byte	0x2ae
 1296 0563 12       		.uleb128 0x12
 1297 0564 6E050000 		.4byte	0x56e
 1298 0568 12       		.uleb128 0x12
 1299 0569 30000000 		.4byte	0x30
 1300 056d 00       		.byte	0
 1301 056e 09       		.uleb128 0x9
 1302 056f 04       		.byte	0x4
 1303 0570 74050000 		.4byte	0x574
 1304 0574 10       		.uleb128 0x10
 1305 0575 49000000 		.4byte	0x49
 1306 0579 09       		.uleb128 0x9
 1307 057a 04       		.byte	0x4
 1308 057b 54050000 		.4byte	0x554
 1309 057f 11       		.uleb128 0x11
 1310 0580 01       		.byte	0x1
 1311 0581 30000000 		.4byte	0x30
 1312 0585 99050000 		.4byte	0x599
 1313 0589 12       		.uleb128 0x12
 1314 058a AE020000 		.4byte	0x2ae
 1315 058e 12       		.uleb128 0x12
 1316 058f 38050000 		.4byte	0x538
 1317 0593 12       		.uleb128 0x12
 1318 0594 30000000 		.4byte	0x30
 1319 0598 00       		.byte	0
 1320 0599 09       		.uleb128 0x9
 1321 059a 04       		.byte	0x4
 1322 059b 7F050000 		.4byte	0x57f
 1323 059f 11       		.uleb128 0x11
 1324 05a0 01       		.byte	0x1
 1325 05a1 EF000000 		.4byte	0xef
 1326 05a5 B4050000 		.4byte	0x5b4
 1327 05a9 12       		.uleb128 0x12
 1328 05aa AE020000 		.4byte	0x2ae
 1329 05ae 12       		.uleb128 0x12
 1330 05af 49000000 		.4byte	0x49
 1331 05b3 00       		.byte	0
 1332 05b4 09       		.uleb128 0x9
 1333 05b5 04       		.byte	0x4
 1334 05b6 9F050000 		.4byte	0x59f
 1335 05ba 0D       		.uleb128 0xd
 1336 05bb 62000000 		.4byte	0x62
 1337 05bf 0D       		.uleb128 0xd
 1338 05c0 74000000 		.4byte	0x74
 1339 05c4 14       		.uleb128 0x14
 1340 05c5 1C       		.byte	0x1c
 1341 05c6 0B       		.byte	0xb
 1342 05c7 E004     		.2byte	0x4e0
 1343 05c9 9E060000 		.4byte	0x69e
 1344 05cd 0C       		.uleb128 0xc
 1345 05ce 535200   		.ascii	"SR\000"
 1346 05d1 0B       		.byte	0xb
 1347 05d2 E204     		.2byte	0x4e2
 1348 05d4 BA050000 		.4byte	0x5ba
 1349 05d8 02       		.byte	0x2
 1350 05d9 23       		.byte	0x23
 1351 05da 00       		.uleb128 0
ARM GAS  /tmp/ccQ1YpDr.s 			page 25


 1352 05db 15       		.uleb128 0x15
 1353 05dc 50020000 		.4byte	.LASF78
 1354 05e0 0B       		.byte	0xb
 1355 05e1 E304     		.2byte	0x4e3
 1356 05e3 62000000 		.4byte	0x62
 1357 05e7 02       		.byte	0x2
 1358 05e8 23       		.byte	0x23
 1359 05e9 02       		.uleb128 0x2
 1360 05ea 0C       		.uleb128 0xc
 1361 05eb 445200   		.ascii	"DR\000"
 1362 05ee 0B       		.byte	0xb
 1363 05ef E404     		.2byte	0x4e4
 1364 05f1 BA050000 		.4byte	0x5ba
 1365 05f5 02       		.byte	0x2
 1366 05f6 23       		.byte	0x23
 1367 05f7 04       		.uleb128 0x4
 1368 05f8 15       		.uleb128 0x15
 1369 05f9 5A020000 		.4byte	.LASF79
 1370 05fd 0B       		.byte	0xb
 1371 05fe E504     		.2byte	0x4e5
 1372 0600 62000000 		.4byte	0x62
 1373 0604 02       		.byte	0x2
 1374 0605 23       		.byte	0x23
 1375 0606 06       		.uleb128 0x6
 1376 0607 0C       		.uleb128 0xc
 1377 0608 42525200 		.ascii	"BRR\000"
 1378 060c 0B       		.byte	0xb
 1379 060d E604     		.2byte	0x4e6
 1380 060f BA050000 		.4byte	0x5ba
 1381 0613 02       		.byte	0x2
 1382 0614 23       		.byte	0x23
 1383 0615 08       		.uleb128 0x8
 1384 0616 15       		.uleb128 0x15
 1385 0617 64020000 		.4byte	.LASF80
 1386 061b 0B       		.byte	0xb
 1387 061c E704     		.2byte	0x4e7
 1388 061e 62000000 		.4byte	0x62
 1389 0622 02       		.byte	0x2
 1390 0623 23       		.byte	0x23
 1391 0624 0A       		.uleb128 0xa
 1392 0625 0C       		.uleb128 0xc
 1393 0626 43523100 		.ascii	"CR1\000"
 1394 062a 0B       		.byte	0xb
 1395 062b E804     		.2byte	0x4e8
 1396 062d BA050000 		.4byte	0x5ba
 1397 0631 02       		.byte	0x2
 1398 0632 23       		.byte	0x23
 1399 0633 0C       		.uleb128 0xc
 1400 0634 15       		.uleb128 0x15
 1401 0635 6E020000 		.4byte	.LASF81
 1402 0639 0B       		.byte	0xb
 1403 063a E904     		.2byte	0x4e9
 1404 063c 62000000 		.4byte	0x62
 1405 0640 02       		.byte	0x2
 1406 0641 23       		.byte	0x23
 1407 0642 0E       		.uleb128 0xe
 1408 0643 0C       		.uleb128 0xc
ARM GAS  /tmp/ccQ1YpDr.s 			page 26


 1409 0644 43523200 		.ascii	"CR2\000"
 1410 0648 0B       		.byte	0xb
 1411 0649 EA04     		.2byte	0x4ea
 1412 064b BA050000 		.4byte	0x5ba
 1413 064f 02       		.byte	0x2
 1414 0650 23       		.byte	0x23
 1415 0651 10       		.uleb128 0x10
 1416 0652 15       		.uleb128 0x15
 1417 0653 78020000 		.4byte	.LASF82
 1418 0657 0B       		.byte	0xb
 1419 0658 EB04     		.2byte	0x4eb
 1420 065a 62000000 		.4byte	0x62
 1421 065e 02       		.byte	0x2
 1422 065f 23       		.byte	0x23
 1423 0660 12       		.uleb128 0x12
 1424 0661 0C       		.uleb128 0xc
 1425 0662 43523300 		.ascii	"CR3\000"
 1426 0666 0B       		.byte	0xb
 1427 0667 EC04     		.2byte	0x4ec
 1428 0669 BA050000 		.4byte	0x5ba
 1429 066d 02       		.byte	0x2
 1430 066e 23       		.byte	0x23
 1431 066f 14       		.uleb128 0x14
 1432 0670 15       		.uleb128 0x15
 1433 0671 3C030000 		.4byte	.LASF83
 1434 0675 0B       		.byte	0xb
 1435 0676 ED04     		.2byte	0x4ed
 1436 0678 62000000 		.4byte	0x62
 1437 067c 02       		.byte	0x2
 1438 067d 23       		.byte	0x23
 1439 067e 16       		.uleb128 0x16
 1440 067f 15       		.uleb128 0x15
 1441 0680 7E000000 		.4byte	.LASF84
 1442 0684 0B       		.byte	0xb
 1443 0685 EE04     		.2byte	0x4ee
 1444 0687 BA050000 		.4byte	0x5ba
 1445 068b 02       		.byte	0x2
 1446 068c 23       		.byte	0x23
 1447 068d 18       		.uleb128 0x18
 1448 068e 15       		.uleb128 0x15
 1449 068f 89020000 		.4byte	.LASF85
 1450 0693 0B       		.byte	0xb
 1451 0694 EF04     		.2byte	0x4ef
 1452 0696 62000000 		.4byte	0x62
 1453 069a 02       		.byte	0x2
 1454 069b 23       		.byte	0x23
 1455 069c 1A       		.uleb128 0x1a
 1456 069d 00       		.byte	0
 1457 069e 16       		.uleb128 0x16
 1458 069f 93010000 		.4byte	.LASF86
 1459 06a3 0B       		.byte	0xb
 1460 06a4 F004     		.2byte	0x4f0
 1461 06a6 C4050000 		.4byte	0x5c4
 1462 06aa 11       		.uleb128 0x11
 1463 06ab 01       		.byte	0x1
 1464 06ac EF000000 		.4byte	0xef
 1465 06b0 C4060000 		.4byte	0x6c4
ARM GAS  /tmp/ccQ1YpDr.s 			page 27


 1466 06b4 12       		.uleb128 0x12
 1467 06b5 AE020000 		.4byte	0x2ae
 1468 06b9 12       		.uleb128 0x12
 1469 06ba 49000000 		.4byte	0x49
 1470 06be 12       		.uleb128 0x12
 1471 06bf 10010000 		.4byte	0x110
 1472 06c3 00       		.byte	0
 1473 06c4 09       		.uleb128 0x9
 1474 06c5 04       		.byte	0x4
 1475 06c6 AA060000 		.4byte	0x6aa
 1476 06ca 11       		.uleb128 0x11
 1477 06cb 01       		.byte	0x1
 1478 06cc EF000000 		.4byte	0xef
 1479 06d0 DF060000 		.4byte	0x6df
 1480 06d4 12       		.uleb128 0x12
 1481 06d5 AE020000 		.4byte	0x2ae
 1482 06d9 12       		.uleb128 0x12
 1483 06da 10010000 		.4byte	0x110
 1484 06de 00       		.byte	0
 1485 06df 09       		.uleb128 0x9
 1486 06e0 04       		.byte	0x4
 1487 06e1 CA060000 		.4byte	0x6ca
 1488 06e5 11       		.uleb128 0x11
 1489 06e6 01       		.byte	0x1
 1490 06e7 30000000 		.4byte	0x30
 1491 06eb 04070000 		.4byte	0x704
 1492 06ef 12       		.uleb128 0x12
 1493 06f0 AE020000 		.4byte	0x2ae
 1494 06f4 12       		.uleb128 0x12
 1495 06f5 6E050000 		.4byte	0x56e
 1496 06f9 12       		.uleb128 0x12
 1497 06fa 30000000 		.4byte	0x30
 1498 06fe 12       		.uleb128 0x12
 1499 06ff 10010000 		.4byte	0x110
 1500 0703 00       		.byte	0
 1501 0704 09       		.uleb128 0x9
 1502 0705 04       		.byte	0x4
 1503 0706 E5060000 		.4byte	0x6e5
 1504 070a 11       		.uleb128 0x11
 1505 070b 01       		.byte	0x1
 1506 070c 30000000 		.4byte	0x30
 1507 0710 29070000 		.4byte	0x729
 1508 0714 12       		.uleb128 0x12
 1509 0715 AE020000 		.4byte	0x2ae
 1510 0719 12       		.uleb128 0x12
 1511 071a 38050000 		.4byte	0x538
 1512 071e 12       		.uleb128 0x12
 1513 071f 30000000 		.4byte	0x30
 1514 0723 12       		.uleb128 0x12
 1515 0724 10010000 		.4byte	0x110
 1516 0728 00       		.byte	0
 1517 0729 09       		.uleb128 0x9
 1518 072a 04       		.byte	0x4
 1519 072b 0A070000 		.4byte	0x70a
 1520 072f 17       		.uleb128 0x17
 1521 0730 01       		.byte	0x1
 1522 0731 0C       		.byte	0xc
ARM GAS  /tmp/ccQ1YpDr.s 			page 28


 1523 0732 64       		.byte	0x64
 1524 0733 4A070000 		.4byte	0x74a
 1525 0737 18       		.uleb128 0x18
 1526 0738 32030000 		.4byte	.LASF87
 1527 073c 00       		.sleb128 0
 1528 073d 18       		.uleb128 0x18
 1529 073e 18030000 		.4byte	.LASF88
 1530 0742 01       		.sleb128 1
 1531 0743 18       		.uleb128 0x18
 1532 0744 0F040000 		.4byte	.LASF89
 1533 0748 02       		.sleb128 2
 1534 0749 00       		.byte	0
 1535 074a 03       		.uleb128 0x3
 1536 074b 4F030000 		.4byte	.LASF90
 1537 074f 0C       		.byte	0xc
 1538 0750 68       		.byte	0x68
 1539 0751 2F070000 		.4byte	0x72f
 1540 0755 03       		.uleb128 0x3
 1541 0756 59030000 		.4byte	.LASF91
 1542 075a 0C       		.byte	0xc
 1543 075b 6D       		.byte	0x6d
 1544 075c 60070000 		.4byte	0x760
 1545 0760 05       		.uleb128 0x5
 1546 0761 59030000 		.4byte	.LASF91
 1547 0765 78       		.byte	0x78
 1548 0766 0C       		.byte	0xc
 1549 0767 87       		.byte	0x87
 1550 0768 DB070000 		.4byte	0x7db
 1551 076c 07       		.uleb128 0x7
 1552 076d 766D7400 		.ascii	"vmt\000"
 1553 0771 0C       		.byte	0xc
 1554 0772 89       		.byte	0x89
 1555 0773 A4080000 		.4byte	0x8a4
 1556 0777 02       		.byte	0x2
 1557 0778 23       		.byte	0x23
 1558 0779 00       		.uleb128 0
 1559 077a 06       		.uleb128 0x6
 1560 077b 4B010000 		.4byte	.LASF92
 1561 077f 0C       		.byte	0xc
 1562 0780 8A       		.byte	0x8a
 1563 0781 1F040000 		.4byte	0x41f
 1564 0785 02       		.byte	0x2
 1565 0786 23       		.byte	0x23
 1566 0787 04       		.uleb128 0x4
 1567 0788 06       		.uleb128 0x6
 1568 0789 A4000000 		.4byte	.LASF93
 1569 078d 0C       		.byte	0xc
 1570 078e 8A       		.byte	0x8a
 1571 078f 4A070000 		.4byte	0x74a
 1572 0793 02       		.byte	0x2
 1573 0794 23       		.byte	0x23
 1574 0795 08       		.uleb128 0x8
 1575 0796 06       		.uleb128 0x6
 1576 0797 2C010000 		.4byte	.LASF94
 1577 079b 0C       		.byte	0xc
 1578 079c 8A       		.byte	0x8a
 1579 079d 3E050000 		.4byte	0x53e
ARM GAS  /tmp/ccQ1YpDr.s 			page 29


 1580 07a1 02       		.byte	0x2
 1581 07a2 23       		.byte	0x23
 1582 07a3 0C       		.uleb128 0xc
 1583 07a4 06       		.uleb128 0x6
 1584 07a5 8C010000 		.4byte	.LASF95
 1585 07a9 0C       		.byte	0xc
 1586 07aa 8A       		.byte	0x8a
 1587 07ab 49050000 		.4byte	0x549
 1588 07af 02       		.byte	0x2
 1589 07b0 23       		.byte	0x23
 1590 07b1 30       		.uleb128 0x30
 1591 07b2 07       		.uleb128 0x7
 1592 07b3 696200   		.ascii	"ib\000"
 1593 07b6 0C       		.byte	0xc
 1594 07b7 8A       		.byte	0x8a
 1595 07b8 AF080000 		.4byte	0x8af
 1596 07bc 02       		.byte	0x2
 1597 07bd 23       		.byte	0x23
 1598 07be 54       		.uleb128 0x54
 1599 07bf 07       		.uleb128 0x7
 1600 07c0 6F6200   		.ascii	"ob\000"
 1601 07c3 0C       		.byte	0xc
 1602 07c4 8A       		.byte	0x8a
 1603 07c5 AF080000 		.4byte	0x8af
 1604 07c9 02       		.byte	0x2
 1605 07ca 23       		.byte	0x23
 1606 07cb 64       		.uleb128 0x64
 1607 07cc 06       		.uleb128 0x6
 1608 07cd F8000000 		.4byte	.LASF96
 1609 07d1 0C       		.byte	0xc
 1610 07d2 8A       		.byte	0x8a
 1611 07d3 BF080000 		.4byte	0x8bf
 1612 07d7 02       		.byte	0x2
 1613 07d8 23       		.byte	0x23
 1614 07d9 74       		.uleb128 0x74
 1615 07da 00       		.byte	0
 1616 07db 08       		.uleb128 0x8
 1617 07dc 0C       		.byte	0xc
 1618 07dd 0D       		.byte	0xd
 1619 07de D7       		.byte	0xd7
 1620 07df 1C080000 		.4byte	0x81c
 1621 07e3 06       		.uleb128 0x6
 1622 07e4 D3010000 		.4byte	.LASF97
 1623 07e8 0D       		.byte	0xd
 1624 07e9 DB       		.byte	0xdb
 1625 07ea 86000000 		.4byte	0x86
 1626 07ee 02       		.byte	0x2
 1627 07ef 23       		.byte	0x23
 1628 07f0 00       		.uleb128 0
 1629 07f1 07       		.uleb128 0x7
 1630 07f2 63723100 		.ascii	"cr1\000"
 1631 07f6 0D       		.byte	0xd
 1632 07f7 E0       		.byte	0xe0
 1633 07f8 62000000 		.4byte	0x62
 1634 07fc 02       		.byte	0x2
 1635 07fd 23       		.byte	0x23
 1636 07fe 04       		.uleb128 0x4
ARM GAS  /tmp/ccQ1YpDr.s 			page 30


 1637 07ff 07       		.uleb128 0x7
 1638 0800 63723200 		.ascii	"cr2\000"
 1639 0804 0D       		.byte	0xd
 1640 0805 E4       		.byte	0xe4
 1641 0806 62000000 		.4byte	0x62
 1642 080a 02       		.byte	0x2
 1643 080b 23       		.byte	0x23
 1644 080c 06       		.uleb128 0x6
 1645 080d 07       		.uleb128 0x7
 1646 080e 63723300 		.ascii	"cr3\000"
 1647 0812 0D       		.byte	0xd
 1648 0813 E8       		.byte	0xe8
 1649 0814 62000000 		.4byte	0x62
 1650 0818 02       		.byte	0x2
 1651 0819 23       		.byte	0x23
 1652 081a 08       		.uleb128 0x8
 1653 081b 00       		.byte	0
 1654 081c 03       		.uleb128 0x3
 1655 081d 3B020000 		.4byte	.LASF98
 1656 0821 0D       		.byte	0xd
 1657 0822 E9       		.byte	0xe9
 1658 0823 DB070000 		.4byte	0x7db
 1659 0827 05       		.uleb128 0x5
 1660 0828 14010000 		.4byte	.LASF99
 1661 082c 20       		.byte	0x20
 1662 082d 0C       		.byte	0xc
 1663 082e 7C       		.byte	0x7c
 1664 082f A4080000 		.4byte	0x8a4
 1665 0833 06       		.uleb128 0x6
 1666 0834 F0010000 		.4byte	.LASF100
 1667 0838 0C       		.byte	0xc
 1668 0839 7D       		.byte	0x7d
 1669 083a 79050000 		.4byte	0x579
 1670 083e 02       		.byte	0x2
 1671 083f 23       		.byte	0x23
 1672 0840 00       		.uleb128 0
 1673 0841 06       		.uleb128 0x6
 1674 0842 78030000 		.4byte	.LASF101
 1675 0846 0C       		.byte	0xc
 1676 0847 7D       		.byte	0x7d
 1677 0848 99050000 		.4byte	0x599
 1678 084c 02       		.byte	0x2
 1679 084d 23       		.byte	0x23
 1680 084e 04       		.uleb128 0x4
 1681 084f 07       		.uleb128 0x7
 1682 0850 70757400 		.ascii	"put\000"
 1683 0854 0C       		.byte	0xc
 1684 0855 7D       		.byte	0x7d
 1685 0856 B4050000 		.4byte	0x5b4
 1686 085a 02       		.byte	0x2
 1687 085b 23       		.byte	0x23
 1688 085c 08       		.uleb128 0x8
 1689 085d 07       		.uleb128 0x7
 1690 085e 67657400 		.ascii	"get\000"
 1691 0862 0C       		.byte	0xc
 1692 0863 7D       		.byte	0x7d
 1693 0864 77040000 		.4byte	0x477
ARM GAS  /tmp/ccQ1YpDr.s 			page 31


 1694 0868 02       		.byte	0x2
 1695 0869 23       		.byte	0x23
 1696 086a 0C       		.uleb128 0xc
 1697 086b 06       		.uleb128 0x6
 1698 086c F6010000 		.4byte	.LASF102
 1699 0870 0C       		.byte	0xc
 1700 0871 7D       		.byte	0x7d
 1701 0872 C4060000 		.4byte	0x6c4
 1702 0876 02       		.byte	0x2
 1703 0877 23       		.byte	0x23
 1704 0878 10       		.uleb128 0x10
 1705 0879 06       		.uleb128 0x6
 1706 087a 46010000 		.4byte	.LASF103
 1707 087e 0C       		.byte	0xc
 1708 087f 7D       		.byte	0x7d
 1709 0880 DF060000 		.4byte	0x6df
 1710 0884 02       		.byte	0x2
 1711 0885 23       		.byte	0x23
 1712 0886 14       		.uleb128 0x14
 1713 0887 06       		.uleb128 0x6
 1714 0888 A1010000 		.4byte	.LASF104
 1715 088c 0C       		.byte	0xc
 1716 088d 7D       		.byte	0x7d
 1717 088e 04070000 		.4byte	0x704
 1718 0892 02       		.byte	0x2
 1719 0893 23       		.byte	0x23
 1720 0894 18       		.uleb128 0x18
 1721 0895 06       		.uleb128 0x6
 1722 0896 54000000 		.4byte	.LASF105
 1723 089a 0C       		.byte	0xc
 1724 089b 7D       		.byte	0x7d
 1725 089c 29070000 		.4byte	0x729
 1726 08a0 02       		.byte	0x2
 1727 08a1 23       		.byte	0x23
 1728 08a2 1C       		.uleb128 0x1c
 1729 08a3 00       		.byte	0
 1730 08a4 09       		.uleb128 0x9
 1731 08a5 04       		.byte	0x4
 1732 08a6 AA080000 		.4byte	0x8aa
 1733 08aa 10       		.uleb128 0x10
 1734 08ab 27080000 		.4byte	0x827
 1735 08af 19       		.uleb128 0x19
 1736 08b0 49000000 		.4byte	0x49
 1737 08b4 BF080000 		.4byte	0x8bf
 1738 08b8 1A       		.uleb128 0x1a
 1739 08b9 3B000000 		.4byte	0x3b
 1740 08bd 0F       		.byte	0xf
 1741 08be 00       		.byte	0
 1742 08bf 09       		.uleb128 0x9
 1743 08c0 04       		.byte	0x4
 1744 08c1 9E060000 		.4byte	0x69e
 1745 08c5 1B       		.uleb128 0x1b
 1746 08c6 54000000 		.4byte	.LASF105
 1747 08ca 01       		.byte	0x1
 1748 08cb 63       		.byte	0x63
 1749 08cc 01       		.byte	0x1
 1750 08cd 30000000 		.4byte	0x30
ARM GAS  /tmp/ccQ1YpDr.s 			page 32


 1751 08d1 00000000 		.4byte	.LFB70
 1752 08d5 06000000 		.4byte	.LFE70
 1753 08d9 02       		.byte	0x2
 1754 08da 7D       		.byte	0x7d
 1755 08db 00       		.sleb128 0
 1756 08dc 19090000 		.4byte	0x919
 1757 08e0 1C       		.uleb128 0x1c
 1758 08e1 697000   		.ascii	"ip\000"
 1759 08e4 01       		.byte	0x1
 1760 08e5 63       		.byte	0x63
 1761 08e6 AE020000 		.4byte	0x2ae
 1762 08ea 00000000 		.4byte	.LLST0
 1763 08ee 1C       		.uleb128 0x1c
 1764 08ef 627000   		.ascii	"bp\000"
 1765 08f2 01       		.byte	0x1
 1766 08f3 63       		.byte	0x63
 1767 08f4 38050000 		.4byte	0x538
 1768 08f8 20000000 		.4byte	.LLST1
 1769 08fc 1C       		.uleb128 0x1c
 1770 08fd 6E00     		.ascii	"n\000"
 1771 08ff 01       		.byte	0x1
 1772 0900 63       		.byte	0x63
 1773 0901 30000000 		.4byte	0x30
 1774 0905 33000000 		.4byte	.LLST2
 1775 0909 1D       		.uleb128 0x1d
 1776 090a 36020000 		.4byte	.LASF106
 1777 090e 01       		.byte	0x1
 1778 090f 63       		.byte	0x63
 1779 0910 10010000 		.4byte	0x110
 1780 0914 46000000 		.4byte	.LLST3
 1781 0918 00       		.byte	0
 1782 0919 1B       		.uleb128 0x1b
 1783 091a 78030000 		.4byte	.LASF101
 1784 091e 01       		.byte	0x1
 1785 091f 44       		.byte	0x44
 1786 0920 01       		.byte	0x1
 1787 0921 30000000 		.4byte	0x30
 1788 0925 00000000 		.4byte	.LFB64
 1789 0929 0A000000 		.4byte	.LFE64
 1790 092d 02       		.byte	0x2
 1791 092e 7D       		.byte	0x7d
 1792 092f 00       		.sleb128 0
 1793 0930 5E090000 		.4byte	0x95e
 1794 0934 1C       		.uleb128 0x1c
 1795 0935 697000   		.ascii	"ip\000"
 1796 0938 01       		.byte	0x1
 1797 0939 44       		.byte	0x44
 1798 093a AE020000 		.4byte	0x2ae
 1799 093e 59000000 		.4byte	.LLST4
 1800 0942 1C       		.uleb128 0x1c
 1801 0943 627000   		.ascii	"bp\000"
 1802 0946 01       		.byte	0x1
 1803 0947 44       		.byte	0x44
 1804 0948 38050000 		.4byte	0x538
 1805 094c 79000000 		.4byte	.LLST5
 1806 0950 1C       		.uleb128 0x1c
 1807 0951 6E00     		.ascii	"n\000"
ARM GAS  /tmp/ccQ1YpDr.s 			page 33


 1808 0953 01       		.byte	0x1
 1809 0954 44       		.byte	0x44
 1810 0955 30000000 		.4byte	0x30
 1811 0959 8C000000 		.4byte	.LLST6
 1812 095d 00       		.byte	0
 1813 095e 1B       		.uleb128 0x1b
 1814 095f A1010000 		.4byte	.LASF104
 1815 0963 01       		.byte	0x1
 1816 0964 5E       		.byte	0x5e
 1817 0965 01       		.byte	0x1
 1818 0966 30000000 		.4byte	0x30
 1819 096a 00000000 		.4byte	.LFB69
 1820 096e 06000000 		.4byte	.LFE69
 1821 0972 02       		.byte	0x2
 1822 0973 7D       		.byte	0x7d
 1823 0974 00       		.sleb128 0
 1824 0975 B2090000 		.4byte	0x9b2
 1825 0979 1C       		.uleb128 0x1c
 1826 097a 697000   		.ascii	"ip\000"
 1827 097d 01       		.byte	0x1
 1828 097e 5E       		.byte	0x5e
 1829 097f AE020000 		.4byte	0x2ae
 1830 0983 9F000000 		.4byte	.LLST7
 1831 0987 1C       		.uleb128 0x1c
 1832 0988 627000   		.ascii	"bp\000"
 1833 098b 01       		.byte	0x1
 1834 098c 5E       		.byte	0x5e
 1835 098d 6E050000 		.4byte	0x56e
 1836 0991 BF000000 		.4byte	.LLST8
 1837 0995 1C       		.uleb128 0x1c
 1838 0996 6E00     		.ascii	"n\000"
 1839 0998 01       		.byte	0x1
 1840 0999 5E       		.byte	0x5e
 1841 099a 30000000 		.4byte	0x30
 1842 099e D2000000 		.4byte	.LLST9
 1843 09a2 1D       		.uleb128 0x1d
 1844 09a3 36020000 		.4byte	.LASF106
 1845 09a7 01       		.byte	0x1
 1846 09a8 5E       		.byte	0x5e
 1847 09a9 10010000 		.4byte	0x110
 1848 09ad E5000000 		.4byte	.LLST10
 1849 09b1 00       		.byte	0
 1850 09b2 1B       		.uleb128 0x1b
 1851 09b3 F0010000 		.4byte	.LASF100
 1852 09b7 01       		.byte	0x1
 1853 09b8 3E       		.byte	0x3e
 1854 09b9 01       		.byte	0x1
 1855 09ba 30000000 		.4byte	0x30
 1856 09be 00000000 		.4byte	.LFB63
 1857 09c2 0A000000 		.4byte	.LFE63
 1858 09c6 02       		.byte	0x2
 1859 09c7 7D       		.byte	0x7d
 1860 09c8 00       		.sleb128 0
 1861 09c9 F7090000 		.4byte	0x9f7
 1862 09cd 1C       		.uleb128 0x1c
 1863 09ce 697000   		.ascii	"ip\000"
 1864 09d1 01       		.byte	0x1
ARM GAS  /tmp/ccQ1YpDr.s 			page 34


 1865 09d2 3E       		.byte	0x3e
 1866 09d3 AE020000 		.4byte	0x2ae
 1867 09d7 F8000000 		.4byte	.LLST11
 1868 09db 1C       		.uleb128 0x1c
 1869 09dc 627000   		.ascii	"bp\000"
 1870 09df 01       		.byte	0x1
 1871 09e0 3E       		.byte	0x3e
 1872 09e1 6E050000 		.4byte	0x56e
 1873 09e5 18010000 		.4byte	.LLST12
 1874 09e9 1C       		.uleb128 0x1c
 1875 09ea 6E00     		.ascii	"n\000"
 1876 09ec 01       		.byte	0x1
 1877 09ed 3E       		.byte	0x3e
 1878 09ee 30000000 		.4byte	0x30
 1879 09f2 2B010000 		.4byte	.LLST13
 1880 09f6 00       		.byte	0
 1881 09f7 1B       		.uleb128 0x1b
 1882 09f8 46010000 		.4byte	.LASF103
 1883 09fc 01       		.byte	0x1
 1884 09fd 59       		.byte	0x59
 1885 09fe 01       		.byte	0x1
 1886 09ff EF000000 		.4byte	0xef
 1887 0a03 00000000 		.4byte	.LFB68
 1888 0a07 06000000 		.4byte	.LFE68
 1889 0a0b 02       		.byte	0x2
 1890 0a0c 7D       		.byte	0x7d
 1891 0a0d 00       		.sleb128 0
 1892 0a0e 300A0000 		.4byte	0xa30
 1893 0a12 1C       		.uleb128 0x1c
 1894 0a13 697000   		.ascii	"ip\000"
 1895 0a16 01       		.byte	0x1
 1896 0a17 59       		.byte	0x59
 1897 0a18 AE020000 		.4byte	0x2ae
 1898 0a1c 3E010000 		.4byte	.LLST14
 1899 0a20 1D       		.uleb128 0x1d
 1900 0a21 3E010000 		.4byte	.LASF107
 1901 0a25 01       		.byte	0x1
 1902 0a26 59       		.byte	0x59
 1903 0a27 10010000 		.4byte	0x110
 1904 0a2b 5E010000 		.4byte	.LLST15
 1905 0a2f 00       		.byte	0
 1906 0a30 1E       		.uleb128 0x1e
 1907 0a31 67657400 		.ascii	"get\000"
 1908 0a35 01       		.byte	0x1
 1909 0a36 4F       		.byte	0x4f
 1910 0a37 01       		.byte	0x1
 1911 0a38 EF000000 		.4byte	0xef
 1912 0a3c 00000000 		.4byte	.LFB66
 1913 0a40 0A000000 		.4byte	.LFE66
 1914 0a44 02       		.byte	0x2
 1915 0a45 7D       		.byte	0x7d
 1916 0a46 00       		.sleb128 0
 1917 0a47 5A0A0000 		.4byte	0xa5a
 1918 0a4b 1C       		.uleb128 0x1c
 1919 0a4c 697000   		.ascii	"ip\000"
 1920 0a4f 01       		.byte	0x1
 1921 0a50 4F       		.byte	0x4f
ARM GAS  /tmp/ccQ1YpDr.s 			page 35


 1922 0a51 AE020000 		.4byte	0x2ae
 1923 0a55 71010000 		.4byte	.LLST16
 1924 0a59 00       		.byte	0
 1925 0a5a 1B       		.uleb128 0x1b
 1926 0a5b F6010000 		.4byte	.LASF102
 1927 0a5f 01       		.byte	0x1
 1928 0a60 54       		.byte	0x54
 1929 0a61 01       		.byte	0x1
 1930 0a62 EF000000 		.4byte	0xef
 1931 0a66 00000000 		.4byte	.LFB67
 1932 0a6a 06000000 		.4byte	.LFE67
 1933 0a6e 02       		.byte	0x2
 1934 0a6f 7D       		.byte	0x7d
 1935 0a70 00       		.sleb128 0
 1936 0a71 A00A0000 		.4byte	0xaa0
 1937 0a75 1C       		.uleb128 0x1c
 1938 0a76 697000   		.ascii	"ip\000"
 1939 0a79 01       		.byte	0x1
 1940 0a7a 54       		.byte	0x54
 1941 0a7b AE020000 		.4byte	0x2ae
 1942 0a7f 91010000 		.4byte	.LLST17
 1943 0a83 1C       		.uleb128 0x1c
 1944 0a84 6200     		.ascii	"b\000"
 1945 0a86 01       		.byte	0x1
 1946 0a87 54       		.byte	0x54
 1947 0a88 49000000 		.4byte	0x49
 1948 0a8c B1010000 		.4byte	.LLST18
 1949 0a90 1D       		.uleb128 0x1d
 1950 0a91 3E010000 		.4byte	.LASF107
 1951 0a95 01       		.byte	0x1
 1952 0a96 54       		.byte	0x54
 1953 0a97 10010000 		.4byte	0x110
 1954 0a9b C4010000 		.4byte	.LLST19
 1955 0a9f 00       		.byte	0
 1956 0aa0 1E       		.uleb128 0x1e
 1957 0aa1 70757400 		.ascii	"put\000"
 1958 0aa5 01       		.byte	0x1
 1959 0aa6 4A       		.byte	0x4a
 1960 0aa7 01       		.byte	0x1
 1961 0aa8 EF000000 		.4byte	0xef
 1962 0aac 00000000 		.4byte	.LFB65
 1963 0ab0 0A000000 		.4byte	.LFE65
 1964 0ab4 02       		.byte	0x2
 1965 0ab5 7D       		.byte	0x7d
 1966 0ab6 00       		.sleb128 0
 1967 0ab7 D70A0000 		.4byte	0xad7
 1968 0abb 1C       		.uleb128 0x1c
 1969 0abc 697000   		.ascii	"ip\000"
 1970 0abf 01       		.byte	0x1
 1971 0ac0 4A       		.byte	0x4a
 1972 0ac1 AE020000 		.4byte	0x2ae
 1973 0ac5 D7010000 		.4byte	.LLST20
 1974 0ac9 1C       		.uleb128 0x1c
 1975 0aca 6200     		.ascii	"b\000"
 1976 0acc 01       		.byte	0x1
 1977 0acd 4A       		.byte	0x4a
 1978 0ace 49000000 		.4byte	0x49
ARM GAS  /tmp/ccQ1YpDr.s 			page 36


 1979 0ad2 F7010000 		.4byte	.LLST21
 1980 0ad6 00       		.byte	0
 1981 0ad7 1F       		.uleb128 0x1f
 1982 0ad8 01       		.byte	0x1
 1983 0ad9 96040000 		.4byte	.LASF119
 1984 0add 01       		.byte	0x1
 1985 0ade 78       		.byte	0x78
 1986 0adf 01       		.byte	0x1
 1987 0ae0 00000000 		.4byte	.LFB71
 1988 0ae4 04000000 		.4byte	.LFE71
 1989 0ae8 02       		.byte	0x2
 1990 0ae9 7D       		.byte	0x7d
 1991 0aea 00       		.sleb128 0
 1992 0aeb 20       		.uleb128 0x20
 1993 0aec 01       		.byte	0x1
 1994 0aed 47000000 		.4byte	.LASF110
 1995 0af1 01       		.byte	0x1
 1996 0af2 8C       		.byte	0x8c
 1997 0af3 01       		.byte	0x1
 1998 0af4 00000000 		.4byte	.LFB72
 1999 0af8 44000000 		.4byte	.LFE72
 2000 0afc 0A020000 		.4byte	.LLST22
 2001 0b00 320B0000 		.4byte	0xb32
 2002 0b04 1C       		.uleb128 0x1c
 2003 0b05 73647000 		.ascii	"sdp\000"
 2004 0b09 01       		.byte	0x1
 2005 0b0a 8C       		.byte	0x8c
 2006 0b0b 320B0000 		.4byte	0xb32
 2007 0b0f 36020000 		.4byte	.LLST23
 2008 0b13 1D       		.uleb128 0x1d
 2009 0b14 24010000 		.4byte	.LASF108
 2010 0b18 01       		.byte	0x1
 2011 0b19 8C       		.byte	0x8c
 2012 0b1a 15050000 		.4byte	0x515
 2013 0b1e 54020000 		.4byte	.LLST24
 2014 0b22 1D       		.uleb128 0x1d
 2015 0b23 73040000 		.4byte	.LASF109
 2016 0b27 01       		.byte	0x1
 2017 0b28 8C       		.byte	0x8c
 2018 0b29 15050000 		.4byte	0x515
 2019 0b2d 72020000 		.4byte	.LLST25
 2020 0b31 00       		.byte	0
 2021 0b32 09       		.uleb128 0x9
 2022 0b33 04       		.byte	0x4
 2023 0b34 55070000 		.4byte	0x755
 2024 0b38 20       		.uleb128 0x20
 2025 0b39 01       		.byte	0x1
 2026 0b3a 99030000 		.4byte	.LASF111
 2027 0b3e 01       		.byte	0x1
 2028 0b3f 9F       		.byte	0x9f
 2029 0b40 01       		.byte	0x1
 2030 0b41 00000000 		.4byte	.LFB73
 2031 0b45 1A000000 		.4byte	.LFE73
 2032 0b49 90020000 		.4byte	.LLST26
 2033 0b4d A20B0000 		.4byte	0xba2
 2034 0b51 1C       		.uleb128 0x1c
 2035 0b52 73647000 		.ascii	"sdp\000"
ARM GAS  /tmp/ccQ1YpDr.s 			page 37


 2036 0b56 01       		.byte	0x1
 2037 0b57 9F       		.byte	0x9f
 2038 0b58 320B0000 		.4byte	0xb32
 2039 0b5c B0020000 		.4byte	.LLST27
 2040 0b60 1D       		.uleb128 0x1d
 2041 0b61 92030000 		.4byte	.LASF112
 2042 0b65 01       		.byte	0x1
 2043 0b66 9F       		.byte	0x9f
 2044 0b67 A20B0000 		.4byte	0xba2
 2045 0b6b CE020000 		.4byte	.LLST28
 2046 0b6f 21       		.uleb128 0x21
 2047 0b70 00000000 		.4byte	.Ldebug_ranges0+0
 2048 0b74 880B0000 		.4byte	0xb88
 2049 0b78 22       		.uleb128 0x22
 2050 0b79 746D7000 		.ascii	"tmp\000"
 2051 0b7d 01       		.byte	0x1
 2052 0b7e A3       		.byte	0xa3
 2053 0b7f 86000000 		.4byte	0x86
 2054 0b83 E1020000 		.4byte	.LLST29
 2055 0b87 00       		.byte	0
 2056 0b88 23       		.uleb128 0x23
 2057 0b89 12000000 		.4byte	.LBB4
 2058 0b8d 18000000 		.4byte	.LBE4
 2059 0b91 22       		.uleb128 0x22
 2060 0b92 746D7000 		.ascii	"tmp\000"
 2061 0b96 01       		.byte	0x1
 2062 0b97 A9       		.byte	0xa9
 2063 0b98 86000000 		.4byte	0x86
 2064 0b9c F4020000 		.4byte	.LLST30
 2065 0ba0 00       		.byte	0
 2066 0ba1 00       		.byte	0
 2067 0ba2 09       		.uleb128 0x9
 2068 0ba3 04       		.byte	0x4
 2069 0ba4 A80B0000 		.4byte	0xba8
 2070 0ba8 10       		.uleb128 0x10
 2071 0ba9 1C080000 		.4byte	0x81c
 2072 0bad 20       		.uleb128 0x20
 2073 0bae 01       		.byte	0x1
 2074 0baf 2F020000 		.4byte	.LASF113
 2075 0bb3 01       		.byte	0x1
 2076 0bb4 B5       		.byte	0xb5
 2077 0bb5 01       		.byte	0x1
 2078 0bb6 00000000 		.4byte	.LFB74
 2079 0bba 2E000000 		.4byte	.LFE74
 2080 0bbe 07030000 		.4byte	.LLST31
 2081 0bc2 080C0000 		.4byte	0xc08
 2082 0bc6 1C       		.uleb128 0x1c
 2083 0bc7 73647000 		.ascii	"sdp\000"
 2084 0bcb 01       		.byte	0x1
 2085 0bcc B5       		.byte	0xb5
 2086 0bcd 320B0000 		.4byte	0xb32
 2087 0bd1 27030000 		.4byte	.LLST32
 2088 0bd5 21       		.uleb128 0x21
 2089 0bd6 18000000 		.4byte	.Ldebug_ranges0+0x18
 2090 0bda EE0B0000 		.4byte	0xbee
 2091 0bde 22       		.uleb128 0x22
 2092 0bdf 746D7000 		.ascii	"tmp\000"
ARM GAS  /tmp/ccQ1YpDr.s 			page 38


 2093 0be3 01       		.byte	0x1
 2094 0be4 B9       		.byte	0xb9
 2095 0be5 86000000 		.4byte	0x86
 2096 0be9 45030000 		.4byte	.LLST33
 2097 0bed 00       		.byte	0
 2098 0bee 23       		.uleb128 0x23
 2099 0bef 26000000 		.4byte	.LBB7
 2100 0bf3 2C000000 		.4byte	.LBE7
 2101 0bf7 22       		.uleb128 0x22
 2102 0bf8 746D7000 		.ascii	"tmp\000"
 2103 0bfc 01       		.byte	0x1
 2104 0bfd C2       		.byte	0xc2
 2105 0bfe 86000000 		.4byte	0x86
 2106 0c02 58030000 		.4byte	.LLST34
 2107 0c06 00       		.byte	0
 2108 0c07 00       		.byte	0
 2109 0c08 20       		.uleb128 0x20
 2110 0c09 01       		.byte	0x1
 2111 0c0a 82030000 		.4byte	.LASF114
 2112 0c0e 01       		.byte	0x1
 2113 0c0f D5       		.byte	0xd5
 2114 0c10 01       		.byte	0x1
 2115 0c11 00000000 		.4byte	.LFB75
 2116 0c15 3C000000 		.4byte	.LFE75
 2117 0c19 6B030000 		.4byte	.LLST35
 2118 0c1d 3E0C0000 		.4byte	0xc3e
 2119 0c21 1C       		.uleb128 0x1c
 2120 0c22 73647000 		.ascii	"sdp\000"
 2121 0c26 01       		.byte	0x1
 2122 0c27 D5       		.byte	0xd5
 2123 0c28 320B0000 		.4byte	0xb32
 2124 0c2c 8B030000 		.4byte	.LLST36
 2125 0c30 1C       		.uleb128 0x1c
 2126 0c31 6200     		.ascii	"b\000"
 2127 0c33 01       		.byte	0x1
 2128 0c34 D5       		.byte	0xd5
 2129 0c35 49000000 		.4byte	0x49
 2130 0c39 A9030000 		.4byte	.LLST37
 2131 0c3d 00       		.byte	0
 2132 0c3e 24       		.uleb128 0x24
 2133 0c3f 01       		.byte	0x1
 2134 0c40 42040000 		.4byte	.LASF120
 2135 0c44 01       		.byte	0x1
 2136 0c45 EF       		.byte	0xef
 2137 0c46 01       		.byte	0x1
 2138 0c47 EF000000 		.4byte	0xef
 2139 0c4b 00000000 		.4byte	.LFB76
 2140 0c4f 20000000 		.4byte	.LFE76
 2141 0c53 C7030000 		.4byte	.LLST38
 2142 0c57 780C0000 		.4byte	0xc78
 2143 0c5b 1C       		.uleb128 0x1c
 2144 0c5c 73647000 		.ascii	"sdp\000"
 2145 0c60 01       		.byte	0x1
 2146 0c61 EF       		.byte	0xef
 2147 0c62 320B0000 		.4byte	0xb32
 2148 0c66 E7030000 		.4byte	.LLST39
 2149 0c6a 22       		.uleb128 0x22
ARM GAS  /tmp/ccQ1YpDr.s 			page 39


 2150 0c6b 6200     		.ascii	"b\000"
 2151 0c6d 01       		.byte	0x1
 2152 0c6e F0       		.byte	0xf0
 2153 0c6f EF000000 		.4byte	0xef
 2154 0c73 05040000 		.4byte	.LLST40
 2155 0c77 00       		.byte	0
 2156 0c78 25       		.uleb128 0x25
 2157 0c79 3A000000 		.4byte	.LASF115
 2158 0c7d 0E       		.byte	0xe
 2159 0c7e 0706     		.2byte	0x607
 2160 0c80 BF050000 		.4byte	0x5bf
 2161 0c84 01       		.byte	0x1
 2162 0c85 01       		.byte	0x1
 2163 0c86 26       		.uleb128 0x26
 2164 0c87 766D7400 		.ascii	"vmt\000"
 2165 0c8b 01       		.byte	0x1
 2166 0c8c 68       		.byte	0x68
 2167 0c8d AA080000 		.4byte	0x8aa
 2168 0c91 05       		.byte	0x5
 2169 0c92 03       		.byte	0x3
 2170 0c93 00000000 		.4byte	vmt
 2171 0c97 25       		.uleb128 0x25
 2172 0c98 3A000000 		.4byte	.LASF115
 2173 0c9c 0E       		.byte	0xe
 2174 0c9d 0706     		.2byte	0x607
 2175 0c9f BF050000 		.4byte	0x5bf
 2176 0ca3 01       		.byte	0x1
 2177 0ca4 01       		.byte	0x1
 2178 0ca5 00       		.byte	0
 2179              		.section	.debug_abbrev,"",%progbits
 2180              	.Ldebug_abbrev0:
 2181 0000 01       		.uleb128 0x1
 2182 0001 11       		.uleb128 0x11
 2183 0002 01       		.byte	0x1
 2184 0003 25       		.uleb128 0x25
 2185 0004 0E       		.uleb128 0xe
 2186 0005 13       		.uleb128 0x13
 2187 0006 0B       		.uleb128 0xb
 2188 0007 03       		.uleb128 0x3
 2189 0008 0E       		.uleb128 0xe
 2190 0009 1B       		.uleb128 0x1b
 2191 000a 0E       		.uleb128 0xe
 2192 000b 11       		.uleb128 0x11
 2193 000c 01       		.uleb128 0x1
 2194 000d 52       		.uleb128 0x52
 2195 000e 01       		.uleb128 0x1
 2196 000f 55       		.uleb128 0x55
 2197 0010 06       		.uleb128 0x6
 2198 0011 10       		.uleb128 0x10
 2199 0012 06       		.uleb128 0x6
 2200 0013 00       		.byte	0
 2201 0014 00       		.byte	0
 2202 0015 02       		.uleb128 0x2
 2203 0016 24       		.uleb128 0x24
 2204 0017 00       		.byte	0
 2205 0018 0B       		.uleb128 0xb
 2206 0019 0B       		.uleb128 0xb
ARM GAS  /tmp/ccQ1YpDr.s 			page 40


 2207 001a 3E       		.uleb128 0x3e
 2208 001b 0B       		.uleb128 0xb
 2209 001c 03       		.uleb128 0x3
 2210 001d 08       		.uleb128 0x8
 2211 001e 00       		.byte	0
 2212 001f 00       		.byte	0
 2213 0020 03       		.uleb128 0x3
 2214 0021 16       		.uleb128 0x16
 2215 0022 00       		.byte	0
 2216 0023 03       		.uleb128 0x3
 2217 0024 0E       		.uleb128 0xe
 2218 0025 3A       		.uleb128 0x3a
 2219 0026 0B       		.uleb128 0xb
 2220 0027 3B       		.uleb128 0x3b
 2221 0028 0B       		.uleb128 0xb
 2222 0029 49       		.uleb128 0x49
 2223 002a 13       		.uleb128 0x13
 2224 002b 00       		.byte	0
 2225 002c 00       		.byte	0
 2226 002d 04       		.uleb128 0x4
 2227 002e 24       		.uleb128 0x24
 2228 002f 00       		.byte	0
 2229 0030 0B       		.uleb128 0xb
 2230 0031 0B       		.uleb128 0xb
 2231 0032 3E       		.uleb128 0x3e
 2232 0033 0B       		.uleb128 0xb
 2233 0034 03       		.uleb128 0x3
 2234 0035 0E       		.uleb128 0xe
 2235 0036 00       		.byte	0
 2236 0037 00       		.byte	0
 2237 0038 05       		.uleb128 0x5
 2238 0039 13       		.uleb128 0x13
 2239 003a 01       		.byte	0x1
 2240 003b 03       		.uleb128 0x3
 2241 003c 0E       		.uleb128 0xe
 2242 003d 0B       		.uleb128 0xb
 2243 003e 0B       		.uleb128 0xb
 2244 003f 3A       		.uleb128 0x3a
 2245 0040 0B       		.uleb128 0xb
 2246 0041 3B       		.uleb128 0x3b
 2247 0042 0B       		.uleb128 0xb
 2248 0043 01       		.uleb128 0x1
 2249 0044 13       		.uleb128 0x13
 2250 0045 00       		.byte	0
 2251 0046 00       		.byte	0
 2252 0047 06       		.uleb128 0x6
 2253 0048 0D       		.uleb128 0xd
 2254 0049 00       		.byte	0
 2255 004a 03       		.uleb128 0x3
 2256 004b 0E       		.uleb128 0xe
 2257 004c 3A       		.uleb128 0x3a
 2258 004d 0B       		.uleb128 0xb
 2259 004e 3B       		.uleb128 0x3b
 2260 004f 0B       		.uleb128 0xb
 2261 0050 49       		.uleb128 0x49
 2262 0051 13       		.uleb128 0x13
 2263 0052 38       		.uleb128 0x38
ARM GAS  /tmp/ccQ1YpDr.s 			page 41


 2264 0053 0A       		.uleb128 0xa
 2265 0054 00       		.byte	0
 2266 0055 00       		.byte	0
 2267 0056 07       		.uleb128 0x7
 2268 0057 0D       		.uleb128 0xd
 2269 0058 00       		.byte	0
 2270 0059 03       		.uleb128 0x3
 2271 005a 08       		.uleb128 0x8
 2272 005b 3A       		.uleb128 0x3a
 2273 005c 0B       		.uleb128 0xb
 2274 005d 3B       		.uleb128 0x3b
 2275 005e 0B       		.uleb128 0xb
 2276 005f 49       		.uleb128 0x49
 2277 0060 13       		.uleb128 0x13
 2278 0061 38       		.uleb128 0x38
 2279 0062 0A       		.uleb128 0xa
 2280 0063 00       		.byte	0
 2281 0064 00       		.byte	0
 2282 0065 08       		.uleb128 0x8
 2283 0066 13       		.uleb128 0x13
 2284 0067 01       		.byte	0x1
 2285 0068 0B       		.uleb128 0xb
 2286 0069 0B       		.uleb128 0xb
 2287 006a 3A       		.uleb128 0x3a
 2288 006b 0B       		.uleb128 0xb
 2289 006c 3B       		.uleb128 0x3b
 2290 006d 0B       		.uleb128 0xb
 2291 006e 01       		.uleb128 0x1
 2292 006f 13       		.uleb128 0x13
 2293 0070 00       		.byte	0
 2294 0071 00       		.byte	0
 2295 0072 09       		.uleb128 0x9
 2296 0073 0F       		.uleb128 0xf
 2297 0074 00       		.byte	0
 2298 0075 0B       		.uleb128 0xb
 2299 0076 0B       		.uleb128 0xb
 2300 0077 49       		.uleb128 0x49
 2301 0078 13       		.uleb128 0x13
 2302 0079 00       		.byte	0
 2303 007a 00       		.byte	0
 2304 007b 0A       		.uleb128 0xa
 2305 007c 0F       		.uleb128 0xf
 2306 007d 00       		.byte	0
 2307 007e 0B       		.uleb128 0xb
 2308 007f 0B       		.uleb128 0xb
 2309 0080 00       		.byte	0
 2310 0081 00       		.byte	0
 2311 0082 0B       		.uleb128 0xb
 2312 0083 13       		.uleb128 0x13
 2313 0084 01       		.byte	0x1
 2314 0085 03       		.uleb128 0x3
 2315 0086 0E       		.uleb128 0xe
 2316 0087 0B       		.uleb128 0xb
 2317 0088 0B       		.uleb128 0xb
 2318 0089 3A       		.uleb128 0x3a
 2319 008a 0B       		.uleb128 0xb
 2320 008b 3B       		.uleb128 0x3b
ARM GAS  /tmp/ccQ1YpDr.s 			page 42


 2321 008c 05       		.uleb128 0x5
 2322 008d 01       		.uleb128 0x1
 2323 008e 13       		.uleb128 0x13
 2324 008f 00       		.byte	0
 2325 0090 00       		.byte	0
 2326 0091 0C       		.uleb128 0xc
 2327 0092 0D       		.uleb128 0xd
 2328 0093 00       		.byte	0
 2329 0094 03       		.uleb128 0x3
 2330 0095 08       		.uleb128 0x8
 2331 0096 3A       		.uleb128 0x3a
 2332 0097 0B       		.uleb128 0xb
 2333 0098 3B       		.uleb128 0x3b
 2334 0099 05       		.uleb128 0x5
 2335 009a 49       		.uleb128 0x49
 2336 009b 13       		.uleb128 0x13
 2337 009c 38       		.uleb128 0x38
 2338 009d 0A       		.uleb128 0xa
 2339 009e 00       		.byte	0
 2340 009f 00       		.byte	0
 2341 00a0 0D       		.uleb128 0xd
 2342 00a1 35       		.uleb128 0x35
 2343 00a2 00       		.byte	0
 2344 00a3 49       		.uleb128 0x49
 2345 00a4 13       		.uleb128 0x13
 2346 00a5 00       		.byte	0
 2347 00a6 00       		.byte	0
 2348 00a7 0E       		.uleb128 0xe
 2349 00a8 17       		.uleb128 0x17
 2350 00a9 01       		.byte	0x1
 2351 00aa 0B       		.uleb128 0xb
 2352 00ab 0B       		.uleb128 0xb
 2353 00ac 3A       		.uleb128 0x3a
 2354 00ad 0B       		.uleb128 0xb
 2355 00ae 3B       		.uleb128 0x3b
 2356 00af 0B       		.uleb128 0xb
 2357 00b0 01       		.uleb128 0x1
 2358 00b1 13       		.uleb128 0x13
 2359 00b2 00       		.byte	0
 2360 00b3 00       		.byte	0
 2361 00b4 0F       		.uleb128 0xf
 2362 00b5 0D       		.uleb128 0xd
 2363 00b6 00       		.byte	0
 2364 00b7 03       		.uleb128 0x3
 2365 00b8 0E       		.uleb128 0xe
 2366 00b9 3A       		.uleb128 0x3a
 2367 00ba 0B       		.uleb128 0xb
 2368 00bb 3B       		.uleb128 0x3b
 2369 00bc 0B       		.uleb128 0xb
 2370 00bd 49       		.uleb128 0x49
 2371 00be 13       		.uleb128 0x13
 2372 00bf 00       		.byte	0
 2373 00c0 00       		.byte	0
 2374 00c1 10       		.uleb128 0x10
 2375 00c2 26       		.uleb128 0x26
 2376 00c3 00       		.byte	0
 2377 00c4 49       		.uleb128 0x49
ARM GAS  /tmp/ccQ1YpDr.s 			page 43


 2378 00c5 13       		.uleb128 0x13
 2379 00c6 00       		.byte	0
 2380 00c7 00       		.byte	0
 2381 00c8 11       		.uleb128 0x11
 2382 00c9 15       		.uleb128 0x15
 2383 00ca 01       		.byte	0x1
 2384 00cb 27       		.uleb128 0x27
 2385 00cc 0C       		.uleb128 0xc
 2386 00cd 49       		.uleb128 0x49
 2387 00ce 13       		.uleb128 0x13
 2388 00cf 01       		.uleb128 0x1
 2389 00d0 13       		.uleb128 0x13
 2390 00d1 00       		.byte	0
 2391 00d2 00       		.byte	0
 2392 00d3 12       		.uleb128 0x12
 2393 00d4 05       		.uleb128 0x5
 2394 00d5 00       		.byte	0
 2395 00d6 49       		.uleb128 0x49
 2396 00d7 13       		.uleb128 0x13
 2397 00d8 00       		.byte	0
 2398 00d9 00       		.byte	0
 2399 00da 13       		.uleb128 0x13
 2400 00db 15       		.uleb128 0x15
 2401 00dc 01       		.byte	0x1
 2402 00dd 27       		.uleb128 0x27
 2403 00de 0C       		.uleb128 0xc
 2404 00df 01       		.uleb128 0x1
 2405 00e0 13       		.uleb128 0x13
 2406 00e1 00       		.byte	0
 2407 00e2 00       		.byte	0
 2408 00e3 14       		.uleb128 0x14
 2409 00e4 13       		.uleb128 0x13
 2410 00e5 01       		.byte	0x1
 2411 00e6 0B       		.uleb128 0xb
 2412 00e7 0B       		.uleb128 0xb
 2413 00e8 3A       		.uleb128 0x3a
 2414 00e9 0B       		.uleb128 0xb
 2415 00ea 3B       		.uleb128 0x3b
 2416 00eb 05       		.uleb128 0x5
 2417 00ec 01       		.uleb128 0x1
 2418 00ed 13       		.uleb128 0x13
 2419 00ee 00       		.byte	0
 2420 00ef 00       		.byte	0
 2421 00f0 15       		.uleb128 0x15
 2422 00f1 0D       		.uleb128 0xd
 2423 00f2 00       		.byte	0
 2424 00f3 03       		.uleb128 0x3
 2425 00f4 0E       		.uleb128 0xe
 2426 00f5 3A       		.uleb128 0x3a
 2427 00f6 0B       		.uleb128 0xb
 2428 00f7 3B       		.uleb128 0x3b
 2429 00f8 05       		.uleb128 0x5
 2430 00f9 49       		.uleb128 0x49
 2431 00fa 13       		.uleb128 0x13
 2432 00fb 38       		.uleb128 0x38
 2433 00fc 0A       		.uleb128 0xa
 2434 00fd 00       		.byte	0
ARM GAS  /tmp/ccQ1YpDr.s 			page 44


 2435 00fe 00       		.byte	0
 2436 00ff 16       		.uleb128 0x16
 2437 0100 16       		.uleb128 0x16
 2438 0101 00       		.byte	0
 2439 0102 03       		.uleb128 0x3
 2440 0103 0E       		.uleb128 0xe
 2441 0104 3A       		.uleb128 0x3a
 2442 0105 0B       		.uleb128 0xb
 2443 0106 3B       		.uleb128 0x3b
 2444 0107 05       		.uleb128 0x5
 2445 0108 49       		.uleb128 0x49
 2446 0109 13       		.uleb128 0x13
 2447 010a 00       		.byte	0
 2448 010b 00       		.byte	0
 2449 010c 17       		.uleb128 0x17
 2450 010d 04       		.uleb128 0x4
 2451 010e 01       		.byte	0x1
 2452 010f 0B       		.uleb128 0xb
 2453 0110 0B       		.uleb128 0xb
 2454 0111 3A       		.uleb128 0x3a
 2455 0112 0B       		.uleb128 0xb
 2456 0113 3B       		.uleb128 0x3b
 2457 0114 0B       		.uleb128 0xb
 2458 0115 01       		.uleb128 0x1
 2459 0116 13       		.uleb128 0x13
 2460 0117 00       		.byte	0
 2461 0118 00       		.byte	0
 2462 0119 18       		.uleb128 0x18
 2463 011a 28       		.uleb128 0x28
 2464 011b 00       		.byte	0
 2465 011c 03       		.uleb128 0x3
 2466 011d 0E       		.uleb128 0xe
 2467 011e 1C       		.uleb128 0x1c
 2468 011f 0D       		.uleb128 0xd
 2469 0120 00       		.byte	0
 2470 0121 00       		.byte	0
 2471 0122 19       		.uleb128 0x19
 2472 0123 01       		.uleb128 0x1
 2473 0124 01       		.byte	0x1
 2474 0125 49       		.uleb128 0x49
 2475 0126 13       		.uleb128 0x13
 2476 0127 01       		.uleb128 0x1
 2477 0128 13       		.uleb128 0x13
 2478 0129 00       		.byte	0
 2479 012a 00       		.byte	0
 2480 012b 1A       		.uleb128 0x1a
 2481 012c 21       		.uleb128 0x21
 2482 012d 00       		.byte	0
 2483 012e 49       		.uleb128 0x49
 2484 012f 13       		.uleb128 0x13
 2485 0130 2F       		.uleb128 0x2f
 2486 0131 0B       		.uleb128 0xb
 2487 0132 00       		.byte	0
 2488 0133 00       		.byte	0
 2489 0134 1B       		.uleb128 0x1b
 2490 0135 2E       		.uleb128 0x2e
 2491 0136 01       		.byte	0x1
ARM GAS  /tmp/ccQ1YpDr.s 			page 45


 2492 0137 03       		.uleb128 0x3
 2493 0138 0E       		.uleb128 0xe
 2494 0139 3A       		.uleb128 0x3a
 2495 013a 0B       		.uleb128 0xb
 2496 013b 3B       		.uleb128 0x3b
 2497 013c 0B       		.uleb128 0xb
 2498 013d 27       		.uleb128 0x27
 2499 013e 0C       		.uleb128 0xc
 2500 013f 49       		.uleb128 0x49
 2501 0140 13       		.uleb128 0x13
 2502 0141 11       		.uleb128 0x11
 2503 0142 01       		.uleb128 0x1
 2504 0143 12       		.uleb128 0x12
 2505 0144 01       		.uleb128 0x1
 2506 0145 40       		.uleb128 0x40
 2507 0146 0A       		.uleb128 0xa
 2508 0147 01       		.uleb128 0x1
 2509 0148 13       		.uleb128 0x13
 2510 0149 00       		.byte	0
 2511 014a 00       		.byte	0
 2512 014b 1C       		.uleb128 0x1c
 2513 014c 05       		.uleb128 0x5
 2514 014d 00       		.byte	0
 2515 014e 03       		.uleb128 0x3
 2516 014f 08       		.uleb128 0x8
 2517 0150 3A       		.uleb128 0x3a
 2518 0151 0B       		.uleb128 0xb
 2519 0152 3B       		.uleb128 0x3b
 2520 0153 0B       		.uleb128 0xb
 2521 0154 49       		.uleb128 0x49
 2522 0155 13       		.uleb128 0x13
 2523 0156 02       		.uleb128 0x2
 2524 0157 06       		.uleb128 0x6
 2525 0158 00       		.byte	0
 2526 0159 00       		.byte	0
 2527 015a 1D       		.uleb128 0x1d
 2528 015b 05       		.uleb128 0x5
 2529 015c 00       		.byte	0
 2530 015d 03       		.uleb128 0x3
 2531 015e 0E       		.uleb128 0xe
 2532 015f 3A       		.uleb128 0x3a
 2533 0160 0B       		.uleb128 0xb
 2534 0161 3B       		.uleb128 0x3b
 2535 0162 0B       		.uleb128 0xb
 2536 0163 49       		.uleb128 0x49
 2537 0164 13       		.uleb128 0x13
 2538 0165 02       		.uleb128 0x2
 2539 0166 06       		.uleb128 0x6
 2540 0167 00       		.byte	0
 2541 0168 00       		.byte	0
 2542 0169 1E       		.uleb128 0x1e
 2543 016a 2E       		.uleb128 0x2e
 2544 016b 01       		.byte	0x1
 2545 016c 03       		.uleb128 0x3
 2546 016d 08       		.uleb128 0x8
 2547 016e 3A       		.uleb128 0x3a
 2548 016f 0B       		.uleb128 0xb
ARM GAS  /tmp/ccQ1YpDr.s 			page 46


 2549 0170 3B       		.uleb128 0x3b
 2550 0171 0B       		.uleb128 0xb
 2551 0172 27       		.uleb128 0x27
 2552 0173 0C       		.uleb128 0xc
 2553 0174 49       		.uleb128 0x49
 2554 0175 13       		.uleb128 0x13
 2555 0176 11       		.uleb128 0x11
 2556 0177 01       		.uleb128 0x1
 2557 0178 12       		.uleb128 0x12
 2558 0179 01       		.uleb128 0x1
 2559 017a 40       		.uleb128 0x40
 2560 017b 0A       		.uleb128 0xa
 2561 017c 01       		.uleb128 0x1
 2562 017d 13       		.uleb128 0x13
 2563 017e 00       		.byte	0
 2564 017f 00       		.byte	0
 2565 0180 1F       		.uleb128 0x1f
 2566 0181 2E       		.uleb128 0x2e
 2567 0182 00       		.byte	0
 2568 0183 3F       		.uleb128 0x3f
 2569 0184 0C       		.uleb128 0xc
 2570 0185 03       		.uleb128 0x3
 2571 0186 0E       		.uleb128 0xe
 2572 0187 3A       		.uleb128 0x3a
 2573 0188 0B       		.uleb128 0xb
 2574 0189 3B       		.uleb128 0x3b
 2575 018a 0B       		.uleb128 0xb
 2576 018b 27       		.uleb128 0x27
 2577 018c 0C       		.uleb128 0xc
 2578 018d 11       		.uleb128 0x11
 2579 018e 01       		.uleb128 0x1
 2580 018f 12       		.uleb128 0x12
 2581 0190 01       		.uleb128 0x1
 2582 0191 40       		.uleb128 0x40
 2583 0192 0A       		.uleb128 0xa
 2584 0193 00       		.byte	0
 2585 0194 00       		.byte	0
 2586 0195 20       		.uleb128 0x20
 2587 0196 2E       		.uleb128 0x2e
 2588 0197 01       		.byte	0x1
 2589 0198 3F       		.uleb128 0x3f
 2590 0199 0C       		.uleb128 0xc
 2591 019a 03       		.uleb128 0x3
 2592 019b 0E       		.uleb128 0xe
 2593 019c 3A       		.uleb128 0x3a
 2594 019d 0B       		.uleb128 0xb
 2595 019e 3B       		.uleb128 0x3b
 2596 019f 0B       		.uleb128 0xb
 2597 01a0 27       		.uleb128 0x27
 2598 01a1 0C       		.uleb128 0xc
 2599 01a2 11       		.uleb128 0x11
 2600 01a3 01       		.uleb128 0x1
 2601 01a4 12       		.uleb128 0x12
 2602 01a5 01       		.uleb128 0x1
 2603 01a6 40       		.uleb128 0x40
 2604 01a7 06       		.uleb128 0x6
 2605 01a8 01       		.uleb128 0x1
ARM GAS  /tmp/ccQ1YpDr.s 			page 47


 2606 01a9 13       		.uleb128 0x13
 2607 01aa 00       		.byte	0
 2608 01ab 00       		.byte	0
 2609 01ac 21       		.uleb128 0x21
 2610 01ad 0B       		.uleb128 0xb
 2611 01ae 01       		.byte	0x1
 2612 01af 55       		.uleb128 0x55
 2613 01b0 06       		.uleb128 0x6
 2614 01b1 01       		.uleb128 0x1
 2615 01b2 13       		.uleb128 0x13
 2616 01b3 00       		.byte	0
 2617 01b4 00       		.byte	0
 2618 01b5 22       		.uleb128 0x22
 2619 01b6 34       		.uleb128 0x34
 2620 01b7 00       		.byte	0
 2621 01b8 03       		.uleb128 0x3
 2622 01b9 08       		.uleb128 0x8
 2623 01ba 3A       		.uleb128 0x3a
 2624 01bb 0B       		.uleb128 0xb
 2625 01bc 3B       		.uleb128 0x3b
 2626 01bd 0B       		.uleb128 0xb
 2627 01be 49       		.uleb128 0x49
 2628 01bf 13       		.uleb128 0x13
 2629 01c0 02       		.uleb128 0x2
 2630 01c1 06       		.uleb128 0x6
 2631 01c2 00       		.byte	0
 2632 01c3 00       		.byte	0
 2633 01c4 23       		.uleb128 0x23
 2634 01c5 0B       		.uleb128 0xb
 2635 01c6 01       		.byte	0x1
 2636 01c7 11       		.uleb128 0x11
 2637 01c8 01       		.uleb128 0x1
 2638 01c9 12       		.uleb128 0x12
 2639 01ca 01       		.uleb128 0x1
 2640 01cb 00       		.byte	0
 2641 01cc 00       		.byte	0
 2642 01cd 24       		.uleb128 0x24
 2643 01ce 2E       		.uleb128 0x2e
 2644 01cf 01       		.byte	0x1
 2645 01d0 3F       		.uleb128 0x3f
 2646 01d1 0C       		.uleb128 0xc
 2647 01d2 03       		.uleb128 0x3
 2648 01d3 0E       		.uleb128 0xe
 2649 01d4 3A       		.uleb128 0x3a
 2650 01d5 0B       		.uleb128 0xb
 2651 01d6 3B       		.uleb128 0x3b
 2652 01d7 0B       		.uleb128 0xb
 2653 01d8 27       		.uleb128 0x27
 2654 01d9 0C       		.uleb128 0xc
 2655 01da 49       		.uleb128 0x49
 2656 01db 13       		.uleb128 0x13
 2657 01dc 11       		.uleb128 0x11
 2658 01dd 01       		.uleb128 0x1
 2659 01de 12       		.uleb128 0x12
 2660 01df 01       		.uleb128 0x1
 2661 01e0 40       		.uleb128 0x40
 2662 01e1 06       		.uleb128 0x6
ARM GAS  /tmp/ccQ1YpDr.s 			page 48


 2663 01e2 01       		.uleb128 0x1
 2664 01e3 13       		.uleb128 0x13
 2665 01e4 00       		.byte	0
 2666 01e5 00       		.byte	0
 2667 01e6 25       		.uleb128 0x25
 2668 01e7 34       		.uleb128 0x34
 2669 01e8 00       		.byte	0
 2670 01e9 03       		.uleb128 0x3
 2671 01ea 0E       		.uleb128 0xe
 2672 01eb 3A       		.uleb128 0x3a
 2673 01ec 0B       		.uleb128 0xb
 2674 01ed 3B       		.uleb128 0x3b
 2675 01ee 05       		.uleb128 0x5
 2676 01ef 49       		.uleb128 0x49
 2677 01f0 13       		.uleb128 0x13
 2678 01f1 3F       		.uleb128 0x3f
 2679 01f2 0C       		.uleb128 0xc
 2680 01f3 3C       		.uleb128 0x3c
 2681 01f4 0C       		.uleb128 0xc
 2682 01f5 00       		.byte	0
 2683 01f6 00       		.byte	0
 2684 01f7 26       		.uleb128 0x26
 2685 01f8 34       		.uleb128 0x34
 2686 01f9 00       		.byte	0
 2687 01fa 03       		.uleb128 0x3
 2688 01fb 08       		.uleb128 0x8
 2689 01fc 3A       		.uleb128 0x3a
 2690 01fd 0B       		.uleb128 0xb
 2691 01fe 3B       		.uleb128 0x3b
 2692 01ff 0B       		.uleb128 0xb
 2693 0200 49       		.uleb128 0x49
 2694 0201 13       		.uleb128 0x13
 2695 0202 02       		.uleb128 0x2
 2696 0203 0A       		.uleb128 0xa
 2697 0204 00       		.byte	0
 2698 0205 00       		.byte	0
 2699 0206 00       		.byte	0
 2700              		.section	.debug_loc,"",%progbits
 2701              	.Ldebug_loc0:
 2702              	.LLST0:
 2703 0000 00000000 		.4byte	.LVL0
 2704 0004 02000000 		.4byte	.LVL1
 2705 0008 0100     		.2byte	0x1
 2706 000a 50       		.byte	0x50
 2707 000b 02000000 		.4byte	.LVL1
 2708 000f 05000000 		.4byte	.LVL5-1
 2709 0013 0300     		.2byte	0x3
 2710 0015 70       		.byte	0x70
 2711 0016 74       		.sleb128 -12
 2712 0017 9F       		.byte	0x9f
 2713 0018 00000000 		.4byte	0
 2714 001c 00000000 		.4byte	0
 2715              	.LLST1:
 2716 0020 00000000 		.4byte	.LVL0
 2717 0024 05000000 		.4byte	.LVL4-1
 2718 0028 0100     		.2byte	0x1
 2719 002a 51       		.byte	0x51
ARM GAS  /tmp/ccQ1YpDr.s 			page 49


 2720 002b 00000000 		.4byte	0
 2721 002f 00000000 		.4byte	0
 2722              	.LLST2:
 2723 0033 00000000 		.4byte	.LVL0
 2724 0037 05000000 		.4byte	.LVL3-1
 2725 003b 0100     		.2byte	0x1
 2726 003d 52       		.byte	0x52
 2727 003e 00000000 		.4byte	0
 2728 0042 00000000 		.4byte	0
 2729              	.LLST3:
 2730 0046 00000000 		.4byte	.LVL0
 2731 004a 05000000 		.4byte	.LVL2-1
 2732 004e 0100     		.2byte	0x1
 2733 0050 53       		.byte	0x53
 2734 0051 00000000 		.4byte	0
 2735 0055 00000000 		.4byte	0
 2736              	.LLST4:
 2737 0059 00000000 		.4byte	.LVL6
 2738 005d 02000000 		.4byte	.LVL7
 2739 0061 0100     		.2byte	0x1
 2740 0063 50       		.byte	0x50
 2741 0064 02000000 		.4byte	.LVL7
 2742 0068 09000000 		.4byte	.LVL8-1
 2743 006c 0300     		.2byte	0x3
 2744 006e 70       		.byte	0x70
 2745 006f 74       		.sleb128 -12
 2746 0070 9F       		.byte	0x9f
 2747 0071 00000000 		.4byte	0
 2748 0075 00000000 		.4byte	0
 2749              	.LLST5:
 2750 0079 00000000 		.4byte	.LVL6
 2751 007d 09000000 		.4byte	.LVL10-1
 2752 0081 0100     		.2byte	0x1
 2753 0083 51       		.byte	0x51
 2754 0084 00000000 		.4byte	0
 2755 0088 00000000 		.4byte	0
 2756              	.LLST6:
 2757 008c 00000000 		.4byte	.LVL6
 2758 0090 09000000 		.4byte	.LVL9-1
 2759 0094 0100     		.2byte	0x1
 2760 0096 52       		.byte	0x52
 2761 0097 00000000 		.4byte	0
 2762 009b 00000000 		.4byte	0
 2763              	.LLST7:
 2764 009f 00000000 		.4byte	.LVL11
 2765 00a3 02000000 		.4byte	.LVL12
 2766 00a7 0100     		.2byte	0x1
 2767 00a9 50       		.byte	0x50
 2768 00aa 02000000 		.4byte	.LVL12
 2769 00ae 05000000 		.4byte	.LVL13-1
 2770 00b2 0300     		.2byte	0x3
 2771 00b4 70       		.byte	0x70
 2772 00b5 50       		.sleb128 -48
 2773 00b6 9F       		.byte	0x9f
 2774 00b7 00000000 		.4byte	0
 2775 00bb 00000000 		.4byte	0
 2776              	.LLST8:
ARM GAS  /tmp/ccQ1YpDr.s 			page 50


 2777 00bf 00000000 		.4byte	.LVL11
 2778 00c3 05000000 		.4byte	.LVL16-1
 2779 00c7 0100     		.2byte	0x1
 2780 00c9 51       		.byte	0x51
 2781 00ca 00000000 		.4byte	0
 2782 00ce 00000000 		.4byte	0
 2783              	.LLST9:
 2784 00d2 00000000 		.4byte	.LVL11
 2785 00d6 05000000 		.4byte	.LVL15-1
 2786 00da 0100     		.2byte	0x1
 2787 00dc 52       		.byte	0x52
 2788 00dd 00000000 		.4byte	0
 2789 00e1 00000000 		.4byte	0
 2790              	.LLST10:
 2791 00e5 00000000 		.4byte	.LVL11
 2792 00e9 05000000 		.4byte	.LVL14-1
 2793 00ed 0100     		.2byte	0x1
 2794 00ef 53       		.byte	0x53
 2795 00f0 00000000 		.4byte	0
 2796 00f4 00000000 		.4byte	0
 2797              	.LLST11:
 2798 00f8 00000000 		.4byte	.LVL17
 2799 00fc 02000000 		.4byte	.LVL18
 2800 0100 0100     		.2byte	0x1
 2801 0102 50       		.byte	0x50
 2802 0103 02000000 		.4byte	.LVL18
 2803 0107 09000000 		.4byte	.LVL21-1
 2804 010b 0300     		.2byte	0x3
 2805 010d 70       		.byte	0x70
 2806 010e 50       		.sleb128 -48
 2807 010f 9F       		.byte	0x9f
 2808 0110 00000000 		.4byte	0
 2809 0114 00000000 		.4byte	0
 2810              	.LLST12:
 2811 0118 00000000 		.4byte	.LVL17
 2812 011c 09000000 		.4byte	.LVL20-1
 2813 0120 0100     		.2byte	0x1
 2814 0122 51       		.byte	0x51
 2815 0123 00000000 		.4byte	0
 2816 0127 00000000 		.4byte	0
 2817              	.LLST13:
 2818 012b 00000000 		.4byte	.LVL17
 2819 012f 09000000 		.4byte	.LVL19-1
 2820 0133 0100     		.2byte	0x1
 2821 0135 52       		.byte	0x52
 2822 0136 00000000 		.4byte	0
 2823 013a 00000000 		.4byte	0
 2824              	.LLST14:
 2825 013e 00000000 		.4byte	.LVL22
 2826 0142 02000000 		.4byte	.LVL23
 2827 0146 0100     		.2byte	0x1
 2828 0148 50       		.byte	0x50
 2829 0149 02000000 		.4byte	.LVL23
 2830 014d 05000000 		.4byte	.LVL25-1
 2831 0151 0300     		.2byte	0x3
 2832 0153 70       		.byte	0x70
 2833 0154 74       		.sleb128 -12
ARM GAS  /tmp/ccQ1YpDr.s 			page 51


 2834 0155 9F       		.byte	0x9f
 2835 0156 00000000 		.4byte	0
 2836 015a 00000000 		.4byte	0
 2837              	.LLST15:
 2838 015e 00000000 		.4byte	.LVL22
 2839 0162 05000000 		.4byte	.LVL24-1
 2840 0166 0100     		.2byte	0x1
 2841 0168 51       		.byte	0x51
 2842 0169 00000000 		.4byte	0
 2843 016d 00000000 		.4byte	0
 2844              	.LLST16:
 2845 0171 00000000 		.4byte	.LVL26
 2846 0175 02000000 		.4byte	.LVL27
 2847 0179 0100     		.2byte	0x1
 2848 017b 50       		.byte	0x50
 2849 017c 02000000 		.4byte	.LVL27
 2850 0180 09000000 		.4byte	.LVL28-1
 2851 0184 0300     		.2byte	0x3
 2852 0186 70       		.byte	0x70
 2853 0187 74       		.sleb128 -12
 2854 0188 9F       		.byte	0x9f
 2855 0189 00000000 		.4byte	0
 2856 018d 00000000 		.4byte	0
 2857              	.LLST17:
 2858 0191 00000000 		.4byte	.LVL29
 2859 0195 02000000 		.4byte	.LVL30
 2860 0199 0100     		.2byte	0x1
 2861 019b 50       		.byte	0x50
 2862 019c 02000000 		.4byte	.LVL30
 2863 01a0 05000000 		.4byte	.LVL32-1
 2864 01a4 0300     		.2byte	0x3
 2865 01a6 70       		.byte	0x70
 2866 01a7 50       		.sleb128 -48
 2867 01a8 9F       		.byte	0x9f
 2868 01a9 00000000 		.4byte	0
 2869 01ad 00000000 		.4byte	0
 2870              	.LLST18:
 2871 01b1 00000000 		.4byte	.LVL29
 2872 01b5 05000000 		.4byte	.LVL31-1
 2873 01b9 0100     		.2byte	0x1
 2874 01bb 51       		.byte	0x51
 2875 01bc 00000000 		.4byte	0
 2876 01c0 00000000 		.4byte	0
 2877              	.LLST19:
 2878 01c4 00000000 		.4byte	.LVL29
 2879 01c8 05000000 		.4byte	.LVL33-1
 2880 01cc 0100     		.2byte	0x1
 2881 01ce 52       		.byte	0x52
 2882 01cf 00000000 		.4byte	0
 2883 01d3 00000000 		.4byte	0
 2884              	.LLST20:
 2885 01d7 00000000 		.4byte	.LVL34
 2886 01db 02000000 		.4byte	.LVL35
 2887 01df 0100     		.2byte	0x1
 2888 01e1 50       		.byte	0x50
 2889 01e2 02000000 		.4byte	.LVL35
 2890 01e6 09000000 		.4byte	.LVL37-1
ARM GAS  /tmp/ccQ1YpDr.s 			page 52


 2891 01ea 0300     		.2byte	0x3
 2892 01ec 70       		.byte	0x70
 2893 01ed 50       		.sleb128 -48
 2894 01ee 9F       		.byte	0x9f
 2895 01ef 00000000 		.4byte	0
 2896 01f3 00000000 		.4byte	0
 2897              	.LLST21:
 2898 01f7 00000000 		.4byte	.LVL34
 2899 01fb 09000000 		.4byte	.LVL36-1
 2900 01ff 0100     		.2byte	0x1
 2901 0201 51       		.byte	0x51
 2902 0202 00000000 		.4byte	0
 2903 0206 00000000 		.4byte	0
 2904              	.LLST22:
 2905 020a 00000000 		.4byte	.LFB72
 2906 020e 02000000 		.4byte	.LCFI0
 2907 0212 0200     		.2byte	0x2
 2908 0214 7D       		.byte	0x7d
 2909 0215 00       		.sleb128 0
 2910 0216 02000000 		.4byte	.LCFI0
 2911 021a 1A000000 		.4byte	.LCFI1
 2912 021e 0200     		.2byte	0x2
 2913 0220 7D       		.byte	0x7d
 2914 0221 10       		.sleb128 16
 2915 0222 1A000000 		.4byte	.LCFI1
 2916 0226 44000000 		.4byte	.LFE72
 2917 022a 0200     		.2byte	0x2
 2918 022c 7D       		.byte	0x7d
 2919 022d 18       		.sleb128 24
 2920 022e 00000000 		.4byte	0
 2921 0232 00000000 		.4byte	0
 2922              	.LLST23:
 2923 0236 00000000 		.4byte	.LVL38
 2924 023a 28000000 		.4byte	.LVL41
 2925 023e 0100     		.2byte	0x1
 2926 0240 50       		.byte	0x50
 2927 0241 28000000 		.4byte	.LVL41
 2928 0245 44000000 		.4byte	.LFE72
 2929 0249 0100     		.2byte	0x1
 2930 024b 54       		.byte	0x54
 2931 024c 00000000 		.4byte	0
 2932 0250 00000000 		.4byte	0
 2933              	.LLST24:
 2934 0254 00000000 		.4byte	.LVL38
 2935 0258 08000000 		.4byte	.LVL39
 2936 025c 0100     		.2byte	0x1
 2937 025e 51       		.byte	0x51
 2938 025f 08000000 		.4byte	.LVL39
 2939 0263 2D000000 		.4byte	.LVL42-1
 2940 0267 0100     		.2byte	0x1
 2941 0269 53       		.byte	0x53
 2942 026a 00000000 		.4byte	0
 2943 026e 00000000 		.4byte	0
 2944              	.LLST25:
 2945 0272 00000000 		.4byte	.LVL38
 2946 0276 22000000 		.4byte	.LVL40
 2947 027a 0100     		.2byte	0x1
ARM GAS  /tmp/ccQ1YpDr.s 			page 53


 2948 027c 52       		.byte	0x52
 2949 027d 22000000 		.4byte	.LVL40
 2950 0281 44000000 		.4byte	.LFE72
 2951 0285 0100     		.2byte	0x1
 2952 0287 55       		.byte	0x55
 2953 0288 00000000 		.4byte	0
 2954 028c 00000000 		.4byte	0
 2955              	.LLST26:
 2956 0290 00000000 		.4byte	.LFB73
 2957 0294 02000000 		.4byte	.LCFI2
 2958 0298 0200     		.2byte	0x2
 2959 029a 7D       		.byte	0x7d
 2960 029b 00       		.sleb128 0
 2961 029c 02000000 		.4byte	.LCFI2
 2962 02a0 1A000000 		.4byte	.LFE73
 2963 02a4 0200     		.2byte	0x2
 2964 02a6 7D       		.byte	0x7d
 2965 02a7 08       		.sleb128 8
 2966 02a8 00000000 		.4byte	0
 2967 02ac 00000000 		.4byte	0
 2968              	.LLST27:
 2969 02b0 00000000 		.4byte	.LVL43
 2970 02b4 0D000000 		.4byte	.LVL46-1
 2971 02b8 0100     		.2byte	0x1
 2972 02ba 50       		.byte	0x50
 2973 02bb 0D000000 		.4byte	.LVL46-1
 2974 02bf 1A000000 		.4byte	.LFE73
 2975 02c3 0100     		.2byte	0x1
 2976 02c5 54       		.byte	0x54
 2977 02c6 00000000 		.4byte	0
 2978 02ca 00000000 		.4byte	0
 2979              	.LLST28:
 2980 02ce 00000000 		.4byte	.LVL43
 2981 02d2 0D000000 		.4byte	.LVL46-1
 2982 02d6 0100     		.2byte	0x1
 2983 02d8 51       		.byte	0x51
 2984 02d9 00000000 		.4byte	0
 2985 02dd 00000000 		.4byte	0
 2986              	.LLST29:
 2987 02e1 0A000000 		.4byte	.LVL45
 2988 02e5 0D000000 		.4byte	.LVL46-1
 2989 02e9 0100     		.2byte	0x1
 2990 02eb 53       		.byte	0x53
 2991 02ec 00000000 		.4byte	0
 2992 02f0 00000000 		.4byte	0
 2993              	.LLST30:
 2994 02f4 18000000 		.4byte	.LVL48
 2995 02f8 1A000000 		.4byte	.LFE73
 2996 02fc 0100     		.2byte	0x1
 2997 02fe 53       		.byte	0x53
 2998 02ff 00000000 		.4byte	0
 2999 0303 00000000 		.4byte	0
 3000              	.LLST31:
 3001 0307 00000000 		.4byte	.LFB74
 3002 030b 02000000 		.4byte	.LCFI3
 3003 030f 0200     		.2byte	0x2
 3004 0311 7D       		.byte	0x7d
ARM GAS  /tmp/ccQ1YpDr.s 			page 54


 3005 0312 00       		.sleb128 0
 3006 0313 02000000 		.4byte	.LCFI3
 3007 0317 2E000000 		.4byte	.LFE74
 3008 031b 0200     		.2byte	0x2
 3009 031d 7D       		.byte	0x7d
 3010 031e 08       		.sleb128 8
 3011 031f 00000000 		.4byte	0
 3012 0323 00000000 		.4byte	0
 3013              	.LLST32:
 3014 0327 00000000 		.4byte	.LVL49
 3015 032b 0D000000 		.4byte	.LVL52-1
 3016 032f 0100     		.2byte	0x1
 3017 0331 50       		.byte	0x50
 3018 0332 0D000000 		.4byte	.LVL52-1
 3019 0336 2E000000 		.4byte	.LFE74
 3020 033a 0100     		.2byte	0x1
 3021 033c 54       		.byte	0x54
 3022 033d 00000000 		.4byte	0
 3023 0341 00000000 		.4byte	0
 3024              	.LLST33:
 3025 0345 0A000000 		.4byte	.LVL51
 3026 0349 0D000000 		.4byte	.LVL52-1
 3027 034d 0100     		.2byte	0x1
 3028 034f 53       		.byte	0x53
 3029 0350 00000000 		.4byte	0
 3030 0354 00000000 		.4byte	0
 3031              	.LLST34:
 3032 0358 2C000000 		.4byte	.LVL54
 3033 035c 2E000000 		.4byte	.LFE74
 3034 0360 0100     		.2byte	0x1
 3035 0362 53       		.byte	0x53
 3036 0363 00000000 		.4byte	0
 3037 0367 00000000 		.4byte	0
 3038              	.LLST35:
 3039 036b 00000000 		.4byte	.LFB75
 3040 036f 02000000 		.4byte	.LCFI4
 3041 0373 0200     		.2byte	0x2
 3042 0375 7D       		.byte	0x7d
 3043 0376 00       		.sleb128 0
 3044 0377 02000000 		.4byte	.LCFI4
 3045 037b 3C000000 		.4byte	.LFE75
 3046 037f 0200     		.2byte	0x2
 3047 0381 7D       		.byte	0x7d
 3048 0382 10       		.sleb128 16
 3049 0383 00000000 		.4byte	0
 3050 0387 00000000 		.4byte	0
 3051              	.LLST36:
 3052 038b 00000000 		.4byte	.LVL55
 3053 038f 0E000000 		.4byte	.LVL56
 3054 0393 0100     		.2byte	0x1
 3055 0395 50       		.byte	0x50
 3056 0396 0E000000 		.4byte	.LVL56
 3057 039a 3C000000 		.4byte	.LFE75
 3058 039e 0100     		.2byte	0x1
 3059 03a0 54       		.byte	0x54
 3060 03a1 00000000 		.4byte	0
 3061 03a5 00000000 		.4byte	0
ARM GAS  /tmp/ccQ1YpDr.s 			page 55


 3062              	.LLST37:
 3063 03a9 00000000 		.4byte	.LVL55
 3064 03ad 10000000 		.4byte	.LVL57
 3065 03b1 0100     		.2byte	0x1
 3066 03b3 51       		.byte	0x51
 3067 03b4 1A000000 		.4byte	.LVL58
 3068 03b8 1E000000 		.4byte	.LVL59
 3069 03bc 0100     		.2byte	0x1
 3070 03be 51       		.byte	0x51
 3071 03bf 00000000 		.4byte	0
 3072 03c3 00000000 		.4byte	0
 3073              	.LLST38:
 3074 03c7 00000000 		.4byte	.LFB76
 3075 03cb 02000000 		.4byte	.LCFI5
 3076 03cf 0200     		.2byte	0x2
 3077 03d1 7D       		.byte	0x7d
 3078 03d2 00       		.sleb128 0
 3079 03d3 02000000 		.4byte	.LCFI5
 3080 03d7 20000000 		.4byte	.LFE76
 3081 03db 0200     		.2byte	0x2
 3082 03dd 7D       		.byte	0x7d
 3083 03de 10       		.sleb128 16
 3084 03df 00000000 		.4byte	0
 3085 03e3 00000000 		.4byte	0
 3086              	.LLST39:
 3087 03e7 00000000 		.4byte	.LVL60
 3088 03eb 08000000 		.4byte	.LVL61
 3089 03ef 0100     		.2byte	0x1
 3090 03f1 50       		.byte	0x50
 3091 03f2 08000000 		.4byte	.LVL61
 3092 03f6 20000000 		.4byte	.LFE76
 3093 03fa 0100     		.2byte	0x1
 3094 03fc 55       		.byte	0x55
 3095 03fd 00000000 		.4byte	0
 3096 0401 00000000 		.4byte	0
 3097              	.LLST40:
 3098 0405 0C000000 		.4byte	.LVL62
 3099 0409 16000000 		.4byte	.LVL63
 3100 040d 0100     		.2byte	0x1
 3101 040f 50       		.byte	0x50
 3102 0410 16000000 		.4byte	.LVL63
 3103 0414 20000000 		.4byte	.LFE76
 3104 0418 0100     		.2byte	0x1
 3105 041a 54       		.byte	0x54
 3106 041b 00000000 		.4byte	0
 3107 041f 00000000 		.4byte	0
 3108              		.section	.debug_aranges,"",%progbits
 3109 0000 84000000 		.4byte	0x84
 3110 0004 0200     		.2byte	0x2
 3111 0006 00000000 		.4byte	.Ldebug_info0
 3112 000a 04       		.byte	0x4
 3113 000b 00       		.byte	0
 3114 000c 0000     		.2byte	0
 3115 000e 0000     		.2byte	0
 3116 0010 00000000 		.4byte	.LFB70
 3117 0014 06000000 		.4byte	.LFE70-.LFB70
 3118 0018 00000000 		.4byte	.LFB64
ARM GAS  /tmp/ccQ1YpDr.s 			page 56


 3119 001c 0A000000 		.4byte	.LFE64-.LFB64
 3120 0020 00000000 		.4byte	.LFB69
 3121 0024 06000000 		.4byte	.LFE69-.LFB69
 3122 0028 00000000 		.4byte	.LFB63
 3123 002c 0A000000 		.4byte	.LFE63-.LFB63
 3124 0030 00000000 		.4byte	.LFB68
 3125 0034 06000000 		.4byte	.LFE68-.LFB68
 3126 0038 00000000 		.4byte	.LFB66
 3127 003c 0A000000 		.4byte	.LFE66-.LFB66
 3128 0040 00000000 		.4byte	.LFB67
 3129 0044 06000000 		.4byte	.LFE67-.LFB67
 3130 0048 00000000 		.4byte	.LFB65
 3131 004c 0A000000 		.4byte	.LFE65-.LFB65
 3132 0050 00000000 		.4byte	.LFB71
 3133 0054 04000000 		.4byte	.LFE71-.LFB71
 3134 0058 00000000 		.4byte	.LFB72
 3135 005c 44000000 		.4byte	.LFE72-.LFB72
 3136 0060 00000000 		.4byte	.LFB73
 3137 0064 1A000000 		.4byte	.LFE73-.LFB73
 3138 0068 00000000 		.4byte	.LFB74
 3139 006c 2E000000 		.4byte	.LFE74-.LFB74
 3140 0070 00000000 		.4byte	.LFB75
 3141 0074 3C000000 		.4byte	.LFE75-.LFB75
 3142 0078 00000000 		.4byte	.LFB76
 3143 007c 20000000 		.4byte	.LFE76-.LFB76
 3144 0080 00000000 		.4byte	0
 3145 0084 00000000 		.4byte	0
 3146              		.section	.debug_ranges,"",%progbits
 3147              	.Ldebug_ranges0:
 3148 0000 02000000 		.4byte	.LBB2
 3149 0004 04000000 		.4byte	.LBE2
 3150 0008 06000000 		.4byte	.LBB3
 3151 000c 0A000000 		.4byte	.LBE3
 3152 0010 00000000 		.4byte	0
 3153 0014 00000000 		.4byte	0
 3154 0018 02000000 		.4byte	.LBB5
 3155 001c 04000000 		.4byte	.LBE5
 3156 0020 06000000 		.4byte	.LBB6
 3157 0024 0A000000 		.4byte	.LBE6
 3158 0028 00000000 		.4byte	0
 3159 002c 00000000 		.4byte	0
 3160 0030 00000000 		.4byte	.LFB70
 3161 0034 06000000 		.4byte	.LFE70
 3162 0038 00000000 		.4byte	.LFB64
 3163 003c 0A000000 		.4byte	.LFE64
 3164 0040 00000000 		.4byte	.LFB69
 3165 0044 06000000 		.4byte	.LFE69
 3166 0048 00000000 		.4byte	.LFB63
 3167 004c 0A000000 		.4byte	.LFE63
 3168 0050 00000000 		.4byte	.LFB68
 3169 0054 06000000 		.4byte	.LFE68
 3170 0058 00000000 		.4byte	.LFB66
 3171 005c 0A000000 		.4byte	.LFE66
 3172 0060 00000000 		.4byte	.LFB67
 3173 0064 06000000 		.4byte	.LFE67
 3174 0068 00000000 		.4byte	.LFB65
 3175 006c 0A000000 		.4byte	.LFE65
ARM GAS  /tmp/ccQ1YpDr.s 			page 57


 3176 0070 00000000 		.4byte	.LFB71
 3177 0074 04000000 		.4byte	.LFE71
 3178 0078 00000000 		.4byte	.LFB72
 3179 007c 44000000 		.4byte	.LFE72
 3180 0080 00000000 		.4byte	.LFB73
 3181 0084 1A000000 		.4byte	.LFE73
 3182 0088 00000000 		.4byte	.LFB74
 3183 008c 2E000000 		.4byte	.LFE74
 3184 0090 00000000 		.4byte	.LFB75
 3185 0094 3C000000 		.4byte	.LFE75
 3186 0098 00000000 		.4byte	.LFB76
 3187 009c 20000000 		.4byte	.LFE76
 3188 00a0 00000000 		.4byte	0
 3189 00a4 00000000 		.4byte	0
 3190              		.section	.debug_line,"",%progbits
 3191              	.Ldebug_line0:
 3192 0000 5E030000 		.section	.debug_str,"MS",%progbits,1
 3192      02003302 
 3192      00000201 
 3192      FB0E0D00 
 3192      01010101 
 3193              	.LASF2:
 3194 0000 73697A65 		.ascii	"size_t\000"
 3194      5F7400
 3195              	.LASF61:
 3196 0007 7264796D 		.ascii	"rdymsg\000"
 3196      736700
 3197              	.LASF77:
 3198 000e 4F757470 		.ascii	"OutputQueue\000"
 3198      75745175 
 3198      65756500 
 3199              	.LASF13:
 3200 001a 6C6F6E67 		.ascii	"long long unsigned int\000"
 3200      206C6F6E 
 3200      6720756E 
 3200      7369676E 
 3200      65642069 
 3201              	.LASF62:
 3202 0031 65786974 		.ascii	"exitcode\000"
 3202      636F6465 
 3202      00
 3203              	.LASF115:
 3204 003a 49544D5F 		.ascii	"ITM_RxBuffer\000"
 3204      52784275 
 3204      66666572 
 3204      00
 3205              	.LASF110:
 3206 0047 73644F62 		.ascii	"sdObjectInit\000"
 3206      6A656374 
 3206      496E6974 
 3206      00
 3207              	.LASF105:
 3208 0054 72656164 		.ascii	"readt\000"
 3208      7400
 3209              	.LASF67:
 3210 005a 715F7761 		.ascii	"q_waiting\000"
 3210      6974696E 
ARM GAS  /tmp/ccQ1YpDr.s 			page 58


 3210      6700
 3211              	.LASF12:
 3212 0064 6C6F6E67 		.ascii	"long long int\000"
 3212      206C6F6E 
 3212      6720696E 
 3212      7400
 3213              	.LASF1:
 3214 0072 7369676E 		.ascii	"signed char\000"
 3214      65642063 
 3214      68617200 
 3215              	.LASF84:
 3216 007e 47545052 		.ascii	"GTPR\000"
 3216      00
 3217              	.LASF44:
 3218 0083 705F6D70 		.ascii	"p_mpool\000"
 3218      6F6F6C00 
 3219              	.LASF14:
 3220 008b 626F6F6C 		.ascii	"bool_t\000"
 3220      5F7400
 3221              	.LASF51:
 3222 0092 6D5F7175 		.ascii	"m_queue\000"
 3222      65756500 
 3223              	.LASF19:
 3224 009a 74736C69 		.ascii	"tslices_t\000"
 3224      6365735F 
 3224      7400
 3225              	.LASF93:
 3226 00a4 73746174 		.ascii	"state\000"
 3226      6500
 3227              	.LASF9:
 3228 00aa 6C6F6E67 		.ascii	"long int\000"
 3228      20696E74 
 3228      00
 3229              	.LASF17:
 3230 00b3 74737461 		.ascii	"tstate_t\000"
 3230      74655F74 
 3230      00
 3231              	.LASF35:
 3232 00bc 705F7265 		.ascii	"p_refs\000"
 3232      667300
 3233              	.LASF69:
 3234 00c3 715F6275 		.ascii	"q_buffer\000"
 3234      66666572 
 3234      00
 3235              	.LASF71:
 3236 00cc 715F7772 		.ascii	"q_wrptr\000"
 3236      70747200 
 3237              	.LASF37:
 3238 00d4 705F7469 		.ascii	"p_time\000"
 3238      6D6500
 3239              	.LASF30:
 3240 00db 705F6E65 		.ascii	"p_newer\000"
 3240      77657200 
 3241              	.LASF47:
 3242 00e3 72656761 		.ascii	"regarm_t\000"
 3242      726D5F74 
 3242      00
ARM GAS  /tmp/ccQ1YpDr.s 			page 59


 3243              	.LASF59:
 3244 00ec 4576656E 		.ascii	"EventSource\000"
 3244      74536F75 
 3244      72636500 
 3245              	.LASF96:
 3246 00f8 75736172 		.ascii	"usart\000"
 3246      7400
 3247              	.LASF0:
 3248 00fe 756E7369 		.ascii	"unsigned int\000"
 3248      676E6564 
 3248      20696E74 
 3248      00
 3249              	.LASF6:
 3250 010b 75696E74 		.ascii	"uint16_t\000"
 3250      31365F74 
 3250      00
 3251              	.LASF99:
 3252 0114 53657269 		.ascii	"SerialDriverVMT\000"
 3252      616C4472 
 3252      69766572 
 3252      564D5400 
 3253              	.LASF108:
 3254 0124 696E6F74 		.ascii	"inotify\000"
 3254      69667900 
 3255              	.LASF94:
 3256 012c 69717565 		.ascii	"iqueue\000"
 3256      756500
 3257              	.LASF39:
 3258 0133 705F6D73 		.ascii	"p_msgqueue\000"
 3258      67717565 
 3258      756500
 3259              	.LASF107:
 3260 013e 74696D65 		.ascii	"timeout\000"
 3260      6F757400 
 3261              	.LASF103:
 3262 0146 67657474 		.ascii	"gett\000"
 3262      00
 3263              	.LASF92:
 3264 014b 6576656E 		.ascii	"event\000"
 3264      7400
 3265              	.LASF7:
 3266 0151 73686F72 		.ascii	"short unsigned int\000"
 3266      7420756E 
 3266      7369676E 
 3266      65642069 
 3266      6E7400
 3267              	.LASF116:
 3268 0164 474E5520 		.ascii	"GNU C 4.6.2 20110908 (prerelease)\000"
 3268      4320342E 
 3268      362E3220 
 3268      32303131 
 3268      30393038 
 3269              	.LASF21:
 3270 0186 6D73675F 		.ascii	"msg_t\000"
 3270      7400
 3271              	.LASF95:
 3272 018c 6F717565 		.ascii	"oqueue\000"
ARM GAS  /tmp/ccQ1YpDr.s 			page 60


 3272      756500
 3273              	.LASF86:
 3274 0193 55534152 		.ascii	"USART_TypeDef\000"
 3274      545F5479 
 3274      70654465 
 3274      6600
 3275              	.LASF104:
 3276 01a1 77726974 		.ascii	"writet\000"
 3276      657400
 3277              	.LASF16:
 3278 01a8 746D6F64 		.ascii	"tmode_t\000"
 3278      655F7400 
 3279              	.LASF46:
 3280 01b0 54687265 		.ascii	"ThreadsList\000"
 3280      6164734C 
 3280      69737400 
 3281              	.LASF22:
 3282 01bc 6576656E 		.ascii	"eventmask_t\000"
 3282      746D6173 
 3282      6B5F7400 
 3283              	.LASF76:
 3284 01c8 496E7075 		.ascii	"InputQueue\000"
 3284      74517565 
 3284      756500
 3285              	.LASF97:
 3286 01d3 73706565 		.ascii	"speed\000"
 3286      6400
 3287              	.LASF75:
 3288 01d9 716E6F74 		.ascii	"qnotify_t\000"
 3288      6966795F 
 3288      7400
 3289              	.LASF66:
 3290 01e3 47656E65 		.ascii	"GenericQueue\000"
 3290      72696351 
 3290      75657565 
 3290      00
 3291              	.LASF100:
 3292 01f0 77726974 		.ascii	"write\000"
 3292      6500
 3293              	.LASF102:
 3294 01f6 70757474 		.ascii	"putt\000"
 3294      00
 3295              	.LASF68:
 3296 01fb 715F636F 		.ascii	"q_counter\000"
 3296      756E7465 
 3296      7200
 3297              	.LASF50:
 3298 0205 4D757465 		.ascii	"Mutex\000"
 3298      7800
 3299              	.LASF28:
 3300 020b 705F7072 		.ascii	"p_prio\000"
 3300      696F00
 3301              	.LASF57:
 3302 0212 656C5F6D 		.ascii	"el_mask\000"
 3302      61736B00 
 3303              	.LASF31:
 3304 021a 705F6F6C 		.ascii	"p_older\000"
ARM GAS  /tmp/ccQ1YpDr.s 			page 61


 3304      64657200 
 3305              	.LASF45:
 3306 0222 54687265 		.ascii	"ThreadsQueue\000"
 3306      61647351 
 3306      75657565 
 3306      00
 3307              	.LASF113:
 3308 022f 73645374 		.ascii	"sdStop\000"
 3308      6F7000
 3309              	.LASF106:
 3310 0236 74696D65 		.ascii	"time\000"
 3310      00
 3311              	.LASF98:
 3312 023b 53657269 		.ascii	"SerialConfig\000"
 3312      616C436F 
 3312      6E666967 
 3312      00
 3313              	.LASF18:
 3314 0248 74726566 		.ascii	"trefs_t\000"
 3314      735F7400 
 3315              	.LASF78:
 3316 0250 52455345 		.ascii	"RESERVED0\000"
 3316      52564544 
 3316      3000
 3317              	.LASF79:
 3318 025a 52455345 		.ascii	"RESERVED1\000"
 3318      52564544 
 3318      3100
 3319              	.LASF80:
 3320 0264 52455345 		.ascii	"RESERVED2\000"
 3320      52564544 
 3320      3200
 3321              	.LASF81:
 3322 026e 52455345 		.ascii	"RESERVED3\000"
 3322      52564544 
 3322      3300
 3323              	.LASF82:
 3324 0278 52455345 		.ascii	"RESERVED4\000"
 3324      52564544 
 3324      3400
 3325              	.LASF27:
 3326 0282 705F7072 		.ascii	"p_prev\000"
 3326      657600
 3327              	.LASF85:
 3328 0289 52455345 		.ascii	"RESERVED6\000"
 3328      52564544 
 3328      3600
 3329              	.LASF20:
 3330 0293 74707269 		.ascii	"tprio_t\000"
 3330      6F5F7400 
 3331              	.LASF72:
 3332 029b 715F7264 		.ascii	"q_rdptr\000"
 3332      70747200 
 3333              	.LASF15:
 3334 02a3 5F426F6F 		.ascii	"_Bool\000"
 3334      6C00
 3335              	.LASF8:
ARM GAS  /tmp/ccQ1YpDr.s 			page 62


 3336 02a9 696E7433 		.ascii	"int32_t\000"
 3336      325F7400 
 3337              	.LASF4:
 3338 02b1 756E7369 		.ascii	"unsigned char\000"
 3338      676E6564 
 3338      20636861 
 3338      7200
 3339              	.LASF56:
 3340 02bf 656C5F6C 		.ascii	"el_listener\000"
 3340      69737465 
 3340      6E657200 
 3341              	.LASF58:
 3342 02cb 656C5F66 		.ascii	"el_flags\000"
 3342      6C616773 
 3342      00
 3343              	.LASF33:
 3344 02d4 705F7374 		.ascii	"p_state\000"
 3344      61746500 
 3345              	.LASF42:
 3346 02dc 705F6D74 		.ascii	"p_mtxlist\000"
 3346      786C6973 
 3346      7400
 3347              	.LASF5:
 3348 02e6 73686F72 		.ascii	"short int\000"
 3348      7420696E 
 3348      7400
 3349              	.LASF36:
 3350 02f0 705F7072 		.ascii	"p_preempt\000"
 3350      65656D70 
 3350      7400
 3351              	.LASF64:
 3352 02fa 65776D61 		.ascii	"ewmask\000"
 3352      736B00
 3353              	.LASF26:
 3354 0301 705F6E65 		.ascii	"p_next\000"
 3354      787400
 3355              	.LASF34:
 3356 0308 705F666C 		.ascii	"p_flags\000"
 3356      61677300 
 3357              	.LASF55:
 3358 0310 656C5F6E 		.ascii	"el_next\000"
 3358      65787400 
 3359              	.LASF88:
 3360 0318 53445F53 		.ascii	"SD_STOP\000"
 3360      544F5000 
 3361              	.LASF25:
 3362 0320 54687265 		.ascii	"Thread\000"
 3362      616400
 3363              	.LASF41:
 3364 0327 705F6570 		.ascii	"p_epending\000"
 3364      656E6469 
 3364      6E6700
 3365              	.LASF87:
 3366 0332 53445F55 		.ascii	"SD_UNINIT\000"
 3366      4E494E49 
 3366      5400
 3367              	.LASF83:
ARM GAS  /tmp/ccQ1YpDr.s 			page 63


 3368 033c 52455345 		.ascii	"RESERVED5\000"
 3368      52564544 
 3368      3500
 3369              	.LASF10:
 3370 0346 75696E74 		.ascii	"uint32_t\000"
 3370      33325F74 
 3370      00
 3371              	.LASF90:
 3372 034f 73647374 		.ascii	"sdstate_t\000"
 3372      6174655F 
 3372      7400
 3373              	.LASF91:
 3374 0359 53657269 		.ascii	"SerialDriver\000"
 3374      616C4472 
 3374      69766572 
 3374      00
 3375              	.LASF11:
 3376 0366 6C6F6E67 		.ascii	"long unsigned int\000"
 3376      20756E73 
 3376      69676E65 
 3376      6420696E 
 3376      7400
 3377              	.LASF101:
 3378 0378 72656164 		.ascii	"read\000"
 3378      00
 3379              	.LASF65:
 3380 037d 63686172 		.ascii	"char\000"
 3380      00
 3381              	.LASF114:
 3382 0382 7364496E 		.ascii	"sdIncomingDataI\000"
 3382      636F6D69 
 3382      6E674461 
 3382      74614900 
 3383              	.LASF112:
 3384 0392 636F6E66 		.ascii	"config\000"
 3384      696700
 3385              	.LASF111:
 3386 0399 73645374 		.ascii	"sdStart\000"
 3386      61727400 
 3387              	.LASF53:
 3388 03a1 6D5F6E65 		.ascii	"m_next\000"
 3388      787400
 3389              	.LASF24:
 3390 03a8 73797374 		.ascii	"systime_t\000"
 3390      696D655F 
 3390      7400
 3391              	.LASF43:
 3392 03b2 705F7265 		.ascii	"p_realprio\000"
 3392      616C7072 
 3392      696F00
 3393              	.LASF118:
 3394 03bd 2F686F6D 		.ascii	"/home/aggieair/workspace/ChibiOS_2.6.1/demos/ARMCM3"
 3394      652F6167 
 3394      67696561 
 3394      69722F77 
 3394      6F726B73 
 3395 03f0 2D53544D 		.ascii	"-STM32F105-LIA/\000"
ARM GAS  /tmp/ccQ1YpDr.s 			page 64


 3395      33324631 
 3395      30352D4C 
 3395      49412F00 
 3396              	.LASF49:
 3397 0400 636F6E74 		.ascii	"context\000"
 3397      65787400 
 3398              	.LASF48:
 3399 0408 696E7463 		.ascii	"intctx\000"
 3399      747800
 3400              	.LASF89:
 3401 040f 53445F52 		.ascii	"SD_READY\000"
 3401      45414459 
 3401      00
 3402              	.LASF23:
 3403 0418 666C6167 		.ascii	"flagsmask_t\000"
 3403      736D6173 
 3403      6B5F7400 
 3404              	.LASF70:
 3405 0424 715F746F 		.ascii	"q_top\000"
 3405      7000
 3406              	.LASF32:
 3407 042a 705F6E61 		.ascii	"p_name\000"
 3407      6D6500
 3408              	.LASF60:
 3409 0431 65735F6E 		.ascii	"es_next\000"
 3409      65787400 
 3410              	.LASF73:
 3411 0439 715F6E6F 		.ascii	"q_notify\000"
 3411      74696679 
 3411      00
 3412              	.LASF120:
 3413 0442 73645265 		.ascii	"sdRequestDataI\000"
 3413      71756573 
 3413      74446174 
 3413      614900
 3414              	.LASF3:
 3415 0451 75696E74 		.ascii	"uint8_t\000"
 3415      385F7400 
 3416              	.LASF117:
 3417 0459 2E2E2F2E 		.ascii	"../../os/hal/src/serial.c\000"
 3417      2E2F6F73 
 3417      2F68616C 
 3417      2F737263 
 3417      2F736572 
 3418              	.LASF109:
 3419 0473 6F6E6F74 		.ascii	"onotify\000"
 3419      69667900 
 3420              	.LASF54:
 3421 047b 4576656E 		.ascii	"EventListener\000"
 3421      744C6973 
 3421      74656E65 
 3421      7200
 3422              	.LASF63:
 3423 0489 77746F62 		.ascii	"wtobjp\000"
 3423      6A7000
 3424              	.LASF40:
 3425 0490 705F6D73 		.ascii	"p_msg\000"
ARM GAS  /tmp/ccQ1YpDr.s 			page 65


 3425      6700
 3426              	.LASF119:
 3427 0496 7364496E 		.ascii	"sdInit\000"
 3427      697400
 3428              	.LASF74:
 3429 049d 715F6C69 		.ascii	"q_link\000"
 3429      6E6B00
 3430              	.LASF52:
 3431 04a4 6D5F6F77 		.ascii	"m_owner\000"
 3431      6E657200 
 3432              	.LASF29:
 3433 04ac 705F6374 		.ascii	"p_ctx\000"
 3433      7800
 3434              	.LASF38:
 3435 04b2 705F7761 		.ascii	"p_waiting\000"
 3435      6974696E 
 3435      6700
 3436              		.ident	"GCC: (Linaro GCC 4.6-2011.09-1) 4.6.2 20110908 (prerelease)"
ARM GAS  /tmp/ccQ1YpDr.s 			page 66


DEFINED SYMBOLS
                            *ABS*:0000000000000000 serial.c
     /tmp/ccQ1YpDr.s:18     .text.readt:0000000000000000 $t
     /tmp/ccQ1YpDr.s:23     .text.readt:0000000000000000 readt
     /tmp/ccQ1YpDr.s:46     .text.read:0000000000000000 $t
     /tmp/ccQ1YpDr.s:51     .text.read:0000000000000000 read
     /tmp/ccQ1YpDr.s:73     .text.writet:0000000000000000 $t
     /tmp/ccQ1YpDr.s:78     .text.writet:0000000000000000 writet
     /tmp/ccQ1YpDr.s:100    .text.write:0000000000000000 $t
     /tmp/ccQ1YpDr.s:105    .text.write:0000000000000000 write
     /tmp/ccQ1YpDr.s:127    .text.gett:0000000000000000 $t
     /tmp/ccQ1YpDr.s:132    .text.gett:0000000000000000 gett
     /tmp/ccQ1YpDr.s:152    .text.get:0000000000000000 $t
     /tmp/ccQ1YpDr.s:157    .text.get:0000000000000000 get
     /tmp/ccQ1YpDr.s:177    .text.putt:0000000000000000 $t
     /tmp/ccQ1YpDr.s:182    .text.putt:0000000000000000 putt
     /tmp/ccQ1YpDr.s:203    .text.put:0000000000000000 $t
     /tmp/ccQ1YpDr.s:208    .text.put:0000000000000000 put
     /tmp/ccQ1YpDr.s:229    .text.sdInit:0000000000000000 $t
     /tmp/ccQ1YpDr.s:235    .text.sdInit:0000000000000000 sdInit
     /tmp/ccQ1YpDr.s:249    .text.sdObjectInit:0000000000000000 $t
     /tmp/ccQ1YpDr.s:255    .text.sdObjectInit:0000000000000000 sdObjectInit
     /tmp/ccQ1YpDr.s:542    .rodata.vmt:0000000000000000 .LANCHOR0
     /tmp/ccQ1YpDr.s:315    .text.sdStart:0000000000000000 $t
     /tmp/ccQ1YpDr.s:321    .text.sdStart:0000000000000000 sdStart
     /tmp/ccQ1YpDr.s:370    .text.sdStop:0000000000000000 $t
     /tmp/ccQ1YpDr.s:376    .text.sdStop:0000000000000000 sdStop
     /tmp/ccQ1YpDr.s:433    .text.sdIncomingDataI:0000000000000000 $t
     /tmp/ccQ1YpDr.s:439    .text.sdIncomingDataI:0000000000000000 sdIncomingDataI
     /tmp/ccQ1YpDr.s:495    .text.sdRequestDataI:0000000000000000 $t
     /tmp/ccQ1YpDr.s:501    .text.sdRequestDataI:0000000000000000 sdRequestDataI
     /tmp/ccQ1YpDr.s:541    .rodata.vmt:0000000000000000 $d
     /tmp/ccQ1YpDr.s:545    .rodata.vmt:0000000000000000 vmt
                     .debug_frame:0000000000000010 $d

UNDEFINED SYMBOLS
chIQReadTimeout
chOQWriteTimeout
chIQGetTimeout
chOQPutTimeout
sd_lld_init
chIQInit
chOQInit
sd_lld_start
sd_lld_stop
chOQResetI
chIQResetI
chSchRescheduleS
chIQPutI
chEvtBroadcastFlagsI
chOQGetI
