ARM GAS  /tmp/cciDrTO8.s 			page 1


   1              		.syntax unified
   2              		.cpu cortex-m3
   3              		.fpu softvfp
   4              		.eabi_attribute 20, 1
   5              		.eabi_attribute 21, 1
   6              		.eabi_attribute 23, 3
   7              		.eabi_attribute 24, 1
   8              		.eabi_attribute 25, 1
   9              		.eabi_attribute 26, 1
  10              		.eabi_attribute 30, 2
  11              		.eabi_attribute 18, 4
  12              		.thumb
  13              		.file	"test.c"
  14              		.text
  15              	.Ltext0:
  16              		.cfi_sections	.debug_frame
  17              		.section	.text.tmr,"ax",%progbits
  18              		.align	2
  19              		.p2align 4,,15
  20              		.thumb
  21              		.thumb_func
  22              		.type	tmr, %function
  23              	tmr:
  24              	.LFB77:
  25              		.file 1 "../../test/test.c"
  26              		.loc 1 261 0
  27              		.cfi_startproc
  28              		@ args = 0, pretend = 0, frame = 0
  29              		@ frame_needed = 0, uses_anonymous_args = 0
  30              		@ link register save eliminated.
  31              	.LVL0:
  32              		.loc 1 264 0
  33 0000 40F20003 		movw	r3, #:lower16:.LANCHOR0
  34 0004 C0F20003 		movt	r3, #:upper16:.LANCHOR0
  35 0008 0122     		movs	r2, #1
  36 000a 1A70     		strb	r2, [r3, #0]
  37              		.loc 1 265 0
  38 000c 7047     		bx	lr
  39              		.cfi_endproc
  40              	.LFE77:
  41              		.size	tmr, .-tmr
  42              		.section	.text.print_line,"ax",%progbits
  43              		.align	2
  44              		.p2align 4,,15
  45              		.thumb
  46              		.thumb_func
  47              		.type	print_line, %function
  48              	print_line:
  49              	.LFB80:
  50              		.loc 1 300 0
  51              		.cfi_startproc
  52              		@ args = 0, pretend = 0, frame = 0
  53              		@ frame_needed = 0, uses_anonymous_args = 0
  54              	.LVL1:
  55 0000 38B5     		push	{r3, r4, r5, lr}
  56              	.LCFI0:
  57              		.cfi_def_cfa_offset 16
ARM GAS  /tmp/cciDrTO8.s 			page 2


  58              		.cfi_offset 14, -4
  59              		.cfi_offset 5, -8
  60              		.cfi_offset 4, -12
  61              		.cfi_offset 3, -16
  62 0002 084D     		ldr	r5, .L6
  63              		.loc 1 300 0
  64 0004 4C24     		movs	r4, #76
  65              	.LVL2:
  66              	.L3:
  67              		.loc 1 304 0 discriminator 2
  68 0006 2868     		ldr	r0, [r5, #0]
  69 0008 2D21     		movs	r1, #45
  70 000a 0368     		ldr	r3, [r0, #0]
  71 000c 9B68     		ldr	r3, [r3, #8]
  72 000e 9847     		blx	r3
  73              		.loc 1 303 0 discriminator 2
  74 0010 013C     		subs	r4, r4, #1
  75 0012 F8D1     		bne	.L3
  76              		.loc 1 305 0
  77 0014 034B     		ldr	r3, .L6
  78 0016 0449     		ldr	r1, .L6+4
  79 0018 1868     		ldr	r0, [r3, #0]
  80 001a 0222     		movs	r2, #2
  81 001c 0368     		ldr	r3, [r0, #0]
  82 001e 1B68     		ldr	r3, [r3, #0]
  83 0020 9847     		blx	r3
  84              		.loc 1 306 0
  85 0022 38BD     		pop	{r3, r4, r5, pc}
  86              	.L7:
  87              		.align	2
  88              	.L6:
  89 0024 00000000 		.word	.LANCHOR1
  90 0028 00000000 		.word	.LC0
  91              		.cfi_endproc
  92              	.LFE80:
  93              		.size	print_line, .-print_line
  94 002c AFF30080 		.section	.text.test_printn,"ax",%progbits
  95              		.align	2
  96              		.p2align 4,,15
  97              		.global	test_printn
  98              		.thumb
  99              		.thumb_func
 100              		.type	test_printn, %function
 101              	test_printn:
 102              	.LFB63:
 103              		.loc 1 91 0
 104              		.cfi_startproc
 105              		@ args = 0, pretend = 0, frame = 16
 106              		@ frame_needed = 0, uses_anonymous_args = 0
 107              	.LVL3:
 108 0000 70B5     		push	{r4, r5, r6, lr}
 109              	.LCFI1:
 110              		.cfi_def_cfa_offset 16
 111              		.cfi_offset 14, -4
 112              		.cfi_offset 6, -8
 113              		.cfi_offset 5, -12
 114              		.cfi_offset 4, -16
ARM GAS  /tmp/cciDrTO8.s 			page 3


 115 0002 84B0     		sub	sp, sp, #16
 116              	.LCFI2:
 117              		.cfi_def_cfa_offset 32
 118              		.loc 1 94 0
 119 0004 0028     		cmp	r0, #0
 120 0006 23D0     		beq	.L14
 121              		.loc 1 99 0
 122 0008 4CF6CD42 		movw	r2, #52429
 123              	.LBB24:
 124              	.LBB25:
 125              		.loc 1 97 0
 126 000c 6D46     		mov	r5, sp
 127              	.LBE25:
 128              	.LBE24:
 129              		.loc 1 94 0
 130 000e 6C46     		mov	r4, sp
 131              		.loc 1 99 0
 132 0010 CCF6CC42 		movt	r2, 52428
 133              	.LVL4:
 134              	.L11:
 135 0014 A2FB0013 		umull	r1, r3, r2, r0
 136 0018 DB08     		lsrs	r3, r3, #3
 137 001a 03EB8301 		add	r1, r3, r3, lsl #2
 138 001e A0EB4101 		sub	r1, r0, r1, lsl #1
 139 0022 3031     		adds	r1, r1, #48
 140 0024 C9B2     		uxtb	r1, r1
 141              		.loc 1 98 0
 142 0026 1846     		mov	r0, r3
 143              		.loc 1 99 0
 144 0028 04F8011B 		strb	r1, [r4], #1
 145              	.LVL5:
 146              		.loc 1 98 0
 147 002c 002B     		cmp	r3, #0
 148 002e F1D1     		bne	.L11
 149              		.loc 1 100 0
 150 0030 AC42     		cmp	r4, r5
 151 0032 0BD9     		bls	.L8
 152 0034 0A4E     		ldr	r6, .L16
 153              		.loc 1 91 0
 154 0036 0135     		adds	r5, r5, #1
 155 0038 02E0     		b	.L12
 156              	.LVL6:
 157              	.L15:
 158              		.loc 1 100 0
 159 003a 14F8021C 		ldrb	r1, [r4, #-2]	@ zero_extendqisi2
 160 003e 013C     		subs	r4, r4, #1
 161              	.L12:
 162              		.loc 1 101 0
 163 0040 3068     		ldr	r0, [r6, #0]
 164 0042 0368     		ldr	r3, [r0, #0]
 165 0044 9B68     		ldr	r3, [r3, #8]
 166 0046 9847     		blx	r3
 167              		.loc 1 100 0
 168 0048 AC42     		cmp	r4, r5
 169 004a F6D1     		bne	.L15
 170              	.L8:
 171              		.loc 1 103 0
ARM GAS  /tmp/cciDrTO8.s 			page 4


 172 004c 04B0     		add	sp, sp, #16
 173 004e 70BD     		pop	{r4, r5, r6, pc}
 174              	.LVL7:
 175              	.L14:
 176              	.LBB27:
 177              	.LBB26:
 178              		.loc 1 95 0
 179 0050 034B     		ldr	r3, .L16
 180 0052 3021     		movs	r1, #48
 181 0054 1868     		ldr	r0, [r3, #0]
 182              	.LVL8:
 183 0056 0368     		ldr	r3, [r0, #0]
 184 0058 9B68     		ldr	r3, [r3, #8]
 185 005a 9847     		blx	r3
 186 005c F6E7     		b	.L8
 187              	.L17:
 188 005e 00BF     		.align	2
 189              	.L16:
 190 0060 00000000 		.word	.LANCHOR1
 191              	.LBE26:
 192              	.LBE27:
 193              		.cfi_endproc
 194              	.LFE63:
 195              		.size	test_printn, .-test_printn
 196 0064 AFF30080 		.section	.text.test_print,"ax",%progbits
 196      AFF30080 
 196      AFF30080 
 197              		.align	2
 198              		.p2align 4,,15
 199              		.global	test_print
 200              		.thumb
 201              		.thumb_func
 202              		.type	test_print, %function
 203              	test_print:
 204              	.LFB64:
 205              		.loc 1 110 0
 206              		.cfi_startproc
 207              		@ args = 0, pretend = 0, frame = 0
 208              		@ frame_needed = 0, uses_anonymous_args = 0
 209              	.LVL9:
 210 0000 38B5     		push	{r3, r4, r5, lr}
 211              	.LCFI3:
 212              		.cfi_def_cfa_offset 16
 213              		.cfi_offset 14, -4
 214              		.cfi_offset 5, -8
 215              		.cfi_offset 4, -12
 216              		.cfi_offset 3, -16
 217              		.loc 1 112 0
 218 0002 0178     		ldrb	r1, [r0, #0]	@ zero_extendqisi2
 219 0004 49B1     		cbz	r1, .L18
 220 0006 054D     		ldr	r5, .L22
 221 0008 0446     		mov	r4, r0
 222              	.LVL10:
 223              	.L20:
 224              		.loc 1 113 0
 225 000a 2868     		ldr	r0, [r5, #0]
 226 000c 0368     		ldr	r3, [r0, #0]
ARM GAS  /tmp/cciDrTO8.s 			page 5


 227 000e 9B68     		ldr	r3, [r3, #8]
 228 0010 9847     		blx	r3
 229              		.loc 1 112 0
 230 0012 14F8011F 		ldrb	r1, [r4, #1]!	@ zero_extendqisi2
 231 0016 0029     		cmp	r1, #0
 232 0018 F7D1     		bne	.L20
 233              	.L18:
 234 001a 38BD     		pop	{r3, r4, r5, pc}
 235              	.L23:
 236              		.align	2
 237              	.L22:
 238 001c 00000000 		.word	.LANCHOR1
 239              		.cfi_endproc
 240              	.LFE64:
 241              		.size	test_print, .-test_print
 242              		.section	.text.test_println,"ax",%progbits
 243              		.align	2
 244              		.p2align 4,,15
 245              		.global	test_println
 246              		.thumb
 247              		.thumb_func
 248              		.type	test_println, %function
 249              	test_println:
 250              	.LFB65:
 251              		.loc 1 121 0
 252              		.cfi_startproc
 253              		@ args = 0, pretend = 0, frame = 0
 254              		@ frame_needed = 0, uses_anonymous_args = 0
 255              	.LVL11:
 256 0000 08B5     		push	{r3, lr}
 257              	.LCFI4:
 258              		.cfi_def_cfa_offset 8
 259              		.cfi_offset 14, -4
 260              		.cfi_offset 3, -8
 261              		.loc 1 123 0
 262 0002 FFF7FEFF 		bl	test_print
 263              	.LVL12:
 264              		.loc 1 124 0
 265 0006 40F20003 		movw	r3, #:lower16:.LANCHOR1
 266 000a C0F20003 		movt	r3, #:upper16:.LANCHOR1
 267 000e 1868     		ldr	r0, [r3, #0]
 268 0010 40F20001 		movw	r1, #:lower16:.LC0
 269 0014 0368     		ldr	r3, [r0, #0]
 270 0016 C0F20001 		movt	r1, #:upper16:.LC0
 271 001a 1B68     		ldr	r3, [r3, #0]
 272 001c 0222     		movs	r2, #2
 273 001e 9847     		blx	r3
 274              		.loc 1 125 0
 275 0020 08BD     		pop	{r3, pc}
 276              		.cfi_endproc
 277              	.LFE65:
 278              		.size	test_println, .-test_println
 279 0022 00BFAFF3 		.section	.text.test_emit_token,"ax",%progbits
 279      0080AFF3 
 279      0080AFF3 
 279      0080
 280              		.align	2
ARM GAS  /tmp/cciDrTO8.s 			page 6


 281              		.p2align 4,,15
 282              		.global	test_emit_token
 283              		.thumb
 284              		.thumb_func
 285              		.type	test_emit_token, %function
 286              	test_emit_token:
 287              	.LFB68:
 288              		.loc 1 147 0
 289              		.cfi_startproc
 290              		@ args = 0, pretend = 0, frame = 0
 291              		@ frame_needed = 0, uses_anonymous_args = 0
 292              		@ link register save eliminated.
 293              	.LVL13:
 294              	.LBB28:
 295              		.loc 1 149 0
 296 0000 2023     		movs	r3, #32
 297              	.LVL14:
 298              	@ 149 "../../test/test.c" 1
 299 0002 83F31188 		msr     BASEPRI, r3
 300              	@ 0 "" 2
 301              	.LVL15:
 302              		.thumb
 303              	.LBE28:
 304              		.loc 1 150 0
 305 0006 40F20002 		movw	r2, #:lower16:.LANCHOR2
 306 000a C0F20002 		movt	r2, #:upper16:.LANCHOR2
 307 000e 1168     		ldr	r1, [r2, #0]
 308              	.LBB29:
 309              		.loc 1 151 0
 310 0010 0023     		movs	r3, #0
 311              	.LVL16:
 312              	.LBE29:
 313              		.loc 1 150 0
 314 0012 01F8010B 		strb	r0, [r1], #1
 315 0016 1160     		str	r1, [r2, #0]
 316              	.LBB30:
 317              		.loc 1 151 0
 318              	@ 151 "../../test/test.c" 1
 319 0018 83F31188 		msr     BASEPRI, r3
 320              	@ 0 "" 2
 321              	.LVL17:
 322              		.thumb
 323              	.LBE30:
 324              		.loc 1 152 0
 325 001c 7047     		bx	lr
 326              		.cfi_endproc
 327              	.LFE68:
 328              		.size	test_emit_token, .-test_emit_token
 329 001e 00BF     		.section	.text._test_fail,"ax",%progbits
 330              		.align	2
 331              		.p2align 4,,15
 332              		.global	_test_fail
 333              		.thumb
 334              		.thumb_func
 335              		.type	_test_fail, %function
 336              	_test_fail:
 337              	.LFB69:
ARM GAS  /tmp/cciDrTO8.s 			page 7


 338              		.loc 1 157 0
 339              		.cfi_startproc
 340              		@ args = 0, pretend = 0, frame = 0
 341              		@ frame_needed = 0, uses_anonymous_args = 0
 342              		@ link register save eliminated.
 343              	.LVL18:
 344 0000 10B4     		push	{r4}
 345              	.LCFI5:
 346              		.cfi_def_cfa_offset 4
 347              		.cfi_offset 4, -4
 348              		.loc 1 159 0
 349 0002 40F20001 		movw	r1, #:lower16:.LANCHOR3
 350              		.loc 1 160 0
 351 0006 40F20002 		movw	r2, #:lower16:.LANCHOR4
 352              		.loc 1 161 0
 353 000a 40F20004 		movw	r4, #:lower16:.LANCHOR5
 354              		.loc 1 159 0
 355 000e 0123     		movs	r3, #1
 356 0010 C0F20001 		movt	r1, #:upper16:.LANCHOR3
 357              		.loc 1 160 0
 358 0014 C0F20002 		movt	r2, #:upper16:.LANCHOR4
 359              		.loc 1 161 0
 360 0018 C0F20004 		movt	r4, #:upper16:.LANCHOR5
 361 001c 2060     		str	r0, [r4, #0]
 362              		.loc 1 159 0
 363 001e 0B70     		strb	r3, [r1, #0]
 364              		.loc 1 160 0
 365 0020 1370     		strb	r3, [r2, #0]
 366              		.loc 1 163 0
 367 0022 1846     		mov	r0, r3
 368              	.LVL19:
 369 0024 10BC     		pop	{r4}
 370 0026 7047     		bx	lr
 371              		.cfi_endproc
 372              	.LFE69:
 373              		.size	_test_fail, .-_test_fail
 374 0028 AFF30080 		.section	.text._test_assert,"ax",%progbits
 374      AFF30080 
 375              		.align	2
 376              		.p2align 4,,15
 377              		.global	_test_assert
 378              		.thumb
 379              		.thumb_func
 380              		.type	_test_assert, %function
 381              	_test_assert:
 382              	.LFB70:
 383              		.loc 1 165 0
 384              		.cfi_startproc
 385              		@ args = 0, pretend = 0, frame = 0
 386              		@ frame_needed = 0, uses_anonymous_args = 0
 387              		@ link register save eliminated.
 388              	.LVL20:
 389              		.loc 1 167 0
 390 0000 41B9     		cbnz	r1, .L29
 391              	.LVL21:
 392              	.LBB31:
 393              	.LBB32:
ARM GAS  /tmp/cciDrTO8.s 			page 8


 394              		.loc 1 159 0
 395 0002 054A     		ldr	r2, .L30
 396 0004 0123     		movs	r3, #1
 397 0006 1370     		strb	r3, [r2, #0]
 398              		.loc 1 160 0
 399 0008 044A     		ldr	r2, .L30+4
 400 000a 1370     		strb	r3, [r2, #0]
 401              		.loc 1 161 0
 402 000c 044A     		ldr	r2, .L30+8
 403 000e 1060     		str	r0, [r2, #0]
 404              	.LBE32:
 405              	.LBE31:
 406              		.loc 1 168 0
 407 0010 1846     		mov	r0, r3
 408              	.LVL22:
 409 0012 7047     		bx	lr
 410              	.LVL23:
 411              	.L29:
 412              		.loc 1 169 0
 413 0014 0020     		movs	r0, #0
 414              	.LVL24:
 415              		.loc 1 170 0
 416 0016 7047     		bx	lr
 417              	.L31:
 418              		.align	2
 419              	.L30:
 420 0018 00000000 		.word	.LANCHOR3
 421 001c 00000000 		.word	.LANCHOR4
 422 0020 00000000 		.word	.LANCHOR5
 423              		.cfi_endproc
 424              	.LFE70:
 425              		.size	_test_assert, .-_test_assert
 426 0024 AFF30080 		.section	.text._test_assert_sequence,"ax",%progbits
 426      AFF30080 
 426      AFF30080 
 427              		.align	2
 428              		.p2align 4,,15
 429              		.global	_test_assert_sequence
 430              		.thumb
 431              		.thumb_func
 432              		.type	_test_assert_sequence, %function
 433              	_test_assert_sequence:
 434              	.LFB71:
 435              		.loc 1 172 0
 436              		.cfi_startproc
 437              		@ args = 0, pretend = 0, frame = 0
 438              		@ frame_needed = 0, uses_anonymous_args = 0
 439              		@ link register save eliminated.
 440              	.LVL25:
 441              		.loc 1 181 0
 442 0000 0F4B     		ldr	r3, .L39
 443              		.loc 1 173 0
 444 0002 104A     		ldr	r2, .L39+4
 445              		.loc 1 172 0
 446 0004 F0B4     		push	{r4, r5, r6, r7}
 447              	.LCFI6:
 448              		.cfi_def_cfa_offset 16
ARM GAS  /tmp/cciDrTO8.s 			page 9


 449              		.cfi_offset 7, -4
 450              		.cfi_offset 6, -8
 451              		.cfi_offset 5, -12
 452              		.cfi_offset 4, -16
 453              		.loc 1 181 0
 454 0006 1F68     		ldr	r7, [r3, #0]
 455              		.loc 1 173 0
 456 0008 1446     		mov	r4, r2
 457              		.loc 1 174 0
 458 000a 04E0     		b	.L33
 459              	.LVL26:
 460              	.L35:
 461              		.loc 1 175 0
 462 000c 11F8016B 		ldrb	r6, [r1], #1	@ zero_extendqisi2
 463              	.LVL27:
 464 0010 2D78     		ldrb	r5, [r5, #0]	@ zero_extendqisi2
 465 0012 B542     		cmp	r5, r6
 466 0014 09D1     		bne	.L38
 467              	.L33:
 468              		.loc 1 174 0 discriminator 1
 469 0016 A742     		cmp	r7, r4
 470              		.loc 1 176 0 discriminator 1
 471 0018 2546     		mov	r5, r4
 472              		.loc 1 174 0 discriminator 1
 473 001a 04F10104 		add	r4, r4, #1
 474 001e F5D8     		bhi	.L35
 475              		.loc 1 178 0
 476 0020 0978     		ldrb	r1, [r1, #0]	@ zero_extendqisi2
 477              	.LVL28:
 478 0022 11B9     		cbnz	r1, .L38
 479              	.LBB33:
 480              	.LBB34:
 481              		.loc 1 132 0
 482 0024 1A60     		str	r2, [r3, #0]
 483              	.LBE34:
 484              	.LBE33:
 485              		.loc 1 181 0
 486 0026 0846     		mov	r0, r1
 487              	.LVL29:
 488 0028 07E0     		b	.L34
 489              	.LVL30:
 490              	.L38:
 491              	.LBB35:
 492              	.LBB36:
 493              		.loc 1 159 0
 494 002a 074A     		ldr	r2, .L39+8
 495 002c 0123     		movs	r3, #1
 496 002e 1370     		strb	r3, [r2, #0]
 497              		.loc 1 160 0
 498 0030 064A     		ldr	r2, .L39+12
 499 0032 1370     		strb	r3, [r2, #0]
 500              		.loc 1 161 0
 501 0034 064A     		ldr	r2, .L39+16
 502 0036 1060     		str	r0, [r2, #0]
 503              	.LBE36:
 504              	.LBE35:
 505              		.loc 1 179 0
ARM GAS  /tmp/cciDrTO8.s 			page 10


 506 0038 1846     		mov	r0, r3
 507              	.LVL31:
 508              	.L34:
 509              		.loc 1 182 0
 510 003a F0BC     		pop	{r4, r5, r6, r7}
 511 003c 7047     		bx	lr
 512              	.L40:
 513 003e 00BF     		.align	2
 514              	.L39:
 515 0040 00000000 		.word	.LANCHOR2
 516 0044 00000000 		.word	.LANCHOR6
 517 0048 00000000 		.word	.LANCHOR3
 518 004c 00000000 		.word	.LANCHOR4
 519 0050 00000000 		.word	.LANCHOR5
 520              		.cfi_endproc
 521              	.LFE71:
 522              		.size	_test_assert_sequence, .-_test_assert_sequence
 523 0054 AFF30080 		.section	.text._test_assert_time_window,"ax",%progbits
 523      AFF30080 
 523      AFF30080 
 524              		.align	2
 525              		.p2align 4,,15
 526              		.global	_test_assert_time_window
 527              		.thumb
 528              		.thumb_func
 529              		.type	_test_assert_time_window, %function
 530              	_test_assert_time_window:
 531              	.LFB72:
 532              		.loc 1 184 0
 533              		.cfi_startproc
 534              		@ args = 0, pretend = 0, frame = 0
 535              		@ frame_needed = 0, uses_anonymous_args = 0
 536              	.LVL32:
 537 0000 10B5     		push	{r4, lr}
 538              	.LCFI7:
 539              		.cfi_def_cfa_offset 8
 540              		.cfi_offset 14, -4
 541              		.cfi_offset 4, -8
 542              		.loc 1 184 0
 543 0002 0446     		mov	r4, r0
 544              		.loc 1 186 0
 545 0004 0846     		mov	r0, r1
 546              	.LVL33:
 547 0006 1146     		mov	r1, r2
 548              	.LVL34:
 549 0008 FFF7FEFF 		bl	chTimeIsWithin
 550              	.LVL35:
 551              	.LBB37:
 552              	.LBB38:
 553              		.loc 1 167 0
 554 000c 38B9     		cbnz	r0, .L43
 555              	.LVL36:
 556              	.LBB39:
 557              	.LBB40:
 558              		.loc 1 159 0
 559 000e 054B     		ldr	r3, .L44
 560 0010 0120     		movs	r0, #1
ARM GAS  /tmp/cciDrTO8.s 			page 11


 561              	.LVL37:
 562 0012 1870     		strb	r0, [r3, #0]
 563              		.loc 1 160 0
 564 0014 044B     		ldr	r3, .L44+4
 565 0016 1870     		strb	r0, [r3, #0]
 566              		.loc 1 161 0
 567 0018 044B     		ldr	r3, .L44+8
 568 001a 1C60     		str	r4, [r3, #0]
 569 001c 10BD     		pop	{r4, pc}
 570              	.LVL38:
 571              	.L43:
 572              	.LBE40:
 573              	.LBE39:
 574              		.loc 1 169 0
 575 001e 0020     		movs	r0, #0
 576              	.LVL39:
 577              	.LBE38:
 578              	.LBE37:
 579              		.loc 1 187 0
 580 0020 10BD     		pop	{r4, pc}
 581              	.L45:
 582 0022 00BF     		.align	2
 583              	.L44:
 584 0024 00000000 		.word	.LANCHOR3
 585 0028 00000000 		.word	.LANCHOR4
 586 002c 00000000 		.word	.LANCHOR5
 587              		.cfi_endproc
 588              	.LFE72:
 589              		.size	_test_assert_time_window, .-_test_assert_time_window
 590              		.section	.text.test_terminate_threads,"ax",%progbits
 591              		.align	2
 592              		.p2align 4,,15
 593              		.global	test_terminate_threads
 594              		.thumb
 595              		.thumb_func
 596              		.type	test_terminate_threads, %function
 597              	test_terminate_threads:
 598              	.LFB73:
 599              		.loc 1 196 0
 600              		.cfi_startproc
 601              		@ args = 0, pretend = 0, frame = 0
 602              		@ frame_needed = 0, uses_anonymous_args = 0
 603              	.LVL40:
 604 0000 38B5     		push	{r3, r4, r5, lr}
 605              	.LCFI8:
 606              		.cfi_def_cfa_offset 16
 607              		.cfi_offset 14, -4
 608              		.cfi_offset 5, -8
 609              		.cfi_offset 4, -12
 610              		.cfi_offset 3, -16
 611              		.loc 1 196 0
 612 0002 064C     		ldr	r4, .L50
 613 0004 04F11405 		add	r5, r4, #20
 614              	.LVL41:
 615              	.L48:
 616              		.loc 1 200 0
 617 0008 54F8043F 		ldr	r3, [r4, #4]!
ARM GAS  /tmp/cciDrTO8.s 			page 12


 618              		.loc 1 201 0
 619 000c 1846     		mov	r0, r3
 620              		.loc 1 200 0
 621 000e 0BB1     		cbz	r3, .L47
 622              		.loc 1 201 0
 623 0010 FFF7FEFF 		bl	chThdTerminate
 624              	.L47:
 625              		.loc 1 199 0
 626 0014 AC42     		cmp	r4, r5
 627 0016 F7D1     		bne	.L48
 628              		.loc 1 202 0
 629 0018 38BD     		pop	{r3, r4, r5, pc}
 630              	.L51:
 631 001a 00BF     		.align	2
 632              	.L50:
 633 001c FCFFFFFF 		.word	.LANCHOR7-4
 634              		.cfi_endproc
 635              	.LFE73:
 636              		.size	test_terminate_threads, .-test_terminate_threads
 637              		.section	.text.test_wait_threads,"ax",%progbits
 638              		.align	2
 639              		.p2align 4,,15
 640              		.global	test_wait_threads
 641              		.thumb
 642              		.thumb_func
 643              		.type	test_wait_threads, %function
 644              	test_wait_threads:
 645              	.LFB74:
 646              		.loc 1 207 0
 647              		.cfi_startproc
 648              		@ args = 0, pretend = 0, frame = 0
 649              		@ frame_needed = 0, uses_anonymous_args = 0
 650              	.LVL42:
 651 0000 70B5     		push	{r4, r5, r6, lr}
 652              	.LCFI9:
 653              		.cfi_def_cfa_offset 16
 654              		.cfi_offset 14, -4
 655              		.cfi_offset 6, -8
 656              		.cfi_offset 5, -12
 657              		.cfi_offset 4, -16
 658              		.loc 1 207 0
 659 0002 074C     		ldr	r4, .L56
 660              		.loc 1 213 0
 661 0004 0026     		movs	r6, #0
 662              		.loc 1 207 0
 663 0006 04F11405 		add	r5, r4, #20
 664              	.LVL43:
 665              	.L54:
 666              		.loc 1 211 0
 667 000a 54F8043B 		ldr	r3, [r4], #4
 668              		.loc 1 212 0
 669 000e 1846     		mov	r0, r3
 670              		.loc 1 211 0
 671 0010 1BB1     		cbz	r3, .L53
 672              		.loc 1 212 0
 673 0012 FFF7FEFF 		bl	chThdWait
 674              		.loc 1 213 0
ARM GAS  /tmp/cciDrTO8.s 			page 13


 675 0016 44F8046C 		str	r6, [r4, #-4]
 676              	.L53:
 677              		.loc 1 210 0
 678 001a AC42     		cmp	r4, r5
 679 001c F5D1     		bne	.L54
 680              		.loc 1 215 0
 681 001e 70BD     		pop	{r4, r5, r6, pc}
 682              	.L57:
 683              		.align	2
 684              	.L56:
 685 0020 00000000 		.word	.LANCHOR7
 686              		.cfi_endproc
 687              	.LFE74:
 688              		.size	test_wait_threads, .-test_wait_threads
 689 0024 AFF30080 		.section	.text.test_cpu_pulse,"ax",%progbits
 689      AFF30080 
 689      AFF30080 
 690              		.align	2
 691              		.p2align 4,,15
 692              		.global	test_cpu_pulse
 693              		.thumb
 694              		.thumb_func
 695              		.type	test_cpu_pulse, %function
 696              	test_cpu_pulse:
 697              	.LFB75:
 698              		.loc 1 224 0
 699              		.cfi_startproc
 700              		@ args = 0, pretend = 0, frame = 0
 701              		@ frame_needed = 0, uses_anonymous_args = 0
 702              		@ link register save eliminated.
 703              	.LVL44:
 704              		.loc 1 228 0
 705 0000 42F21073 		movw	r3, #10000
 706 0004 03FB00F1 		mul	r1, r3, r0
 707              		.loc 1 227 0
 708 0008 134B     		ldr	r3, .L64
 709              		.loc 1 228 0
 710 000a 44F6D352 		movw	r2, #19923
 711 000e C1F26202 		movt	r2, 4194
 712              		.loc 1 224 0
 713 0012 10B4     		push	{r4}
 714              	.LCFI10:
 715              		.cfi_def_cfa_offset 4
 716              		.cfi_offset 4, -4
 717              		.loc 1 228 0
 718 0014 0139     		subs	r1, r1, #1
 719              		.loc 1 227 0
 720 0016 9C69     		ldr	r4, [r3, #24]
 721              		.loc 1 228 0
 722 0018 A2FB0131 		umull	r3, r1, r2, r1
 723              		.loc 1 227 0
 724 001c 226A     		ldr	r2, [r4, #32]
 725              	.LVL45:
 726              		.loc 1 228 0
 727 001e 501C     		adds	r0, r2, #1
 728              	.LVL46:
 729 0020 00EB9111 		add	r1, r0, r1, lsr #6
ARM GAS  /tmp/cciDrTO8.s 			page 14


 730              	.LVL47:
 731              	.L61:
 732              		.loc 1 235 0
 733 0024 8A42     		cmp	r2, r1
 734              		.loc 1 230 0
 735 0026 236A     		ldr	r3, [r4, #32]
 736              	.LVL48:
 737              		.loc 1 235 0
 738 0028 0AD2     		bcs	.L59
 739              		.loc 1 235 0 is_stmt 0 discriminator 1
 740 002a 8B42     		cmp	r3, r1
 741 002c 2CBF     		ite	cs
 742 002e 0020     		movcs	r0, #0
 743 0030 0120     		movcc	r0, #1
 744 0032 9342     		cmp	r3, r2
 745 0034 38BF     		it	cc
 746 0036 0020     		movcc	r0, #0
 747              		.loc 1 236 0 is_stmt 1 discriminator 1
 748 0038 0028     		cmp	r0, #0
 749 003a F3D1     		bne	.L61
 750              	.L63:
 751              		.loc 1 237 0
 752 003c 10BC     		pop	{r4}
 753 003e 7047     		bx	lr
 754              	.L59:
 755              		.loc 1 236 0 discriminator 2
 756 0040 9342     		cmp	r3, r2
 757 0042 34BF     		ite	cc
 758 0044 0020     		movcc	r0, #0
 759 0046 0120     		movcs	r0, #1
 760              		.loc 1 235 0 discriminator 2
 761 0048 8B42     		cmp	r3, r1
 762 004a 38BF     		it	cc
 763 004c 40F00100 		orrcc	r0, r0, #1
 764              		.loc 1 236 0 discriminator 2
 765 0050 0028     		cmp	r0, #0
 766 0052 E7D1     		bne	.L61
 767 0054 F2E7     		b	.L63
 768              	.L65:
 769 0056 00BF     		.align	2
 770              	.L64:
 771 0058 00000000 		.word	rlist
 772              		.cfi_endproc
 773              	.LFE75:
 774              		.size	test_cpu_pulse, .-test_cpu_pulse
 775 005c AFF30080 		.section	.text.test_wait_tick,"ax",%progbits
 776              		.align	2
 777              		.p2align 4,,15
 778              		.global	test_wait_tick
 779              		.thumb
 780              		.thumb_func
 781              		.type	test_wait_tick, %function
 782              	test_wait_tick:
 783              	.LFB76:
 784              		.loc 1 245 0
 785              		.cfi_startproc
 786              		@ args = 0, pretend = 0, frame = 0
ARM GAS  /tmp/cciDrTO8.s 			page 15


 787              		@ frame_needed = 0, uses_anonymous_args = 0
 788 0000 08B5     		push	{r3, lr}
 789              	.LCFI11:
 790              		.cfi_def_cfa_offset 8
 791              		.cfi_offset 14, -4
 792              		.cfi_offset 3, -8
 793              		.loc 1 247 0
 794 0002 0120     		movs	r0, #1
 795 0004 FFF7FEFF 		bl	chThdSleep
 796              		.loc 1 248 0
 797 0008 40F20003 		movw	r3, #:lower16:vtlist
 798 000c C0F20003 		movt	r3, #:upper16:vtlist
 799 0010 D868     		ldr	r0, [r3, #12]
 800              		.loc 1 249 0
 801 0012 08BD     		pop	{r3, pc}
 802              		.cfi_endproc
 803              	.LFE76:
 804              		.size	test_wait_tick, .-test_wait_tick
 805 0014 AFF30080 		.section	.text.test_start_timer,"ax",%progbits
 805      AFF30080 
 805      AFF30080 
 806              		.align	2
 807              		.p2align 4,,15
 808              		.global	test_start_timer
 809              		.thumb
 810              		.thumb_func
 811              		.type	test_start_timer, %function
 812              	test_start_timer:
 813              	.LFB78:
 814              		.loc 1 272 0
 815              		.cfi_startproc
 816              		@ args = 0, pretend = 0, frame = 0
 817              		@ frame_needed = 0, uses_anonymous_args = 0
 818              	.LVL49:
 819              		.loc 1 275 0
 820 0000 40F20003 		movw	r3, #:lower16:.LANCHOR0
 821              		.loc 1 272 0
 822 0004 10B5     		push	{r4, lr}
 823              	.LCFI12:
 824              		.cfi_def_cfa_offset 8
 825              		.cfi_offset 14, -4
 826              		.cfi_offset 4, -8
 827              		.loc 1 275 0
 828 0006 C0F20003 		movt	r3, #:upper16:.LANCHOR0
 829 000a 0024     		movs	r4, #0
 830 000c 1C70     		strb	r4, [r3, #0]
 831              	.LVL50:
 832              	.LBB41:
 833              		.loc 1 276 0
 834 000e 2023     		movs	r3, #32
 835              	.LVL51:
 836              	@ 276 "../../test/test.c" 1
 837 0010 83F31188 		msr     BASEPRI, r3
 838              	@ 0 "" 2
 839              	.LVL52:
 840              		.thumb
 841              	.LBE41:
ARM GAS  /tmp/cciDrTO8.s 			page 16


 842              		.loc 1 274 0
 843 0014 42F21071 		movw	r1, #10000
 844 0018 01FB00F1 		mul	r1, r1, r0
 845 001c 44F6D353 		movw	r3, #19923
 846              	.LVL53:
 847 0020 0139     		subs	r1, r1, #1
 848 0022 C1F26203 		movt	r3, 4194
 849 0026 A3FB0121 		umull	r2, r1, r3, r1
 850              		.loc 1 276 0
 851 002a 40F20000 		movw	r0, #:lower16:.LANCHOR8
 852              	.LVL54:
 853              		.loc 1 274 0
 854 002e 8909     		lsrs	r1, r1, #6
 855              		.loc 1 276 0
 856 0030 40F20002 		movw	r2, #:lower16:tmr
 857 0034 2346     		mov	r3, r4
 858 0036 C0F20000 		movt	r0, #:upper16:.LANCHOR8
 859 003a 0131     		adds	r1, r1, #1
 860 003c C0F20002 		movt	r2, #:upper16:tmr
 861 0040 FFF7FEFF 		bl	chVTSetI
 862              	.LBB42:
 863 0044 2346     		mov	r3, r4
 864              	.LVL55:
 865              	@ 276 "../../test/test.c" 1
 866 0046 83F31188 		msr     BASEPRI, r3
 867              	@ 0 "" 2
 868              	.LVL56:
 869              		.thumb
 870              	.LBE42:
 871              		.loc 1 277 0
 872 004a 10BD     		pop	{r4, pc}
 873              		.cfi_endproc
 874              	.LFE78:
 875              		.size	test_start_timer, .-test_start_timer
 876 004c AFF30080 		.section	.text.TestThread,"ax",%progbits
 877              		.align	2
 878              		.p2align 4,,15
 879              		.global	TestThread
 880              		.thumb
 881              		.thumb_func
 882              		.type	TestThread, %function
 883              	TestThread:
 884              	.LFB81:
 885              		.loc 1 314 0
 886              		.cfi_startproc
 887              		@ args = 0, pretend = 0, frame = 8
 888              		@ frame_needed = 0, uses_anonymous_args = 0
 889              	.LVL57:
 890 0000 2DE9F04F 		push	{r4, r5, r6, r7, r8, r9, sl, fp, lr}
 891              	.LCFI13:
 892              		.cfi_def_cfa_offset 36
 893              		.cfi_offset 14, -4
 894              		.cfi_offset 11, -8
 895              		.cfi_offset 10, -12
 896              		.cfi_offset 9, -16
 897              		.cfi_offset 8, -20
 898              		.cfi_offset 7, -24
ARM GAS  /tmp/cciDrTO8.s 			page 17


 899              		.cfi_offset 6, -28
 900              		.cfi_offset 5, -32
 901              		.cfi_offset 4, -36
 902              		.loc 1 317 0
 903 0004 6A4E     		ldr	r6, .L85
 904              		.loc 1 314 0
 905 0006 83B0     		sub	sp, sp, #12
 906              	.LCFI14:
 907              		.cfi_def_cfa_offset 48
 908              		.loc 1 317 0
 909 0008 3060     		str	r0, [r6, #0]
 910              		.loc 1 318 0
 911 000a 6A48     		ldr	r0, .L85+4
 912              	.LVL58:
 913 000c FFF7FEFF 		bl	test_println
 914              	.LVL59:
 915              		.loc 1 319 0
 916 0010 6948     		ldr	r0, .L85+8
 917 0012 FFF7FEFF 		bl	test_println
 918              		.loc 1 320 0
 919 0016 6948     		ldr	r0, .L85+12
 920 0018 FFF7FEFF 		bl	test_println
 921              		.loc 1 321 0
 922 001c 6848     		ldr	r0, .L85+16
 923 001e FFF7FEFF 		bl	test_print
 924              		.loc 1 322 0
 925 0022 6848     		ldr	r0, .L85+20
 926 0024 FFF7FEFF 		bl	test_println
 927              		.loc 1 323 0
 928 0028 6748     		ldr	r0, .L85+24
 929 002a FFF7FEFF 		bl	test_print
 930              		.loc 1 324 0
 931 002e 6748     		ldr	r0, .L85+28
 932 0030 FFF7FEFF 		bl	test_println
 933              		.loc 1 326 0
 934 0034 6648     		ldr	r0, .L85+32
 935 0036 FFF7FEFF 		bl	test_print
 936              		.loc 1 327 0
 937 003a 6648     		ldr	r0, .L85+36
 938 003c FFF7FEFF 		bl	test_println
 939              		.loc 1 329 0
 940 0040 6548     		ldr	r0, .L85+40
 941 0042 FFF7FEFF 		bl	test_print
 942              		.loc 1 330 0
 943 0046 6548     		ldr	r0, .L85+44
 944 0048 FFF7FEFF 		bl	test_println
 945              		.loc 1 332 0
 946 004c 6448     		ldr	r0, .L85+48
 947 004e FFF7FEFF 		bl	test_print
 948              		.loc 1 333 0
 949 0052 6448     		ldr	r0, .L85+52
 950 0054 FFF7FEFF 		bl	test_println
 951              		.loc 1 336 0
 952 0058 6348     		ldr	r0, .L85+56
 953 005a FFF7FEFF 		bl	test_print
 954              		.loc 1 337 0
 955 005e 6348     		ldr	r0, .L85+60
ARM GAS  /tmp/cciDrTO8.s 			page 18


 956 0060 FFF7FEFF 		bl	test_println
 957              		.loc 1 340 0
 958 0064 6248     		ldr	r0, .L85+64
 959 0066 FFF7FEFF 		bl	test_print
 960              		.loc 1 341 0
 961 006a 6248     		ldr	r0, .L85+68
 962 006c FFF7FEFF 		bl	test_println
 963              		.loc 1 344 0
 964 0070 6148     		ldr	r0, .L85+72
 965 0072 FFF7FEFF 		bl	test_print
 966              		.loc 1 345 0
 967 0076 6148     		ldr	r0, .L85+76
 968 0078 FFF7FEFF 		bl	test_println
 969              		.loc 1 347 0
 970 007c 4D48     		ldr	r0, .L85+4
 971 007e FFF7FEFF 		bl	test_println
 972              		.loc 1 349 0
 973 0082 40F20002 		movw	r2, #:lower16:.LANCHOR4
 974 0086 4FF0000A 		mov	sl, #0
 975 008a C0F20002 		movt	r2, #:upper16:.LANCHOR4
 976 008e 5C4F     		ldr	r7, .L85+80
 977 0090 DFF8B0B1 		ldr	fp, .L85+148
 978              	.LBB43:
 979              	.LBB44:
 980              	.LBB45:
 981              	.LBB46:
 982              		.loc 1 132 0
 983 0094 5B4D     		ldr	r5, .L85+84
 984 0096 DFF89491 		ldr	r9, .L85+124
 985              	.LBE46:
 986              	.LBE45:
 987              	.LBE44:
 988              	.LBE43:
 989              		.loc 1 349 0
 990 009a 82F800A0 		strb	sl, [r2, #0]
 991              	.LVL60:
 992              	.L69:
 993              		.loc 1 351 0 discriminator 1
 994 009e 0AF1010A 		add	sl, sl, #1
 995              		.loc 1 314 0 discriminator 1
 996 00a2 4FF00008 		mov	r8, #0
 997              	.L82:
 998              	.LVL61:
 999              		.loc 1 353 0 discriminator 1
 1000 00a6 57F8043B 		ldr	r3, [r7], #4
 1001 00aa 002B     		cmp	r3, #0
 1002 00ac 5AD0     		beq	.L83
 1003              	.L76:
 1004              		.loc 1 354 0
 1005 00ae FFF7FEFF 		bl	print_line
 1006              		.loc 1 355 0
 1007 00b2 5548     		ldr	r0, .L85+88
 1008 00b4 FFF7FEFF 		bl	test_print
 1009              		.loc 1 356 0
 1010 00b8 5046     		mov	r0, sl
 1011 00ba FFF7FEFF 		bl	test_printn
 1012              		.loc 1 358 0
ARM GAS  /tmp/cciDrTO8.s 			page 19


 1013 00be 08F10108 		add	r8, r8, #1
 1014              	.LVL62:
 1015              		.loc 1 357 0
 1016 00c2 5248     		ldr	r0, .L85+92
 1017 00c4 FFF7FEFF 		bl	test_print
 1018              		.loc 1 358 0
 1019 00c8 4046     		mov	r0, r8
 1020 00ca FFF7FEFF 		bl	test_printn
 1021              		.loc 1 359 0
 1022 00ce 5048     		ldr	r0, .L85+96
 1023 00d0 FFF7FEFF 		bl	test_print
 1024              		.loc 1 360 0
 1025 00d4 57F8043C 		ldr	r3, [r7, #-4]
 1026              	.LBB52:
 1027              	.LBB49:
 1028              		.loc 1 287 0
 1029 00d8 4E4C     		ldr	r4, .L85+100
 1030              	.LBE49:
 1031              	.LBE52:
 1032              		.loc 1 360 0
 1033 00da 1868     		ldr	r0, [r3, #0]
 1034 00dc FFF7FEFF 		bl	test_print
 1035              		.loc 1 361 0
 1036 00e0 4D48     		ldr	r0, .L85+104
 1037 00e2 FFF7FEFF 		bl	test_println
 1038              		.loc 1 363 0
 1039 00e6 4FF4FA60 		mov	r0, #2000
 1040 00ea FFF7FEFF 		bl	chThdSleep
 1041              	.LBB53:
 1042              	.LBB50:
 1043              		.loc 1 289 0
 1044 00ee 4B4A     		ldr	r2, .L85+108
 1045              	.LBE50:
 1046              	.LBE53:
 1047              		.loc 1 365 0
 1048 00f0 57F8043C 		ldr	r3, [r7, #-4]
 1049              	.LVL63:
 1050              	.LBB54:
 1051              	.LBB51:
 1052              		.loc 1 287 0
 1053 00f4 0021     		movs	r1, #0
 1054              		.loc 1 289 0
 1055 00f6 1160     		str	r1, [r2, #0]
 1056 00f8 5160     		str	r1, [r2, #4]
 1057 00fa 9160     		str	r1, [r2, #8]
 1058 00fc D160     		str	r1, [r2, #12]
 1059 00fe 1161     		str	r1, [r2, #16]
 1060              		.loc 1 291 0
 1061 0100 5A68     		ldr	r2, [r3, #4]
 1062              	.LBB48:
 1063              	.LBB47:
 1064              		.loc 1 132 0
 1065 0102 C5F80090 		str	r9, [r5, #0]
 1066              	.LBE47:
 1067              	.LBE48:
 1068              		.loc 1 287 0
 1069 0106 2170     		strb	r1, [r4, #0]
ARM GAS  /tmp/cciDrTO8.s 			page 20


 1070              	.LVL64:
 1071              		.loc 1 291 0
 1072 0108 12B1     		cbz	r2, .L70
 1073              		.loc 1 292 0
 1074 010a 0193     		str	r3, [sp, #4]
 1075 010c 9047     		blx	r2
 1076              	.LVL65:
 1077 010e 019B     		ldr	r3, [sp, #4]
 1078              	.L70:
 1079              		.loc 1 293 0
 1080 0110 DA68     		ldr	r2, [r3, #12]
 1081 0112 0193     		str	r3, [sp, #4]
 1082 0114 9047     		blx	r2
 1083              		.loc 1 294 0
 1084 0116 019B     		ldr	r3, [sp, #4]
 1085 0118 9B68     		ldr	r3, [r3, #8]
 1086 011a 03B1     		cbz	r3, .L71
 1087              		.loc 1 295 0
 1088 011c 9847     		blx	r3
 1089              	.L71:
 1090              		.loc 1 297 0
 1091 011e FFF7FEFF 		bl	test_wait_threads
 1092              	.LBE51:
 1093              	.LBE54:
 1094              		.loc 1 366 0
 1095 0122 2378     		ldrb	r3, [r4, #0]	@ zero_extendqisi2
 1096 0124 002B     		cmp	r3, #0
 1097 0126 3AD0     		beq	.L72
 1098              		.loc 1 367 0
 1099 0128 3D48     		ldr	r0, .L85+112
 1100 012a FFF7FEFF 		bl	test_print
 1101              		.loc 1 368 0
 1102 012e 3D4B     		ldr	r3, .L85+116
 1103 0130 1868     		ldr	r0, [r3, #0]
 1104 0132 FFF7FEFF 		bl	test_printn
 1105              		.loc 1 369 0
 1106 0136 3C48     		ldr	r0, .L85+120
 1107 0138 FFF7FEFF 		bl	test_print
 1108              	.LVL66:
 1109              	.LBB55:
 1110              	.LBB56:
 1111              		.loc 1 138 0
 1112 013c 2B68     		ldr	r3, [r5, #0]
 1113 013e 4B45     		cmp	r3, r9
 1114 0140 09D9     		bls	.L73
 1115 0142 3A4C     		ldr	r4, .L85+124
 1116              	.LVL67:
 1117              	.L74:
 1118              		.loc 1 139 0
 1119 0144 3068     		ldr	r0, [r6, #0]
 1120 0146 14F8011B 		ldrb	r1, [r4], #1	@ zero_extendqisi2
 1121              	.LVL68:
 1122 014a 0368     		ldr	r3, [r0, #0]
 1123 014c 9B68     		ldr	r3, [r3, #8]
 1124 014e 9847     		blx	r3
 1125              	.LVL69:
 1126              		.loc 1 138 0
ARM GAS  /tmp/cciDrTO8.s 			page 21


 1127 0150 2B68     		ldr	r3, [r5, #0]
 1128 0152 A342     		cmp	r3, r4
 1129 0154 F6D8     		bhi	.L74
 1130              	.LVL70:
 1131              	.L73:
 1132              	.LBE56:
 1133              	.LBE55:
 1134              		.loc 1 371 0
 1135 0156 3648     		ldr	r0, .L85+128
 1136 0158 FFF7FEFF 		bl	test_println
 1137              	.LVL71:
 1138              		.loc 1 353 0
 1139 015c 57F8043B 		ldr	r3, [r7], #4
 1140 0160 002B     		cmp	r3, #0
 1141 0162 A4D1     		bne	.L76
 1142              	.LVL72:
 1143              	.L83:
 1144              		.loc 1 351 0
 1145 0164 5BF8047F 		ldr	r7, [fp, #4]!
 1146 0168 002F     		cmp	r7, #0
 1147 016a 98D1     		bne	.L69
 1148              		.loc 1 379 0
 1149 016c FFF7FEFF 		bl	print_line
 1150              		.loc 1 380 0
 1151 0170 1048     		ldr	r0, .L85+4
 1152 0172 FFF7FEFF 		bl	test_println
 1153              		.loc 1 381 0
 1154 0176 2F48     		ldr	r0, .L85+132
 1155 0178 FFF7FEFF 		bl	test_print
 1156              		.loc 1 382 0
 1157 017c 40F20002 		movw	r2, #:lower16:.LANCHOR4
 1158 0180 C0F20002 		movt	r2, #:upper16:.LANCHOR4
 1159 0184 1378     		ldrb	r3, [r2, #0]	@ zero_extendqisi2
 1160 0186 73B9     		cbnz	r3, .L84
 1161              		.loc 1 385 0
 1162 0188 2B48     		ldr	r0, .L85+136
 1163 018a FFF7FEFF 		bl	test_println
 1164              	.L80:
 1165              		.loc 1 388 0
 1166 018e 40F20003 		movw	r3, #:lower16:.LANCHOR4
 1167 0192 C0F20003 		movt	r3, #:upper16:.LANCHOR4
 1168 0196 1878     		ldrb	r0, [r3, #0]	@ zero_extendqisi2
 1169 0198 03B0     		add	sp, sp, #12
 1170 019a BDE8F08F 		pop	{r4, r5, r6, r7, r8, r9, sl, fp, pc}
 1171              	.LVL73:
 1172              	.L72:
 1173              		.loc 1 374 0
 1174 019e 2748     		ldr	r0, .L85+140
 1175 01a0 FFF7FEFF 		bl	test_println
 1176 01a4 7FE7     		b	.L82
 1177              	.LVL74:
 1178              	.L84:
 1179              		.loc 1 383 0
 1180 01a6 2648     		ldr	r0, .L85+144
 1181 01a8 FFF7FEFF 		bl	test_println
 1182 01ac EFE7     		b	.L80
 1183              	.L86:
ARM GAS  /tmp/cciDrTO8.s 			page 22


 1184 01ae 00BF     		.align	2
 1185              	.L85:
 1186 01b0 00000000 		.word	.LANCHOR1
 1187 01b4 04000000 		.word	.LC1
 1188 01b8 08000000 		.word	.LC2
 1189 01bc 24000000 		.word	.LC3
 1190 01c0 28000000 		.word	.LC4
 1191 01c4 3C000000 		.word	.LC5
 1192 01c8 44000000 		.word	.LC6
 1193 01cc 58000000 		.word	.LC7
 1194 01d0 70000000 		.word	.LC8
 1195 01d4 84000000 		.word	.LC9
 1196 01d8 A4000000 		.word	.LC10
 1197 01dc B8000000 		.word	.LC11
 1198 01e0 C0000000 		.word	.LC12
 1199 01e4 D4000000 		.word	.LC13
 1200 01e8 E0000000 		.word	.LC14
 1201 01ec F4000000 		.word	.LC15
 1202 01f0 0C010000 		.word	.LC16
 1203 01f4 20010000 		.word	.LC17
 1204 01f8 3C010000 		.word	.LC18
 1205 01fc 50010000 		.word	.LC19
 1206 0200 00000000 		.word	patternthd
 1207 0204 00000000 		.word	.LANCHOR2
 1208 0208 64010000 		.word	.LC20
 1209 020c 74010000 		.word	.LC21
 1210 0210 78010000 		.word	.LC22
 1211 0214 00000000 		.word	.LANCHOR3
 1212 0218 7C010000 		.word	.LC23
 1213 021c 00000000 		.word	.LANCHOR7
 1214 0220 80010000 		.word	.LC24
 1215 0224 00000000 		.word	.LANCHOR5
 1216 0228 98010000 		.word	.LC25
 1217 022c 00000000 		.word	.LANCHOR6
 1218 0230 9C010000 		.word	.LC26
 1219 0234 B4010000 		.word	.LC28
 1220 0238 CC010000 		.word	.LC30
 1221 023c A0010000 		.word	.LC27
 1222 0240 C4010000 		.word	.LC29
 1223 0244 00000000 		.word	.LANCHOR9
 1224              		.cfi_endproc
 1225              	.LFE81:
 1226              		.size	TestThread, .-TestThread
 1227              		.global	test_timer_done
 1228              		.global	wa
 1229              		.global	threads
 1230              		.global	test
 1231 0248 AFF30080 		.section	.bss.test,"aw",%nobits
 1231      AFF30080 
 1232              		.align	3
 1233              		.type	test, %object
 1234              		.size	test, 1520
 1235              	test:
 1236 0000 00000000 		.space	1520
 1236      00000000 
 1236      00000000 
 1236      00000000 
ARM GAS  /tmp/cciDrTO8.s 			page 23


 1236      00000000 
 1237              		.section	.bss.failpoint,"aw",%nobits
 1238              		.align	2
 1239              		.set	.LANCHOR5,. + 0
 1240              		.type	failpoint, %object
 1241              		.size	failpoint, 4
 1242              	failpoint:
 1243 0000 00000000 		.space	4
 1244              		.section	.bss.local_fail,"aw",%nobits
 1245              		.set	.LANCHOR3,. + 0
 1246              		.type	local_fail, %object
 1247              		.size	local_fail, 1
 1248              	local_fail:
 1249 0000 00       		.space	1
 1250              		.section	.bss.test_timer_done,"aw",%nobits
 1251              		.set	.LANCHOR0,. + 0
 1252              		.type	test_timer_done, %object
 1253              		.size	test_timer_done, 1
 1254              	test_timer_done:
 1255 0000 00       		.space	1
 1256              		.section	.rodata.wa,"a",%progbits
 1257              		.align	2
 1258              		.type	wa, %object
 1259              		.size	wa, 20
 1260              	wa:
 1261 0000 00000000 		.word	test
 1262 0004 30010000 		.word	test+304
 1263 0008 60020000 		.word	test+608
 1264 000c 90030000 		.word	test+912
 1265 0010 C0040000 		.word	test+1216
 1266              		.section	.bss.tokp,"aw",%nobits
 1267              		.align	2
 1268              		.set	.LANCHOR2,. + 0
 1269              		.type	tokp, %object
 1270              		.size	tokp, 4
 1271              	tokp:
 1272 0000 00000000 		.space	4
 1273              		.section	.bss.global_fail,"aw",%nobits
 1274              		.set	.LANCHOR4,. + 0
 1275              		.type	global_fail, %object
 1276              		.size	global_fail, 1
 1277              	global_fail:
 1278 0000 00       		.space	1
 1279              		.section	.rodata.str1.4,"aMS",%progbits,1
 1280              		.align	2
 1281              	.LC0:
 1282 0000 0D0A00   		.ascii	"\015\012\000"
 1283 0003 00       		.space	1
 1284              	.LC1:
 1285 0004 00       		.ascii	"\000"
 1286 0005 000000   		.space	3
 1287              	.LC2:
 1288 0008 2A2A2A20 		.ascii	"*** ChibiOS/RT test suite\000"
 1288      43686962 
 1288      694F532F 
 1288      52542074 
 1288      65737420 
ARM GAS  /tmp/cciDrTO8.s 			page 24


 1289 0022 0000     		.space	2
 1290              	.LC3:
 1291 0024 2A2A2A00 		.ascii	"***\000"
 1292              	.LC4:
 1293 0028 2A2A2A20 		.ascii	"*** Kernel:       \000"
 1293      4B65726E 
 1293      656C3A20 
 1293      20202020 
 1293      202000
 1294 003b 00       		.space	1
 1295              	.LC5:
 1296 003c 322E362E 		.ascii	"2.6.1\000"
 1296      3100
 1297 0042 0000     		.space	2
 1298              	.LC6:
 1299 0044 2A2A2A20 		.ascii	"*** Compiled:     \000"
 1299      436F6D70 
 1299      696C6564 
 1299      3A202020 
 1299      202000
 1300 0057 00       		.space	1
 1301              	.LC7:
 1302 0058 4F637420 		.ascii	"Oct  1 2013 - 17:19:56\000"
 1302      20312032 
 1302      30313320 
 1302      2D203137 
 1302      3A31393A 
 1303 006f 00       		.space	1
 1304              	.LC8:
 1305 0070 2A2A2A20 		.ascii	"*** Compiler:     \000"
 1305      436F6D70 
 1305      696C6572 
 1305      3A202020 
 1305      202000
 1306 0083 00       		.space	1
 1307              	.LC9:
 1308 0084 47434320 		.ascii	"GCC 4.6.2 20110908 (prerelease)\000"
 1308      342E362E 
 1308      32203230 
 1308      31313039 
 1308      30382028 
 1309              	.LC10:
 1310 00a4 2A2A2A20 		.ascii	"*** Architecture: \000"
 1310      41726368 
 1310      69746563 
 1310      74757265 
 1310      3A2000
 1311 00b7 00       		.space	1
 1312              	.LC11:
 1313 00b8 41524D76 		.ascii	"ARMv7-M\000"
 1313      372D4D00 
 1314              	.LC12:
 1315 00c0 2A2A2A20 		.ascii	"*** Core Variant: \000"
 1315      436F7265 
 1315      20566172 
 1315      69616E74 
 1315      3A2000
ARM GAS  /tmp/cciDrTO8.s 			page 25


 1316 00d3 00       		.space	1
 1317              	.LC13:
 1318 00d4 436F7274 		.ascii	"Cortex-M3\000"
 1318      65782D4D 
 1318      3300
 1319 00de 0000     		.space	2
 1320              	.LC14:
 1321 00e0 2A2A2A20 		.ascii	"*** Port Info:    \000"
 1321      506F7274 
 1321      20496E66 
 1321      6F3A2020 
 1321      202000
 1322 00f3 00       		.space	1
 1323              	.LC15:
 1324 00f4 41647661 		.ascii	"Advanced kernel mode\000"
 1324      6E636564 
 1324      206B6572 
 1324      6E656C20 
 1324      6D6F6465 
 1325 0109 000000   		.space	3
 1326              	.LC16:
 1327 010c 2A2A2A20 		.ascii	"*** Platform:     \000"
 1327      506C6174 
 1327      666F726D 
 1327      3A202020 
 1327      202000
 1328 011f 00       		.space	1
 1329              	.LC17:
 1330 0120 53544D33 		.ascii	"STM32F10x Connectivity Line\000"
 1330      32463130 
 1330      7820436F 
 1330      6E6E6563 
 1330      74697669 
 1331              	.LC18:
 1332 013c 2A2A2A20 		.ascii	"*** Test Board:   \000"
 1332      54657374 
 1332      20426F61 
 1332      72643A20 
 1332      202000
 1333 014f 00       		.space	1
 1334              	.LC19:
 1335 0150 4C696120 		.ascii	"Lia 1.1 STM32F105RC\000"
 1335      312E3120 
 1335      53544D33 
 1335      32463130 
 1335      35524300 
 1336              	.LC20:
 1337 0164 2D2D2D20 		.ascii	"--- Test Case \000"
 1337      54657374 
 1337      20436173 
 1337      652000
 1338 0173 00       		.space	1
 1339              	.LC21:
 1340 0174 2E00     		.ascii	".\000"
 1341 0176 0000     		.space	2
 1342              	.LC22:
 1343 0178 202800   		.ascii	" (\000"
ARM GAS  /tmp/cciDrTO8.s 			page 26


 1344 017b 00       		.space	1
 1345              	.LC23:
 1346 017c 2900     		.ascii	")\000"
 1347 017e 0000     		.space	2
 1348              	.LC24:
 1349 0180 2D2D2D20 		.ascii	"--- Result: FAILURE (#\000"
 1349      52657375 
 1349      6C743A20 
 1349      4641494C 
 1349      55524520 
 1350 0197 00       		.space	1
 1351              	.LC25:
 1352 0198 205B00   		.ascii	" [\000"
 1353 019b 00       		.space	1
 1354              	.LC26:
 1355 019c 5D2900   		.ascii	"])\000"
 1356 019f 00       		.space	1
 1357              	.LC27:
 1358 01a0 2D2D2D20 		.ascii	"--- Result: SUCCESS\000"
 1358      52657375 
 1358      6C743A20 
 1358      53554343 
 1358      45535300 
 1359              	.LC28:
 1360 01b4 46696E61 		.ascii	"Final result: \000"
 1360      6C207265 
 1360      73756C74 
 1360      3A2000
 1361 01c3 00       		.space	1
 1362              	.LC29:
 1363 01c4 4641494C 		.ascii	"FAILURE\000"
 1363      55524500 
 1364              	.LC30:
 1365 01cc 53554343 		.ascii	"SUCCESS\000"
 1365      45535300 
 1366              		.section	.bss.vt,"aw",%nobits
 1367              		.align	2
 1368              		.set	.LANCHOR8,. + 0
 1369              		.type	vt, %object
 1370              		.size	vt, 20
 1371              	vt:
 1372 0000 00000000 		.space	20
 1372      00000000 
 1372      00000000 
 1372      00000000 
 1372      00000000 
 1373              		.section	.bss.threads,"aw",%nobits
 1374              		.align	2
 1375              		.set	.LANCHOR7,. + 0
 1376              		.type	threads, %object
 1377              		.size	threads, 20
 1378              	threads:
 1379 0000 00000000 		.space	20
 1379      00000000 
 1379      00000000 
 1379      00000000 
 1379      00000000 
ARM GAS  /tmp/cciDrTO8.s 			page 27


 1380              		.section	.rodata.patterns,"a",%progbits
 1381              		.align	2
 1382              		.set	.LANCHOR9,. + 0
 1383              		.type	patterns, %object
 1384              		.size	patterns, 48
 1385              	patterns:
 1386 0000 00000000 		.word	patternthd
 1387 0004 00000000 		.word	patternsem
 1388 0008 00000000 		.word	patternmtx
 1389 000c 00000000 		.word	patternmsg
 1390 0010 00000000 		.word	patternmbox
 1391 0014 00000000 		.word	patternevt
 1392 0018 00000000 		.word	patternheap
 1393 001c 00000000 		.word	patternpools
 1394 0020 00000000 		.word	patterndyn
 1395 0024 00000000 		.word	patternqueues
 1396 0028 00000000 		.word	patternbmk
 1397 002c 00000000 		.word	0
 1398              		.section	.bss.chp,"aw",%nobits
 1399              		.align	2
 1400              		.set	.LANCHOR1,. + 0
 1401              		.type	chp, %object
 1402              		.size	chp, 4
 1403              	chp:
 1404 0000 00000000 		.space	4
 1405              		.section	.bss.tokens_buffer,"aw",%nobits
 1406              		.align	2
 1407              		.set	.LANCHOR6,. + 0
 1408              		.type	tokens_buffer, %object
 1409              		.size	tokens_buffer, 16
 1410              	tokens_buffer:
 1411 0000 00000000 		.space	16
 1411      00000000 
 1411      00000000 
 1411      00000000 
 1412              		.text
 1413              	.Letext0:
 1414              		.file 2 "/opt/paparazzi/arm-multilib/lib/gcc/arm-none-eabi/4.6.2/include/stddef.h"
 1415              		.file 3 "/opt/paparazzi/arm-multilib/lib/gcc/arm-none-eabi/4.6.2/../../../../arm-none-eabi/include
 1416              		.file 4 "../../os/ports/GCC/ARMCMx/chtypes.h"
 1417              		.file 5 "../../os/kernel/include/chlists.h"
 1418              		.file 6 "../../os/kernel/include/chthreads.h"
 1419              		.file 7 "../../os/ports/GCC/ARMCMx/chcore_v7m.h"
 1420              		.file 8 "../../os/kernel/include/chvt.h"
 1421              		.file 9 "../../os/kernel/include/chschd.h"
 1422              		.file 10 "../../os/kernel/include/chmtx.h"
 1423              		.file 11 "../../os/kernel/include/chstreams.h"
 1424              		.file 12 "../../test/test.h"
 1425              		.file 13 "../../os/ports/common/ARMCMx/CMSIS/include/core_cm3.h"
 1426              		.file 14 "../../test/testthd.h"
 1427              		.file 15 "../../test/testsem.h"
 1428              		.file 16 "../../test/testmtx.h"
 1429              		.file 17 "../../test/testmsg.h"
 1430              		.file 18 "../../test/testmbox.h"
 1431              		.file 19 "../../test/testevt.h"
 1432              		.file 20 "../../test/testheap.h"
 1433              		.file 21 "../../test/testpools.h"
ARM GAS  /tmp/cciDrTO8.s 			page 28


 1434              		.file 22 "../../test/testdyn.h"
 1435              		.file 23 "../../test/testqueues.h"
 1436              		.file 24 "../../test/testbmk.h"