ARM GAS  /tmp/cclYiyTf.s 			page 1


   1              		.syntax unified
   2              		.cpu cortex-m3
   3              		.fpu softvfp
   4              		.eabi_attribute 20, 1
   5              		.eabi_attribute 21, 1
   6              		.eabi_attribute 23, 3
   7              		.eabi_attribute 24, 1
   8              		.eabi_attribute 25, 1
   9              		.eabi_attribute 26, 1
  10              		.eabi_attribute 30, 2
  11              		.eabi_attribute 18, 4
  12              		.thumb
  13              		.file	"testdyn.c"
  14              		.text
  15              	.Ltext0:
  16              		.cfi_sections	.debug_frame
  17              		.section	.text.regfind,"ax",%progbits
  18              		.align	2
  19              		.p2align 4,,15
  20              		.thumb
  21              		.thumb_func
  22              		.type	regfind, %function
  23              	regfind:
  24              	.LFB12:
  25              		.file 1 "../../test/testdyn.c"
  26              		.loc 1 191 0
  27              		.cfi_startproc
  28              		@ args = 0, pretend = 0, frame = 0
  29              		@ frame_needed = 0, uses_anonymous_args = 0
  30              	.LVL0:
  31 0000 38B5     		push	{r3, r4, r5, lr}
  32              	.LCFI0:
  33              		.cfi_def_cfa_offset 16
  34              		.cfi_offset 14, -4
  35              		.cfi_offset 5, -8
  36              		.cfi_offset 4, -12
  37              		.cfi_offset 3, -16
  38              		.loc 1 191 0
  39 0002 0546     		mov	r5, r0
  40              		.loc 1 195 0
  41 0004 FFF7FEFF 		bl	chRegFirstThread
  42              	.LVL1:
  43              		.loc 1 193 0
  44 0008 0024     		movs	r4, #0
  45              		.loc 1 195 0
  46 000a 0346     		mov	r3, r0
  47              	.LVL2:
  48              	.L2:
  49              		.loc 1 198 0 discriminator 1
  50 000c 1846     		mov	r0, r3
  51              	.LVL3:
  52              		.loc 1 197 0 discriminator 1
  53 000e AB42     		cmp	r3, r5
  54 0010 08BF     		it	eq
  55 0012 44F00104 		orreq	r4, r4, #1
  56              	.LVL4:
  57              		.loc 1 198 0 discriminator 1
ARM GAS  /tmp/cclYiyTf.s 			page 2


  58 0016 FFF7FEFF 		bl	chRegNextThread
  59              	.LVL5:
  60              		.loc 1 199 0 discriminator 1
  61 001a 0346     		mov	r3, r0
  62 001c 0028     		cmp	r0, #0
  63 001e F5D1     		bne	.L2
  64              		.loc 1 201 0
  65 0020 2046     		mov	r0, r4
  66              	.LVL6:
  67 0022 38BD     		pop	{r3, r4, r5, pc}
  68              		.cfi_endproc
  69              	.LFE12:
  70              		.size	regfind, .-regfind
  71 0024 AFF30080 		.section	.text.dyn3_execute,"ax",%progbits
  71      AFF30080 
  71      AFF30080 
  72              		.align	2
  73              		.p2align 4,,15
  74              		.thumb
  75              		.thumb_func
  76              		.type	dyn3_execute, %function
  77              	dyn3_execute:
  78              	.LFB14:
  79              		.loc 1 208 0
  80              		.cfi_startproc
  81              		@ args = 0, pretend = 0, frame = 0
  82              		@ frame_needed = 0, uses_anonymous_args = 0
  83              	.LVL7:
  84              		.loc 1 210 0
  85 0000 4C4B     		ldr	r3, .L8
  86              		.loc 1 208 0
  87 0002 10B5     		push	{r4, lr}
  88              	.LCFI1:
  89              		.cfi_def_cfa_offset 8
  90              		.cfi_offset 14, -4
  91              		.cfi_offset 4, -8
  92              		.loc 1 210 0
  93 0004 9B69     		ldr	r3, [r3, #24]
  94              		.loc 1 213 0
  95 0006 4C4C     		ldr	r4, .L8+4
  96 0008 9A68     		ldr	r2, [r3, #8]
  97              		.loc 1 208 0
  98 000a 82B0     		sub	sp, sp, #8
  99              	.LCFI2:
 100              		.cfi_def_cfa_offset 16
 101              		.loc 1 213 0
 102 000c 4FF49871 		mov	r1, #304
 103 0010 013A     		subs	r2, r2, #1
 104 0012 4A48     		ldr	r0, .L8+8
 105 0014 4A4B     		ldr	r3, .L8+12
 106 0016 0094     		str	r4, [sp, #0]
 107 0018 FFF7FEFF 		bl	chThdCreateFromHeap
 108              	.LVL8:
 109              		.loc 1 214 0
 110 001c 817F     		ldrb	r1, [r0, #30]	@ zero_extendqisi2
 111              		.loc 1 213 0
 112 001e 0446     		mov	r4, r0
ARM GAS  /tmp/cclYiyTf.s 			page 3


 113              	.LVL9:
 114              		.loc 1 214 0
 115 0020 0120     		movs	r0, #1
 116              	.LVL10:
 117 0022 C0EB010C 		rsb	ip, r0, r1
 118 0026 DCF10001 		rsbs	r1, ip, #0
 119 002a 41EB0C01 		adc	r1, r1, ip
 120 002e FFF7FEFF 		bl	_test_assert
 121 0032 08B1     		cbz	r0, .L7
 122              	.L5:
 123              		.loc 1 236 0
 124 0034 02B0     		add	sp, sp, #8
 125 0036 10BD     		pop	{r4, pc}
 126              	.L7:
 127              		.loc 1 215 0
 128 0038 2046     		mov	r0, r4
 129 003a FFF7FEFF 		bl	chThdAddRef
 130              		.loc 1 216 0
 131 003e A17F     		ldrb	r1, [r4, #30]	@ zero_extendqisi2
 132 0040 0220     		movs	r0, #2
 133 0042 C0EB010E 		rsb	lr, r0, r1
 134 0046 DEF10001 		rsbs	r1, lr, #0
 135 004a 41EB0E01 		adc	r1, r1, lr
 136 004e FFF7FEFF 		bl	_test_assert
 137 0052 0028     		cmp	r0, #0
 138 0054 EED1     		bne	.L5
 139              		.loc 1 217 0
 140 0056 2046     		mov	r0, r4
 141 0058 FFF7FEFF 		bl	chThdRelease
 142              		.loc 1 218 0
 143 005c A17F     		ldrb	r1, [r4, #30]	@ zero_extendqisi2
 144 005e 0320     		movs	r0, #3
 145 0060 A1F10102 		sub	r2, r1, #1
 146 0064 5142     		rsbs	r1, r2, #0
 147 0066 41EB0201 		adc	r1, r1, r2
 148 006a FFF7FEFF 		bl	_test_assert
 149 006e 0028     		cmp	r0, #0
 150 0070 E0D1     		bne	.L5
 151              		.loc 1 221 0
 152 0072 2046     		mov	r0, r4
 153 0074 FFF7FEFF 		bl	regfind
 154 0078 0146     		mov	r1, r0
 155 007a 0420     		movs	r0, #4
 156 007c FFF7FEFF 		bl	_test_assert
 157 0080 0028     		cmp	r0, #0
 158 0082 D7D1     		bne	.L5
 159              		.loc 1 222 0
 160 0084 2046     		mov	r0, r4
 161 0086 FFF7FEFF 		bl	regfind
 162 008a 0146     		mov	r1, r0
 163 008c 0520     		movs	r0, #5
 164 008e FFF7FEFF 		bl	_test_assert
 165 0092 0028     		cmp	r0, #0
 166 0094 CED1     		bne	.L5
 167              		.loc 1 225 0
 168 0096 2046     		mov	r0, r4
 169 0098 FFF7FEFF 		bl	chThdRelease
ARM GAS  /tmp/cclYiyTf.s 			page 4


 170              		.loc 1 226 0
 171 009c A17F     		ldrb	r1, [r4, #30]	@ zero_extendqisi2
 172 009e 0620     		movs	r0, #6
 173 00a0 D1F10101 		rsbs	r1, r1, #1
 174 00a4 38BF     		it	cc
 175 00a6 0021     		movcc	r1, #0
 176 00a8 FFF7FEFF 		bl	_test_assert
 177 00ac 0028     		cmp	r0, #0
 178 00ae C1D1     		bne	.L5
 179              		.loc 1 227 0
 180 00b0 217F     		ldrb	r1, [r4, #28]	@ zero_extendqisi2
 181 00b2 0720     		movs	r0, #7
 182 00b4 D1F10101 		rsbs	r1, r1, #1
 183 00b8 38BF     		it	cc
 184 00ba 0021     		movcc	r1, #0
 185 00bc FFF7FEFF 		bl	_test_assert
 186 00c0 0028     		cmp	r0, #0
 187 00c2 B7D1     		bne	.L5
 188              		.loc 1 228 0
 189 00c4 2046     		mov	r0, r4
 190 00c6 FFF7FEFF 		bl	regfind
 191 00ca 0146     		mov	r1, r0
 192 00cc 0820     		movs	r0, #8
 193 00ce FFF7FEFF 		bl	_test_assert
 194 00d2 0028     		cmp	r0, #0
 195 00d4 AED1     		bne	.L5
 196              		.loc 1 229 0
 197 00d6 2046     		mov	r0, r4
 198 00d8 FFF7FEFF 		bl	regfind
 199 00dc 0146     		mov	r1, r0
 200 00de 0920     		movs	r0, #9
 201 00e0 FFF7FEFF 		bl	_test_assert
 202 00e4 0028     		cmp	r0, #0
 203 00e6 A5D1     		bne	.L5
 204              		.loc 1 230 0
 205 00e8 4FF4FA70 		mov	r0, #500
 206 00ec FFF7FEFF 		bl	chThdSleep
 207              		.loc 1 231 0
 208 00f0 217F     		ldrb	r1, [r4, #28]	@ zero_extendqisi2
 209 00f2 0A20     		movs	r0, #10
 210 00f4 A1F10E03 		sub	r3, r1, #14
 211 00f8 5942     		rsbs	r1, r3, #0
 212 00fa 41EB0301 		adc	r1, r1, r3
 213 00fe FFF7FEFF 		bl	_test_assert
 214 0102 0028     		cmp	r0, #0
 215 0104 96D1     		bne	.L5
 216              		.loc 1 234 0
 217 0106 2046     		mov	r0, r4
 218 0108 FFF7FEFF 		bl	regfind
 219 010c 0146     		mov	r1, r0
 220 010e 0B20     		movs	r0, #11
 221 0110 FFF7FEFF 		bl	_test_assert
 222 0114 0028     		cmp	r0, #0
 223 0116 8DD1     		bne	.L5
 224              		.loc 1 235 0
 225 0118 2046     		mov	r0, r4
 226 011a FFF7FEFF 		bl	regfind
ARM GAS  /tmp/cclYiyTf.s 			page 5


 227 011e D0F10101 		rsbs	r1, r0, #1
 228 0122 38BF     		it	cc
 229 0124 0021     		movcc	r1, #0
 230 0126 0C20     		movs	r0, #12
 231              		.loc 1 236 0
 232 0128 02B0     		add	sp, sp, #8
 233 012a BDE81040 		pop	{r4, lr}
 234              		.loc 1 235 0
 235 012e FFF7FEBF 		b	_test_assert
 236              	.L9:
 237 0132 00BF     		.align	2
 238              	.L8:
 239 0134 00000000 		.word	rlist
 240 0138 00000000 		.word	.LC0
 241 013c 00000000 		.word	.LANCHOR0
 242 0140 00000000 		.word	thread
 243              		.cfi_endproc
 244              	.LFE14:
 245              		.size	dyn3_execute, .-dyn3_execute
 246 0144 AFF30080 		.section	.text.thread,"ax",%progbits
 246      AFF30080 
 246      AFF30080 
 247              		.align	2
 248              		.p2align 4,,15
 249              		.thumb
 250              		.thumb_func
 251              		.type	thread, %function
 252              	thread:
 253              	.LFB7:
 254              		.loc 1 71 0
 255              		.cfi_startproc
 256              		@ args = 0, pretend = 0, frame = 0
 257              		@ frame_needed = 0, uses_anonymous_args = 0
 258              	.LVL11:
 259 0000 08B5     		push	{r3, lr}
 260              	.LCFI3:
 261              		.cfi_def_cfa_offset 8
 262              		.cfi_offset 14, -4
 263              		.cfi_offset 3, -8
 264              		.loc 1 73 0
 265 0002 0078     		ldrb	r0, [r0, #0]	@ zero_extendqisi2
 266              	.LVL12:
 267 0004 FFF7FEFF 		bl	test_emit_token
 268              		.loc 1 75 0
 269 0008 0020     		movs	r0, #0
 270 000a 08BD     		pop	{r3, pc}
 271              		.cfi_endproc
 272              	.LFE7:
 273              		.size	thread, .-thread
 274 000c AFF30080 		.section	.text.dyn3_setup,"ax",%progbits
 275              		.align	2
 276              		.p2align 4,,15
 277              		.thumb
 278              		.thumb_func
 279              		.type	dyn3_setup, %function
 280              	dyn3_setup:
 281              	.LFB13:
ARM GAS  /tmp/cclYiyTf.s 			page 6


 282              		.loc 1 203 0
 283              		.cfi_startproc
 284              		@ args = 0, pretend = 0, frame = 0
 285              		@ frame_needed = 0, uses_anonymous_args = 0
 286              		@ link register save eliminated.
 287              		.loc 1 205 0
 288 0000 40F20000 		movw	r0, #:lower16:.LANCHOR0
 289 0004 40F20001 		movw	r1, #:lower16:test
 290 0008 C0F20000 		movt	r0, #:upper16:.LANCHOR0
 291 000c C0F20001 		movt	r1, #:upper16:test
 292 0010 4FF4BE62 		mov	r2, #1520
 293              		.loc 1 206 0
 294              		.loc 1 205 0
 295 0014 FFF7FEBF 		b	chHeapInit
 296              		.cfi_endproc
 297              	.LFE13:
 298              		.size	dyn3_setup, .-dyn3_setup
 299 0018 AFF30080 		.section	.text.dyn1_setup,"ax",%progbits
 299      AFF30080 
 300              		.align	2
 301              		.p2align 4,,15
 302              		.thumb
 303              		.thumb_func
 304              		.type	dyn1_setup, %function
 305              	dyn1_setup:
 306              	.LFB8:
 307              		.loc 1 78 0
 308              		.cfi_startproc
 309              		@ args = 0, pretend = 0, frame = 0
 310              		@ frame_needed = 0, uses_anonymous_args = 0
 311              		@ link register save eliminated.
 312              		.loc 1 80 0
 313 0000 40F20000 		movw	r0, #:lower16:.LANCHOR0
 314 0004 40F20001 		movw	r1, #:lower16:test
 315 0008 C0F20000 		movt	r0, #:upper16:.LANCHOR0
 316 000c C0F20001 		movt	r1, #:upper16:test
 317 0010 4FF4BE62 		mov	r2, #1520
 318              		.loc 1 81 0
 319              		.loc 1 80 0
 320 0014 FFF7FEBF 		b	chHeapInit
 321              		.cfi_endproc
 322              	.LFE8:
 323              		.size	dyn1_setup, .-dyn1_setup
 324 0018 AFF30080 		.section	.text.dyn2_execute,"ax",%progbits
 324      AFF30080 
 325              		.align	2
 326              		.p2align 4,,15
 327              		.thumb
 328              		.thumb_func
 329              		.type	dyn2_execute, %function
 330              	dyn2_execute:
 331              	.LFB11:
 332              		.loc 1 141 0
 333              		.cfi_startproc
 334              		@ args = 0, pretend = 0, frame = 0
 335              		@ frame_needed = 0, uses_anonymous_args = 0
 336              		.loc 1 143 0
ARM GAS  /tmp/cclYiyTf.s 			page 7


 337 0000 324B     		ldr	r3, .L25
 338              		.loc 1 141 0
 339 0002 70B5     		push	{r4, r5, r6, lr}
 340              	.LCFI4:
 341              		.cfi_def_cfa_offset 16
 342              		.cfi_offset 14, -4
 343              		.cfi_offset 6, -8
 344              		.cfi_offset 5, -12
 345              		.cfi_offset 4, -16
 346              		.loc 1 143 0
 347 0004 9B69     		ldr	r3, [r3, #24]
 348 0006 324C     		ldr	r4, .L25+4
 349 0008 9D68     		ldr	r5, [r3, #8]
 350              	.LVL13:
 351              		.loc 1 141 0
 352 000a 04F11006 		add	r6, r4, #16
 353              	.LVL14:
 354              	.L14:
 355              		.loc 1 147 0 discriminator 2
 356 000e 54F8041B 		ldr	r1, [r4], #4
 357 0012 3048     		ldr	r0, .L25+8
 358 0014 FFF7FEFF 		bl	chPoolFree
 359              		.loc 1 146 0 discriminator 2
 360 0018 B442     		cmp	r4, r6
 361 001a F8D1     		bne	.L14
 362              		.loc 1 150 0
 363 001c 691E     		subs	r1, r5, #1
 364 001e 2E4A     		ldr	r2, .L25+12
 365 0020 2E4B     		ldr	r3, .L25+16
 366 0022 2C48     		ldr	r0, .L25+8
 367 0024 FFF7FEFF 		bl	chThdCreateFromMemoryPool
 368 0028 2D4C     		ldr	r4, .L25+20
 369              		.loc 1 151 0
 370 002a A91E     		subs	r1, r5, #2
 371              		.loc 1 150 0
 372 002c 2060     		str	r0, [r4, #0]
 373              		.loc 1 151 0
 374 002e 2A4A     		ldr	r2, .L25+12
 375 0030 2C4B     		ldr	r3, .L25+24
 376 0032 2848     		ldr	r0, .L25+8
 377 0034 FFF7FEFF 		bl	chThdCreateFromMemoryPool
 378              		.loc 1 152 0
 379 0038 E91E     		subs	r1, r5, #3
 380              		.loc 1 151 0
 381 003a 6060     		str	r0, [r4, #4]
 382              		.loc 1 152 0
 383 003c 264A     		ldr	r2, .L25+12
 384 003e 2A4B     		ldr	r3, .L25+28
 385 0040 2448     		ldr	r0, .L25+8
 386 0042 FFF7FEFF 		bl	chThdCreateFromMemoryPool
 387              		.loc 1 153 0
 388 0046 291F     		subs	r1, r5, #4
 389              		.loc 1 152 0
 390 0048 A060     		str	r0, [r4, #8]
 391              		.loc 1 153 0
 392 004a 234A     		ldr	r2, .L25+12
 393 004c 274B     		ldr	r3, .L25+32
ARM GAS  /tmp/cclYiyTf.s 			page 8


 394 004e 2148     		ldr	r0, .L25+8
 395 0050 FFF7FEFF 		bl	chThdCreateFromMemoryPool
 396              		.loc 1 154 0
 397 0054 691F     		subs	r1, r5, #5
 398              		.loc 1 153 0
 399 0056 E060     		str	r0, [r4, #12]
 400              		.loc 1 154 0
 401 0058 1F4A     		ldr	r2, .L25+12
 402 005a 1E48     		ldr	r0, .L25+8
 403 005c 244B     		ldr	r3, .L25+36
 404 005e FFF7FEFF 		bl	chThdCreateFromMemoryPool
 405              		.loc 1 156 0
 406 0062 2168     		ldr	r1, [r4, #0]
 407              		.loc 1 154 0
 408 0064 2061     		str	r0, [r4, #16]
 409              		.loc 1 156 0
 410 0066 49B1     		cbz	r1, .L15
 411              		.loc 1 156 0 is_stmt 0 discriminator 1
 412 0068 6168     		ldr	r1, [r4, #4]
 413 006a 39B1     		cbz	r1, .L15
 414              		.loc 1 156 0 discriminator 3
 415 006c A168     		ldr	r1, [r4, #8]
 416 006e 29B1     		cbz	r1, .L15
 417              		.loc 1 156 0 discriminator 4
 418 0070 E168     		ldr	r1, [r4, #12]
 419 0072 19B1     		cbz	r1, .L15
 420              		.loc 1 141 0 is_stmt 1 discriminator 5
 421 0074 D0F10101 		rsbs	r1, r0, #1
 422 0078 38BF     		it	cc
 423 007a 0021     		movcc	r1, #0
 424              	.L15:
 425              		.loc 1 156 0 discriminator 7
 426 007c 0120     		movs	r0, #1
 427 007e FFF7FEFF 		bl	_test_assert
 428 0082 00B1     		cbz	r0, .L24
 429              	.L13:
 430 0084 70BD     		pop	{r4, r5, r6, pc}
 431              	.L24:
 432              		.loc 1 164 0
 433 0086 FFF7FEFF 		bl	test_wait_threads
 434              		.loc 1 165 0
 435 008a 0220     		movs	r0, #2
 436 008c 1949     		ldr	r1, .L25+40
 437 008e FFF7FEFF 		bl	_test_assert_sequence
 438 0092 0028     		cmp	r0, #0
 439 0094 F6D1     		bne	.L13
 440 0096 0424     		movs	r4, #4
 441              	.L17:
 442              		.loc 1 169 0
 443 0098 0E48     		ldr	r0, .L25+8
 444 009a FFF7FEFF 		bl	chPoolAlloc
 445 009e 011C     		adds	r1, r0, #0
 446 00a0 18BF     		it	ne
 447 00a2 0121     		movne	r1, #1
 448 00a4 0320     		movs	r0, #3
 449 00a6 FFF7FEFF 		bl	_test_assert
 450 00aa 0028     		cmp	r0, #0
ARM GAS  /tmp/cclYiyTf.s 			page 9


 451 00ac EAD1     		bne	.L13
 452              		.loc 1 168 0
 453 00ae 013C     		subs	r4, r4, #1
 454 00b0 F2D1     		bne	.L17
 455              		.loc 1 170 0
 456 00b2 0848     		ldr	r0, .L25+8
 457 00b4 FFF7FEFF 		bl	chPoolAlloc
 458 00b8 D0F10101 		rsbs	r1, r0, #1
 459 00bc 38BF     		it	cc
 460 00be 0021     		movcc	r1, #0
 461 00c0 0420     		movs	r0, #4
 462              		.loc 1 171 0
 463 00c2 BDE87040 		pop	{r4, r5, r6, lr}
 464              		.loc 1 170 0
 465 00c6 FFF7FEBF 		b	_test_assert
 466              	.L26:
 467 00ca 00BF     		.align	2
 468              	.L25:
 469 00cc 00000000 		.word	rlist
 470 00d0 00000000 		.word	wa
 471 00d4 00000000 		.word	.LANCHOR1
 472 00d8 00000000 		.word	thread
 473 00dc 00000000 		.word	.LC0
 474 00e0 00000000 		.word	threads
 475 00e4 04000000 		.word	.LC1
 476 00e8 08000000 		.word	.LC2
 477 00ec 0C000000 		.word	.LC3
 478 00f0 10000000 		.word	.LC4
 479 00f4 14000000 		.word	.LC5
 480              		.cfi_endproc
 481              	.LFE11:
 482              		.size	dyn2_execute, .-dyn2_execute
 483 00f8 AFF30080 		.section	.text.dyn2_setup,"ax",%progbits
 483      AFF30080 
 484              		.align	2
 485              		.p2align 4,,15
 486              		.thumb
 487              		.thumb_func
 488              		.type	dyn2_setup, %function
 489              	dyn2_setup:
 490              	.LFB10:
 491              		.loc 1 136 0
 492              		.cfi_startproc
 493              		@ args = 0, pretend = 0, frame = 0
 494              		@ frame_needed = 0, uses_anonymous_args = 0
 495              		@ link register save eliminated.
 496              		.loc 1 138 0
 497 0000 40F20000 		movw	r0, #:lower16:.LANCHOR1
 498 0004 C0F20000 		movt	r0, #:upper16:.LANCHOR1
 499 0008 4FF49871 		mov	r1, #304
 500 000c 0022     		movs	r2, #0
 501              		.loc 1 139 0
 502              		.loc 1 138 0
 503 000e FFF7FEBF 		b	chPoolInit
 504              		.cfi_endproc
 505              	.LFE10:
 506              		.size	dyn2_setup, .-dyn2_setup
ARM GAS  /tmp/cclYiyTf.s 			page 10


 507              		.section	.text.dyn1_execute,"ax",%progbits
 508              		.align	2
 509              		.p2align 4,,15
 510              		.thumb
 511              		.thumb_func
 512              		.type	dyn1_execute, %function
 513              	dyn1_execute:
 514              	.LFB9:
 515              		.loc 1 83 0
 516              		.cfi_startproc
 517              		@ args = 0, pretend = 0, frame = 8
 518              		@ frame_needed = 0, uses_anonymous_args = 0
 519 0000 70B5     		push	{r4, r5, r6, lr}
 520              	.LCFI5:
 521              		.cfi_def_cfa_offset 16
 522              		.cfi_offset 14, -4
 523              		.cfi_offset 6, -8
 524              		.cfi_offset 5, -12
 525              		.cfi_offset 4, -16
 526              		.loc 1 86 0
 527 0002 354B     		ldr	r3, .L37
 528              		.loc 1 83 0
 529 0004 84B0     		sub	sp, sp, #16
 530              	.LCFI6:
 531              		.cfi_def_cfa_offset 32
 532              		.loc 1 86 0
 533 0006 9B69     		ldr	r3, [r3, #24]
 534              		.loc 1 88 0
 535 0008 03A9     		add	r1, sp, #12
 536              		.loc 1 86 0
 537 000a 9D68     		ldr	r5, [r3, #8]
 538              	.LVL15:
 539              		.loc 1 90 0
 540 000c 334C     		ldr	r4, .L37+4
 541              		.loc 1 88 0
 542 000e 3448     		ldr	r0, .L37+8
 543 0010 FFF7FEFF 		bl	chHeapStatus
 544              	.LVL16:
 545              		.loc 1 90 0
 546 0014 6A1E     		subs	r2, r5, #1
 547 0016 4FF49871 		mov	r1, #304
 548 001a 324B     		ldr	r3, .L37+12
 549 001c 3048     		ldr	r0, .L37+8
 550 001e 0094     		str	r4, [sp, #0]
 551 0020 FFF7FEFF 		bl	chThdCreateFromHeap
 552 0024 304C     		ldr	r4, .L37+16
 553              		.loc 1 92 0
 554 0026 314E     		ldr	r6, .L37+20
 555 0028 AA1E     		subs	r2, r5, #2
 556 002a 2E4B     		ldr	r3, .L37+12
 557              		.loc 1 90 0
 558 002c 2060     		str	r0, [r4, #0]
 559              		.loc 1 92 0
 560 002e 4FF49871 		mov	r1, #304
 561 0032 2B48     		ldr	r0, .L37+8
 562 0034 0096     		str	r6, [sp, #0]
 563 0036 FFF7FEFF 		bl	chThdCreateFromHeap
ARM GAS  /tmp/cclYiyTf.s 			page 11


 564              		.loc 1 95 0
 565 003a 02A9     		add	r1, sp, #8
 566              		.loc 1 92 0
 567 003c 6060     		str	r0, [r4, #4]
 568              		.loc 1 95 0
 569 003e 2848     		ldr	r0, .L37+8
 570 0040 FFF7FEFF 		bl	chHeapStatus
 571              	.LVL17:
 572              		.loc 1 96 0
 573 0044 0299     		ldr	r1, [sp, #8]
 574 0046 2648     		ldr	r0, .L37+8
 575 0048 FFF7FEFF 		bl	chHeapAlloc
 576              		.loc 1 97 0
 577 004c EA1E     		subs	r2, r5, #3
 578 004e 284D     		ldr	r5, .L37+24
 579              	.LVL18:
 580 0050 4FF49871 		mov	r1, #304
 581              		.loc 1 96 0
 582 0054 0646     		mov	r6, r0
 583              	.LVL19:
 584              		.loc 1 97 0
 585 0056 234B     		ldr	r3, .L37+12
 586 0058 2148     		ldr	r0, .L37+8
 587              	.LVL20:
 588 005a 0095     		str	r5, [sp, #0]
 589 005c FFF7FEFF 		bl	chThdCreateFromHeap
 590              	.LVL21:
 591 0060 A060     		str	r0, [r4, #8]
 592              		.loc 1 99 0
 593 0062 3046     		mov	r0, r6
 594 0064 FFF7FEFF 		bl	chHeapFree
 595              		.loc 1 101 0
 596 0068 2168     		ldr	r1, [r4, #0]
 597 006a 29B1     		cbz	r1, .L29
 598              		.loc 1 101 0 is_stmt 0 discriminator 1
 599 006c 6168     		ldr	r1, [r4, #4]
 600 006e 19B1     		cbz	r1, .L29
 601              		.loc 1 101 0 discriminator 3
 602 0070 A168     		ldr	r1, [r4, #8]
 603 0072 0029     		cmp	r1, #0
 604 0074 26D0     		beq	.L35
 605              		.loc 1 101 0
 606 0076 0021     		movs	r1, #0
 607              	.L29:
 608              		.loc 1 101 0 discriminator 7
 609 0078 0120     		movs	r0, #1
 610 007a FFF7FEFF 		bl	_test_assert
 611 007e 08B1     		cbz	r0, .L36
 612              	.LVL22:
 613              	.L28:
 614              		.loc 1 115 0 is_stmt 1
 615 0080 04B0     		add	sp, sp, #16
 616 0082 70BD     		pop	{r4, r5, r6, pc}
 617              	.LVL23:
 618              	.L36:
 619              		.loc 1 109 0
 620 0084 FFF7FEFF 		bl	test_wait_threads
ARM GAS  /tmp/cclYiyTf.s 			page 12


 621              		.loc 1 110 0
 622 0088 0220     		movs	r0, #2
 623 008a 1A49     		ldr	r1, .L37+28
 624 008c FFF7FEFF 		bl	_test_assert_sequence
 625 0090 0028     		cmp	r0, #0
 626 0092 F5D1     		bne	.L28
 627              		.loc 1 113 0
 628 0094 02A9     		add	r1, sp, #8
 629 0096 1248     		ldr	r0, .L37+8
 630 0098 FFF7FEFF 		bl	chHeapStatus
 631 009c A0F10102 		sub	r2, r0, #1
 632 00a0 5142     		rsbs	r1, r2, #0
 633 00a2 41EB0201 		adc	r1, r1, r2
 634 00a6 0320     		movs	r0, #3
 635 00a8 FFF7FEFF 		bl	_test_assert
 636 00ac 0028     		cmp	r0, #0
 637 00ae E7D1     		bne	.L28
 638              		.loc 1 114 0
 639 00b0 0299     		ldr	r1, [sp, #8]
 640              	.LVL24:
 641 00b2 039B     		ldr	r3, [sp, #12]
 642 00b4 0420     		movs	r0, #4
 643 00b6 CB1A     		subs	r3, r1, r3
 644 00b8 5942     		rsbs	r1, r3, #0
 645 00ba 41EB0301 		adc	r1, r1, r3
 646 00be FFF7FEFF 		bl	_test_assert
 647 00c2 DDE7     		b	.L28
 648              	.LVL25:
 649              	.L35:
 650              		.loc 1 101 0 discriminator 4
 651 00c4 E368     		ldr	r3, [r4, #12]
 652 00c6 002B     		cmp	r3, #0
 653 00c8 D6D1     		bne	.L29
 654              		.loc 1 83 0 discriminator 5
 655 00ca 2169     		ldr	r1, [r4, #16]
 656 00cc D1F10101 		rsbs	r1, r1, #1
 657 00d0 38BF     		it	cc
 658 00d2 0021     		movcc	r1, #0
 659 00d4 D0E7     		b	.L29
 660              	.L38:
 661 00d6 00BF     		.align	2
 662              	.L37:
 663 00d8 00000000 		.word	rlist
 664 00dc 00000000 		.word	.LC0
 665 00e0 00000000 		.word	.LANCHOR0
 666 00e4 00000000 		.word	thread
 667 00e8 00000000 		.word	threads
 668 00ec 04000000 		.word	.LC1
 669 00f0 08000000 		.word	.LC2
 670 00f4 1C000000 		.word	.LC6
 671              		.cfi_endproc
 672              	.LFE9:
 673              		.size	dyn1_execute, .-dyn1_execute
 674              		.global	patterndyn
 675              		.global	testdyn3
 676              		.global	testdyn2
 677              		.global	testdyn1
ARM GAS  /tmp/cclYiyTf.s 			page 13


 678 00f8 AFF30080 		.section	.rodata.testdyn1,"a",%progbits
 678      AFF30080 
 679              		.align	2
 680              		.type	testdyn1, %object
 681              		.size	testdyn1, 16
 682              	testdyn1:
 683 0000 78000000 		.word	.LC9
 684 0004 00000000 		.word	dyn1_setup
 685 0008 00000000 		.word	0
 686 000c 00000000 		.word	dyn1_execute
 687              		.section	.rodata.testdyn2,"a",%progbits
 688              		.align	2
 689              		.type	testdyn2, %object
 690              		.size	testdyn2, 16
 691              	testdyn2:
 692 0000 48000000 		.word	.LC8
 693 0004 00000000 		.word	dyn2_setup
 694 0008 00000000 		.word	0
 695 000c 00000000 		.word	dyn2_execute
 696              		.section	.rodata.testdyn3,"a",%progbits
 697              		.align	2
 698              		.type	testdyn3, %object
 699              		.size	testdyn3, 16
 700              	testdyn3:
 701 0000 20000000 		.word	.LC7
 702 0004 00000000 		.word	dyn3_setup
 703 0008 00000000 		.word	0
 704 000c 00000000 		.word	dyn3_execute
 705              		.section	.bss.mp1,"aw",%nobits
 706              		.align	2
 707              		.set	.LANCHOR1,. + 0
 708              		.type	mp1, %object
 709              		.size	mp1, 12
 710              	mp1:
 711 0000 00000000 		.space	12
 711      00000000 
 711      00000000 
 712              		.section	.rodata.str1.4,"aMS",%progbits,1
 713              		.align	2
 714              	.LC0:
 715 0000 4100     		.ascii	"A\000"
 716 0002 0000     		.space	2
 717              	.LC1:
 718 0004 4200     		.ascii	"B\000"
 719 0006 0000     		.space	2
 720              	.LC2:
 721 0008 4300     		.ascii	"C\000"
 722 000a 0000     		.space	2
 723              	.LC3:
 724 000c 4400     		.ascii	"D\000"
 725 000e 0000     		.space	2
 726              	.LC4:
 727 0010 4500     		.ascii	"E\000"
 728 0012 0000     		.space	2
 729              	.LC5:
 730 0014 41424344 		.ascii	"ABCD\000"
 730      00
ARM GAS  /tmp/cclYiyTf.s 			page 14


 731 0019 000000   		.space	3
 732              	.LC6:
 733 001c 414200   		.ascii	"AB\000"
 734 001f 00       		.space	1
 735              	.LC7:
 736 0020 44796E61 		.ascii	"Dynamic APIs, registry and references\000"
 736      6D696320 
 736      41504973 
 736      2C207265 
 736      67697374 
 737 0046 0000     		.space	2
 738              	.LC8:
 739 0048 44796E61 		.ascii	"Dynamic APIs, threads creation from memory pool\000"
 739      6D696320 
 739      41504973 
 739      2C207468 
 739      72656164 
 740              	.LC9:
 741 0078 44796E61 		.ascii	"Dynamic APIs, threads creation from heap\000"
 741      6D696320 
 741      41504973 
 741      2C207468 
 741      72656164 
 742 00a1 000000   		.section	.rodata.patterndyn,"a",%progbits
 743              		.align	2
 744              		.type	patterndyn, %object
 745              		.size	patterndyn, 16
 746              	patterndyn:
 747 0000 00000000 		.word	testdyn1
 748 0004 00000000 		.word	testdyn2
 749 0008 00000000 		.word	testdyn3
 750 000c 00000000 		.word	0
 751              		.section	.bss.heap1,"aw",%nobits
 752              		.align	3
 753              		.set	.LANCHOR0,. + 0
 754              		.type	heap1, %object
 755              		.size	heap1, 32
 756              	heap1:
 757 0000 00000000 		.space	32
 757      00000000 
 757      00000000 
 757      00000000 
 757      00000000 
 758              		.text
 759              	.Letext0:
 760              		.file 2 "/opt/paparazzi/arm-multilib/lib/gcc/arm-none-eabi/4.6.2/include/stddef.h"
 761              		.file 3 "/opt/paparazzi/arm-multilib/lib/gcc/arm-none-eabi/4.6.2/../../../../arm-none-eabi/include
 762              		.file 4 "../../os/ports/GCC/ARMCMx/chtypes.h"
 763              		.file 5 "../../os/kernel/include/chlists.h"
 764              		.file 6 "../../os/kernel/include/chthreads.h"
 765              		.file 7 "../../os/ports/GCC/ARMCMx/chcore_v7m.h"
 766              		.file 8 "../../os/kernel/include/chschd.h"
 767              		.file 9 "../../os/kernel/include/chmtx.h"
 768              		.file 10 "../../os/kernel/include/chmemcore.h"
 769              		.file 11 "../../os/kernel/include/chheap.h"
 770              		.file 12 "../../os/kernel/include/chmempools.h"
 771              		.file 13 "../../test/test.h"
ARM GAS  /tmp/cclYiyTf.s 			page 15

