ARM GAS  /tmp/ccSScqgn.s 			page 1


   1              		.syntax unified
   2              		.cpu cortex-m3
   3              		.fpu softvfp
   4              		.eabi_attribute 20, 1
   5              		.eabi_attribute 21, 1
   6              		.eabi_attribute 23, 3
   7              		.eabi_attribute 24, 1
   8              		.eabi_attribute 25, 1
   9              		.eabi_attribute 26, 1
  10              		.eabi_attribute 30, 2
  11              		.eabi_attribute 18, 4
  12              		.thumb
  13              		.file	"testqueues.c"
  14              		.text
  15              	.Ltext0:
  16              		.cfi_sections	.debug_frame
  17              		.section	.text.notify,"ax",%progbits
  18              		.align	2
  19              		.p2align 4,,15
  20              		.thumb
  21              		.thumb_func
  22              		.type	notify, %function
  23              	notify:
  24              	.LFB7:
  25              		.file 1 "../../test/testqueues.c"
  26              		.loc 1 57 0
  27              		.cfi_startproc
  28              		@ args = 0, pretend = 0, frame = 0
  29              		@ frame_needed = 0, uses_anonymous_args = 0
  30              		@ link register save eliminated.
  31              	.LVL0:
  32              		.loc 1 59 0
  33 0000 7047     		bx	lr
  34              		.cfi_endproc
  35              	.LFE7:
  36              		.size	notify, .-notify
  37 0002 00BFAFF3 		.section	.text.thread2,"ax",%progbits
  37      0080AFF3 
  37      0080AFF3 
  37      0080
  38              		.align	2
  39              		.p2align 4,,15
  40              		.thumb
  41              		.thumb_func
  42              		.type	thread2, %function
  43              	thread2:
  44              	.LFB12:
  45              		.loc 1 170 0
  46              		.cfi_startproc
  47              		@ args = 0, pretend = 0, frame = 0
  48              		@ frame_needed = 0, uses_anonymous_args = 0
  49              	.LVL1:
  50              		.loc 1 173 0
  51 0000 40F20000 		movw	r0, #:lower16:.LANCHOR0
  52              	.LVL2:
  53              		.loc 1 170 0
  54 0004 08B5     		push	{r3, lr}
ARM GAS  /tmp/ccSScqgn.s 			page 2


  55              	.LCFI0:
  56              		.cfi_def_cfa_offset 8
  57              		.cfi_offset 14, -4
  58              		.cfi_offset 3, -8
  59              		.loc 1 173 0
  60 0006 0021     		movs	r1, #0
  61 0008 4FF4FA62 		mov	r2, #2000
  62 000c C0F20000 		movt	r0, #:upper16:.LANCHOR0
  63 0010 FFF7FEFF 		bl	chOQPutTimeout
  64              		.loc 1 175 0
  65 0014 0020     		movs	r0, #0
  66 0016 08BD     		pop	{r3, pc}
  67              		.cfi_endproc
  68              	.LFE12:
  69              		.size	thread2, .-thread2
  70 0018 AFF30080 		.section	.text.queues2_setup,"ax",%progbits
  70      AFF30080 
  71              		.align	2
  72              		.p2align 4,,15
  73              		.thumb
  74              		.thumb_func
  75              		.type	queues2_setup, %function
  76              	queues2_setup:
  77              	.LFB11:
  78              		.loc 1 165 0
  79              		.cfi_startproc
  80              		@ args = 0, pretend = 0, frame = 0
  81              		@ frame_needed = 0, uses_anonymous_args = 0
  82 0000 10B5     		push	{r4, lr}
  83              	.LCFI1:
  84              		.cfi_def_cfa_offset 8
  85              		.cfi_offset 14, -4
  86              		.cfi_offset 4, -8
  87              		.loc 1 167 0
  88 0002 40F20003 		movw	r3, #:lower16:wa
  89 0006 C0F20003 		movt	r3, #:upper16:wa
  90 000a 1968     		ldr	r1, [r3, #0]
  91 000c 40F20000 		movw	r0, #:lower16:.LANCHOR0
  92 0010 40F20003 		movw	r3, #:lower16:notify
  93              		.loc 1 165 0
  94 0014 82B0     		sub	sp, sp, #8
  95              	.LCFI2:
  96              		.cfi_def_cfa_offset 16
  97              		.loc 1 167 0
  98 0016 0024     		movs	r4, #0
  99 0018 C0F20000 		movt	r0, #:upper16:.LANCHOR0
 100 001c 0422     		movs	r2, #4
 101 001e C0F20003 		movt	r3, #:upper16:notify
 102 0022 0094     		str	r4, [sp, #0]
 103 0024 FFF7FEFF 		bl	chOQInit
 104              		.loc 1 168 0
 105 0028 02B0     		add	sp, sp, #8
 106 002a 10BD     		pop	{r4, pc}
 107              		.cfi_endproc
 108              	.LFE11:
 109              		.size	queues2_setup, .-queues2_setup
 110 002c AFF30080 		.section	.text.thread1,"ax",%progbits
ARM GAS  /tmp/ccSScqgn.s 			page 3


 111              		.align	2
 112              		.p2align 4,,15
 113              		.thumb
 114              		.thumb_func
 115              		.type	thread1, %function
 116              	thread1:
 117              	.LFB9:
 118              		.loc 1 83 0
 119              		.cfi_startproc
 120              		@ args = 0, pretend = 0, frame = 0
 121              		@ frame_needed = 0, uses_anonymous_args = 0
 122              	.LVL3:
 123              		.loc 1 86 0
 124 0000 40F20000 		movw	r0, #:lower16:.LANCHOR1
 125              	.LVL4:
 126              		.loc 1 83 0
 127 0004 08B5     		push	{r3, lr}
 128              	.LCFI3:
 129              		.cfi_def_cfa_offset 8
 130              		.cfi_offset 14, -4
 131              		.cfi_offset 3, -8
 132              		.loc 1 86 0
 133 0006 4FF4FA61 		mov	r1, #2000
 134 000a C0F20000 		movt	r0, #:upper16:.LANCHOR1
 135 000e FFF7FEFF 		bl	chIQGetTimeout
 136              		.loc 1 88 0
 137 0012 0020     		movs	r0, #0
 138 0014 08BD     		pop	{r3, pc}
 139              		.cfi_endproc
 140              	.LFE9:
 141              		.size	thread1, .-thread1
 142 0016 00BFAFF3 		.section	.text.queues1_setup,"ax",%progbits
 142      0080AFF3 
 142      0080
 143              		.align	2
 144              		.p2align 4,,15
 145              		.thumb
 146              		.thumb_func
 147              		.type	queues1_setup, %function
 148              	queues1_setup:
 149              	.LFB8:
 150              		.loc 1 78 0
 151              		.cfi_startproc
 152              		@ args = 0, pretend = 0, frame = 0
 153              		@ frame_needed = 0, uses_anonymous_args = 0
 154 0000 10B5     		push	{r4, lr}
 155              	.LCFI4:
 156              		.cfi_def_cfa_offset 8
 157              		.cfi_offset 14, -4
 158              		.cfi_offset 4, -8
 159              		.loc 1 80 0
 160 0002 40F20003 		movw	r3, #:lower16:wa
 161 0006 C0F20003 		movt	r3, #:upper16:wa
 162 000a 1968     		ldr	r1, [r3, #0]
 163 000c 40F20000 		movw	r0, #:lower16:.LANCHOR1
 164 0010 40F20003 		movw	r3, #:lower16:notify
 165              		.loc 1 78 0
ARM GAS  /tmp/ccSScqgn.s 			page 4


 166 0014 82B0     		sub	sp, sp, #8
 167              	.LCFI5:
 168              		.cfi_def_cfa_offset 16
 169              		.loc 1 80 0
 170 0016 0024     		movs	r4, #0
 171 0018 C0F20000 		movt	r0, #:upper16:.LANCHOR1
 172 001c 0422     		movs	r2, #4
 173 001e C0F20003 		movt	r3, #:upper16:notify
 174 0022 0094     		str	r4, [sp, #0]
 175 0024 FFF7FEFF 		bl	chIQInit
 176              		.loc 1 81 0
 177 0028 02B0     		add	sp, sp, #8
 178 002a 10BD     		pop	{r4, pc}
 179              		.cfi_endproc
 180              	.LFE8:
 181              		.size	queues1_setup, .-queues1_setup
 182 002c AFF30080 		.section	.text.queues2_execute,"ax",%progbits
 183              		.align	2
 184              		.p2align 4,,15
 185              		.thumb
 186              		.thumb_func
 187              		.type	queues2_execute, %function
 188              	queues2_execute:
 189              	.LFB13:
 190              		.loc 1 177 0
 191              		.cfi_startproc
 192              		@ args = 0, pretend = 0, frame = 0
 193              		@ frame_needed = 0, uses_anonymous_args = 0
 194 0000 2DE9F041 		push	{r4, r5, r6, r7, r8, lr}
 195              	.LCFI6:
 196              		.cfi_def_cfa_offset 24
 197              		.cfi_offset 14, -4
 198              		.cfi_offset 8, -8
 199              		.cfi_offset 7, -12
 200              		.cfi_offset 6, -16
 201              		.cfi_offset 5, -20
 202              		.cfi_offset 4, -24
 203              	.LBB96:
 204              		.loc 1 182 0
 205 0004 2023     		movs	r3, #32
 206              	.LVL5:
 207              	.LBE96:
 208              		.loc 1 177 0
 209 0006 82B0     		sub	sp, sp, #8
 210              	.LCFI7:
 211              		.cfi_def_cfa_offset 32
 212              	.LBB97:
 213              		.loc 1 182 0
 214              	@ 182 "../../test/testqueues.c" 1
 215 0008 83F31188 		msr     BASEPRI, r3
 216              	@ 0 "" 2
 217              	.LVL6:
 218              		.thumb
 219              	.LBE97:
 220 000c 944B     		ldr	r3, .L29
 221              	.LVL7:
 222 000e 5969     		ldr	r1, [r3, #20]
ARM GAS  /tmp/ccSScqgn.s 			page 5


 223 0010 9A69     		ldr	r2, [r3, #24]
 224 0012 9142     		cmp	r1, r2
 225 0014 63D0     		beq	.L27
 226 0016 0021     		movs	r1, #0
 227              	.L7:
 228              		.loc 1 182 0 is_stmt 0 discriminator 4
 229 0018 0120     		movs	r0, #1
 230 001a FFF7FEFF 		bl	_test_assert
 231 001e 0028     		cmp	r0, #0
 232 0020 3AD1     		bne	.L25
 233              	.LBB98:
 234              	.LBB99:
 235              	.LBB100:
 236              		.loc 1 182 0
 237 0022 0346     		mov	r3, r0
 238              	.LVL8:
 239              	@ 182 "../../test/testqueues.c" 1
 240 0024 83F31188 		msr     BASEPRI, r3
 241              	@ 0 "" 2
 242              	.LVL9:
 243              		.thumb
 244 0028 4125     		movs	r5, #65
 245              	.LVL10:
 246              	.L10:
 247              	.LBE100:
 248              		.loc 1 186 0 is_stmt 1
 249 002a 8D4C     		ldr	r4, .L29
 250 002c 2946     		mov	r1, r5
 251 002e 0135     		adds	r5, r5, #1
 252 0030 2046     		mov	r0, r4
 253 0032 4FF0FF32 		mov	r2, #-1
 254 0036 EDB2     		uxtb	r5, r5
 255 0038 FFF7FEFF 		bl	chOQPutTimeout
 256              	.LVL11:
 257              		.loc 1 185 0
 258 003c 452D     		cmp	r5, #69
 259 003e F4D1     		bne	.L10
 260              	.LBB101:
 261              		.loc 1 187 0
 262 0040 2023     		movs	r3, #32
 263              	.LVL12:
 264              	@ 187 "../../test/testqueues.c" 1
 265 0042 83F31188 		msr     BASEPRI, r3
 266              	@ 0 "" 2
 267              	.LVL13:
 268              		.thumb
 269              	.LBE101:
 270 0046 A168     		ldr	r1, [r4, #8]
 271 0048 0220     		movs	r0, #2
 272 004a D1F10101 		rsbs	r1, r1, #1
 273 004e 38BF     		it	cc
 274 0050 0021     		movcc	r1, #0
 275 0052 FFF7FEFF 		bl	_test_assert
 276              	.LVL14:
 277 0056 F8B9     		cbnz	r0, .L25
 278              	.LBB102:
 279 0058 0346     		mov	r3, r0
ARM GAS  /tmp/ccSScqgn.s 			page 6


 280              	.LVL15:
 281              	@ 187 "../../test/testqueues.c" 1
 282 005a 83F31188 		msr     BASEPRI, r3
 283              	@ 0 "" 2
 284              	.LVL16:
 285              		.thumb
 286 005e 0424     		movs	r4, #4
 287              	.LVL17:
 288              	.L12:
 289              	.LBE102:
 290              	.LBB103:
 291              	.LBB104:
 292              		.loc 1 193 0
 293 0060 2023     		movs	r3, #32
 294              	.LVL18:
 295              	@ 193 "../../test/testqueues.c" 1
 296 0062 83F31188 		msr     BASEPRI, r3
 297              	@ 0 "" 2
 298              	.LVL19:
 299              		.thumb
 300              	.LBE104:
 301              		.loc 1 194 0
 302 0066 7E4D     		ldr	r5, .L29
 303 0068 2846     		mov	r0, r5
 304 006a FFF7FEFF 		bl	chOQGetI
 305              	.LVL20:
 306              	.LBB105:
 307              		.loc 1 195 0
 308 006e 0023     		movs	r3, #0
 309              	.LVL21:
 310              	@ 195 "../../test/testqueues.c" 1
 311 0070 83F31188 		msr     BASEPRI, r3
 312              	@ 0 "" 2
 313              	.LVL22:
 314              		.thumb
 315              	.LBE105:
 316              		.loc 1 196 0
 317 0074 C0B2     		uxtb	r0, r0
 318              	.LVL23:
 319 0076 FFF7FEFF 		bl	test_emit_token
 320              	.LVL24:
 321              	.LBE103:
 322              		.loc 1 190 0
 323 007a 013C     		subs	r4, r4, #1
 324 007c F0D1     		bne	.L12
 325              	.LBB106:
 326              		.loc 1 198 0
 327 007e 2023     		movs	r3, #32
 328              	.LVL25:
 329              	@ 198 "../../test/testqueues.c" 1
 330 0080 83F31188 		msr     BASEPRI, r3
 331              	@ 0 "" 2
 332              	.LVL26:
 333              		.thumb
 334              	.LBE106:
 335 0084 6A69     		ldr	r2, [r5, #20]
 336 0086 AB69     		ldr	r3, [r5, #24]
ARM GAS  /tmp/ccSScqgn.s 			page 7


 337              	.LVL27:
 338 0088 9A42     		cmp	r2, r3
 339 008a 18BF     		it	ne
 340 008c 2146     		movne	r1, r4
 341 008e 2BD0     		beq	.L28
 342              	.L13:
 343 0090 0320     		movs	r0, #3
 344 0092 FFF7FEFF 		bl	_test_assert
 345 0096 28B1     		cbz	r0, .L14
 346              	.L25:
 347              	.LBB107:
 348 0098 0023     		movs	r3, #0
 349              	.LVL28:
 350              	@ 198 "../../test/testqueues.c" 1
 351 009a 83F31188 		msr     BASEPRI, r3
 352              	@ 0 "" 2
 353              	.LVL29:
 354              		.thumb
 355              	.L6:
 356              	.LBE107:
 357              	.LBE99:
 358              	.LBE98:
 359              		.loc 1 225 0
 360 009e 02B0     		add	sp, sp, #8
 361 00a0 BDE8F081 		pop	{r4, r5, r6, r7, r8, pc}
 362              	.LVL30:
 363              	.L14:
 364              	.LBB129:
 365              	.LBB126:
 366              	.LBB108:
 367              		.loc 1 198 0
 368 00a4 0346     		mov	r3, r0
 369              	.LVL31:
 370              	@ 198 "../../test/testqueues.c" 1
 371 00a6 83F31188 		msr     BASEPRI, r3
 372              	@ 0 "" 2
 373              	.LVL32:
 374              		.thumb
 375              	.LBE108:
 376              		.loc 1 199 0
 377 00aa 0420     		movs	r0, #4
 378 00ac 6D49     		ldr	r1, .L29+4
 379 00ae FFF7FEFF 		bl	_test_assert_sequence
 380              	.LVL33:
 381 00b2 0546     		mov	r5, r0
 382 00b4 0028     		cmp	r0, #0
 383 00b6 F2D1     		bne	.L6
 384              	.LBB109:
 385              		.loc 1 200 0
 386 00b8 2023     		movs	r3, #32
 387              	.LVL34:
 388              	@ 200 "../../test/testqueues.c" 1
 389 00ba 83F31188 		msr     BASEPRI, r3
 390              	@ 0 "" 2
 391              	.LVL35:
 392              		.thumb
 393              	.LBE109:
ARM GAS  /tmp/ccSScqgn.s 			page 8


 394 00be 684C     		ldr	r4, .L29
 395 00c0 2046     		mov	r0, r4
 396 00c2 FFF7FEFF 		bl	chOQGetI
 397              	.LVL36:
 398 00c6 0330     		adds	r0, r0, #3
 399 00c8 14BF     		ite	ne
 400 00ca 0021     		movne	r1, #0
 401 00cc 0121     		moveq	r1, #1
 402 00ce 0520     		movs	r0, #5
 403 00d0 FFF7FEFF 		bl	_test_assert
 404 00d4 68B1     		cbz	r0, .L15
 405              	.LBB110:
 406 00d6 2B46     		mov	r3, r5
 407              	@ 200 "../../test/testqueues.c" 1
 408 00d8 83F31188 		msr     BASEPRI, r3
 409              	@ 0 "" 2
 410              	.LVL37:
 411              		.thumb
 412 00dc DFE7     		b	.L6
 413              	.LVL38:
 414              	.L27:
 415              	.LBE110:
 416              	.LBE126:
 417              	.LBE129:
 418              		.loc 1 177 0 discriminator 1
 419 00de 9968     		ldr	r1, [r3, #8]
 420 00e0 0031     		adds	r1, r1, #0
 421 00e2 18BF     		it	ne
 422 00e4 0121     		movne	r1, #1
 423 00e6 97E7     		b	.L7
 424              	.L28:
 425              	.LBB130:
 426              	.LBB127:
 427              		.loc 1 177 0 is_stmt 0
 428 00e8 A968     		ldr	r1, [r5, #8]
 429 00ea 0031     		adds	r1, r1, #0
 430 00ec 18BF     		it	ne
 431 00ee 0121     		movne	r1, #1
 432 00f0 CEE7     		b	.L13
 433              	.L15:
 434              	.LBB111:
 435              		.loc 1 200 0 is_stmt 1
 436 00f2 0346     		mov	r3, r0
 437              	.LVL39:
 438              	@ 200 "../../test/testqueues.c" 1
 439 00f4 83F31188 		msr     BASEPRI, r3
 440              	@ 0 "" 2
 441              	.LVL40:
 442              		.thumb
 443              	.LBE111:
 444              		.loc 1 203 0
 445 00f8 5B4E     		ldr	r6, .L29+8
 446 00fa 0822     		movs	r2, #8
 447 00fc 7568     		ldr	r5, [r6, #4]
 448 00fe 2046     		mov	r0, r4
 449 0100 2946     		mov	r1, r5
 450 0102 FFF7FEFF 		bl	chOQWriteTimeout
ARM GAS  /tmp/ccSScqgn.s 			page 9


 451              	.LVL41:
 452              		.loc 1 204 0
 453 0106 A0F10408 		sub	r8, r0, #4
 454 010a D8F10001 		rsbs	r1, r8, #0
 455 010e 41EB0801 		adc	r1, r1, r8
 456 0112 0620     		movs	r0, #6
 457              	.LVL42:
 458 0114 FFF7FEFF 		bl	_test_assert
 459 0118 8046     		mov	r8, r0
 460              	.LVL43:
 461 011a 0028     		cmp	r0, #0
 462 011c BFD1     		bne	.L6
 463              	.LBB112:
 464              		.loc 1 205 0
 465 011e 2023     		movs	r3, #32
 466              	.LVL44:
 467              	@ 205 "../../test/testqueues.c" 1
 468 0120 83F31188 		msr     BASEPRI, r3
 469              	@ 0 "" 2
 470              	.LVL45:
 471              		.thumb
 472              	.LBE112:
 473 0124 A168     		ldr	r1, [r4, #8]
 474 0126 0720     		movs	r0, #7
 475 0128 D1F10101 		rsbs	r1, r1, #1
 476 012c 38BF     		it	cc
 477 012e 0021     		movcc	r1, #0
 478 0130 FFF7FEFF 		bl	_test_assert
 479              	.LVL46:
 480 0134 0746     		mov	r7, r0
 481 0136 18B1     		cbz	r0, .L16
 482              	.LBB113:
 483 0138 4346     		mov	r3, r8
 484              	@ 205 "../../test/testqueues.c" 1
 485 013a 83F31188 		msr     BASEPRI, r3
 486              	@ 0 "" 2
 487              	.LVL47:
 488              		.thumb
 489 013e AEE7     		b	.L6
 490              	.LVL48:
 491              	.L16:
 492              	.LBE113:
 493              	.LBB114:
 494 0140 0346     		mov	r3, r0
 495              	.LVL49:
 496              	@ 205 "../../test/testqueues.c" 1
 497 0142 83F31188 		msr     BASEPRI, r3
 498              	@ 0 "" 2
 499              	.LVL50:
 500              		.thumb
 501              	.LBE114:
 502              		.loc 1 206 0
 503 0146 494B     		ldr	r3, .L29+12
 504              	.LVL51:
 505 0148 3068     		ldr	r0, [r6, #0]
 506 014a 9B69     		ldr	r3, [r3, #24]
 507 014c 4FF49871 		mov	r1, #304
ARM GAS  /tmp/ccSScqgn.s 			page 10


 508 0150 9A68     		ldr	r2, [r3, #8]
 509 0152 474B     		ldr	r3, .L29+16
 510 0154 0132     		adds	r2, r2, #1
 511 0156 0097     		str	r7, [sp, #0]
 512 0158 FFF7FEFF 		bl	chThdCreateStatic
 513 015c 454A     		ldr	r2, .L29+20
 514              	.LBB115:
 515              		.loc 1 207 0
 516 015e 2023     		movs	r3, #32
 517              	.LVL52:
 518              	.LBE115:
 519              		.loc 1 206 0
 520 0160 1060     		str	r0, [r2, #0]
 521              	.LBB116:
 522              		.loc 1 207 0
 523              	@ 207 "../../test/testqueues.c" 1
 524 0162 83F31188 		msr     BASEPRI, r3
 525              	@ 0 "" 2
 526              	.LVL53:
 527              		.thumb
 528              	.LBE116:
 529 0166 2169     		ldr	r1, [r4, #16]
 530 0168 E268     		ldr	r2, [r4, #12]
 531 016a A368     		ldr	r3, [r4, #8]
 532              	.LVL54:
 533 016c 891A     		subs	r1, r1, r2
 534 016e C91A     		subs	r1, r1, r3
 535 0170 A1F1040C 		sub	ip, r1, #4
 536 0174 0820     		movs	r0, #8
 537 0176 DCF10001 		rsbs	r1, ip, #0
 538 017a 41EB0C01 		adc	r1, r1, ip
 539 017e FFF7FEFF 		bl	_test_assert
 540 0182 0646     		mov	r6, r0
 541 0184 18B1     		cbz	r0, .L17
 542              	.LBB117:
 543 0186 3B46     		mov	r3, r7
 544              	@ 207 "../../test/testqueues.c" 1
 545 0188 83F31188 		msr     BASEPRI, r3
 546              	@ 0 "" 2
 547              	.LVL55:
 548              		.thumb
 549 018c 87E7     		b	.L6
 550              	.LVL56:
 551              	.L17:
 552              	.LBE117:
 553              	.LBB118:
 554 018e 0346     		mov	r3, r0
 555              	.LVL57:
 556              	@ 207 "../../test/testqueues.c" 1
 557 0190 83F31188 		msr     BASEPRI, r3
 558              	@ 0 "" 2
 559              	.LVL58:
 560              		.thumb
 561              	.LBE118:
 562              		.loc 1 208 0
 563 0194 FFF7FEFF 		bl	test_wait_threads
 564              	.LVL59:
ARM GAS  /tmp/ccSScqgn.s 			page 11


 565              	.LBB119:
 566              		.loc 1 211 0
 567 0198 2023     		movs	r3, #32
 568              	.LVL60:
 569              	@ 211 "../../test/testqueues.c" 1
 570 019a 83F31188 		msr     BASEPRI, r3
 571              	@ 0 "" 2
 572              	.LVL61:
 573              		.thumb
 574              	.LBE119:
 575              		.loc 1 212 0
 576 019e 2046     		mov	r0, r4
 577 01a0 FFF7FEFF 		bl	chOQResetI
 578              	.LVL62:
 579              	.LBB120:
 580              		.loc 1 213 0
 581 01a4 3346     		mov	r3, r6
 582              	.LVL63:
 583              	@ 213 "../../test/testqueues.c" 1
 584 01a6 83F31188 		msr     BASEPRI, r3
 585              	@ 0 "" 2
 586              	.LVL64:
 587              		.thumb
 588              	.LBE120:
 589              	.LBB121:
 590              		.loc 1 214 0
 591 01aa 2023     		movs	r3, #32
 592              	.LVL65:
 593              	@ 214 "../../test/testqueues.c" 1
 594 01ac 83F31188 		msr     BASEPRI, r3
 595              	@ 0 "" 2
 596              	.LVL66:
 597              		.thumb
 598              	.LBE121:
 599 01b0 2169     		ldr	r1, [r4, #16]
 600 01b2 E268     		ldr	r2, [r4, #12]
 601 01b4 A368     		ldr	r3, [r4, #8]
 602              	.LVL67:
 603 01b6 891A     		subs	r1, r1, r2
 604 01b8 C3EB010E 		rsb	lr, r3, r1
 605 01bc 0920     		movs	r0, #9
 606 01be DEF10001 		rsbs	r1, lr, #0
 607 01c2 41EB0E01 		adc	r1, r1, lr
 608 01c6 FFF7FEFF 		bl	_test_assert
 609 01ca 0346     		mov	r3, r0
 610 01cc 18B1     		cbz	r0, .L18
 611              	.LBB122:
 612 01ce 3346     		mov	r3, r6
 613              	@ 214 "../../test/testqueues.c" 1
 614 01d0 83F31188 		msr     BASEPRI, r3
 615              	@ 0 "" 2
 616              	.LVL68:
 617              		.thumb
 618 01d4 63E7     		b	.L6
 619              	.LVL69:
 620              	.L18:
 621              	.LBE122:
ARM GAS  /tmp/ccSScqgn.s 			page 12


 622              	.LBB123:
 623              	@ 214 "../../test/testqueues.c" 1
 624 01d6 83F31188 		msr     BASEPRI, r3
 625              	@ 0 "" 2
 626              	.LVL70:
 627              		.thumb
 628              	.LBE123:
 629              		.loc 1 217 0
 630 01da 0222     		movs	r2, #2
 631 01dc 2946     		mov	r1, r5
 632 01de 2046     		mov	r0, r4
 633 01e0 FFF7FEFF 		bl	chOQWriteTimeout
 634              	.LVL71:
 635              		.loc 1 218 0
 636 01e4 A0F10200 		sub	r0, r0, #2
 637              	.LVL72:
 638 01e8 4142     		rsbs	r1, r0, #0
 639 01ea 41EB0001 		adc	r1, r1, r0
 640 01ee 0A20     		movs	r0, #10
 641              	.LVL73:
 642 01f0 FFF7FEFF 		bl	_test_assert
 643 01f4 0346     		mov	r3, r0
 644 01f6 0028     		cmp	r0, #0
 645 01f8 7FF451AF 		bne	.L6
 646              		.loc 1 219 0
 647 01fc 0222     		movs	r2, #2
 648 01fe 2946     		mov	r1, r5
 649 0200 2046     		mov	r0, r4
 650 0202 FFF7FEFF 		bl	chOQWriteTimeout
 651              	.LVL74:
 652              		.loc 1 220 0
 653 0206 A0F10202 		sub	r2, r0, #2
 654 020a 5142     		rsbs	r1, r2, #0
 655 020c 41EB0201 		adc	r1, r1, r2
 656 0210 0B20     		movs	r0, #11
 657              	.LVL75:
 658 0212 FFF7FEFF 		bl	_test_assert
 659              	.LVL76:
 660 0216 0028     		cmp	r0, #0
 661 0218 7FF441AF 		bne	.L6
 662              	.LBB124:
 663              		.loc 1 221 0
 664 021c 2023     		movs	r3, #32
 665              	.LVL77:
 666              	@ 221 "../../test/testqueues.c" 1
 667 021e 83F31188 		msr     BASEPRI, r3
 668              	@ 0 "" 2
 669              	.LVL78:
 670              		.thumb
 671              	.LBE124:
 672 0222 A168     		ldr	r1, [r4, #8]
 673 0224 0C20     		movs	r0, #12
 674 0226 D1F10101 		rsbs	r1, r1, #1
 675 022a 38BF     		it	cc
 676 022c 0021     		movcc	r1, #0
 677 022e FFF7FEFF 		bl	_test_assert
 678              	.LVL79:
ARM GAS  /tmp/ccSScqgn.s 			page 13


 679              	.LBB125:
 680 0232 0023     		movs	r3, #0
 681              	@ 221 "../../test/testqueues.c" 1
 682 0234 83F31188 		msr     BASEPRI, r3
 683              	@ 0 "" 2
 684              	.LVL80:
 685              		.thumb
 686              	.LBE125:
 687 0238 0028     		cmp	r0, #0
 688 023a 7FF430AF 		bne	.L6
 689              		.loc 1 224 0
 690 023e 1946     		mov	r1, r3
 691              	.LVL81:
 692 0240 0A22     		movs	r2, #10
 693 0242 0748     		ldr	r0, .L29
 694 0244 FFF7FEFF 		bl	chOQPutTimeout
 695              	.LVL82:
 696 0248 A0F1FF33 		sub	r3, r0, #-1
 697 024c 5942     		rsbs	r1, r3, #0
 698 024e 41EB0301 		adc	r1, r1, r3
 699 0252 0D20     		movs	r0, #13
 700              	.LBE127:
 701              	.LBE130:
 702              		.loc 1 225 0
 703 0254 02B0     		add	sp, sp, #8
 704 0256 BDE8F041 		pop	{r4, r5, r6, r7, r8, lr}
 705              	.LBB131:
 706              	.LBB128:
 707              		.loc 1 224 0
 708 025a FFF7FEBF 		b	_test_assert
 709              	.L30:
 710 025e 00BF     		.align	2
 711              	.L29:
 712 0260 00000000 		.word	.LANCHOR0
 713 0264 00000000 		.word	.LC0
 714 0268 00000000 		.word	wa
 715 026c 00000000 		.word	rlist
 716 0270 00000000 		.word	thread2
 717 0274 00000000 		.word	threads
 718              	.LBE128:
 719              	.LBE131:
 720              		.cfi_endproc
 721              	.LFE13:
 722              		.size	queues2_execute, .-queues2_execute
 723 0278 AFF30080 		.section	.text.queues1_execute,"ax",%progbits
 723      AFF30080 
 724              		.align	2
 725              		.p2align 4,,15
 726              		.thumb
 727              		.thumb_func
 728              		.type	queues1_execute, %function
 729              	queues1_execute:
 730              	.LFB10:
 731              		.loc 1 90 0
 732              		.cfi_startproc
 733              		@ args = 0, pretend = 0, frame = 0
 734              		@ frame_needed = 0, uses_anonymous_args = 0
ARM GAS  /tmp/ccSScqgn.s 			page 14


 735 0000 70B5     		push	{r4, r5, r6, lr}
 736              	.LCFI8:
 737              		.cfi_def_cfa_offset 16
 738              		.cfi_offset 14, -4
 739              		.cfi_offset 6, -8
 740              		.cfi_offset 5, -12
 741              		.cfi_offset 4, -16
 742              	.LBB168:
 743              		.loc 1 95 0
 744 0002 2023     		movs	r3, #32
 745              	.LVL83:
 746              	.LBE168:
 747              		.loc 1 90 0
 748 0004 82B0     		sub	sp, sp, #8
 749              	.LCFI9:
 750              		.cfi_def_cfa_offset 24
 751              	.LBB169:
 752              		.loc 1 95 0
 753              	@ 95 "../../test/testqueues.c" 1
 754 0006 83F31188 		msr     BASEPRI, r3
 755              	@ 0 "" 2
 756              	.LVL84:
 757              		.thumb
 758              	.LBE169:
 759 000a 9D4B     		ldr	r3, .L56
 760              	.LVL85:
 761 000c 0120     		movs	r0, #1
 762 000e 9968     		ldr	r1, [r3, #8]
 763 0010 D1F10101 		rsbs	r1, r1, #1
 764 0014 38BF     		it	cc
 765 0016 0021     		movcc	r1, #0
 766 0018 FFF7FEFF 		bl	_test_assert
 767 001c 00BB     		cbnz	r0, .L52
 768              	.LBB170:
 769              	.LBB171:
 770              	.LBB172:
 771 001e 0346     		mov	r3, r0
 772              	.LVL86:
 773              	@ 95 "../../test/testqueues.c" 1
 774 0020 83F31188 		msr     BASEPRI, r3
 775              	@ 0 "" 2
 776              	.LVL87:
 777              		.thumb
 778              	.LBE172:
 779              	.LBB173:
 780              		.loc 1 98 0
 781 0024 2023     		movs	r3, #32
 782              	.LVL88:
 783              	@ 98 "../../test/testqueues.c" 1
 784 0026 83F31188 		msr     BASEPRI, r3
 785              	@ 0 "" 2
 786              	.LVL89:
 787              		.thumb
 788 002a 4125     		movs	r5, #65
 789              	.LVL90:
 790              	.L34:
 791              	.LBE173:
ARM GAS  /tmp/ccSScqgn.s 			page 15


 792              		.loc 1 100 0
 793 002c 944C     		ldr	r4, .L56
 794 002e 2946     		mov	r1, r5
 795 0030 0135     		adds	r5, r5, #1
 796 0032 2046     		mov	r0, r4
 797 0034 EDB2     		uxtb	r5, r5
 798 0036 FFF7FEFF 		bl	chIQPutI
 799              	.LVL91:
 800              		.loc 1 99 0
 801 003a 452D     		cmp	r5, #69
 802 003c F6D1     		bne	.L34
 803              	.LBB174:
 804              		.loc 1 101 0
 805 003e 0023     		movs	r3, #0
 806              	.LVL92:
 807              	@ 101 "../../test/testqueues.c" 1
 808 0040 83F31188 		msr     BASEPRI, r3
 809              	@ 0 "" 2
 810              	.LVL93:
 811              		.thumb
 812              	.LBE174:
 813              	.LBB175:
 814              		.loc 1 102 0
 815 0044 2023     		movs	r3, #32
 816              	.LVL94:
 817              	@ 102 "../../test/testqueues.c" 1
 818 0046 83F31188 		msr     BASEPRI, r3
 819              	@ 0 "" 2
 820              	.LVL95:
 821              		.thumb
 822              	.LBE175:
 823 004a 6269     		ldr	r2, [r4, #20]
 824 004c A369     		ldr	r3, [r4, #24]
 825              	.LVL96:
 826 004e 0021     		movs	r1, #0
 827 0050 9A42     		cmp	r2, r3
 828 0052 00F0BC80 		beq	.L54
 829              	.L35:
 830 0056 0220     		movs	r0, #2
 831 0058 FFF7FEFF 		bl	_test_assert
 832 005c 0446     		mov	r4, r0
 833 005e 20B1     		cbz	r0, .L36
 834              	.L52:
 835              	.LBB176:
 836 0060 0023     		movs	r3, #0
 837              	.LVL97:
 838              	@ 102 "../../test/testqueues.c" 1
 839 0062 83F31188 		msr     BASEPRI, r3
 840              	@ 0 "" 2
 841              	.LVL98:
 842              		.thumb
 843              	.L31:
 844              	.LBE176:
 845              	.LBE171:
 846              	.LBE170:
 847              		.loc 1 147 0
 848 0066 02B0     		add	sp, sp, #8
ARM GAS  /tmp/ccSScqgn.s 			page 16


 849 0068 70BD     		pop	{r4, r5, r6, pc}
 850              	.LVL99:
 851              	.L36:
 852              	.LBB202:
 853              	.LBB200:
 854              	.LBB177:
 855              		.loc 1 102 0
 856 006a 0346     		mov	r3, r0
 857              	.LVL100:
 858              	@ 102 "../../test/testqueues.c" 1
 859 006c 83F31188 		msr     BASEPRI, r3
 860              	@ 0 "" 2
 861              	.LVL101:
 862              		.thumb
 863              	.LBE177:
 864              	.LBB178:
 865              		.loc 1 103 0
 866 0070 2023     		movs	r3, #32
 867              	.LVL102:
 868              	@ 103 "../../test/testqueues.c" 1
 869 0072 83F31188 		msr     BASEPRI, r3
 870              	@ 0 "" 2
 871              	.LVL103:
 872              		.thumb
 873              	.LBE178:
 874 0076 8248     		ldr	r0, .L56
 875 0078 2146     		mov	r1, r4
 876 007a FFF7FEFF 		bl	chIQPutI
 877              	.LVL104:
 878 007e 0430     		adds	r0, r0, #4
 879 0080 14BF     		ite	ne
 880 0082 0021     		movne	r1, #0
 881 0084 0121     		moveq	r1, #1
 882 0086 0320     		movs	r0, #3
 883 0088 FFF7FEFF 		bl	_test_assert
 884 008c 0028     		cmp	r0, #0
 885 008e 40F09A80 		bne	.L55
 886              	.LBB179:
 887 0092 0346     		mov	r3, r0
 888              	.LVL105:
 889              	@ 103 "../../test/testqueues.c" 1
 890 0094 83F31188 		msr     BASEPRI, r3
 891              	@ 0 "" 2
 892              	.LVL106:
 893              		.thumb
 894 0098 0424     		movs	r4, #4
 895              	.LVL107:
 896              	.L38:
 897              	.LBE179:
 898              		.loc 1 107 0
 899 009a 794D     		ldr	r5, .L56
 900 009c 4FF0FF31 		mov	r1, #-1
 901 00a0 2846     		mov	r0, r5
 902 00a2 FFF7FEFF 		bl	chIQGetTimeout
 903              	.LVL108:
 904 00a6 C0B2     		uxtb	r0, r0
 905 00a8 FFF7FEFF 		bl	test_emit_token
ARM GAS  /tmp/ccSScqgn.s 			page 17


 906              		.loc 1 106 0
 907 00ac 013C     		subs	r4, r4, #1
 908 00ae F4D1     		bne	.L38
 909              	.LBB180:
 910              		.loc 1 108 0
 911 00b0 2023     		movs	r3, #32
 912              	.LVL109:
 913              	@ 108 "../../test/testqueues.c" 1
 914 00b2 83F31188 		msr     BASEPRI, r3
 915              	@ 0 "" 2
 916              	.LVL110:
 917              		.thumb
 918              	.LBE180:
 919 00b6 A968     		ldr	r1, [r5, #8]
 920 00b8 0420     		movs	r0, #4
 921 00ba D1F10101 		rsbs	r1, r1, #1
 922 00be 38BF     		it	cc
 923 00c0 0021     		movcc	r1, #0
 924 00c2 FFF7FEFF 		bl	_test_assert
 925              	.LVL111:
 926              	.LBB181:
 927 00c6 2346     		mov	r3, r4
 928              	@ 108 "../../test/testqueues.c" 1
 929 00c8 83F31188 		msr     BASEPRI, r3
 930              	@ 0 "" 2
 931              	.LVL112:
 932              		.thumb
 933              	.LBE181:
 934 00cc 0028     		cmp	r0, #0
 935 00ce CAD1     		bne	.L31
 936              		.loc 1 109 0
 937 00d0 0520     		movs	r0, #5
 938 00d2 6C49     		ldr	r1, .L56+4
 939 00d4 FFF7FEFF 		bl	_test_assert_sequence
 940              	.LVL113:
 941 00d8 0028     		cmp	r0, #0
 942 00da C4D1     		bne	.L31
 943              	.LBB182:
 944              		.loc 1 112 0
 945 00dc 2023     		movs	r3, #32
 946              	.LVL114:
 947              	@ 112 "../../test/testqueues.c" 1
 948 00de 83F31188 		msr     BASEPRI, r3
 949              	@ 0 "" 2
 950              	.LVL115:
 951              		.thumb
 952 00e2 4125     		movs	r5, #65
 953              	.LVL116:
 954              	.L40:
 955              	.LBE182:
 956              		.loc 1 114 0
 957 00e4 664C     		ldr	r4, .L56
 958 00e6 2946     		mov	r1, r5
 959 00e8 0135     		adds	r5, r5, #1
 960 00ea 2046     		mov	r0, r4
 961 00ec EDB2     		uxtb	r5, r5
 962 00ee FFF7FEFF 		bl	chIQPutI
ARM GAS  /tmp/ccSScqgn.s 			page 18


 963              	.LVL117:
 964              		.loc 1 113 0
 965 00f2 452D     		cmp	r5, #69
 966 00f4 F6D1     		bne	.L40
 967              	.LBB183:
 968              		.loc 1 115 0
 969 00f6 0023     		movs	r3, #0
 970              	.LVL118:
 971              	@ 115 "../../test/testqueues.c" 1
 972 00f8 83F31188 		msr     BASEPRI, r3
 973              	@ 0 "" 2
 974              	.LVL119:
 975              		.thumb
 976              	.LBE183:
 977              		.loc 1 118 0
 978 00fc 624D     		ldr	r5, .L56+8
 979 00fe 0822     		movs	r2, #8
 980 0100 6968     		ldr	r1, [r5, #4]
 981 0102 2046     		mov	r0, r4
 982 0104 FFF7FEFF 		bl	chIQReadTimeout
 983              	.LVL120:
 984              		.loc 1 119 0
 985 0108 A0F10406 		sub	r6, r0, #4
 986 010c 7142     		rsbs	r1, r6, #0
 987 010e 41EB0601 		adc	r1, r1, r6
 988 0112 0620     		movs	r0, #6
 989              	.LVL121:
 990 0114 FFF7FEFF 		bl	_test_assert
 991 0118 0646     		mov	r6, r0
 992              	.LVL122:
 993 011a 0028     		cmp	r0, #0
 994 011c A3D1     		bne	.L31
 995              	.LBB184:
 996              		.loc 1 120 0
 997 011e 2023     		movs	r3, #32
 998              	.LVL123:
 999              	@ 120 "../../test/testqueues.c" 1
 1000 0120 83F31188 		msr     BASEPRI, r3
 1001              	@ 0 "" 2
 1002              	.LVL124:
 1003              		.thumb
 1004              	.LBE184:
 1005 0124 A168     		ldr	r1, [r4, #8]
 1006 0126 0720     		movs	r0, #7
 1007 0128 D1F10101 		rsbs	r1, r1, #1
 1008 012c 38BF     		it	cc
 1009 012e 0021     		movcc	r1, #0
 1010 0130 FFF7FEFF 		bl	_test_assert
 1011              	.LVL125:
 1012 0134 0028     		cmp	r0, #0
 1013 0136 4FD1     		bne	.L53
 1014              	.LBB185:
 1015 0138 0346     		mov	r3, r0
 1016              	.LVL126:
 1017              	@ 120 "../../test/testqueues.c" 1
 1018 013a 83F31188 		msr     BASEPRI, r3
 1019              	@ 0 "" 2
ARM GAS  /tmp/ccSScqgn.s 			page 19


 1020              	.LVL127:
 1021              		.thumb
 1022              	.LBE185:
 1023              	.LBB186:
 1024              		.loc 1 123 0
 1025 013e 2023     		movs	r3, #32
 1026              	.LVL128:
 1027              	@ 123 "../../test/testqueues.c" 1
 1028 0140 83F31188 		msr     BASEPRI, r3
 1029              	@ 0 "" 2
 1030              	.LVL129:
 1031              		.thumb
 1032 0144 4126     		movs	r6, #65
 1033              	.LVL130:
 1034              	.L42:
 1035              	.LBE186:
 1036              		.loc 1 125 0
 1037 0146 4E4C     		ldr	r4, .L56
 1038 0148 3146     		mov	r1, r6
 1039 014a 0136     		adds	r6, r6, #1
 1040 014c 2046     		mov	r0, r4
 1041 014e F6B2     		uxtb	r6, r6
 1042 0150 FFF7FEFF 		bl	chIQPutI
 1043              	.LVL131:
 1044              		.loc 1 124 0
 1045 0154 452E     		cmp	r6, #69
 1046 0156 F6D1     		bne	.L42
 1047              	.LBB187:
 1048              		.loc 1 126 0
 1049 0158 0023     		movs	r3, #0
 1050              	.LVL132:
 1051              	@ 126 "../../test/testqueues.c" 1
 1052 015a 83F31188 		msr     BASEPRI, r3
 1053              	@ 0 "" 2
 1054              	.LVL133:
 1055              		.thumb
 1056              	.LBE187:
 1057              		.loc 1 129 0
 1058 015e 6D68     		ldr	r5, [r5, #4]
 1059 0160 0222     		movs	r2, #2
 1060 0162 2946     		mov	r1, r5
 1061 0164 2046     		mov	r0, r4
 1062 0166 FFF7FEFF 		bl	chIQReadTimeout
 1063              	.LVL134:
 1064              		.loc 1 130 0
 1065 016a A0F10200 		sub	r0, r0, #2
 1066              	.LVL135:
 1067 016e 4142     		rsbs	r1, r0, #0
 1068 0170 41EB0001 		adc	r1, r1, r0
 1069 0174 0820     		movs	r0, #8
 1070              	.LVL136:
 1071 0176 FFF7FEFF 		bl	_test_assert
 1072 017a 0028     		cmp	r0, #0
 1073 017c 7FF473AF 		bne	.L31
 1074              		.loc 1 131 0
 1075 0180 2946     		mov	r1, r5
 1076 0182 0222     		movs	r2, #2
ARM GAS  /tmp/ccSScqgn.s 			page 20


 1077 0184 0346     		mov	r3, r0
 1078 0186 2046     		mov	r0, r4
 1079 0188 FFF7FEFF 		bl	chIQReadTimeout
 1080              	.LVL137:
 1081              		.loc 1 132 0
 1082 018c A0F10202 		sub	r2, r0, #2
 1083 0190 5142     		rsbs	r1, r2, #0
 1084 0192 41EB0201 		adc	r1, r1, r2
 1085 0196 0920     		movs	r0, #9
 1086              	.LVL138:
 1087 0198 FFF7FEFF 		bl	_test_assert
 1088              	.LVL139:
 1089 019c 0546     		mov	r5, r0
 1090 019e 0028     		cmp	r0, #0
 1091 01a0 7FF461AF 		bne	.L31
 1092              	.LBB188:
 1093              		.loc 1 133 0
 1094 01a4 2023     		movs	r3, #32
 1095              	.LVL140:
 1096              	@ 133 "../../test/testqueues.c" 1
 1097 01a6 83F31188 		msr     BASEPRI, r3
 1098              	@ 0 "" 2
 1099              	.LVL141:
 1100              		.thumb
 1101              	.LBE188:
 1102 01aa A168     		ldr	r1, [r4, #8]
 1103 01ac 0A20     		movs	r0, #10
 1104 01ae D1F10101 		rsbs	r1, r1, #1
 1105 01b2 38BF     		it	cc
 1106 01b4 0021     		movcc	r1, #0
 1107 01b6 FFF7FEFF 		bl	_test_assert
 1108              	.LVL142:
 1109 01ba 0646     		mov	r6, r0
 1110 01bc 80B1     		cbz	r0, .L43
 1111              	.L51:
 1112              	.LBB189:
 1113              		.loc 1 142 0
 1114 01be 2B46     		mov	r3, r5
 1115              	@ 142 "../../test/testqueues.c" 1
 1116 01c0 83F31188 		msr     BASEPRI, r3
 1117              	@ 0 "" 2
 1118              	.LVL143:
 1119              		.thumb
 1120 01c4 4FE7     		b	.L31
 1121              	.LVL144:
 1122              	.L55:
 1123              	.LBE189:
 1124              	.LBB190:
 1125              		.loc 1 103 0
 1126 01c6 2346     		mov	r3, r4
 1127              	@ 103 "../../test/testqueues.c" 1
 1128 01c8 83F31188 		msr     BASEPRI, r3
 1129              	@ 0 "" 2
 1130              	.LVL145:
 1131              		.thumb
 1132 01cc 4BE7     		b	.L31
 1133              	.LVL146:
ARM GAS  /tmp/ccSScqgn.s 			page 21


 1134              	.L54:
 1135              	.LBE190:
 1136              		.loc 1 90 0
 1137 01ce A168     		ldr	r1, [r4, #8]
 1138 01d0 0031     		adds	r1, r1, #0
 1139 01d2 18BF     		it	ne
 1140 01d4 0121     		movne	r1, #1
 1141 01d6 3EE7     		b	.L35
 1142              	.L53:
 1143              	.LBB191:
 1144              		.loc 1 140 0
 1145 01d8 3346     		mov	r3, r6
 1146              	@ 140 "../../test/testqueues.c" 1
 1147 01da 83F31188 		msr     BASEPRI, r3
 1148              	@ 0 "" 2
 1149              	.LVL147:
 1150              		.thumb
 1151 01de 42E7     		b	.L31
 1152              	.LVL148:
 1153              	.L43:
 1154              	.LBE191:
 1155              	.LBB192:
 1156              		.loc 1 133 0
 1157 01e0 0346     		mov	r3, r0
 1158              	.LVL149:
 1159              	@ 133 "../../test/testqueues.c" 1
 1160 01e2 83F31188 		msr     BASEPRI, r3
 1161              	@ 0 "" 2
 1162              	.LVL150:
 1163              		.thumb
 1164              	.LBE192:
 1165              	.LBB193:
 1166              		.loc 1 136 0
 1167 01e6 2023     		movs	r3, #32
 1168              	.LVL151:
 1169              	@ 136 "../../test/testqueues.c" 1
 1170 01e8 83F31188 		msr     BASEPRI, r3
 1171              	@ 0 "" 2
 1172              	.LVL152:
 1173              		.thumb
 1174              	.LBE193:
 1175              		.loc 1 137 0
 1176 01ec 0146     		mov	r1, r0
 1177 01ee 2046     		mov	r0, r4
 1178 01f0 FFF7FEFF 		bl	chIQPutI
 1179              	.LVL153:
 1180              		.loc 1 138 0
 1181 01f4 2046     		mov	r0, r4
 1182 01f6 FFF7FEFF 		bl	chIQResetI
 1183              	.LBB194:
 1184              		.loc 1 139 0
 1185 01fa 3346     		mov	r3, r6
 1186              	.LVL154:
 1187              	@ 139 "../../test/testqueues.c" 1
 1188 01fc 83F31188 		msr     BASEPRI, r3
 1189              	@ 0 "" 2
 1190              	.LVL155:
ARM GAS  /tmp/ccSScqgn.s 			page 22


 1191              		.thumb
 1192              	.LBE194:
 1193              	.LBB195:
 1194              		.loc 1 140 0
 1195 0200 2023     		movs	r3, #32
 1196              	.LVL156:
 1197              	@ 140 "../../test/testqueues.c" 1
 1198 0202 83F31188 		msr     BASEPRI, r3
 1199              	@ 0 "" 2
 1200              	.LVL157:
 1201              		.thumb
 1202              	.LBE195:
 1203 0206 A168     		ldr	r1, [r4, #8]
 1204 0208 0B20     		movs	r0, #11
 1205 020a D1F10101 		rsbs	r1, r1, #1
 1206 020e 38BF     		it	cc
 1207 0210 0021     		movcc	r1, #0
 1208 0212 FFF7FEFF 		bl	_test_assert
 1209              	.LVL158:
 1210 0216 0546     		mov	r5, r0
 1211 0218 0028     		cmp	r0, #0
 1212 021a DDD1     		bne	.L53
 1213              	.LBB196:
 1214 021c 0346     		mov	r3, r0
 1215              	.LVL159:
 1216              	@ 140 "../../test/testqueues.c" 1
 1217 021e 83F31188 		msr     BASEPRI, r3
 1218              	@ 0 "" 2
 1219              	.LVL160:
 1220              		.thumb
 1221              	.LBE196:
 1222              		.loc 1 141 0
 1223 0222 194B     		ldr	r3, .L56+8
 1224              	.LVL161:
 1225 0224 4FF49871 		mov	r1, #304
 1226 0228 1868     		ldr	r0, [r3, #0]
 1227 022a 184B     		ldr	r3, .L56+12
 1228 022c 9B69     		ldr	r3, [r3, #24]
 1229 022e 9A68     		ldr	r2, [r3, #8]
 1230 0230 174B     		ldr	r3, .L56+16
 1231 0232 0132     		adds	r2, r2, #1
 1232 0234 0095     		str	r5, [sp, #0]
 1233 0236 FFF7FEFF 		bl	chThdCreateStatic
 1234 023a 164A     		ldr	r2, .L56+20
 1235              	.LBB197:
 1236              		.loc 1 142 0
 1237 023c 2023     		movs	r3, #32
 1238              	.LVL162:
 1239              	.LBE197:
 1240              		.loc 1 141 0
 1241 023e 1060     		str	r0, [r2, #0]
 1242              	.LBB198:
 1243              		.loc 1 142 0
 1244              	@ 142 "../../test/testqueues.c" 1
 1245 0240 83F31188 		msr     BASEPRI, r3
 1246              	@ 0 "" 2
 1247              	.LVL163:
ARM GAS  /tmp/ccSScqgn.s 			page 23


 1248              		.thumb
 1249              	.LBE198:
 1250 0244 A168     		ldr	r1, [r4, #8]
 1251 0246 0C20     		movs	r0, #12
 1252 0248 D1F10101 		rsbs	r1, r1, #1
 1253 024c 38BF     		it	cc
 1254 024e 0021     		movcc	r1, #0
 1255 0250 FFF7FEFF 		bl	_test_assert
 1256              	.LVL164:
 1257 0254 0346     		mov	r3, r0
 1258 0256 0028     		cmp	r0, #0
 1259 0258 B1D1     		bne	.L51
 1260              	.LBB199:
 1261              	@ 142 "../../test/testqueues.c" 1
 1262 025a 83F31188 		msr     BASEPRI, r3
 1263              	@ 0 "" 2
 1264              	.LVL165:
 1265              		.thumb
 1266              	.LBE199:
 1267              		.loc 1 143 0
 1268 025e FFF7FEFF 		bl	test_wait_threads
 1269              	.LVL166:
 1270              		.loc 1 146 0
 1271 0262 2046     		mov	r0, r4
 1272 0264 0A21     		movs	r1, #10
 1273 0266 FFF7FEFF 		bl	chIQGetTimeout
 1274 026a A0F1FF33 		sub	r3, r0, #-1
 1275 026e 5942     		rsbs	r1, r3, #0
 1276 0270 41EB0301 		adc	r1, r1, r3
 1277 0274 0D20     		movs	r0, #13
 1278              	.LBE200:
 1279              	.LBE202:
 1280              		.loc 1 147 0
 1281 0276 02B0     		add	sp, sp, #8
 1282 0278 BDE87040 		pop	{r4, r5, r6, lr}
 1283              	.LBB203:
 1284              	.LBB201:
 1285              		.loc 1 146 0
 1286 027c FFF7FEBF 		b	_test_assert
 1287              	.L57:
 1288              		.align	2
 1289              	.L56:
 1290 0280 00000000 		.word	.LANCHOR1
 1291 0284 00000000 		.word	.LC0
 1292 0288 00000000 		.word	wa
 1293 028c 00000000 		.word	rlist
 1294 0290 00000000 		.word	thread1
 1295 0294 00000000 		.word	threads
 1296              	.LBE201:
 1297              	.LBE203:
 1298              		.cfi_endproc
 1299              	.LFE10:
 1300              		.size	queues1_execute, .-queues1_execute
 1301              		.global	patternqueues
 1302              		.global	testqueues2
 1303              		.global	testqueues1
 1304 0298 AFF30080 		.section	.rodata.testqueues1,"a",%progbits
ARM GAS  /tmp/ccSScqgn.s 			page 24


 1304      AFF30080 
 1305              		.align	2
 1306              		.type	testqueues1, %object
 1307              		.size	testqueues1, 16
 1308              	testqueues1:
 1309 0000 20000000 		.word	.LC2
 1310 0004 00000000 		.word	queues1_setup
 1311 0008 00000000 		.word	0
 1312 000c 00000000 		.word	queues1_execute
 1313              		.section	.rodata.testqueues2,"a",%progbits
 1314              		.align	2
 1315              		.type	testqueues2, %object
 1316              		.size	testqueues2, 16
 1317              	testqueues2:
 1318 0000 08000000 		.word	.LC1
 1319 0004 00000000 		.word	queues2_setup
 1320 0008 00000000 		.word	0
 1321 000c 00000000 		.word	queues2_execute
 1322              		.section	.rodata.str1.4,"aMS",%progbits,1
 1323              		.align	2
 1324              	.LC0:
 1325 0000 41424344 		.ascii	"ABCD\000"
 1325      00
 1326 0005 000000   		.space	3
 1327              	.LC1:
 1328 0008 51756575 		.ascii	"Queues, output queues\000"
 1328      65732C20 
 1328      6F757470 
 1328      75742071 
 1328      75657565 
 1329 001e 0000     		.space	2
 1330              	.LC2:
 1331 0020 51756575 		.ascii	"Queues, input queues\000"
 1331      65732C20 
 1331      696E7075 
 1331      74207175 
 1331      65756573 
 1332 0035 000000   		.section	.rodata.patternqueues,"a",%progbits
 1333              		.align	2
 1334              		.type	patternqueues, %object
 1335              		.size	patternqueues, 12
 1336              	patternqueues:
 1337 0000 00000000 		.word	testqueues1
 1338 0004 00000000 		.word	testqueues2
 1339 0008 00000000 		.word	0
 1340              		.section	.data.oq,"aw",%progbits
 1341              		.align	2
 1342              		.set	.LANCHOR0,. + 0
 1343              		.type	oq, %object
 1344              		.size	oq, 36
 1345              	oq:
 1346 0000 00000000 		.word	oq
 1347 0004 00000000 		.word	oq
 1348 0008 04000000 		.word	4
 1349 000c 30010000 		.word	test+304
 1350 0010 34010000 		.word	test+308
 1351 0014 30010000 		.word	test+304
ARM GAS  /tmp/ccSScqgn.s 			page 25


 1352 0018 30010000 		.word	test+304
 1353 001c 00000000 		.word	notify
 1354 0020 00000000 		.word	0
 1355              		.section	.data.iq,"aw",%progbits
 1356              		.align	2
 1357              		.set	.LANCHOR1,. + 0
 1358              		.type	iq, %object
 1359              		.size	iq, 36
 1360              	iq:
 1361 0000 00000000 		.word	iq
 1362 0004 00000000 		.word	iq
 1363 0008 00000000 		.word	0
 1364 000c 00000000 		.word	test
 1365 0010 04000000 		.word	test+4
 1366 0014 00000000 		.word	test
 1367 0018 00000000 		.word	test
 1368 001c 00000000 		.word	notify
 1369 0020 00000000 		.word	0
 1370              		.text
 1371              	.Letext0:
 1372              		.file 2 "/opt/paparazzi/arm-multilib/lib/gcc/arm-none-eabi/4.6.2/include/stddef.h"
 1373              		.file 3 "/opt/paparazzi/arm-multilib/lib/gcc/arm-none-eabi/4.6.2/../../../../arm-none-eabi/include
 1374              		.file 4 "../../os/ports/GCC/ARMCMx/chtypes.h"
 1375              		.file 5 "../../os/kernel/include/chlists.h"
 1376              		.file 6 "../../os/kernel/include/chthreads.h"
 1377              		.file 7 "../../os/ports/GCC/ARMCMx/chcore_v7m.h"
 1378              		.file 8 "../../os/kernel/include/chschd.h"
 1379              		.file 9 "../../os/kernel/include/chmtx.h"
 1380              		.file 10 "../../os/kernel/include/chqueues.h"
 1381              		.file 11 "../../test/test.h"