ARM GAS  /tmp/ccfuAShp.s 			page 1


   1              		.syntax unified
   2              		.cpu cortex-m3
   3              		.fpu softvfp
   4              		.eabi_attribute 20, 1
   5              		.eabi_attribute 21, 1
   6              		.eabi_attribute 23, 3
   7              		.eabi_attribute 24, 1
   8              		.eabi_attribute 25, 1
   9              		.eabi_attribute 26, 1
  10              		.eabi_attribute 30, 2
  11              		.eabi_attribute 18, 4
  12              		.thumb
  13              		.file	"chevents.c"
  14              		.text
  15              	.Ltext0:
  16              		.cfi_sections	.debug_frame
  17              		.section	.text.chEvtRegisterMask,"ax",%progbits
  18              		.align	2
  19              		.p2align 4,,15
  20              		.global	chEvtRegisterMask
  21              		.thumb
  22              		.thumb_func
  23              		.type	chEvtRegisterMask, %function
  24              	chEvtRegisterMask:
  25              	.LFB7:
  26              		.file 1 "../../os/kernel/src/chevents.c"
  27              		.loc 1 85 0
  28              		.cfi_startproc
  29              		@ args = 0, pretend = 0, frame = 0
  30              		@ frame_needed = 0, uses_anonymous_args = 0
  31              		@ link register save eliminated.
  32              	.LVL0:
  33 0000 70B4     		push	{r4, r5, r6}
  34              	.LCFI0:
  35              		.cfi_def_cfa_offset 12
  36              		.cfi_offset 6, -4
  37              		.cfi_offset 5, -8
  38              		.cfi_offset 4, -12
  39              	.LBB2:
  40              		.loc 1 89 0
  41 0002 2023     		movs	r3, #32
  42              	.LVL1:
  43              	@ 89 "../../os/kernel/src/chevents.c" 1
  44 0004 83F31188 		msr     BASEPRI, r3
  45              	@ 0 "" 2
  46              	.LVL2:
  47              		.thumb
  48              	.LBE2:
  49              		.loc 1 92 0
  50 0008 40F20003 		movw	r3, #:lower16:rlist
  51              	.LVL3:
  52 000c C0F20003 		movt	r3, #:upper16:rlist
  53 0010 9D69     		ldr	r5, [r3, #24]
  54              		.loc 1 90 0
  55 0012 0668     		ldr	r6, [r0, #0]
  56              		.loc 1 94 0
  57 0014 0024     		movs	r4, #0
ARM GAS  /tmp/ccfuAShp.s 			page 2


  58              		.loc 1 90 0
  59 0016 0E60     		str	r6, [r1, #0]
  60              	.LBB3:
  61              		.loc 1 95 0
  62 0018 2346     		mov	r3, r4
  63              	.LVL4:
  64              	.LBE3:
  65              		.loc 1 91 0
  66 001a 0160     		str	r1, [r0, #0]
  67              		.loc 1 92 0
  68 001c 4D60     		str	r5, [r1, #4]
  69              		.loc 1 93 0
  70 001e 8A60     		str	r2, [r1, #8]
  71              		.loc 1 94 0
  72 0020 CC60     		str	r4, [r1, #12]
  73              	.LBB4:
  74              		.loc 1 95 0
  75              	@ 95 "../../os/kernel/src/chevents.c" 1
  76 0022 83F31188 		msr     BASEPRI, r3
  77              	@ 0 "" 2
  78              	.LVL5:
  79              		.thumb
  80              	.LBE4:
  81              		.loc 1 96 0
  82 0026 70BC     		pop	{r4, r5, r6}
  83 0028 7047     		bx	lr
  84              		.cfi_endproc
  85              	.LFE7:
  86              		.size	chEvtRegisterMask, .-chEvtRegisterMask
  87 002a 00BFAFF3 		.section	.text.chEvtUnregister,"ax",%progbits
  87      0080
  88              		.align	2
  89              		.p2align 4,,15
  90              		.global	chEvtUnregister
  91              		.thumb
  92              		.thumb_func
  93              		.type	chEvtUnregister, %function
  94              	chEvtUnregister:
  95              	.LFB8:
  96              		.loc 1 111 0
  97              		.cfi_startproc
  98              		@ args = 0, pretend = 0, frame = 0
  99              		@ frame_needed = 0, uses_anonymous_args = 0
 100              		@ link register save eliminated.
 101              	.LVL6:
 102              	.LBB5:
 103              		.loc 1 117 0
 104 0000 2023     		movs	r3, #32
 105              	.LVL7:
 106              	@ 117 "../../os/kernel/src/chevents.c" 1
 107 0002 83F31188 		msr     BASEPRI, r3
 108              	@ 0 "" 2
 109              	.LVL8:
 110              		.thumb
 111              	.LBE5:
 112              		.loc 1 116 0
 113 0006 0246     		mov	r2, r0
ARM GAS  /tmp/ccfuAShp.s 			page 3


 114              		.loc 1 118 0
 115 0008 02E0     		b	.L3
 116              	.LVL9:
 117              	.L5:
 118              		.loc 1 119 0
 119 000a 9942     		cmp	r1, r3
 120 000c 07D0     		beq	.L8
 121 000e 1A46     		mov	r2, r3
 122              	.LVL10:
 123              	.L3:
 124              		.loc 1 118 0 discriminator 1
 125 0010 1368     		ldr	r3, [r2, #0]
 126              	.LVL11:
 127 0012 8342     		cmp	r3, r0
 128 0014 F9D1     		bne	.L5
 129              	.L4:
 130              	.LBB6:
 131              		.loc 1 125 0
 132 0016 0023     		movs	r3, #0
 133              	.LVL12:
 134              	@ 125 "../../os/kernel/src/chevents.c" 1
 135 0018 83F31188 		msr     BASEPRI, r3
 136              	@ 0 "" 2
 137              	.LVL13:
 138              		.thumb
 139              	.LBE6:
 140              		.loc 1 126 0
 141 001c 7047     		bx	lr
 142              	.LVL14:
 143              	.L8:
 144              		.loc 1 120 0
 145 001e 0B68     		ldr	r3, [r1, #0]
 146 0020 1360     		str	r3, [r2, #0]
 147              		.loc 1 121 0
 148 0022 F8E7     		b	.L4
 149              		.cfi_endproc
 150              	.LFE8:
 151              		.size	chEvtUnregister, .-chEvtUnregister
 152 0024 AFF30080 		.section	.text.chEvtGetAndClearEvents,"ax",%progbits
 152      AFF30080 
 152      AFF30080 
 153              		.align	2
 154              		.p2align 4,,15
 155              		.global	chEvtGetAndClearEvents
 156              		.thumb
 157              		.thumb_func
 158              		.type	chEvtGetAndClearEvents, %function
 159              	chEvtGetAndClearEvents:
 160              	.LFB9:
 161              		.loc 1 136 0
 162              		.cfi_startproc
 163              		@ args = 0, pretend = 0, frame = 0
 164              		@ frame_needed = 0, uses_anonymous_args = 0
 165              		@ link register save eliminated.
 166              	.LVL15:
 167 0000 10B4     		push	{r4}
 168              	.LCFI1:
ARM GAS  /tmp/ccfuAShp.s 			page 4


 169              		.cfi_def_cfa_offset 4
 170              		.cfi_offset 4, -4
 171              	.LBB7:
 172              		.loc 1 139 0
 173 0002 2023     		movs	r3, #32
 174              	.LVL16:
 175              	@ 139 "../../os/kernel/src/chevents.c" 1
 176 0004 83F31188 		msr     BASEPRI, r3
 177              	@ 0 "" 2
 178              	.LVL17:
 179              		.thumb
 180              	.LBE7:
 181              		.loc 1 141 0
 182 0008 40F20003 		movw	r3, #:lower16:rlist
 183              	.LVL18:
 184 000c C0F20003 		movt	r3, #:upper16:rlist
 185 0010 9969     		ldr	r1, [r3, #24]
 186              	.LBB8:
 187              		.loc 1 144 0
 188 0012 0023     		movs	r3, #0
 189              	.LVL19:
 190              	.LBE8:
 191              		.loc 1 141 0
 192 0014 8A6B     		ldr	r2, [r1, #56]
 193              	.LVL20:
 194              		.loc 1 142 0
 195 0016 22EA0004 		bic	r4, r2, r0
 196 001a 8C63     		str	r4, [r1, #56]
 197              	.LBB9:
 198              		.loc 1 144 0
 199              	@ 144 "../../os/kernel/src/chevents.c" 1
 200 001c 83F31188 		msr     BASEPRI, r3
 201              	@ 0 "" 2
 202              	.LVL21:
 203              		.thumb
 204              	.LBE9:
 205              		.loc 1 146 0
 206 0020 1040     		ands	r0, r0, r2
 207              	.LVL22:
 208 0022 10BC     		pop	{r4}
 209 0024 7047     		bx	lr
 210              		.cfi_endproc
 211              	.LFE9:
 212              		.size	chEvtGetAndClearEvents, .-chEvtGetAndClearEvents
 213 0026 00BFAFF3 		.section	.text.chEvtAddEvents,"ax",%progbits
 213      0080AFF3 
 213      0080
 214              		.align	2
 215              		.p2align 4,,15
 216              		.global	chEvtAddEvents
 217              		.thumb
 218              		.thumb_func
 219              		.type	chEvtAddEvents, %function
 220              	chEvtAddEvents:
 221              	.LFB10:
 222              		.loc 1 157 0
 223              		.cfi_startproc
ARM GAS  /tmp/ccfuAShp.s 			page 5


 224              		@ args = 0, pretend = 0, frame = 0
 225              		@ frame_needed = 0, uses_anonymous_args = 0
 226              		@ link register save eliminated.
 227              	.LVL23:
 228              	.LBB10:
 229              		.loc 1 159 0
 230 0000 2023     		movs	r3, #32
 231              	.LVL24:
 232              	@ 159 "../../os/kernel/src/chevents.c" 1
 233 0002 83F31188 		msr     BASEPRI, r3
 234              	@ 0 "" 2
 235              	.LVL25:
 236              		.thumb
 237              	.LBE10:
 238              		.loc 1 161 0
 239 0006 40F20003 		movw	r3, #:lower16:rlist
 240              	.LVL26:
 241 000a C0F20003 		movt	r3, #:upper16:rlist
 242 000e 9A69     		ldr	r2, [r3, #24]
 243              	.LBB11:
 244              		.loc 1 163 0
 245 0010 0023     		movs	r3, #0
 246              	.LVL27:
 247              	.LBE11:
 248              		.loc 1 161 0
 249 0012 916B     		ldr	r1, [r2, #56]
 250 0014 0843     		orrs	r0, r0, r1
 251              	.LVL28:
 252 0016 9063     		str	r0, [r2, #56]
 253              	.LVL29:
 254              	.LBB12:
 255              		.loc 1 163 0
 256              	@ 163 "../../os/kernel/src/chevents.c" 1
 257 0018 83F31188 		msr     BASEPRI, r3
 258              	@ 0 "" 2
 259              	.LVL30:
 260              		.thumb
 261              	.LBE12:
 262              		.loc 1 165 0
 263 001c 7047     		bx	lr
 264              		.cfi_endproc
 265              	.LFE10:
 266              		.size	chEvtAddEvents, .-chEvtAddEvents
 267 001e 00BF     		.section	.text.chEvtGetAndClearFlags,"ax",%progbits
 268              		.align	2
 269              		.p2align 4,,15
 270              		.global	chEvtGetAndClearFlags
 271              		.thumb
 272              		.thumb_func
 273              		.type	chEvtGetAndClearFlags, %function
 274              	chEvtGetAndClearFlags:
 275              	.LFB12:
 276              		.loc 1 209 0
 277              		.cfi_startproc
 278              		@ args = 0, pretend = 0, frame = 0
 279              		@ frame_needed = 0, uses_anonymous_args = 0
 280              		@ link register save eliminated.
ARM GAS  /tmp/ccfuAShp.s 			page 6


 281              	.LVL31:
 282              		.loc 1 209 0
 283 0000 0246     		mov	r2, r0
 284              	.LBB13:
 285              		.loc 1 212 0
 286 0002 2023     		movs	r3, #32
 287              	.LVL32:
 288              	@ 212 "../../os/kernel/src/chevents.c" 1
 289 0004 83F31188 		msr     BASEPRI, r3
 290              	@ 0 "" 2
 291              	.LVL33:
 292              		.thumb
 293              	.LBE13:
 294              		.loc 1 215 0
 295 0008 0021     		movs	r1, #0
 296              		.loc 1 214 0
 297 000a C068     		ldr	r0, [r0, #12]
 298              	.LVL34:
 299              	.LBB14:
 300              		.loc 1 217 0
 301 000c 0B46     		mov	r3, r1
 302              	.LVL35:
 303              	.LBE14:
 304              		.loc 1 215 0
 305 000e D160     		str	r1, [r2, #12]
 306              	.LBB15:
 307              		.loc 1 217 0
 308              	@ 217 "../../os/kernel/src/chevents.c" 1
 309 0010 83F31188 		msr     BASEPRI, r3
 310              	@ 0 "" 2
 311              	.LVL36:
 312              		.thumb
 313              	.LBE15:
 314              		.loc 1 219 0
 315 0014 7047     		bx	lr
 316              		.cfi_endproc
 317              	.LFE12:
 318              		.size	chEvtGetAndClearFlags, .-chEvtGetAndClearFlags
 319 0016 00BFAFF3 		.section	.text.chEvtSignalI,"ax",%progbits
 319      0080AFF3 
 319      0080
 320              		.align	2
 321              		.p2align 4,,15
 322              		.global	chEvtSignalI
 323              		.thumb
 324              		.thumb_func
 325              		.type	chEvtSignalI, %function
 326              	chEvtSignalI:
 327              	.LFB14:
 328              		.loc 1 251 0
 329              		.cfi_startproc
 330              		@ args = 0, pretend = 0, frame = 0
 331              		@ frame_needed = 0, uses_anonymous_args = 0
 332              	.LVL37:
 333 0000 08B5     		push	{r3, lr}
 334              	.LCFI2:
 335              		.cfi_def_cfa_offset 8
ARM GAS  /tmp/ccfuAShp.s 			page 7


 336              		.cfi_offset 14, -4
 337              		.cfi_offset 3, -8
 338              		.loc 1 256 0
 339 0002 826B     		ldr	r2, [r0, #56]
 340              		.loc 1 258 0
 341 0004 037F     		ldrb	r3, [r0, #28]	@ zero_extendqisi2
 342              		.loc 1 256 0
 343 0006 0A43     		orrs	r2, r2, r1
 344              		.loc 1 258 0
 345 0008 082B     		cmp	r3, #8
 346              		.loc 1 256 0
 347 000a 8263     		str	r2, [r0, #56]
 348              		.loc 1 258 0
 349 000c 0BD0     		beq	.L16
 350              		.loc 1 259 0
 351 000e 092B     		cmp	r3, #9
 352 0010 00D0     		beq	.L17
 353              	.L12:
 354 0012 08BD     		pop	{r3, pc}
 355              	.L17:
 356              		.loc 1 261 0
 357 0014 436A     		ldr	r3, [r0, #36]
 358 0016 1A40     		ands	r2, r2, r3
 359              		.loc 1 260 0
 360 0018 9342     		cmp	r3, r2
 361 001a FAD1     		bne	.L12
 362              	.L14:
 363              	.LVL38:
 364              	.LBB18:
 365              	.LBB19:
 366              		.loc 1 262 0
 367 001c FFF7FEFF 		bl	chSchReadyI
 368              	.LVL39:
 369 0020 0023     		movs	r3, #0
 370 0022 4362     		str	r3, [r0, #36]
 371 0024 08BD     		pop	{r3, pc}
 372              	.LVL40:
 373              	.L16:
 374              	.LBE19:
 375              	.LBE18:
 376              		.loc 1 259 0 discriminator 1
 377 0026 436A     		ldr	r3, [r0, #36]
 378              		.loc 1 258 0 discriminator 1
 379 0028 1A42     		tst	r2, r3
 380 002a F7D1     		bne	.L14
 381 002c 08BD     		pop	{r3, pc}
 382              		.cfi_endproc
 383              	.LFE14:
 384              		.size	chEvtSignalI, .-chEvtSignalI
 385 002e 00BF     		.section	.text.chEvtSignal,"ax",%progbits
 386              		.align	2
 387              		.p2align 4,,15
 388              		.global	chEvtSignal
 389              		.thumb
 390              		.thumb_func
 391              		.type	chEvtSignal, %function
 392              	chEvtSignal:
ARM GAS  /tmp/ccfuAShp.s 			page 8


 393              	.LFB13:
 394              		.loc 1 229 0
 395              		.cfi_startproc
 396              		@ args = 0, pretend = 0, frame = 0
 397              		@ frame_needed = 0, uses_anonymous_args = 0
 398              	.LVL41:
 399 0000 08B5     		push	{r3, lr}
 400              	.LCFI3:
 401              		.cfi_def_cfa_offset 8
 402              		.cfi_offset 14, -4
 403              		.cfi_offset 3, -8
 404              	.LBB20:
 405              		.loc 1 233 0
 406 0002 2023     		movs	r3, #32
 407              	.LVL42:
 408              	@ 233 "../../os/kernel/src/chevents.c" 1
 409 0004 83F31188 		msr     BASEPRI, r3
 410              	@ 0 "" 2
 411              	.LVL43:
 412              		.thumb
 413              	.LBE20:
 414              		.loc 1 234 0
 415 0008 FFF7FEFF 		bl	chEvtSignalI
 416              	.LVL44:
 417              		.loc 1 235 0
 418 000c FFF7FEFF 		bl	chSchRescheduleS
 419              	.LBB21:
 420              		.loc 1 236 0
 421 0010 0023     		movs	r3, #0
 422              	.LVL45:
 423              	@ 236 "../../os/kernel/src/chevents.c" 1
 424 0012 83F31188 		msr     BASEPRI, r3
 425              	@ 0 "" 2
 426              	.LVL46:
 427              		.thumb
 428              	.LBE21:
 429              		.loc 1 237 0
 430 0016 08BD     		pop	{r3, pc}
 431              		.cfi_endproc
 432              	.LFE13:
 433              		.size	chEvtSignal, .-chEvtSignal
 434 0018 AFF30080 		.section	.text.chEvtBroadcastFlagsI,"ax",%progbits
 434      AFF30080 
 435              		.align	2
 436              		.p2align 4,,15
 437              		.global	chEvtBroadcastFlagsI
 438              		.thumb
 439              		.thumb_func
 440              		.type	chEvtBroadcastFlagsI, %function
 441              	chEvtBroadcastFlagsI:
 442              	.LFB11:
 443              		.loc 1 184 0
 444              		.cfi_startproc
 445              		@ args = 0, pretend = 0, frame = 0
 446              		@ frame_needed = 0, uses_anonymous_args = 0
 447              	.LVL47:
 448 0000 70B5     		push	{r4, r5, r6, lr}
ARM GAS  /tmp/ccfuAShp.s 			page 9


 449              	.LCFI4:
 450              		.cfi_def_cfa_offset 16
 451              		.cfi_offset 14, -4
 452              		.cfi_offset 6, -8
 453              		.cfi_offset 5, -12
 454              		.cfi_offset 4, -16
 455              		.loc 1 190 0
 456 0002 0468     		ldr	r4, [r0, #0]
 457              	.LVL48:
 458              		.loc 1 184 0
 459 0004 0546     		mov	r5, r0
 460              		.loc 1 191 0
 461 0006 A042     		cmp	r0, r4
 462              		.loc 1 184 0
 463 0008 0E46     		mov	r6, r1
 464              		.loc 1 191 0
 465 000a 09D0     		beq	.L19
 466              	.LVL49:
 467              	.L22:
 468              		.loc 1 192 0
 469 000c E368     		ldr	r3, [r4, #12]
 470              		.loc 1 193 0
 471 000e 6068     		ldr	r0, [r4, #4]
 472              		.loc 1 192 0
 473 0010 3343     		orrs	r3, r3, r6
 474 0012 E360     		str	r3, [r4, #12]
 475              		.loc 1 193 0
 476 0014 A168     		ldr	r1, [r4, #8]
 477 0016 FFF7FEFF 		bl	chEvtSignalI
 478              		.loc 1 194 0
 479 001a 2468     		ldr	r4, [r4, #0]
 480              	.LVL50:
 481              		.loc 1 191 0
 482 001c A542     		cmp	r5, r4
 483 001e F5D1     		bne	.L22
 484              	.L19:
 485 0020 70BD     		pop	{r4, r5, r6, pc}
 486              		.cfi_endproc
 487              	.LFE11:
 488              		.size	chEvtBroadcastFlagsI, .-chEvtBroadcastFlagsI
 489 0022 00BFAFF3 		.section	.text.chEvtBroadcastFlags,"ax",%progbits
 489      0080AFF3 
 489      0080AFF3 
 489      0080
 490              		.align	2
 491              		.p2align 4,,15
 492              		.global	chEvtBroadcastFlags
 493              		.thumb
 494              		.thumb_func
 495              		.type	chEvtBroadcastFlags, %function
 496              	chEvtBroadcastFlags:
 497              	.LFB15:
 498              		.loc 1 278 0
 499              		.cfi_startproc
 500              		@ args = 0, pretend = 0, frame = 0
 501              		@ frame_needed = 0, uses_anonymous_args = 0
 502              	.LVL51:
ARM GAS  /tmp/ccfuAShp.s 			page 10


 503 0000 08B5     		push	{r3, lr}
 504              	.LCFI5:
 505              		.cfi_def_cfa_offset 8
 506              		.cfi_offset 14, -4
 507              		.cfi_offset 3, -8
 508              	.LBB22:
 509              		.loc 1 280 0
 510 0002 2023     		movs	r3, #32
 511              	.LVL52:
 512              	@ 280 "../../os/kernel/src/chevents.c" 1
 513 0004 83F31188 		msr     BASEPRI, r3
 514              	@ 0 "" 2
 515              	.LVL53:
 516              		.thumb
 517              	.LBE22:
 518              		.loc 1 281 0
 519 0008 FFF7FEFF 		bl	chEvtBroadcastFlagsI
 520              	.LVL54:
 521              		.loc 1 282 0
 522 000c FFF7FEFF 		bl	chSchRescheduleS
 523              	.LBB23:
 524              		.loc 1 283 0
 525 0010 0023     		movs	r3, #0
 526              	.LVL55:
 527              	@ 283 "../../os/kernel/src/chevents.c" 1
 528 0012 83F31188 		msr     BASEPRI, r3
 529              	@ 0 "" 2
 530              	.LVL56:
 531              		.thumb
 532              	.LBE23:
 533              		.loc 1 284 0
 534 0016 08BD     		pop	{r3, pc}
 535              		.cfi_endproc
 536              	.LFE15:
 537              		.size	chEvtBroadcastFlags, .-chEvtBroadcastFlags
 538 0018 AFF30080 		.section	.text.chEvtGetAndClearFlagsI,"ax",%progbits
 538      AFF30080 
 539              		.align	2
 540              		.p2align 4,,15
 541              		.global	chEvtGetAndClearFlagsI
 542              		.thumb
 543              		.thumb_func
 544              		.type	chEvtGetAndClearFlagsI, %function
 545              	chEvtGetAndClearFlagsI:
 546              	.LFB16:
 547              		.loc 1 297 0
 548              		.cfi_startproc
 549              		@ args = 0, pretend = 0, frame = 0
 550              		@ frame_needed = 0, uses_anonymous_args = 0
 551              		@ link register save eliminated.
 552              	.LVL57:
 553              		.loc 1 297 0
 554 0000 0346     		mov	r3, r0
 555              		.loc 1 301 0
 556 0002 0022     		movs	r2, #0
 557              		.loc 1 300 0
 558 0004 C068     		ldr	r0, [r0, #12]
ARM GAS  /tmp/ccfuAShp.s 			page 11


 559              	.LVL58:
 560              		.loc 1 301 0
 561 0006 DA60     		str	r2, [r3, #12]
 562              		.loc 1 304 0
 563 0008 7047     		bx	lr
 564              		.cfi_endproc
 565              	.LFE16:
 566              		.size	chEvtGetAndClearFlagsI, .-chEvtGetAndClearFlagsI
 567 000a 00BFAFF3 		.section	.text.chEvtDispatch,"ax",%progbits
 567      0080
 568              		.align	2
 569              		.p2align 4,,15
 570              		.global	chEvtDispatch
 571              		.thumb
 572              		.thumb_func
 573              		.type	chEvtDispatch, %function
 574              	chEvtDispatch:
 575              	.LFB17:
 576              		.loc 1 315 0
 577              		.cfi_startproc
 578              		@ args = 0, pretend = 0, frame = 0
 579              		@ frame_needed = 0, uses_anonymous_args = 0
 580              	.LVL59:
 581 0000 F8B5     		push	{r3, r4, r5, r6, r7, lr}
 582              	.LCFI6:
 583              		.cfi_def_cfa_offset 24
 584              		.cfi_offset 14, -4
 585              		.cfi_offset 7, -8
 586              		.cfi_offset 6, -12
 587              		.cfi_offset 5, -16
 588              		.cfi_offset 4, -20
 589              		.cfi_offset 3, -24
 590              		.loc 1 321 0
 591 0002 0D46     		mov	r5, r1
 592              		.loc 1 315 0
 593 0004 0746     		mov	r7, r0
 594              		.loc 1 321 0
 595 0006 89B1     		cbz	r1, .L26
 596 0008 0024     		movs	r4, #0
 597              		.loc 1 322 0
 598 000a 0126     		movs	r6, #1
 599 000c 01E0     		b	.L29
 600              	.LVL60:
 601              	.L28:
 602              		.loc 1 329 0
 603 000e 0134     		adds	r4, r4, #1
 604              	.LVL61:
 605              		.loc 1 321 0
 606 0010 65B1     		cbz	r5, .L26
 607              	.LVL62:
 608              	.L29:
 609              		.loc 1 322 0
 610 0012 16FA04F3 		lsls	r3, r6, r4
 611 0016 2B42     		tst	r3, r5
 612 0018 F9D0     		beq	.L28
 613              		.loc 1 327 0
 614 001a 57F82420 		ldr	r2, [r7, r4, lsl #2]
ARM GAS  /tmp/ccfuAShp.s 			page 12


 615 001e 2046     		mov	r0, r4
 616              		.loc 1 326 0
 617 0020 25EA0305 		bic	r5, r5, r3
 618              	.LVL63:
 619              		.loc 1 329 0
 620 0024 0134     		adds	r4, r4, #1
 621              		.loc 1 327 0
 622 0026 9047     		blx	r2
 623              	.LVL64:
 624              		.loc 1 321 0
 625 0028 002D     		cmp	r5, #0
 626 002a F2D1     		bne	.L29
 627              	.LVL65:
 628              	.L26:
 629 002c F8BD     		pop	{r3, r4, r5, r6, r7, pc}
 630              		.cfi_endproc
 631              	.LFE17:
 632              		.size	chEvtDispatch, .-chEvtDispatch
 633 002e 00BF     		.section	.text.chEvtWaitOne,"ax",%progbits
 634              		.align	2
 635              		.p2align 4,,15
 636              		.global	chEvtWaitOne
 637              		.thumb
 638              		.thumb_func
 639              		.type	chEvtWaitOne, %function
 640              	chEvtWaitOne:
 641              	.LFB18:
 642              		.loc 1 350 0
 643              		.cfi_startproc
 644              		@ args = 0, pretend = 0, frame = 0
 645              		@ frame_needed = 0, uses_anonymous_args = 0
 646              	.LVL66:
 647 0000 38B5     		push	{r3, r4, r5, lr}
 648              	.LCFI7:
 649              		.cfi_def_cfa_offset 16
 650              		.cfi_offset 14, -4
 651              		.cfi_offset 5, -8
 652              		.cfi_offset 4, -12
 653              		.cfi_offset 3, -16
 654              		.loc 1 351 0
 655 0002 0D4B     		ldr	r3, .L33
 656              		.loc 1 350 0
 657 0004 0546     		mov	r5, r0
 658              		.loc 1 351 0
 659 0006 9C69     		ldr	r4, [r3, #24]
 660              	.LVL67:
 661              	.LBB24:
 662              		.loc 1 354 0
 663 0008 2023     		movs	r3, #32
 664              	.LVL68:
 665              	@ 354 "../../os/kernel/src/chevents.c" 1
 666 000a 83F31188 		msr     BASEPRI, r3
 667              	@ 0 "" 2
 668              	.LVL69:
 669              		.thumb
 670              	.LBE24:
 671              		.loc 1 356 0
ARM GAS  /tmp/ccfuAShp.s 			page 13


 672 000e A36B     		ldr	r3, [r4, #56]
 673              	.LVL70:
 674 0010 10EA0302 		ands	r2, r0, r3
 675 0014 06D1     		bne	.L32
 676              		.loc 1 357 0
 677 0016 6062     		str	r0, [r4, #36]
 678              		.loc 1 358 0
 679 0018 0820     		movs	r0, #8
 680              	.LVL71:
 681 001a FFF7FEFF 		bl	chSchGoSleepS
 682              	.LVL72:
 683              		.loc 1 359 0
 684 001e A36B     		ldr	r3, [r4, #56]
 685 0020 05EA0302 		and	r2, r5, r3
 686              	.LVL73:
 687              	.L32:
 688              		.loc 1 361 0
 689 0024 5042     		negs	r0, r2
 690 0026 1040     		ands	r0, r0, r2
 691              	.LVL74:
 692              		.loc 1 362 0
 693 0028 23EA0003 		bic	r3, r3, r0
 694 002c A363     		str	r3, [r4, #56]
 695              	.LBB25:
 696              		.loc 1 364 0
 697 002e 0023     		movs	r3, #0
 698              	.LVL75:
 699              	@ 364 "../../os/kernel/src/chevents.c" 1
 700 0030 83F31188 		msr     BASEPRI, r3
 701              	@ 0 "" 2
 702              	.LVL76:
 703              		.thumb
 704              	.LBE25:
 705              		.loc 1 366 0
 706 0034 38BD     		pop	{r3, r4, r5, pc}
 707              	.L34:
 708 0036 00BF     		.align	2
 709              	.L33:
 710 0038 00000000 		.word	rlist
 711              		.cfi_endproc
 712              	.LFE18:
 713              		.size	chEvtWaitOne, .-chEvtWaitOne
 714 003c AFF30080 		.section	.text.chEvtWaitAny,"ax",%progbits
 715              		.align	2
 716              		.p2align 4,,15
 717              		.global	chEvtWaitAny
 718              		.thumb
 719              		.thumb_func
 720              		.type	chEvtWaitAny, %function
 721              	chEvtWaitAny:
 722              	.LFB19:
 723              		.loc 1 379 0
 724              		.cfi_startproc
 725              		@ args = 0, pretend = 0, frame = 0
 726              		@ frame_needed = 0, uses_anonymous_args = 0
 727              	.LVL77:
 728 0000 38B5     		push	{r3, r4, r5, lr}
ARM GAS  /tmp/ccfuAShp.s 			page 14


 729              	.LCFI8:
 730              		.cfi_def_cfa_offset 16
 731              		.cfi_offset 14, -4
 732              		.cfi_offset 5, -8
 733              		.cfi_offset 4, -12
 734              		.cfi_offset 3, -16
 735              		.loc 1 380 0
 736 0002 0B4B     		ldr	r3, .L37
 737              		.loc 1 379 0
 738 0004 0546     		mov	r5, r0
 739              		.loc 1 380 0
 740 0006 9C69     		ldr	r4, [r3, #24]
 741              	.LVL78:
 742              	.LBB26:
 743              		.loc 1 383 0
 744 0008 2023     		movs	r3, #32
 745              	.LVL79:
 746              	@ 383 "../../os/kernel/src/chevents.c" 1
 747 000a 83F31188 		msr     BASEPRI, r3
 748              	@ 0 "" 2
 749              	.LVL80:
 750              		.thumb
 751              	.LBE26:
 752              		.loc 1 385 0
 753 000e A36B     		ldr	r3, [r4, #56]
 754              	.LVL81:
 755 0010 1840     		ands	r0, r0, r3
 756              	.LVL82:
 757 0012 06D1     		bne	.L36
 758              		.loc 1 387 0
 759 0014 0820     		movs	r0, #8
 760              		.loc 1 386 0
 761 0016 6562     		str	r5, [r4, #36]
 762              		.loc 1 387 0
 763 0018 FFF7FEFF 		bl	chSchGoSleepS
 764              	.LVL83:
 765              		.loc 1 388 0
 766 001c A36B     		ldr	r3, [r4, #56]
 767 001e 05EA0300 		and	r0, r5, r3
 768              	.LVL84:
 769              	.L36:
 770              		.loc 1 390 0
 771 0022 23EA0003 		bic	r3, r3, r0
 772 0026 A363     		str	r3, [r4, #56]
 773              	.LBB27:
 774              		.loc 1 392 0
 775 0028 0023     		movs	r3, #0
 776              	.LVL85:
 777              	@ 392 "../../os/kernel/src/chevents.c" 1
 778 002a 83F31188 		msr     BASEPRI, r3
 779              	@ 0 "" 2
 780              	.LVL86:
 781              		.thumb
 782              	.LBE27:
 783              		.loc 1 394 0
 784 002e 38BD     		pop	{r3, r4, r5, pc}
 785              	.L38:
ARM GAS  /tmp/ccfuAShp.s 			page 15


 786              		.align	2
 787              	.L37:
 788 0030 00000000 		.word	rlist
 789              		.cfi_endproc
 790              	.LFE19:
 791              		.size	chEvtWaitAny, .-chEvtWaitAny
 792 0034 AFF30080 		.section	.text.chEvtWaitAll,"ax",%progbits
 792      AFF30080 
 792      AFF30080 
 793              		.align	2
 794              		.p2align 4,,15
 795              		.global	chEvtWaitAll
 796              		.thumb
 797              		.thumb_func
 798              		.type	chEvtWaitAll, %function
 799              	chEvtWaitAll:
 800              	.LFB20:
 801              		.loc 1 407 0
 802              		.cfi_startproc
 803              		@ args = 0, pretend = 0, frame = 0
 804              		@ frame_needed = 0, uses_anonymous_args = 0
 805              	.LVL87:
 806 0000 38B5     		push	{r3, r4, r5, lr}
 807              	.LCFI9:
 808              		.cfi_def_cfa_offset 16
 809              		.cfi_offset 14, -4
 810              		.cfi_offset 5, -8
 811              		.cfi_offset 4, -12
 812              		.cfi_offset 3, -16
 813              		.loc 1 408 0
 814 0002 0C4B     		ldr	r3, .L41
 815              		.loc 1 407 0
 816 0004 0446     		mov	r4, r0
 817              		.loc 1 408 0
 818 0006 9D69     		ldr	r5, [r3, #24]
 819              	.LVL88:
 820              	.LBB28:
 821              		.loc 1 410 0
 822 0008 2023     		movs	r3, #32
 823              	.LVL89:
 824              	@ 410 "../../os/kernel/src/chevents.c" 1
 825 000a 83F31188 		msr     BASEPRI, r3
 826              	@ 0 "" 2
 827              	.LVL90:
 828              		.thumb
 829              	.LBE28:
 830              		.loc 1 412 0
 831 000e AB6B     		ldr	r3, [r5, #56]
 832              	.LVL91:
 833 0010 00EA0302 		and	r2, r0, r3
 834 0014 8242     		cmp	r2, r0
 835 0016 04D0     		beq	.L40
 836              		.loc 1 413 0
 837 0018 6862     		str	r0, [r5, #36]
 838              		.loc 1 414 0
 839 001a 0920     		movs	r0, #9
 840              	.LVL92:
ARM GAS  /tmp/ccfuAShp.s 			page 16


 841 001c FFF7FEFF 		bl	chSchGoSleepS
 842              	.LVL93:
 843 0020 AB6B     		ldr	r3, [r5, #56]
 844              	.L40:
 845              		.loc 1 416 0
 846 0022 23EA0403 		bic	r3, r3, r4
 847 0026 AB63     		str	r3, [r5, #56]
 848              	.LBB29:
 849              		.loc 1 418 0
 850 0028 0023     		movs	r3, #0
 851              	.LVL94:
 852              	@ 418 "../../os/kernel/src/chevents.c" 1
 853 002a 83F31188 		msr     BASEPRI, r3
 854              	@ 0 "" 2
 855              	.LVL95:
 856              		.thumb
 857              	.LBE29:
 858              		.loc 1 420 0
 859 002e 2046     		mov	r0, r4
 860 0030 38BD     		pop	{r3, r4, r5, pc}
 861              	.L42:
 862 0032 00BF     		.align	2
 863              	.L41:
 864 0034 00000000 		.word	rlist
 865              		.cfi_endproc
 866              	.LFE20:
 867              		.size	chEvtWaitAll, .-chEvtWaitAll
 868 0038 AFF30080 		.section	.text.chEvtWaitOneTimeout,"ax",%progbits
 868      AFF30080 
 869              		.align	2
 870              		.p2align 4,,15
 871              		.global	chEvtWaitOneTimeout
 872              		.thumb
 873              		.thumb_func
 874              		.type	chEvtWaitOneTimeout, %function
 875              	chEvtWaitOneTimeout:
 876              	.LFB21:
 877              		.loc 1 446 0
 878              		.cfi_startproc
 879              		@ args = 0, pretend = 0, frame = 0
 880              		@ frame_needed = 0, uses_anonymous_args = 0
 881              	.LVL96:
 882              		.loc 1 447 0
 883 0000 114B     		ldr	r3, .L49
 884              		.loc 1 446 0
 885 0002 70B5     		push	{r4, r5, r6, lr}
 886              	.LCFI10:
 887              		.cfi_def_cfa_offset 16
 888              		.cfi_offset 14, -4
 889              		.cfi_offset 6, -8
 890              		.cfi_offset 5, -12
 891              		.cfi_offset 4, -16
 892              		.loc 1 447 0
 893 0004 9E69     		ldr	r6, [r3, #24]
 894              	.LVL97:
 895              		.loc 1 446 0
 896 0006 0546     		mov	r5, r0
ARM GAS  /tmp/ccfuAShp.s 			page 17


 897              	.LBB30:
 898              		.loc 1 450 0
 899 0008 2023     		movs	r3, #32
 900              	.LVL98:
 901              	@ 450 "../../os/kernel/src/chevents.c" 1
 902 000a 83F31188 		msr     BASEPRI, r3
 903              	@ 0 "" 2
 904              	.LVL99:
 905              		.thumb
 906              	.LBE30:
 907              		.loc 1 452 0
 908 000e B36B     		ldr	r3, [r6, #56]
 909              	.LVL100:
 910 0010 10EA0304 		ands	r4, r0, r3
 911 0014 0ED1     		bne	.L44
 912              	.LVL101:
 913              		.loc 1 453 0
 914 0016 21B9     		cbnz	r1, .L45
 915              	.LVL102:
 916              	.L48:
 917              	.LBB31:
 918              		.loc 1 459 0
 919 0018 2346     		mov	r3, r4
 920              	.LVL103:
 921              	@ 459 "../../os/kernel/src/chevents.c" 1
 922 001a 83F31188 		msr     BASEPRI, r3
 923              	@ 0 "" 2
 924              	.LVL104:
 925              		.thumb
 926              	.LBE31:
 927              		.loc 1 469 0
 928 001e 2046     		mov	r0, r4
 929 0020 70BD     		pop	{r4, r5, r6, pc}
 930              	.LVL105:
 931              	.L45:
 932              		.loc 1 457 0
 933 0022 7062     		str	r0, [r6, #36]
 934              		.loc 1 458 0
 935 0024 0820     		movs	r0, #8
 936 0026 FFF7FEFF 		bl	chSchGoSleepTimeoutS
 937              	.LVL106:
 938 002a 0028     		cmp	r0, #0
 939 002c F4DB     		blt	.L48
 940              		.loc 1 462 0
 941 002e B36B     		ldr	r3, [r6, #56]
 942 0030 05EA0304 		and	r4, r5, r3
 943              	.LVL107:
 944              	.L44:
 945              		.loc 1 464 0
 946 0034 6242     		negs	r2, r4
 947 0036 1440     		ands	r4, r4, r2
 948              	.LVL108:
 949              		.loc 1 465 0
 950 0038 23EA0403 		bic	r3, r3, r4
 951 003c B363     		str	r3, [r6, #56]
 952              	.LBB32:
 953              		.loc 1 467 0
ARM GAS  /tmp/ccfuAShp.s 			page 18


 954 003e 0023     		movs	r3, #0
 955              	.LVL109:
 956              	@ 467 "../../os/kernel/src/chevents.c" 1
 957 0040 83F31188 		msr     BASEPRI, r3
 958              	@ 0 "" 2
 959              	.LVL110:
 960              		.thumb
 961              	.LBE32:
 962              		.loc 1 469 0
 963 0044 2046     		mov	r0, r4
 964 0046 70BD     		pop	{r4, r5, r6, pc}
 965              	.L50:
 966              		.align	2
 967              	.L49:
 968 0048 00000000 		.word	rlist
 969              		.cfi_endproc
 970              	.LFE21:
 971              		.size	chEvtWaitOneTimeout, .-chEvtWaitOneTimeout
 972 004c AFF30080 		.section	.text.chEvtWaitAnyTimeout,"ax",%progbits
 973              		.align	2
 974              		.p2align 4,,15
 975              		.global	chEvtWaitAnyTimeout
 976              		.thumb
 977              		.thumb_func
 978              		.type	chEvtWaitAnyTimeout, %function
 979              	chEvtWaitAnyTimeout:
 980              	.LFB22:
 981              		.loc 1 489 0
 982              		.cfi_startproc
 983              		@ args = 0, pretend = 0, frame = 0
 984              		@ frame_needed = 0, uses_anonymous_args = 0
 985              	.LVL111:
 986              		.loc 1 490 0
 987 0000 104B     		ldr	r3, .L57
 988              		.loc 1 489 0
 989 0002 70B5     		push	{r4, r5, r6, lr}
 990              	.LCFI11:
 991              		.cfi_def_cfa_offset 16
 992              		.cfi_offset 14, -4
 993              		.cfi_offset 6, -8
 994              		.cfi_offset 5, -12
 995              		.cfi_offset 4, -16
 996              		.loc 1 490 0
 997 0004 9E69     		ldr	r6, [r3, #24]
 998              	.LVL112:
 999              		.loc 1 489 0
 1000 0006 0446     		mov	r4, r0
 1001              	.LBB33:
 1002              		.loc 1 493 0
 1003 0008 2023     		movs	r3, #32
 1004              	.LVL113:
 1005              	@ 493 "../../os/kernel/src/chevents.c" 1
 1006 000a 83F31188 		msr     BASEPRI, r3
 1007              	@ 0 "" 2
 1008              	.LVL114:
 1009              		.thumb
 1010              	.LBE33:
ARM GAS  /tmp/ccfuAShp.s 			page 19


 1011              		.loc 1 495 0
 1012 000e B36B     		ldr	r3, [r6, #56]
 1013              	.LVL115:
 1014 0010 10EA0305 		ands	r5, r0, r3
 1015 0014 0ED1     		bne	.L52
 1016              	.LVL116:
 1017              		.loc 1 496 0
 1018 0016 21B9     		cbnz	r1, .L53
 1019              	.LVL117:
 1020              	.L56:
 1021              	.LBB34:
 1022              		.loc 1 502 0
 1023 0018 2B46     		mov	r3, r5
 1024              	.LVL118:
 1025              	@ 502 "../../os/kernel/src/chevents.c" 1
 1026 001a 83F31188 		msr     BASEPRI, r3
 1027              	@ 0 "" 2
 1028              	.LVL119:
 1029              		.thumb
 1030              	.LBE34:
 1031              		.loc 1 511 0
 1032 001e 2846     		mov	r0, r5
 1033 0020 70BD     		pop	{r4, r5, r6, pc}
 1034              	.LVL120:
 1035              	.L53:
 1036              		.loc 1 500 0
 1037 0022 7062     		str	r0, [r6, #36]
 1038              		.loc 1 501 0
 1039 0024 0820     		movs	r0, #8
 1040 0026 FFF7FEFF 		bl	chSchGoSleepTimeoutS
 1041              	.LVL121:
 1042 002a 0028     		cmp	r0, #0
 1043 002c F4DB     		blt	.L56
 1044              		.loc 1 505 0
 1045 002e B36B     		ldr	r3, [r6, #56]
 1046 0030 04EA0305 		and	r5, r4, r3
 1047              	.LVL122:
 1048              	.L52:
 1049              		.loc 1 507 0
 1050 0034 23EA0503 		bic	r3, r3, r5
 1051 0038 B363     		str	r3, [r6, #56]
 1052              	.LBB35:
 1053              		.loc 1 509 0
 1054 003a 0023     		movs	r3, #0
 1055              	.LVL123:
 1056              	@ 509 "../../os/kernel/src/chevents.c" 1
 1057 003c 83F31188 		msr     BASEPRI, r3
 1058              	@ 0 "" 2
 1059              	.LVL124:
 1060              		.thumb
 1061              	.LBE35:
 1062              		.loc 1 511 0
 1063 0040 2846     		mov	r0, r5
 1064 0042 70BD     		pop	{r4, r5, r6, pc}
 1065              	.L58:
 1066              		.align	2
 1067              	.L57:
ARM GAS  /tmp/ccfuAShp.s 			page 20


 1068 0044 00000000 		.word	rlist
 1069              		.cfi_endproc
 1070              	.LFE22:
 1071              		.size	chEvtWaitAnyTimeout, .-chEvtWaitAnyTimeout
 1072 0048 AFF30080 		.section	.text.chEvtWaitAllTimeout,"ax",%progbits
 1072      AFF30080 
 1073              		.align	2
 1074              		.p2align 4,,15
 1075              		.global	chEvtWaitAllTimeout
 1076              		.thumb
 1077              		.thumb_func
 1078              		.type	chEvtWaitAllTimeout, %function
 1079              	chEvtWaitAllTimeout:
 1080              	.LFB23:
 1081              		.loc 1 530 0
 1082              		.cfi_startproc
 1083              		@ args = 0, pretend = 0, frame = 0
 1084              		@ frame_needed = 0, uses_anonymous_args = 0
 1085              	.LVL125:
 1086 0000 38B5     		push	{r3, r4, r5, lr}
 1087              	.LCFI12:
 1088              		.cfi_def_cfa_offset 16
 1089              		.cfi_offset 14, -4
 1090              		.cfi_offset 5, -8
 1091              		.cfi_offset 4, -12
 1092              		.cfi_offset 3, -16
 1093              		.loc 1 531 0
 1094 0002 134B     		ldr	r3, .L65
 1095              		.loc 1 530 0
 1096 0004 0446     		mov	r4, r0
 1097              		.loc 1 531 0
 1098 0006 9D69     		ldr	r5, [r3, #24]
 1099              	.LVL126:
 1100              	.LBB36:
 1101              		.loc 1 533 0
 1102 0008 2023     		movs	r3, #32
 1103              	.LVL127:
 1104              	@ 533 "../../os/kernel/src/chevents.c" 1
 1105 000a 83F31188 		msr     BASEPRI, r3
 1106              	@ 0 "" 2
 1107              	.LVL128:
 1108              		.thumb
 1109              	.LBE36:
 1110              		.loc 1 535 0
 1111 000e AB6B     		ldr	r3, [r5, #56]
 1112              	.LVL129:
 1113 0010 1840     		ands	r0, r0, r3
 1114              	.LVL130:
 1115 0012 A042     		cmp	r0, r4
 1116 0014 0ED0     		beq	.L60
 1117              		.loc 1 536 0
 1118 0016 29B9     		cbnz	r1, .L61
 1119              	.LBB37:
 1120              		.loc 1 537 0
 1121 0018 0B46     		mov	r3, r1
 1122              	.LVL131:
 1123              	@ 537 "../../os/kernel/src/chevents.c" 1
ARM GAS  /tmp/ccfuAShp.s 			page 21


 1124 001a 83F31188 		msr     BASEPRI, r3
 1125              	@ 0 "" 2
 1126              	.LVL132:
 1127              		.thumb
 1128              	.LBE37:
 1129              		.loc 1 538 0
 1130 001e 0C46     		mov	r4, r1
 1131              	.LVL133:
 1132              		.loc 1 550 0
 1133 0020 2046     		mov	r0, r4
 1134 0022 38BD     		pop	{r3, r4, r5, pc}
 1135              	.LVL134:
 1136              	.L61:
 1137              		.loc 1 541 0
 1138 0024 0920     		movs	r0, #9
 1139              		.loc 1 540 0
 1140 0026 6C62     		str	r4, [r5, #36]
 1141              		.loc 1 541 0
 1142 0028 FFF7FEFF 		bl	chSchGoSleepTimeoutS
 1143              	.LVL135:
 1144 002c 0028     		cmp	r0, #0
 1145 002e A8BF     		it	ge
 1146 0030 AB6B     		ldrge	r3, [r5, #56]
 1147 0032 07DB     		blt	.L64
 1148              	.L60:
 1149              		.loc 1 546 0
 1150 0034 23EA0403 		bic	r3, r3, r4
 1151 0038 AB63     		str	r3, [r5, #56]
 1152              	.LBB38:
 1153              		.loc 1 548 0
 1154 003a 0023     		movs	r3, #0
 1155              	.LVL136:
 1156              	@ 548 "../../os/kernel/src/chevents.c" 1
 1157 003c 83F31188 		msr     BASEPRI, r3
 1158              	@ 0 "" 2
 1159              	.LVL137:
 1160              		.thumb
 1161              	.L62:
 1162              	.LBE38:
 1163              		.loc 1 550 0
 1164 0040 2046     		mov	r0, r4
 1165 0042 38BD     		pop	{r3, r4, r5, pc}
 1166              	.LVL138:
 1167              	.L64:
 1168              	.LBB39:
 1169              		.loc 1 542 0
 1170 0044 0023     		movs	r3, #0
 1171              	@ 542 "../../os/kernel/src/chevents.c" 1
 1172 0046 83F31188 		msr     BASEPRI, r3
 1173              	@ 0 "" 2
 1174              	.LVL139:
 1175              		.thumb
 1176              	.LBE39:
 1177              		.loc 1 543 0
 1178 004a 1C46     		mov	r4, r3
 1179              	.LVL140:
 1180 004c F8E7     		b	.L62
ARM GAS  /tmp/ccfuAShp.s 			page 22


 1181              	.L66:
 1182 004e 00BF     		.align	2
 1183              	.L65:
 1184 0050 00000000 		.word	rlist
 1185              		.cfi_endproc
 1186              	.LFE23:
 1187              		.size	chEvtWaitAllTimeout, .-chEvtWaitAllTimeout
 1188 0054 AFF30080 		.text
 1188      AFF30080 
 1188      AFF30080 
 1189              	.Letext0:
 1190              		.file 2 "/opt/paparazzi/arm-multilib/lib/gcc/arm-none-eabi/4.6.2/../../../../arm-none-eabi/include
 1191              		.file 3 "../../os/ports/GCC/ARMCMx/chtypes.h"
 1192              		.file 4 "../../os/kernel/include/chlists.h"
 1193              		.file 5 "../../os/kernel/include/chthreads.h"
 1194              		.file 6 "../../os/ports/GCC/ARMCMx/chcore_v7m.h"
 1195              		.file 7 "../../os/kernel/include/chschd.h"
 1196              		.file 8 "../../os/kernel/include/chmtx.h"
 1197              		.file 9 "../../os/kernel/include/chevents.h"