ARM GAS  /tmp/ccwujOms.s 			page 1


   1              		.syntax unified
   2              		.cpu cortex-m3
   3              		.fpu softvfp
   4              		.eabi_attribute 20, 1
   5              		.eabi_attribute 21, 1
   6              		.eabi_attribute 23, 3
   7              		.eabi_attribute 24, 1
   8              		.eabi_attribute 25, 1
   9              		.eabi_attribute 26, 1
  10              		.eabi_attribute 30, 2
  11              		.eabi_attribute 18, 4
  12              		.thumb
  13              		.file	"chmsg.c"
  14              		.text
  15              	.Ltext0:
  16              		.cfi_sections	.debug_frame
  17              		.section	.text.chMsgSend,"ax",%progbits
  18              		.align	2
  19              		.p2align 4,,15
  20              		.global	chMsgSend
  21              		.thumb
  22              		.thumb_func
  23              		.type	chMsgSend, %function
  24              	chMsgSend:
  25              	.LFB7:
  26              		.file 1 "../../os/kernel/src/chmsg.c"
  27              		.loc 1 75 0
  28              		.cfi_startproc
  29              		@ args = 0, pretend = 0, frame = 0
  30              		@ frame_needed = 0, uses_anonymous_args = 0
  31              	.LVL0:
  32 0000 70B5     		push	{r4, r5, r6, lr}
  33              	.LCFI0:
  34              		.cfi_def_cfa_offset 16
  35              		.cfi_offset 14, -4
  36              		.cfi_offset 6, -8
  37              		.cfi_offset 5, -12
  38              		.cfi_offset 4, -16
  39              		.loc 1 76 0
  40 0002 0E4B     		ldr	r3, .L5
  41 0004 9C69     		ldr	r4, [r3, #24]
  42              	.LVL1:
  43              	.LBB10:
  44              		.loc 1 80 0
  45 0006 2023     		movs	r3, #32
  46              	.LVL2:
  47              	@ 80 "../../os/kernel/src/chmsg.c" 1
  48 0008 83F31188 		msr     BASEPRI, r3
  49              	@ 0 "" 2
  50              	.LVL3:
  51              		.thumb
  52              	.LBE10:
  53              		.loc 1 82 0
  54 000c 00F12C05 		add	r5, r0, #44
  55 0010 6562     		str	r5, [r4, #36]
  56              	.LVL4:
  57              		.loc 1 84 0
ARM GAS  /tmp/ccwujOms.s 			page 2


  58 0012 067F     		ldrb	r6, [r0, #28]	@ zero_extendqisi2
  59              	.LBB11:
  60              	.LBB12:
  61              		.file 2 "../../os/kernel/include/chinline.h"
  62              		.loc 2 55 0
  63 0014 036B     		ldr	r3, [r0, #48]
  64              	.LVL5:
  65              	.LBE12:
  66              	.LBE11:
  67              		.loc 1 84 0
  68 0016 0C2E     		cmp	r6, #12
  69              	.LBB15:
  70              	.LBB13:
  71              		.loc 2 54 0
  72 0018 2560     		str	r5, [r4, #0]
  73              	.LBE13:
  74              	.LBE15:
  75              		.loc 1 81 0
  76 001a 6163     		str	r1, [r4, #52]
  77              	.LBB16:
  78              	.LBB14:
  79              		.loc 2 55 0
  80 001c 6360     		str	r3, [r4, #4]
  81              		.loc 2 56 0
  82 001e 0463     		str	r4, [r0, #48]
  83 0020 1C60     		str	r4, [r3, #0]
  84              	.LBE14:
  85              	.LBE16:
  86              		.loc 1 84 0
  87 0022 07D0     		beq	.L4
  88              	.LVL6:
  89              	.L2:
  90              		.loc 1 86 0
  91 0024 0A20     		movs	r0, #10
  92 0026 FFF7FEFF 		bl	chSchGoSleepS
  93              		.loc 1 87 0
  94 002a 606A     		ldr	r0, [r4, #36]
  95              	.LVL7:
  96              	.LBB17:
  97              		.loc 1 88 0
  98 002c 0023     		movs	r3, #0
  99              	.LVL8:
 100              	@ 88 "../../os/kernel/src/chmsg.c" 1
 101 002e 83F31188 		msr     BASEPRI, r3
 102              	@ 0 "" 2
 103              	.LVL9:
 104              		.thumb
 105              	.LBE17:
 106              		.loc 1 90 0
 107 0032 70BD     		pop	{r4, r5, r6, pc}
 108              	.LVL10:
 109              	.L4:
 110              		.loc 1 85 0
 111 0034 FFF7FEFF 		bl	chSchReadyI
 112              	.LVL11:
 113 0038 F4E7     		b	.L2
 114              	.L6:
ARM GAS  /tmp/ccwujOms.s 			page 3


 115 003a 00BF     		.align	2
 116              	.L5:
 117 003c 00000000 		.word	rlist
 118              		.cfi_endproc
 119              	.LFE7:
 120              		.size	chMsgSend, .-chMsgSend
 121              		.section	.text.chMsgWait,"ax",%progbits
 122              		.align	2
 123              		.p2align 4,,15
 124              		.global	chMsgWait
 125              		.thumb
 126              		.thumb_func
 127              		.type	chMsgWait, %function
 128              	chMsgWait:
 129              	.LFB8:
 130              		.loc 1 106 0
 131              		.cfi_startproc
 132              		@ args = 0, pretend = 0, frame = 0
 133              		@ frame_needed = 0, uses_anonymous_args = 0
 134 0000 10B5     		push	{r4, lr}
 135              	.LCFI1:
 136              		.cfi_def_cfa_offset 8
 137              		.cfi_offset 14, -4
 138              		.cfi_offset 4, -8
 139              	.LBB18:
 140              		.loc 1 109 0
 141 0002 2023     		movs	r3, #32
 142              	.LVL12:
 143              	@ 109 "../../os/kernel/src/chmsg.c" 1
 144 0004 83F31188 		msr     BASEPRI, r3
 145              	@ 0 "" 2
 146              	.LVL13:
 147              		.thumb
 148              	.LBE18:
 149              		.loc 1 110 0
 150 0008 0B4C     		ldr	r4, .L10
 151 000a A369     		ldr	r3, [r4, #24]
 152              	.LVL14:
 153 000c 1A46     		mov	r2, r3
 154 000e 52F82C0F 		ldr	r0, [r2, #44]!
 155 0012 9042     		cmp	r0, r2
 156 0014 08D0     		beq	.L9
 157              	.L8:
 158              	.LVL15:
 159              	.LBB19:
 160              	.LBB20:
 161              		.loc 2 62 0
 162 0016 0168     		ldr	r1, [r0, #0]
 163 0018 D962     		str	r1, [r3, #44]
 164 001a 4A60     		str	r2, [r1, #4]
 165              	.LBE20:
 166              	.LBE19:
 167              		.loc 1 113 0
 168 001c 0B22     		movs	r2, #11
 169 001e 0277     		strb	r2, [r0, #28]
 170              	.LBB21:
 171              		.loc 1 114 0
ARM GAS  /tmp/ccwujOms.s 			page 4


 172 0020 0023     		movs	r3, #0
 173              	.LVL16:
 174              	@ 114 "../../os/kernel/src/chmsg.c" 1
 175 0022 83F31188 		msr     BASEPRI, r3
 176              	@ 0 "" 2
 177              	.LVL17:
 178              		.thumb
 179              	.LBE21:
 180              		.loc 1 116 0
 181 0026 10BD     		pop	{r4, pc}
 182              	.LVL18:
 183              	.L9:
 184              		.loc 1 111 0
 185 0028 0C20     		movs	r0, #12
 186 002a FFF7FEFF 		bl	chSchGoSleepS
 187 002e A369     		ldr	r3, [r4, #24]
 188 0030 1A46     		mov	r2, r3
 189 0032 52F82C0F 		ldr	r0, [r2, #44]!
 190 0036 EEE7     		b	.L8
 191              	.L11:
 192              		.align	2
 193              	.L10:
 194 0038 00000000 		.word	rlist
 195              		.cfi_endproc
 196              	.LFE8:
 197              		.size	chMsgWait, .-chMsgWait
 198 003c AFF30080 		.section	.text.chMsgRelease,"ax",%progbits
 199              		.align	2
 200              		.p2align 4,,15
 201              		.global	chMsgRelease
 202              		.thumb
 203              		.thumb_func
 204              		.type	chMsgRelease, %function
 205              	chMsgRelease:
 206              	.LFB9:
 207              		.loc 1 128 0
 208              		.cfi_startproc
 209              		@ args = 0, pretend = 0, frame = 0
 210              		@ frame_needed = 0, uses_anonymous_args = 0
 211              	.LVL19:
 212 0000 08B5     		push	{r3, lr}
 213              	.LCFI2:
 214              		.cfi_def_cfa_offset 8
 215              		.cfi_offset 14, -4
 216              		.cfi_offset 3, -8
 217              	.LBB22:
 218              		.loc 1 130 0
 219 0002 2023     		movs	r3, #32
 220              	.LVL20:
 221              	@ 130 "../../os/kernel/src/chmsg.c" 1
 222 0004 83F31188 		msr     BASEPRI, r3
 223              	@ 0 "" 2
 224              	.LVL21:
 225              		.thumb
 226              	.LBE22:
 227              		.loc 1 133 0
 228 0008 FFF7FEFF 		bl	chSchWakeupS
ARM GAS  /tmp/ccwujOms.s 			page 5


 229              	.LVL22:
 230              	.LBB23:
 231              		.loc 1 134 0
 232 000c 0023     		movs	r3, #0
 233              	.LVL23:
 234              	@ 134 "../../os/kernel/src/chmsg.c" 1
 235 000e 83F31188 		msr     BASEPRI, r3
 236              	@ 0 "" 2
 237              	.LVL24:
 238              		.thumb
 239              	.LBE23:
 240              		.loc 1 135 0
 241 0012 08BD     		pop	{r3, pc}
 242              		.cfi_endproc
 243              	.LFE9:
 244              		.size	chMsgRelease, .-chMsgRelease
 245 0014 AFF30080 		.text
 245      AFF30080 
 245      AFF30080 
 246              	.Letext0:
 247              		.file 3 "/opt/paparazzi/arm-multilib/lib/gcc/arm-none-eabi/4.6.2/../../../../arm-none-eabi/include
 248              		.file 4 "../../os/ports/GCC/ARMCMx/chtypes.h"
 249              		.file 5 "../../os/kernel/include/chlists.h"
 250              		.file 6 "../../os/kernel/include/chthreads.h"
 251              		.file 7 "../../os/ports/GCC/ARMCMx/chcore_v7m.h"
 252              		.file 8 "../../os/kernel/include/chschd.h"
 253              		.file 9 "../../os/kernel/include/chmtx.h"