ARM GAS  /tmp/ccXNJaVz.s 			page 1


   1              		.syntax unified
   2              		.cpu cortex-m3
   3              		.fpu softvfp
   4              		.eabi_attribute 20, 1
   5              		.eabi_attribute 21, 1
   6              		.eabi_attribute 23, 3
   7              		.eabi_attribute 24, 1
   8              		.eabi_attribute 25, 1
   9              		.eabi_attribute 26, 1
  10              		.eabi_attribute 30, 2
  11              		.eabi_attribute 18, 4
  12              		.thumb
  13              		.file	"evtimer.c"
  14              		.text
  15              	.Ltext0:
  16              		.cfi_sections	.debug_frame
  17              		.section	.text.tmrcb,"ax",%progbits
  18              		.align	2
  19              		.p2align 4,,15
  20              		.thumb
  21              		.thumb_func
  22              		.type	tmrcb, %function
  23              	tmrcb:
  24              	.LFB7:
  25              		.file 1 "../../os/various/evtimer.c"
  26              		.loc 1 28 0
  27              		.cfi_startproc
  28              		@ args = 0, pretend = 0, frame = 0
  29              		@ frame_needed = 0, uses_anonymous_args = 0
  30              	.LVL0:
  31 0000 10B5     		push	{r4, lr}
  32              	.LCFI0:
  33              		.cfi_def_cfa_offset 8
  34              		.cfi_offset 14, -4
  35              		.cfi_offset 4, -8
  36              	.LBB2:
  37              		.loc 1 31 0
  38 0002 2023     		movs	r3, #32
  39              	.LVL1:
  40              	.LBE2:
  41              		.loc 1 28 0
  42 0004 0446     		mov	r4, r0
  43              	.LVL2:
  44              	.LBB3:
  45              		.loc 1 31 0
  46              	@ 31 "../../os/various/evtimer.c" 1
  47 0006 83F31188 		msr     BASEPRI, r3
  48              	@ 0 "" 2
  49              	.LVL3:
  50              		.thumb
  51              	.LBE3:
  52              		.loc 1 32 0
  53 000a 0021     		movs	r1, #0
  54 000c 00F11400 		add	r0, r0, #20
  55              	.LVL4:
  56 0010 FFF7FEFF 		bl	chEvtBroadcastFlagsI
  57              	.LVL5:
ARM GAS  /tmp/ccXNJaVz.s 			page 2


  58              		.loc 1 33 0
  59 0014 40F20002 		movw	r2, #:lower16:tmrcb
  60 0018 2346     		mov	r3, r4
  61 001a 2046     		mov	r0, r4
  62 001c A169     		ldr	r1, [r4, #24]
  63 001e C0F20002 		movt	r2, #:upper16:tmrcb
  64 0022 FFF7FEFF 		bl	chVTSetI
  65              	.LBB4:
  66              		.loc 1 34 0
  67 0026 0023     		movs	r3, #0
  68              	.LVL6:
  69              	@ 34 "../../os/various/evtimer.c" 1
  70 0028 83F31188 		msr     BASEPRI, r3
  71              	@ 0 "" 2
  72              	.LVL7:
  73              		.thumb
  74              	.LBE4:
  75              		.loc 1 35 0
  76 002c 10BD     		pop	{r4, pc}
  77              		.cfi_endproc
  78              	.LFE7:
  79              		.size	tmrcb, .-tmrcb
  80 002e 00BF     		.section	.text.evtStart,"ax",%progbits
  81              		.align	2
  82              		.p2align 4,,15
  83              		.global	evtStart
  84              		.thumb
  85              		.thumb_func
  86              		.type	evtStart, %function
  87              	evtStart:
  88              	.LFB8:
  89              		.loc 1 43 0
  90              		.cfi_startproc
  91              		@ args = 0, pretend = 0, frame = 0
  92              		@ frame_needed = 0, uses_anonymous_args = 0
  93              	.LVL8:
  94 0000 10B5     		push	{r4, lr}
  95              	.LCFI1:
  96              		.cfi_def_cfa_offset 8
  97              		.cfi_offset 14, -4
  98              		.cfi_offset 4, -8
  99              	.LBB5:
 100              		.loc 1 45 0
 101 0002 2023     		movs	r3, #32
 102              	.LVL9:
 103              	.LBE5:
 104              		.loc 1 43 0
 105 0004 0446     		mov	r4, r0
 106              	.LBB6:
 107              		.loc 1 45 0
 108              	@ 45 "../../os/various/evtimer.c" 1
 109 0006 83F31188 		msr     BASEPRI, r3
 110              	@ 0 "" 2
 111              	.LVL10:
 112              		.thumb
 113              	.LBE6:
 114              		.loc 1 47 0
ARM GAS  /tmp/ccXNJaVz.s 			page 3


 115 000a C368     		ldr	r3, [r0, #12]
 116              	.LVL11:
 117 000c 1BB1     		cbz	r3, .L5
 118              	.LVL12:
 119              	.L3:
 120              	.LBB7:
 121              		.loc 1 50 0
 122 000e 0023     		movs	r3, #0
 123              	.LVL13:
 124              	@ 50 "../../os/various/evtimer.c" 1
 125 0010 83F31188 		msr     BASEPRI, r3
 126              	@ 0 "" 2
 127              	.LVL14:
 128              		.thumb
 129              	.LBE7:
 130              		.loc 1 51 0
 131 0014 10BD     		pop	{r4, pc}
 132              	.LVL15:
 133              	.L5:
 134              		.loc 1 48 0
 135 0016 8169     		ldr	r1, [r0, #24]
 136 0018 024A     		ldr	r2, .L6
 137 001a 0346     		mov	r3, r0
 138 001c FFF7FEFF 		bl	chVTSetI
 139 0020 F5E7     		b	.L3
 140              	.L7:
 141 0022 00BF     		.align	2
 142              	.L6:
 143 0024 00000000 		.word	tmrcb
 144              		.cfi_endproc
 145              	.LFE8:
 146              		.size	evtStart, .-evtStart
 147 0028 AFF30080 		.section	.text.evtStop,"ax",%progbits
 147      AFF30080 
 148              		.align	2
 149              		.p2align 4,,15
 150              		.global	evtStop
 151              		.thumb
 152              		.thumb_func
 153              		.type	evtStop, %function
 154              	evtStop:
 155              	.LFB9:
 156              		.loc 1 59 0
 157              		.cfi_startproc
 158              		@ args = 0, pretend = 0, frame = 0
 159              		@ frame_needed = 0, uses_anonymous_args = 0
 160              	.LVL16:
 161 0000 08B5     		push	{r3, lr}
 162              	.LCFI2:
 163              		.cfi_def_cfa_offset 8
 164              		.cfi_offset 14, -4
 165              		.cfi_offset 3, -8
 166              	.LBB8:
 167              		.loc 1 61 0
 168 0002 2023     		movs	r3, #32
 169              	.LVL17:
 170              	@ 61 "../../os/various/evtimer.c" 1
ARM GAS  /tmp/ccXNJaVz.s 			page 4


 171 0004 83F31188 		msr     BASEPRI, r3
 172              	@ 0 "" 2
 173              	.LVL18:
 174              		.thumb
 175              	.LBE8:
 176 0008 C368     		ldr	r3, [r0, #12]
 177              	.LVL19:
 178 000a 0BB1     		cbz	r3, .L9
 179              		.loc 1 61 0 is_stmt 0 discriminator 1
 180 000c FFF7FEFF 		bl	chVTResetI
 181              	.LVL20:
 182              	.L9:
 183              	.LBB9:
 184              		.loc 1 61 0 discriminator 2
 185 0010 0023     		movs	r3, #0
 186              	.LVL21:
 187              	@ 61 "../../os/various/evtimer.c" 1
 188 0012 83F31188 		msr     BASEPRI, r3
 189              	@ 0 "" 2
 190              	.LVL22:
 191              		.thumb
 192              	.LBE9:
 193              		.loc 1 62 0 is_stmt 1 discriminator 2
 194 0016 08BD     		pop	{r3, pc}
 195              		.cfi_endproc
 196              	.LFE9:
 197              		.size	evtStop, .-evtStop
 198 0018 AFF30080 		.text
 198      AFF30080 
 199              	.Letext0:
 200              		.file 2 "/opt/paparazzi/arm-multilib/lib/gcc/arm-none-eabi/4.6.2/../../../../arm-none-eabi/include
 201              		.file 3 "../../os/ports/GCC/ARMCMx/chtypes.h"
 202              		.file 4 "../../os/kernel/include/chlists.h"
 203              		.file 5 "../../os/kernel/include/chthreads.h"
 204              		.file 6 "../../os/ports/GCC/ARMCMx/chcore_v7m.h"
 205              		.file 7 "../../os/kernel/include/chvt.h"
 206              		.file 8 "../../os/kernel/include/chmtx.h"
 207              		.file 9 "../../os/kernel/include/chevents.h"
 208              		.file 10 "../../os/various/evtimer.h"