ARM GAS  /tmp/ccKkDXzH.s 			page 1


   1              		.syntax unified
   2              		.cpu cortex-m3
   3              		.fpu softvfp
   4              		.eabi_attribute 20, 1
   5              		.eabi_attribute 21, 1
   6              		.eabi_attribute 23, 3
   7              		.eabi_attribute 24, 1
   8              		.eabi_attribute 25, 1
   9              		.eabi_attribute 26, 1
  10              		.eabi_attribute 30, 2
  11              		.eabi_attribute 18, 4
  12              		.thumb
  13              		.file	"main.c"
  14              		.text
  15              	.Ltext0:
  16              		.cfi_sections	.debug_frame
  17              		.section	.text.Thread1,"ax",%progbits
  18              		.align	2
  19              		.p2align 4,,15
  20              		.thumb
  21              		.thumb_func
  22              		.type	Thread1, %function
  23              	Thread1:
  24              	.LFB63:
  25              		.file 1 "main.c"
  26              		.loc 1 25 0
  27              		.cfi_startproc
  28              		@ args = 0, pretend = 0, frame = 0
  29              		@ frame_needed = 0, uses_anonymous_args = 0
  30              	.LVL0:
  31              		.loc 1 28 0
  32 0000 0A4B     		ldr	r3, .L4
  33 0002 0B4A     		ldr	r2, .L4+4
  34 0004 9B69     		ldr	r3, [r3, #24]
  35              		.loc 1 25 0
  36 0006 70B5     		push	{r4, r5, r6, lr}
  37              	.LCFI0:
  38              		.cfi_def_cfa_offset 16
  39              		.cfi_offset 14, -4
  40              		.cfi_offset 6, -8
  41              		.cfi_offset 5, -12
  42              		.cfi_offset 4, -16
  43              		.loc 1 30 0
  44 0008 4FF48054 		mov	r4, #4096
  45 000c 4FF40045 		mov	r5, #32768
  46              		.loc 1 28 0
  47 0010 9A61     		str	r2, [r3, #24]
  48              		.loc 1 30 0
  49 0012 C4F20104 		movt	r4, 16385
  50 0016 2E46     		mov	r6, r5
  51              	.LVL1:
  52              	.L2:
  53              		.loc 1 31 0 discriminator 1
  54 0018 3220     		movs	r0, #50
  55              		.loc 1 30 0 discriminator 1
  56 001a 6661     		str	r6, [r4, #20]
  57              		.loc 1 31 0 discriminator 1
ARM GAS  /tmp/ccKkDXzH.s 			page 2


  58 001c FFF7FEFF 		bl	chThdSleep
  59              		.loc 1 32 0 discriminator 1
  60 0020 2561     		str	r5, [r4, #16]
  61              		.loc 1 33 0 discriminator 1
  62 0022 3220     		movs	r0, #50
  63 0024 FFF7FEFF 		bl	chThdSleep
  64 0028 F6E7     		b	.L2
  65              	.L5:
  66 002a 00BF     		.align	2
  67              	.L4:
  68 002c 00000000 		.word	rlist
  69 0030 00000000 		.word	.LC0
  70              		.cfi_endproc
  71              	.LFE63:
  72              		.size	Thread1, .-Thread1
  73 0034 AFF30080 		.section	.text.startup.main,"ax",%progbits
  73      AFF30080 
  73      AFF30080 
  74              		.align	2
  75              		.p2align 4,,15
  76              		.global	main
  77              		.thumb
  78              		.thumb_func
  79              		.type	main, %function
  80              	main:
  81              	.LFB64:
  82              		.loc 1 40 0
  83              		.cfi_startproc
  84              		@ args = 0, pretend = 0, frame = 0
  85              		@ frame_needed = 0, uses_anonymous_args = 0
  86 0000 10B5     		push	{r4, lr}
  87              	.LCFI1:
  88              		.cfi_def_cfa_offset 8
  89              		.cfi_offset 14, -4
  90              		.cfi_offset 4, -8
  91 0002 82B0     		sub	sp, sp, #8
  92              	.LCFI2:
  93              		.cfi_def_cfa_offset 16
  94              		.loc 1 49 0
  95 0004 FFF7FEFF 		bl	halInit
  96              		.loc 1 60 0
  97 0008 0024     		movs	r4, #0
  98              		.loc 1 50 0
  99 000a FFF7FEFF 		bl	chSysInit
 100              		.loc 1 55 0
 101 000e 0E48     		ldr	r0, .L9
 102 0010 0021     		movs	r1, #0
 103 0012 FFF7FEFF 		bl	sdStart
 104              		.loc 1 60 0
 105 0016 0094     		str	r4, [sp, #0]
 106 0018 0C48     		ldr	r0, .L9+4
 107 001a 4FF49871 		mov	r1, #304
 108 001e 4022     		movs	r2, #64
 109 0020 0B4B     		ldr	r3, .L9+8
 110              		.loc 1 67 0
 111 0022 4FF48054 		mov	r4, #4096
 112              		.loc 1 60 0
ARM GAS  /tmp/ccKkDXzH.s 			page 3


 113 0026 FFF7FEFF 		bl	chThdCreateStatic
 114              		.loc 1 67 0
 115 002a C4F20104 		movt	r4, 16385
 116 002e 03E0     		b	.L8
 117              	.L7:
 118              		.loc 1 69 0
 119 0030 4FF4FA70 		mov	r0, #500
 120 0034 FFF7FEFF 		bl	chThdSleep
 121              	.L8:
 122              		.loc 1 67 0
 123 0038 A368     		ldr	r3, [r4, #8]
 124 003a 9B04     		lsls	r3, r3, #18
 125 003c F8D4     		bmi	.L7
 126              		.loc 1 68 0
 127 003e 0248     		ldr	r0, .L9
 128 0040 FFF7FEFF 		bl	TestThread
 129 0044 F4E7     		b	.L7
 130              	.L10:
 131 0046 00BF     		.align	2
 132              	.L9:
 133 0048 00000000 		.word	SD3
 134 004c 00000000 		.word	.LANCHOR0
 135 0050 00000000 		.word	Thread1
 136              		.cfi_endproc
 137              	.LFE64:
 138              		.size	main, .-main
 139 0054 AFF30080 		.section	.bss.waThread1,"aw",%nobits
 139      AFF30080 
 139      AFF30080 
 140              		.align	3
 141              		.set	.LANCHOR0,. + 0
 142              		.type	waThread1, %object
 143              		.size	waThread1, 304
 144              	waThread1:
 145 0000 00000000 		.space	304
 145      00000000 
 145      00000000 
 145      00000000 
 145      00000000 
 146              		.section	.rodata.str1.4,"aMS",%progbits,1
 147              		.align	2
 148              	.LC0:
 149 0000 626C696E 		.ascii	"blinker\000"
 149      6B657200 
 150              		.text
 151              	.Letext0:
 152              		.file 2 "/opt/paparazzi/arm-multilib/lib/gcc/arm-none-eabi/4.6.2/include/stddef.h"
 153              		.file 3 "/opt/paparazzi/arm-multilib/lib/gcc/arm-none-eabi/4.6.2/../../../../arm-none-eabi/include
 154              		.file 4 "../../os/ports/GCC/ARMCMx/chtypes.h"
 155              		.file 5 "../../os/kernel/include/chlists.h"
 156              		.file 6 "../../os/kernel/include/chthreads.h"
 157              		.file 7 "../../os/ports/GCC/ARMCMx/chcore_v7m.h"
 158              		.file 8 "../../os/kernel/include/chschd.h"
 159              		.file 9 "../../os/kernel/include/chmtx.h"
 160              		.file 10 "../../os/kernel/include/chevents.h"
 161              		.file 11 "../../os/kernel/include/chqueues.h"
 162              		.file 12 "../../os/hal/platforms/STM32F1xx/stm32f10x.h"
ARM GAS  /tmp/ccKkDXzH.s 			page 4


 163              		.file 13 "../../os/hal/platforms/STM32/GPIOv1/pal_lld.h"
 164              		.file 14 "../../os/hal/include/serial.h"
 165              		.file 15 "../../os/ports/common/ARMCMx/CMSIS/include/core_cm3.h"
 166              		.file 16 "../../os/hal/platforms/STM32/USARTv1/serial_lld.h"