ARM GAS  /tmp/ccIGygYA.s 			page 1


   1              		.syntax unified
   2              		.cpu cortex-m3
   3              		.fpu softvfp
   4              		.eabi_attribute 20, 1
   5              		.eabi_attribute 21, 1
   6              		.eabi_attribute 23, 3
   7              		.eabi_attribute 24, 1
   8              		.eabi_attribute 25, 1
   9              		.eabi_attribute 26, 1
  10              		.eabi_attribute 30, 2
  11              		.eabi_attribute 18, 4
  12              		.thumb
  13              		.file	"testpools.c"
  14              		.text
  15              	.Ltext0:
  16              		.cfi_sections	.debug_frame
  17              		.section	.text.null_provider,"ax",%progbits
  18              		.align	2
  19              		.p2align 4,,15
  20              		.thumb
  21              		.thumb_func
  22              		.type	null_provider, %function
  23              	null_provider:
  24              	.LFB7:
  25              		.file 1 "../../test/testpools.c"
  26              		.loc 1 60 0
  27              		.cfi_startproc
  28              		@ args = 0, pretend = 0, frame = 0
  29              		@ frame_needed = 0, uses_anonymous_args = 0
  30              		@ link register save eliminated.
  31              	.LVL0:
  32              		.loc 1 64 0
  33 0000 0020     		movs	r0, #0
  34              	.LVL1:
  35 0002 7047     		bx	lr
  36              		.cfi_endproc
  37              	.LFE7:
  38              		.size	null_provider, .-null_provider
  39 0004 AFF30080 		.section	.text.pools1_setup,"ax",%progbits
  39      AFF30080 
  39      AFF30080 
  40              		.align	2
  41              		.p2align 4,,15
  42              		.thumb
  43              		.thumb_func
  44              		.type	pools1_setup, %function
  45              	pools1_setup:
  46              	.LFB8:
  47              		.loc 1 66 0
  48              		.cfi_startproc
  49              		@ args = 0, pretend = 0, frame = 0
  50              		@ frame_needed = 0, uses_anonymous_args = 0
  51              		@ link register save eliminated.
  52              		.loc 1 68 0
  53 0000 40F20000 		movw	r0, #:lower16:.LANCHOR0
  54 0004 C0F20000 		movt	r0, #:upper16:.LANCHOR0
  55 0008 4FF49871 		mov	r1, #304
ARM GAS  /tmp/ccIGygYA.s 			page 2


  56 000c 0022     		movs	r2, #0
  57              		.loc 1 69 0
  58              		.loc 1 68 0
  59 000e FFF7FEBF 		b	chPoolInit
  60              		.cfi_endproc
  61              	.LFE8:
  62              		.size	pools1_setup, .-pools1_setup
  63              		.section	.text.pools1_execute,"ax",%progbits
  64              		.align	2
  65              		.p2align 4,,15
  66              		.thumb
  67              		.thumb_func
  68              		.type	pools1_execute, %function
  69              	pools1_execute:
  70              	.LFB9:
  71              		.loc 1 71 0
  72              		.cfi_startproc
  73              		@ args = 0, pretend = 0, frame = 0
  74              		@ frame_needed = 0, uses_anonymous_args = 0
  75              		.loc 1 75 0
  76 0000 2D4B     		ldr	r3, .L14
  77              		.loc 1 71 0
  78 0002 70B5     		push	{r4, r5, r6, lr}
  79              	.LCFI0:
  80              		.cfi_def_cfa_offset 16
  81              		.cfi_offset 14, -4
  82              		.cfi_offset 6, -8
  83              		.cfi_offset 5, -12
  84              		.cfi_offset 4, -16
  85              		.loc 1 75 0
  86 0004 1C68     		ldr	r4, [r3, #0]
  87 0006 2D48     		ldr	r0, .L14+4
  88 0008 0522     		movs	r2, #5
  89 000a 2146     		mov	r1, r4
  90 000c FFF7FEFF 		bl	chPoolLoadArray
  91              	.LVL2:
  92 0010 0525     		movs	r5, #5
  93              	.LVL3:
  94              	.L5:
  95              		.loc 1 79 0
  96 0012 2A48     		ldr	r0, .L14+4
  97 0014 FFF7FEFF 		bl	chPoolAlloc
  98 0018 011C     		adds	r1, r0, #0
  99 001a 18BF     		it	ne
 100 001c 0121     		movne	r1, #1
 101 001e 0120     		movs	r0, #1
 102 0020 FFF7FEFF 		bl	_test_assert
 103 0024 0028     		cmp	r0, #0
 104 0026 35D1     		bne	.L3
 105              		.loc 1 78 0
 106 0028 013D     		subs	r5, r5, #1
 107 002a F2D1     		bne	.L5
 108              		.loc 1 82 0
 109 002c 2348     		ldr	r0, .L14+4
 110 002e FFF7FEFF 		bl	chPoolAlloc
 111 0032 D0F10101 		rsbs	r1, r0, #1
 112 0036 38BF     		it	cc
ARM GAS  /tmp/ccIGygYA.s 			page 3


 113 0038 0021     		movcc	r1, #0
 114 003a 0220     		movs	r0, #2
 115 003c FFF7FEFF 		bl	_test_assert
 116 0040 40BB     		cbnz	r0, .L3
 117 0042 1D4D     		ldr	r5, .L14
 118              	.LBB4:
 119              	.LBB5:
 120              		.loc 1 86 0
 121 0044 2146     		mov	r1, r4
 122              	.LBE5:
 123              	.LBE4:
 124              		.loc 1 71 0
 125 0046 05F11006 		add	r6, r5, #16
 126              	.LBB8:
 127              	.LBB6:
 128              		.loc 1 86 0
 129 004a 1C48     		ldr	r0, .L14+4
 130 004c FFF7FEFF 		bl	chPoolFree
 131              		.loc 1 85 0
 132 0050 B542     		cmp	r5, r6
 133 0052 07D0     		beq	.L8
 134              	.LVL4:
 135              	.L12:
 136 0054 55F8044F 		ldr	r4, [r5, #4]!
 137              		.loc 1 86 0
 138 0058 1848     		ldr	r0, .L14+4
 139 005a 2146     		mov	r1, r4
 140 005c FFF7FEFF 		bl	chPoolFree
 141              		.loc 1 85 0
 142 0060 B542     		cmp	r5, r6
 143 0062 F7D1     		bne	.L12
 144              	.L8:
 145 0064 0524     		movs	r4, #5
 146              	.L6:
 147              		.loc 1 90 0
 148 0066 1548     		ldr	r0, .L14+4
 149 0068 FFF7FEFF 		bl	chPoolAlloc
 150 006c 011C     		adds	r1, r0, #0
 151 006e 18BF     		it	ne
 152 0070 0121     		movne	r1, #1
 153 0072 0320     		movs	r0, #3
 154 0074 FFF7FEFF 		bl	_test_assert
 155 0078 60B9     		cbnz	r0, .L3
 156              		.loc 1 89 0
 157 007a 013C     		subs	r4, r4, #1
 158 007c F3D1     		bne	.L6
 159              		.loc 1 93 0
 160 007e 0F48     		ldr	r0, .L14+4
 161 0080 FFF7FEFF 		bl	chPoolAlloc
 162 0084 D0F10101 		rsbs	r1, r0, #1
 163 0088 38BF     		it	cc
 164 008a 0021     		movcc	r1, #0
 165 008c 0420     		movs	r0, #4
 166 008e FFF7FEFF 		bl	_test_assert
 167 0092 00B1     		cbz	r0, .L13
 168              	.L3:
 169 0094 70BD     		pop	{r4, r5, r6, pc}
ARM GAS  /tmp/ccIGygYA.s 			page 4


 170              	.L13:
 171              		.loc 1 96 0
 172 0096 1021     		movs	r1, #16
 173 0098 094A     		ldr	r2, .L14+8
 174 009a 0848     		ldr	r0, .L14+4
 175 009c FFF7FEFF 		bl	chPoolInit
 176              		.loc 1 97 0
 177 00a0 0648     		ldr	r0, .L14+4
 178 00a2 FFF7FEFF 		bl	chPoolAlloc
 179 00a6 D0F10101 		rsbs	r1, r0, #1
 180 00aa 38BF     		it	cc
 181 00ac 0021     		movcc	r1, #0
 182 00ae 0520     		movs	r0, #5
 183              	.LBE6:
 184              	.LBE8:
 185              		.loc 1 98 0
 186 00b0 BDE87040 		pop	{r4, r5, r6, lr}
 187              	.LBB9:
 188              	.LBB7:
 189              		.loc 1 97 0
 190 00b4 FFF7FEBF 		b	_test_assert
 191              	.L15:
 192              		.align	2
 193              	.L14:
 194 00b8 00000000 		.word	wa
 195 00bc 00000000 		.word	.LANCHOR0
 196 00c0 00000000 		.word	null_provider
 197              	.LBE7:
 198              	.LBE9:
 199              		.cfi_endproc
 200              	.LFE9:
 201              		.size	pools1_execute, .-pools1_execute
 202              		.global	patternpools
 203              		.global	testpools1
 204 00c4 AFF30080 		.section	.rodata.str1.4,"aMS",%progbits,1
 204      AFF30080 
 204      AFF30080 
 205              		.align	2
 206              	.LC0:
 207 0000 4D656D6F 		.ascii	"Memory Pools, queue/dequeue\000"
 207      72792050 
 207      6F6F6C73 
 207      2C207175 
 207      6575652F 
 208              		.section	.rodata.patternpools,"a",%progbits
 209              		.align	2
 210              		.type	patternpools, %object
 211              		.size	patternpools, 8
 212              	patternpools:
 213 0000 00000000 		.word	testpools1
 214 0004 00000000 		.word	0
 215              		.section	.data.mp1,"aw",%progbits
 216              		.align	2
 217              		.set	.LANCHOR0,. + 0
 218              		.type	mp1, %object
 219              		.size	mp1, 12
 220              	mp1:
ARM GAS  /tmp/ccIGygYA.s 			page 5


 221 0000 00000000 		.word	0
 222 0004 30010000 		.word	304
 223 0008 00000000 		.word	0
 224              		.section	.rodata.testpools1,"a",%progbits
 225              		.align	2
 226              		.type	testpools1, %object
 227              		.size	testpools1, 16
 228              	testpools1:
 229 0000 00000000 		.word	.LC0
 230 0004 00000000 		.word	pools1_setup
 231 0008 00000000 		.word	0
 232 000c 00000000 		.word	pools1_execute
 233              		.text
 234              	.Letext0:
 235              		.file 2 "/opt/paparazzi/arm-multilib/lib/gcc/arm-none-eabi/4.6.2/include/stddef.h"
 236              		.file 3 "../../os/kernel/include/chmemcore.h"
 237              		.file 4 "../../os/kernel/include/chmempools.h"
 238              		.file 5 "../../test/test.h"