ARM GAS  /tmp/ccRwVlcw.s 			page 1


   1              		.syntax unified
   2              		.cpu cortex-m3
   3              		.fpu softvfp
   4              		.eabi_attribute 20, 1
   5              		.eabi_attribute 21, 1
   6              		.eabi_attribute 23, 3
   7              		.eabi_attribute 24, 1
   8              		.eabi_attribute 25, 1
   9              		.eabi_attribute 26, 1
  10              		.eabi_attribute 30, 2
  11              		.eabi_attribute 18, 4
  12              		.thumb
  13              		.file	"testsem.c"
  14              		.text
  15              	.Ltext0:
  16              		.cfi_sections	.debug_frame
  17              		.section	.text.sem3_setup,"ax",%progbits
  18              		.align	2
  19              		.p2align 4,,15
  20              		.thumb
  21              		.thumb_func
  22              		.type	sem3_setup, %function
  23              	sem3_setup:
  24              	.LFB13:
  25              		.file 1 "../../test/testsem.c"
  26              		.loc 1 204 0
  27              		.cfi_startproc
  28              		@ args = 0, pretend = 0, frame = 0
  29              		@ frame_needed = 0, uses_anonymous_args = 0
  30              		@ link register save eliminated.
  31              		.loc 1 206 0
  32 0000 40F20000 		movw	r0, #:lower16:.LANCHOR0
  33 0004 C0F20000 		movt	r0, #:upper16:.LANCHOR0
  34 0008 0021     		movs	r1, #0
  35              		.loc 1 207 0
  36              		.loc 1 206 0
  37 000a FFF7FEBF 		b	chSemInit
  38              		.cfi_endproc
  39              	.LFE13:
  40              		.size	sem3_setup, .-sem3_setup
  41              		.section	.text.sem2_setup,"ax",%progbits
  42              		.align	2
  43              		.p2align 4,,15
  44              		.thumb
  45              		.thumb_func
  46              		.type	sem2_setup, %function
  47              	sem2_setup:
  48              	.LFB10:
  49              		.loc 1 128 0
  50              		.cfi_startproc
  51              		@ args = 0, pretend = 0, frame = 0
  52              		@ frame_needed = 0, uses_anonymous_args = 0
  53              		@ link register save eliminated.
  54              		.loc 1 130 0
  55 0000 40F20000 		movw	r0, #:lower16:.LANCHOR0
  56 0004 C0F20000 		movt	r0, #:upper16:.LANCHOR0
  57 0008 0021     		movs	r1, #0
ARM GAS  /tmp/ccRwVlcw.s 			page 2


  58              		.loc 1 131 0
  59              		.loc 1 130 0
  60 000a FFF7FEBF 		b	chSemInit
  61              		.cfi_endproc
  62              	.LFE10:
  63              		.size	sem2_setup, .-sem2_setup
  64 000e 00BF     		.section	.text.sem1_setup,"ax",%progbits
  65              		.align	2
  66              		.p2align 4,,15
  67              		.thumb
  68              		.thumb_func
  69              		.type	sem1_setup, %function
  70              	sem1_setup:
  71              	.LFB7:
  72              		.loc 1 72 0
  73              		.cfi_startproc
  74              		@ args = 0, pretend = 0, frame = 0
  75              		@ frame_needed = 0, uses_anonymous_args = 0
  76              		@ link register save eliminated.
  77              		.loc 1 74 0
  78 0000 40F20000 		movw	r0, #:lower16:.LANCHOR0
  79 0004 C0F20000 		movt	r0, #:upper16:.LANCHOR0
  80 0008 0021     		movs	r1, #0
  81              		.loc 1 75 0
  82              		.loc 1 74 0
  83 000a FFF7FEBF 		b	chSemInit
  84              		.cfi_endproc
  85              	.LFE7:
  86              		.size	sem1_setup, .-sem1_setup
  87 000e 00BF     		.section	.text.sem4_execute,"ax",%progbits
  88              		.align	2
  89              		.p2align 4,,15
  90              		.thumb
  91              		.thumb_func
  92              		.type	sem4_execute, %function
  93              	sem4_execute:
  94              	.LFB17:
  95              		.loc 1 251 0
  96              		.cfi_startproc
  97              		@ args = 0, pretend = 0, frame = 16
  98              		@ frame_needed = 0, uses_anonymous_args = 0
  99 0000 10B5     		push	{r4, lr}
 100              	.LCFI0:
 101              		.cfi_def_cfa_offset 8
 102              		.cfi_offset 14, -4
 103              		.cfi_offset 4, -8
 104 0002 86B0     		sub	sp, sp, #24
 105              	.LCFI1:
 106              		.cfi_def_cfa_offset 32
 107              		.loc 1 255 0
 108 0004 0021     		movs	r1, #0
 109 0006 03A8     		add	r0, sp, #12
 110 0008 FFF7FEFF 		bl	chSemInit
 111              		.loc 1 256 0
 112 000c 0021     		movs	r1, #0
 113 000e 03A8     		add	r0, sp, #12
 114 0010 FFF7FEFF 		bl	chSemReset
ARM GAS  /tmp/ccRwVlcw.s 			page 3


 115              		.loc 1 257 0
 116 0014 0599     		ldr	r1, [sp, #20]
 117 0016 0120     		movs	r0, #1
 118 0018 0029     		cmp	r1, #0
 119 001a CCBF     		ite	gt
 120 001c 0021     		movgt	r1, #0
 121 001e 0121     		movle	r1, #1
 122 0020 FFF7FEFF 		bl	_test_assert
 123 0024 08B1     		cbz	r0, .L9
 124              	.L4:
 125              		.loc 1 279 0
 126 0026 06B0     		add	sp, sp, #24
 127 0028 10BD     		pop	{r4, pc}
 128              	.L9:
 129              		.loc 1 261 0
 130 002a 314B     		ldr	r3, .L12
 131              		.loc 1 260 0
 132 002c 3148     		ldr	r0, .L12+4
 133              		.loc 1 261 0
 134 002e 9B69     		ldr	r3, [r3, #24]
 135              		.loc 1 260 0
 136 0030 4FF49871 		mov	r1, #304
 137 0034 9A68     		ldr	r2, [r3, #8]
 138 0036 0068     		ldr	r0, [r0, #0]
 139 0038 013A     		subs	r2, r2, #1
 140 003a 2F4B     		ldr	r3, .L12+8
 141 003c 03AC     		add	r4, sp, #12
 142 003e 0094     		str	r4, [sp, #0]
 143 0040 FFF7FEFF 		bl	chThdCreateStatic
 144 0044 2D4B     		ldr	r3, .L12+12
 145 0046 1860     		str	r0, [r3, #0]
 146              		.loc 1 264 0
 147 0048 03A8     		add	r0, sp, #12
 148 004a FFF7FEFF 		bl	chSemWait
 149              		.loc 1 267 0
 150 004e 0599     		ldr	r1, [sp, #20]
 151 0050 0220     		movs	r0, #2
 152 0052 0029     		cmp	r1, #0
 153 0054 CCBF     		ite	gt
 154 0056 0021     		movgt	r1, #0
 155 0058 0121     		movle	r1, #1
 156 005a FFF7FEFF 		bl	_test_assert
 157 005e 0028     		cmp	r0, #0
 158 0060 E1D1     		bne	.L4
 159              	.LBB2:
 160              		.loc 1 271 0
 161 0062 2023     		movs	r3, #32
 162              	.LVL0:
 163              	@ 271 "../../test/testsem.c" 1
 164 0064 83F31188 		msr     BASEPRI, r3
 165              	@ 0 "" 2
 166              	.LVL1:
 167              		.thumb
 168              	.LBE2:
 169 0068 059B     		ldr	r3, [sp, #20]
 170              	.LVL2:
 171 006a 002B     		cmp	r3, #0
ARM GAS  /tmp/ccRwVlcw.s 			page 4


 172 006c 3CDD     		ble	.L10
 173              	.L6:
 174              		.loc 1 271 0 is_stmt 0 discriminator 2
 175 006e FFF7FEFF 		bl	chSchRescheduleS
 176              	.LBB3:
 177 0072 0023     		movs	r3, #0
 178              	.LVL3:
 179              	@ 271 "../../test/testsem.c" 1
 180 0074 83F31188 		msr     BASEPRI, r3
 181              	@ 0 "" 2
 182              	.LVL4:
 183              		.thumb
 184              	.LBE3:
 185              		.loc 1 272 0 is_stmt 1 discriminator 2
 186 0078 0599     		ldr	r1, [sp, #20]
 187 007a 0320     		movs	r0, #3
 188 007c 9942     		cmp	r1, r3
 189              	.LVL5:
 190 007e D4BF     		ite	le
 191 0080 0021     		movle	r1, #0
 192 0082 0121     		movgt	r1, #1
 193 0084 FFF7FEFF 		bl	_test_assert
 194 0088 0028     		cmp	r0, #0
 195 008a CCD1     		bne	.L4
 196              		.loc 1 273 0
 197 008c 0599     		ldr	r1, [sp, #20]
 198 008e 0420     		movs	r0, #4
 199 0090 A1F10102 		sub	r2, r1, #1
 200 0094 5142     		rsbs	r1, r2, #0
 201 0096 41EB0201 		adc	r1, r1, r2
 202 009a FFF7FEFF 		bl	_test_assert
 203 009e 0028     		cmp	r0, #0
 204 00a0 C1D1     		bne	.L4
 205              	.LBB4:
 206              		.loc 1 276 0
 207 00a2 2023     		movs	r3, #32
 208              	.LVL6:
 209              	@ 276 "../../test/testsem.c" 1
 210 00a4 83F31188 		msr     BASEPRI, r3
 211              	@ 0 "" 2
 212              	.LVL7:
 213              		.thumb
 214              	.LBE4:
 215 00a8 059B     		ldr	r3, [sp, #20]
 216              	.LVL8:
 217 00aa 002B     		cmp	r3, #0
 218 00ac 18DD     		ble	.L11
 219              	.L7:
 220              		.loc 1 276 0 is_stmt 0 discriminator 2
 221 00ae FFF7FEFF 		bl	chSchRescheduleS
 222              	.LBB5:
 223 00b2 0023     		movs	r3, #0
 224              	.LVL9:
 225              	@ 276 "../../test/testsem.c" 1
 226 00b4 83F31188 		msr     BASEPRI, r3
 227              	@ 0 "" 2
 228              	.LVL10:
ARM GAS  /tmp/ccRwVlcw.s 			page 5


 229              		.thumb
 230              	.LBE5:
 231              		.loc 1 277 0 is_stmt 1 discriminator 2
 232 00b8 0599     		ldr	r1, [sp, #20]
 233 00ba 0320     		movs	r0, #3
 234 00bc 9942     		cmp	r1, r3
 235              	.LVL11:
 236 00be D4BF     		ite	le
 237 00c0 0021     		movle	r1, #0
 238 00c2 0121     		movgt	r1, #1
 239 00c4 FFF7FEFF 		bl	_test_assert
 240 00c8 0028     		cmp	r0, #0
 241 00ca ACD1     		bne	.L4
 242              		.loc 1 278 0
 243 00cc 0599     		ldr	r1, [sp, #20]
 244 00ce 0520     		movs	r0, #5
 245 00d0 A1F10103 		sub	r3, r1, #1
 246 00d4 5942     		rsbs	r1, r3, #0
 247 00d6 41EB0301 		adc	r1, r1, r3
 248 00da FFF7FEFF 		bl	_test_assert
 249 00de A2E7     		b	.L4
 250              	.L11:
 251              		.loc 1 276 0 discriminator 1
 252 00e0 03A8     		add	r0, sp, #12
 253 00e2 FFF7FEFF 		bl	chSemSignalI
 254 00e6 E2E7     		b	.L7
 255              	.L10:
 256              		.loc 1 271 0 discriminator 1
 257 00e8 03A8     		add	r0, sp, #12
 258 00ea FFF7FEFF 		bl	chSemSignalI
 259 00ee BEE7     		b	.L6
 260              	.L13:
 261              		.align	2
 262              	.L12:
 263 00f0 00000000 		.word	rlist
 264 00f4 00000000 		.word	wa
 265 00f8 00000000 		.word	thread4
 266 00fc 00000000 		.word	threads
 267              		.cfi_endproc
 268              	.LFE17:
 269              		.size	sem4_execute, .-sem4_execute
 270              		.section	.text.thread4,"ax",%progbits
 271              		.align	2
 272              		.p2align 4,,15
 273              		.thumb
 274              		.thumb_func
 275              		.type	thread4, %function
 276              	thread4:
 277              	.LFB16:
 278              		.loc 1 245 0
 279              		.cfi_startproc
 280              		@ args = 0, pretend = 0, frame = 0
 281              		@ frame_needed = 0, uses_anonymous_args = 0
 282              	.LVL12:
 283 0000 08B5     		push	{r3, lr}
 284              	.LCFI2:
 285              		.cfi_def_cfa_offset 8
ARM GAS  /tmp/ccRwVlcw.s 			page 6


 286              		.cfi_offset 14, -4
 287              		.cfi_offset 3, -8
 288              	.LBB6:
 289              		.loc 1 247 0
 290 0002 2023     		movs	r3, #32
 291              	.LVL13:
 292              	@ 247 "../../test/testsem.c" 1
 293 0004 83F31188 		msr     BASEPRI, r3
 294              	@ 0 "" 2
 295              	.LVL14:
 296              		.thumb
 297              	.LBE6:
 298 0008 8368     		ldr	r3, [r0, #8]
 299              	.LVL15:
 300 000a 002B     		cmp	r3, #0
 301 000c 06DD     		ble	.L16
 302              	.LVL16:
 303              	.L15:
 304              		.loc 1 247 0 is_stmt 0 discriminator 2
 305 000e FFF7FEFF 		bl	chSchRescheduleS
 306              	.LBB7:
 307 0012 0023     		movs	r3, #0
 308              	.LVL17:
 309              	@ 247 "../../test/testsem.c" 1
 310 0014 83F31188 		msr     BASEPRI, r3
 311              	@ 0 "" 2
 312              	.LVL18:
 313              		.thumb
 314              	.LBE7:
 315              		.loc 1 249 0 is_stmt 1 discriminator 2
 316 0018 1846     		mov	r0, r3
 317 001a 08BD     		pop	{r3, pc}
 318              	.LVL19:
 319              	.L16:
 320              		.loc 1 247 0 discriminator 1
 321 001c FFF7FEFF 		bl	chSemSignalI
 322              	.LVL20:
 323 0020 F5E7     		b	.L15
 324              		.cfi_endproc
 325              	.LFE16:
 326              		.size	thread4, .-thread4
 327 0022 00BFAFF3 		.section	.text.thread3,"ax",%progbits
 327      0080AFF3 
 327      0080AFF3 
 327      0080
 328              		.align	2
 329              		.p2align 4,,15
 330              		.thumb
 331              		.thumb_func
 332              		.type	thread3, %function
 333              	thread3:
 334              	.LFB14:
 335              		.loc 1 209 0
 336              		.cfi_startproc
 337              		@ args = 0, pretend = 0, frame = 0
 338              		@ frame_needed = 0, uses_anonymous_args = 0
 339              	.LVL21:
ARM GAS  /tmp/ccRwVlcw.s 			page 7


 340 0000 10B5     		push	{r4, lr}
 341              	.LCFI3:
 342              		.cfi_def_cfa_offset 8
 343              		.cfi_offset 14, -4
 344              		.cfi_offset 4, -8
 345              		.loc 1 212 0
 346 0002 40F20004 		movw	r4, #:lower16:.LANCHOR0
 347 0006 C0F20004 		movt	r4, #:upper16:.LANCHOR0
 348 000a 2046     		mov	r0, r4
 349              	.LVL22:
 350 000c FFF7FEFF 		bl	chSemWait
 351              		.loc 1 213 0
 352 0010 2046     		mov	r0, r4
 353 0012 FFF7FEFF 		bl	chSemSignal
 354              		.loc 1 215 0
 355 0016 0020     		movs	r0, #0
 356 0018 10BD     		pop	{r4, pc}
 357              		.cfi_endproc
 358              	.LFE14:
 359              		.size	thread3, .-thread3
 360 001a 00BFAFF3 		.section	.text.thread1,"ax",%progbits
 360      0080
 361              		.align	2
 362              		.p2align 4,,15
 363              		.thumb
 364              		.thumb_func
 365              		.type	thread1, %function
 366              	thread1:
 367              	.LFB8:
 368              		.loc 1 77 0
 369              		.cfi_startproc
 370              		@ args = 0, pretend = 0, frame = 0
 371              		@ frame_needed = 0, uses_anonymous_args = 0
 372              	.LVL23:
 373 0000 10B5     		push	{r4, lr}
 374              	.LCFI4:
 375              		.cfi_def_cfa_offset 8
 376              		.cfi_offset 14, -4
 377              		.cfi_offset 4, -8
 378              		.loc 1 77 0
 379 0002 0446     		mov	r4, r0
 380              		.loc 1 79 0
 381 0004 40F20000 		movw	r0, #:lower16:.LANCHOR0
 382              	.LVL24:
 383 0008 C0F20000 		movt	r0, #:upper16:.LANCHOR0
 384 000c FFF7FEFF 		bl	chSemWait
 385              		.loc 1 80 0
 386 0010 2078     		ldrb	r0, [r4, #0]	@ zero_extendqisi2
 387 0012 FFF7FEFF 		bl	test_emit_token
 388              		.loc 1 82 0
 389 0016 0020     		movs	r0, #0
 390 0018 10BD     		pop	{r4, pc}
 391              		.cfi_endproc
 392              	.LFE8:
 393              		.size	thread1, .-thread1
 394 001a 00BFAFF3 		.section	.text.thread2,"ax",%progbits
 394      0080
ARM GAS  /tmp/ccRwVlcw.s 			page 8


 395              		.align	2
 396              		.p2align 4,,15
 397              		.thumb
 398              		.thumb_func
 399              		.type	thread2, %function
 400              	thread2:
 401              	.LFB11:
 402              		.loc 1 133 0
 403              		.cfi_startproc
 404              		@ args = 0, pretend = 0, frame = 0
 405              		@ frame_needed = 0, uses_anonymous_args = 0
 406              	.LVL25:
 407 0000 08B5     		push	{r3, lr}
 408              	.LCFI5:
 409              		.cfi_def_cfa_offset 8
 410              		.cfi_offset 14, -4
 411              		.cfi_offset 3, -8
 412              		.loc 1 136 0
 413 0002 3220     		movs	r0, #50
 414              	.LVL26:
 415 0004 FFF7FEFF 		bl	chThdSleep
 416              	.LBB8:
 417              		.loc 1 137 0
 418 0008 2023     		movs	r3, #32
 419              	.LVL27:
 420              	@ 137 "../../test/testsem.c" 1
 421 000a 83F31188 		msr     BASEPRI, r3
 422              	@ 0 "" 2
 423              	.LVL28:
 424              		.thumb
 425              	.LBE8:
 426              		.loc 1 138 0
 427 000e 40F20000 		movw	r0, #:lower16:.LANCHOR0
 428 0012 C0F20000 		movt	r0, #:upper16:.LANCHOR0
 429 0016 FFF7FEFF 		bl	chSemSignalI
 430              	.LVL29:
 431              		.loc 1 139 0
 432 001a FFF7FEFF 		bl	chSchRescheduleS
 433              	.LBB9:
 434              		.loc 1 140 0
 435 001e 0023     		movs	r3, #0
 436              	.LVL30:
 437              	@ 140 "../../test/testsem.c" 1
 438 0020 83F31188 		msr     BASEPRI, r3
 439              	@ 0 "" 2
 440              	.LVL31:
 441              		.thumb
 442              	.LBE9:
 443              		.loc 1 142 0
 444 0024 1846     		mov	r0, r3
 445 0026 08BD     		pop	{r3, pc}
 446              		.cfi_endproc
 447              	.LFE11:
 448              		.size	thread2, .-thread2
 449 0028 AFF30080 		.section	.text.sem1_execute,"ax",%progbits
 449      AFF30080 
 450              		.align	2
ARM GAS  /tmp/ccRwVlcw.s 			page 9


 451              		.p2align 4,,15
 452              		.thumb
 453              		.thumb_func
 454              		.type	sem1_execute, %function
 455              	sem1_execute:
 456              	.LFB9:
 457              		.loc 1 84 0
 458              		.cfi_startproc
 459              		@ args = 0, pretend = 0, frame = 0
 460              		@ frame_needed = 0, uses_anonymous_args = 0
 461 0000 2DE9F043 		push	{r4, r5, r6, r7, r8, r9, lr}
 462              	.LCFI6:
 463              		.cfi_def_cfa_offset 28
 464              		.cfi_offset 14, -4
 465              		.cfi_offset 9, -8
 466              		.cfi_offset 8, -12
 467              		.cfi_offset 7, -16
 468              		.cfi_offset 6, -20
 469              		.cfi_offset 5, -24
 470              		.cfi_offset 4, -28
 471              		.loc 1 86 0
 472 0004 464E     		ldr	r6, .L23
 473 0006 474C     		ldr	r4, .L23+4
 474 0008 B369     		ldr	r3, [r6, #24]
 475 000a D4F80090 		ldr	r9, [r4, #0]
 476 000e 9A68     		ldr	r2, [r3, #8]
 477 0010 454F     		ldr	r7, .L23+8
 478              		.loc 1 84 0
 479 0012 83B0     		sub	sp, sp, #12
 480              	.LCFI7:
 481              		.cfi_def_cfa_offset 40
 482              		.loc 1 86 0
 483 0014 4FF49871 		mov	r1, #304
 484 0018 0532     		adds	r2, r2, #5
 485 001a 444B     		ldr	r3, .L23+12
 486 001c 4846     		mov	r0, r9
 487 001e 0097     		str	r7, [sp, #0]
 488 0020 FFF7FEFF 		bl	chThdCreateStatic
 489              		.loc 1 87 0
 490 0024 B369     		ldr	r3, [r6, #24]
 491              		.loc 1 86 0
 492 0026 424D     		ldr	r5, .L23+16
 493              		.loc 1 87 0
 494 0028 D4F804E0 		ldr	lr, [r4, #4]
 495 002c 9A68     		ldr	r2, [r3, #8]
 496              		.loc 1 86 0
 497 002e 2860     		str	r0, [r5, #0]
 498              		.loc 1 87 0
 499 0030 7046     		mov	r0, lr
 500 0032 DFF80CE1 		ldr	lr, .L23+32
 501 0036 4FF49871 		mov	r1, #304
 502 003a 0132     		adds	r2, r2, #1
 503 003c 3B4B     		ldr	r3, .L23+12
 504 003e CDF800E0 		str	lr, [sp, #0]
 505 0042 FFF7FEFF 		bl	chThdCreateStatic
 506              		.loc 1 88 0
 507 0046 B369     		ldr	r3, [r6, #24]
ARM GAS  /tmp/ccRwVlcw.s 			page 10


 508 0048 D4F808E0 		ldr	lr, [r4, #8]
 509 004c 9A68     		ldr	r2, [r3, #8]
 510              		.loc 1 87 0
 511 004e 6860     		str	r0, [r5, #4]
 512              		.loc 1 88 0
 513 0050 7046     		mov	r0, lr
 514 0052 DFF8F0E0 		ldr	lr, .L23+36
 515 0056 4FF49871 		mov	r1, #304
 516 005a 0332     		adds	r2, r2, #3
 517 005c 334B     		ldr	r3, .L23+12
 518 005e CDF800E0 		str	lr, [sp, #0]
 519 0062 FFF7FEFF 		bl	chThdCreateStatic
 520              		.loc 1 89 0
 521 0066 B369     		ldr	r3, [r6, #24]
 522 0068 D4F80CE0 		ldr	lr, [r4, #12]
 523 006c 9A68     		ldr	r2, [r3, #8]
 524              		.loc 1 88 0
 525 006e A860     		str	r0, [r5, #8]
 526              		.loc 1 89 0
 527 0070 7046     		mov	r0, lr
 528 0072 DFF8D4E0 		ldr	lr, .L23+40
 529 0076 4FF49871 		mov	r1, #304
 530 007a 0432     		adds	r2, r2, #4
 531 007c 2B4B     		ldr	r3, .L23+12
 532 007e CDF800E0 		str	lr, [sp, #0]
 533 0082 FFF7FEFF 		bl	chThdCreateStatic
 534              		.loc 1 90 0
 535 0086 B369     		ldr	r3, [r6, #24]
 536 0088 2469     		ldr	r4, [r4, #16]
 537 008a 9A68     		ldr	r2, [r3, #8]
 538              		.loc 1 89 0
 539 008c E860     		str	r0, [r5, #12]
 540              		.loc 1 90 0
 541 008e 2046     		mov	r0, r4
 542 0090 284C     		ldr	r4, .L23+20
 543 0092 4FF49871 		mov	r1, #304
 544 0096 0232     		adds	r2, r2, #2
 545 0098 244B     		ldr	r3, .L23+12
 546 009a 0094     		str	r4, [sp, #0]
 547 009c FFF7FEFF 		bl	chThdCreateStatic
 548              		.loc 1 91 0
 549 00a0 254C     		ldr	r4, .L23+24
 550              		.loc 1 90 0
 551 00a2 2861     		str	r0, [r5, #16]
 552              		.loc 1 91 0
 553 00a4 2046     		mov	r0, r4
 554 00a6 FFF7FEFF 		bl	chSemSignal
 555              		.loc 1 92 0
 556 00aa 2046     		mov	r0, r4
 557 00ac FFF7FEFF 		bl	chSemSignal
 558              		.loc 1 93 0
 559 00b0 2046     		mov	r0, r4
 560 00b2 FFF7FEFF 		bl	chSemSignal
 561              		.loc 1 94 0
 562 00b6 2046     		mov	r0, r4
 563 00b8 FFF7FEFF 		bl	chSemSignal
 564              		.loc 1 95 0
ARM GAS  /tmp/ccRwVlcw.s 			page 11


 565 00bc 2046     		mov	r0, r4
 566 00be FFF7FEFF 		bl	chSemSignal
 567              		.loc 1 96 0
 568 00c2 FFF7FEFF 		bl	test_wait_threads
 569              		.loc 1 100 0
 570 00c6 0120     		movs	r0, #1
 571 00c8 1C49     		ldr	r1, .L23+28
 572 00ca FFF7FEFF 		bl	_test_assert_sequence
 573 00ce 8046     		mov	r8, r0
 574 00d0 10B1     		cbz	r0, .L22
 575              		.loc 1 108 0
 576 00d2 03B0     		add	sp, sp, #12
 577 00d4 BDE8F083 		pop	{r4, r5, r6, r7, r8, r9, pc}
 578              	.L22:
 579              		.loc 1 102 0
 580 00d8 B369     		ldr	r3, [r6, #24]
 581 00da 4846     		mov	r0, r9
 582 00dc 9A68     		ldr	r2, [r3, #8]
 583 00de 4FF49871 		mov	r1, #304
 584 00e2 0532     		adds	r2, r2, #5
 585 00e4 114B     		ldr	r3, .L23+12
 586 00e6 0097     		str	r7, [sp, #0]
 587 00e8 FFF7FEFF 		bl	chThdCreateStatic
 588              	.LBB10:
 589              		.loc 1 103 0
 590 00ec 2023     		movs	r3, #32
 591              	.LVL32:
 592              	.LBE10:
 593              		.loc 1 102 0
 594 00ee 2860     		str	r0, [r5, #0]
 595              	.LBB11:
 596              		.loc 1 103 0
 597              	@ 103 "../../test/testsem.c" 1
 598 00f0 83F31188 		msr     BASEPRI, r3
 599              	@ 0 "" 2
 600              	.LVL33:
 601              		.thumb
 602              	.LBE11:
 603              		.loc 1 104 0
 604 00f4 0221     		movs	r1, #2
 605 00f6 2046     		mov	r0, r4
 606 00f8 FFF7FEFF 		bl	chSemAddCounterI
 607              	.LVL34:
 608              	.LBB12:
 609              		.loc 1 105 0
 610 00fc 4346     		mov	r3, r8
 611              	.LVL35:
 612              	@ 105 "../../test/testsem.c" 1
 613 00fe 83F31188 		msr     BASEPRI, r3
 614              	@ 0 "" 2
 615              	.LVL36:
 616              		.thumb
 617              	.LBE12:
 618              		.loc 1 106 0
 619 0102 FFF7FEFF 		bl	test_wait_threads
 620              	.LVL37:
 621              		.loc 1 107 0
ARM GAS  /tmp/ccRwVlcw.s 			page 12


 622 0106 A168     		ldr	r1, [r4, #8]
 623 0108 0220     		movs	r0, #2
 624 010a A1F1010E 		sub	lr, r1, #1
 625 010e DEF10001 		rsbs	r1, lr, #0
 626 0112 41EB0E01 		adc	r1, r1, lr
 627              		.loc 1 108 0
 628 0116 03B0     		add	sp, sp, #12
 629 0118 BDE8F043 		pop	{r4, r5, r6, r7, r8, r9, lr}
 630              		.loc 1 107 0
 631 011c FFF7FEBF 		b	_test_assert
 632              	.L24:
 633              		.align	2
 634              	.L23:
 635 0120 00000000 		.word	rlist
 636 0124 00000000 		.word	wa
 637 0128 00000000 		.word	.LC0
 638 012c 00000000 		.word	thread1
 639 0130 00000000 		.word	threads
 640 0134 10000000 		.word	.LC4
 641 0138 00000000 		.word	.LANCHOR0
 642 013c 14000000 		.word	.LC5
 643 0140 04000000 		.word	.LC1
 644 0144 08000000 		.word	.LC2
 645 0148 0C000000 		.word	.LC3
 646              		.cfi_endproc
 647              	.LFE9:
 648              		.size	sem1_execute, .-sem1_execute
 649 014c AFF30080 		.section	.text.sem3_execute,"ax",%progbits
 650              		.align	2
 651              		.p2align 4,,15
 652              		.thumb
 653              		.thumb_func
 654              		.type	sem3_execute, %function
 655              	sem3_execute:
 656              	.LFB15:
 657              		.loc 1 217 0
 658              		.cfi_startproc
 659              		@ args = 0, pretend = 0, frame = 0
 660              		@ frame_needed = 0, uses_anonymous_args = 0
 661              		.loc 1 219 0
 662 0000 224B     		ldr	r3, .L28
 663              		.loc 1 217 0
 664 0002 10B5     		push	{r4, lr}
 665              	.LCFI8:
 666              		.cfi_def_cfa_offset 8
 667              		.cfi_offset 14, -4
 668              		.cfi_offset 4, -8
 669              		.loc 1 219 0
 670 0004 9B69     		ldr	r3, [r3, #24]
 671 0006 2248     		ldr	r0, .L28+4
 672 0008 9A68     		ldr	r2, [r3, #8]
 673              		.loc 1 217 0
 674 000a 82B0     		sub	sp, sp, #8
 675              	.LCFI9:
 676              		.cfi_def_cfa_offset 16
 677              		.loc 1 219 0
 678 000c 0132     		adds	r2, r2, #1
ARM GAS  /tmp/ccRwVlcw.s 			page 13


 679 000e 0024     		movs	r4, #0
 680 0010 4FF49871 		mov	r1, #304
 681 0014 1F4B     		ldr	r3, .L28+8
 682 0016 0068     		ldr	r0, [r0, #0]
 683 0018 0094     		str	r4, [sp, #0]
 684 001a FFF7FEFF 		bl	chThdCreateStatic
 685              		.loc 1 220 0
 686 001e 1E4C     		ldr	r4, .L28+12
 687              		.loc 1 219 0
 688 0020 1E4B     		ldr	r3, .L28+16
 689              		.loc 1 220 0
 690 0022 2146     		mov	r1, r4
 691              		.loc 1 219 0
 692 0024 1860     		str	r0, [r3, #0]
 693              		.loc 1 220 0
 694 0026 2046     		mov	r0, r4
 695 0028 FFF7FEFF 		bl	chSemSignalWait
 696              		.loc 1 221 0
 697 002c 2168     		ldr	r1, [r4, #0]
 698 002e 0120     		movs	r0, #1
 699 0030 0B1B     		subs	r3, r1, r4
 700 0032 5942     		rsbs	r1, r3, #0
 701 0034 41EB0301 		adc	r1, r1, r3
 702 0038 FFF7FEFF 		bl	_test_assert
 703 003c 08B1     		cbz	r0, .L27
 704              	.L25:
 705              		.loc 1 227 0
 706 003e 02B0     		add	sp, sp, #8
 707 0040 10BD     		pop	{r4, pc}
 708              	.L27:
 709              		.loc 1 222 0
 710 0042 A168     		ldr	r1, [r4, #8]
 711 0044 0220     		movs	r0, #2
 712 0046 D1F10101 		rsbs	r1, r1, #1
 713 004a 38BF     		it	cc
 714 004c 0021     		movcc	r1, #0
 715 004e FFF7FEFF 		bl	_test_assert
 716 0052 0028     		cmp	r0, #0
 717 0054 F3D1     		bne	.L25
 718              	.LBB15:
 719              	.LBB16:
 720              		.loc 1 224 0
 721 0056 2146     		mov	r1, r4
 722 0058 2046     		mov	r0, r4
 723 005a FFF7FEFF 		bl	chSemSignalWait
 724              		.loc 1 225 0
 725 005e 2168     		ldr	r1, [r4, #0]
 726 0060 0320     		movs	r0, #3
 727 0062 C4EB010C 		rsb	ip, r4, r1
 728 0066 DCF10001 		rsbs	r1, ip, #0
 729 006a 41EB0C01 		adc	r1, r1, ip
 730 006e FFF7FEFF 		bl	_test_assert
 731 0072 0028     		cmp	r0, #0
 732 0074 E3D1     		bne	.L25
 733              		.loc 1 226 0
 734 0076 A168     		ldr	r1, [r4, #8]
 735 0078 0420     		movs	r0, #4
ARM GAS  /tmp/ccRwVlcw.s 			page 14


 736 007a D1F10101 		rsbs	r1, r1, #1
 737 007e 38BF     		it	cc
 738 0080 0021     		movcc	r1, #0
 739              	.LBE16:
 740              	.LBE15:
 741              		.loc 1 227 0
 742 0082 02B0     		add	sp, sp, #8
 743 0084 BDE81040 		pop	{r4, lr}
 744              	.LBB18:
 745              	.LBB17:
 746              		.loc 1 226 0
 747 0088 FFF7FEBF 		b	_test_assert
 748              	.L29:
 749              		.align	2
 750              	.L28:
 751 008c 00000000 		.word	rlist
 752 0090 00000000 		.word	wa
 753 0094 00000000 		.word	thread3
 754 0098 00000000 		.word	.LANCHOR0
 755 009c 00000000 		.word	threads
 756              	.LBE17:
 757              	.LBE18:
 758              		.cfi_endproc
 759              	.LFE15:
 760              		.size	sem3_execute, .-sem3_execute
 761              		.section	.text.sem2_execute,"ax",%progbits
 762              		.align	2
 763              		.p2align 4,,15
 764              		.thumb
 765              		.thumb_func
 766              		.type	sem2_execute, %function
 767              	sem2_execute:
 768              	.LFB12:
 769              		.loc 1 144 0
 770              		.cfi_startproc
 771              		@ args = 0, pretend = 0, frame = 0
 772              		@ frame_needed = 0, uses_anonymous_args = 0
 773 0000 70B5     		push	{r4, r5, r6, lr}
 774              	.LCFI10:
 775              		.cfi_def_cfa_offset 16
 776              		.cfi_offset 14, -4
 777              		.cfi_offset 6, -8
 778              		.cfi_offset 5, -12
 779              		.cfi_offset 4, -16
 780              		.loc 1 152 0
 781 0002 4E4C     		ldr	r4, .L35
 782 0004 0021     		movs	r1, #0
 783              		.loc 1 144 0
 784 0006 82B0     		sub	sp, sp, #8
 785              	.LCFI11:
 786              		.cfi_def_cfa_offset 24
 787              		.loc 1 152 0
 788 0008 2046     		mov	r0, r4
 789 000a FFF7FEFF 		bl	chSemWaitTimeout
 790              	.LVL38:
 791              		.loc 1 153 0
 792 000e A0F1FF33 		sub	r3, r0, #-1
ARM GAS  /tmp/ccRwVlcw.s 			page 15


 793 0012 5942     		rsbs	r1, r3, #0
 794 0014 41EB0301 		adc	r1, r1, r3
 795 0018 0120     		movs	r0, #1
 796              	.LVL39:
 797 001a FFF7FEFF 		bl	_test_assert
 798              	.LVL40:
 799 001e 08B1     		cbz	r0, .L34
 800              	.L30:
 801              		.loc 1 182 0
 802 0020 02B0     		add	sp, sp, #8
 803 0022 70BD     		pop	{r4, r5, r6, pc}
 804              	.L34:
 805              		.loc 1 154 0
 806 0024 2168     		ldr	r1, [r4, #0]
 807 0026 0220     		movs	r0, #2
 808 0028 C4EB010C 		rsb	ip, r4, r1
 809 002c DCF10001 		rsbs	r1, ip, #0
 810 0030 41EB0C01 		adc	r1, r1, ip
 811 0034 FFF7FEFF 		bl	_test_assert
 812 0038 0028     		cmp	r0, #0
 813 003a F1D1     		bne	.L30
 814              		.loc 1 155 0
 815 003c A168     		ldr	r1, [r4, #8]
 816 003e 0320     		movs	r0, #3
 817 0040 D1F10101 		rsbs	r1, r1, #1
 818 0044 38BF     		it	cc
 819 0046 0021     		movcc	r1, #0
 820 0048 FFF7FEFF 		bl	_test_assert
 821 004c 0546     		mov	r5, r0
 822 004e 0028     		cmp	r0, #0
 823 0050 E6D1     		bne	.L30
 824              	.LBB21:
 825              	.LBB22:
 826              		.loc 1 160 0
 827 0052 3B4B     		ldr	r3, .L35+4
 828 0054 3B48     		ldr	r0, .L35+8
 829 0056 9B69     		ldr	r3, [r3, #24]
 830 0058 4FF49871 		mov	r1, #304
 831 005c 9A68     		ldr	r2, [r3, #8]
 832 005e 0068     		ldr	r0, [r0, #0]
 833 0060 013A     		subs	r2, r2, #1
 834 0062 394B     		ldr	r3, .L35+12
 835 0064 0095     		str	r5, [sp, #0]
 836 0066 FFF7FEFF 		bl	chThdCreateStatic
 837 006a 384B     		ldr	r3, .L35+16
 838              		.loc 1 162 0
 839 006c 4FF4FA71 		mov	r1, #500
 840              		.loc 1 160 0
 841 0070 1860     		str	r0, [r3, #0]
 842              		.loc 1 162 0
 843 0072 2046     		mov	r0, r4
 844 0074 FFF7FEFF 		bl	chSemWaitTimeout
 845 0078 0546     		mov	r5, r0
 846              	.LVL41:
 847              		.loc 1 163 0
 848 007a FFF7FEFF 		bl	test_wait_threads
 849              	.LVL42:
ARM GAS  /tmp/ccRwVlcw.s 			page 16


 850              		.loc 1 164 0
 851 007e 0420     		movs	r0, #4
 852 0080 D5F10101 		rsbs	r1, r5, #1
 853 0084 38BF     		it	cc
 854 0086 0021     		movcc	r1, #0
 855 0088 FFF7FEFF 		bl	_test_assert
 856 008c 0028     		cmp	r0, #0
 857 008e C7D1     		bne	.L30
 858              		.loc 1 165 0
 859 0090 2168     		ldr	r1, [r4, #0]
 860 0092 0520     		movs	r0, #5
 861 0094 C4EB010E 		rsb	lr, r4, r1
 862 0098 DEF10001 		rsbs	r1, lr, #0
 863 009c 41EB0E01 		adc	r1, r1, lr
 864 00a0 FFF7FEFF 		bl	_test_assert
 865 00a4 0028     		cmp	r0, #0
 866 00a6 BBD1     		bne	.L30
 867              		.loc 1 166 0
 868 00a8 A168     		ldr	r1, [r4, #8]
 869 00aa 0620     		movs	r0, #6
 870 00ac D1F10101 		rsbs	r1, r1, #1
 871 00b0 38BF     		it	cc
 872 00b2 0021     		movcc	r1, #0
 873 00b4 FFF7FEFF 		bl	_test_assert
 874 00b8 0028     		cmp	r0, #0
 875 00ba B1D1     		bne	.L30
 876              		.loc 1 171 0
 877 00bc FFF7FEFF 		bl	test_wait_tick
 878              		.loc 1 172 0
 879 00c0 234B     		ldr	r3, .L35+20
 880 00c2 4125     		movs	r5, #65
 881              	.LVL43:
 882 00c4 DE68     		ldr	r6, [r3, #12]
 883              	.LVL44:
 884              	.L32:
 885              		.loc 1 174 0
 886 00c6 2846     		mov	r0, r5
 887 00c8 FFF7FEFF 		bl	test_emit_token
 888              		.loc 1 175 0
 889 00cc 4FF4FA71 		mov	r1, #500
 890 00d0 1A48     		ldr	r0, .L35
 891 00d2 FFF7FEFF 		bl	chSemWaitTimeout
 892              	.LVL45:
 893              		.loc 1 176 0
 894 00d6 A0F1FF30 		sub	r0, r0, #-1
 895              	.LVL46:
 896 00da 4142     		rsbs	r1, r0, #0
 897 00dc 41EB0001 		adc	r1, r1, r0
 898 00e0 0720     		movs	r0, #7
 899              	.LVL47:
 900 00e2 FFF7FEFF 		bl	_test_assert
 901 00e6 0028     		cmp	r0, #0
 902 00e8 9AD1     		bne	.L30
 903              		.loc 1 177 0
 904 00ea 2168     		ldr	r1, [r4, #0]
 905 00ec 0820     		movs	r0, #8
 906 00ee 0A1B     		subs	r2, r1, r4
ARM GAS  /tmp/ccRwVlcw.s 			page 17


 907 00f0 5142     		rsbs	r1, r2, #0
 908 00f2 41EB0201 		adc	r1, r1, r2
 909 00f6 FFF7FEFF 		bl	_test_assert
 910 00fa 0028     		cmp	r0, #0
 911 00fc 90D1     		bne	.L30
 912              		.loc 1 178 0
 913 00fe A168     		ldr	r1, [r4, #8]
 914 0100 0920     		movs	r0, #9
 915 0102 D1F10101 		rsbs	r1, r1, #1
 916 0106 38BF     		it	cc
 917 0108 0021     		movcc	r1, #0
 918 010a FFF7FEFF 		bl	_test_assert
 919 010e 0135     		adds	r5, r5, #1
 920 0110 EDB2     		uxtb	r5, r5
 921 0112 0028     		cmp	r0, #0
 922 0114 84D1     		bne	.L30
 923              		.loc 1 173 0
 924 0116 462D     		cmp	r5, #70
 925 0118 D5D1     		bne	.L32
 926              		.loc 1 180 0
 927 011a 0A20     		movs	r0, #10
 928 011c 0D49     		ldr	r1, .L35+24
 929 011e FFF7FEFF 		bl	_test_assert_sequence
 930 0122 0028     		cmp	r0, #0
 931 0124 7FF47CAF 		bne	.L30
 932              		.loc 1 181 0
 933 0128 0B20     		movs	r0, #11
 934 012a 06F6C411 		addw	r1, r6, #2500
 935 012e 06F6C912 		addw	r2, r6, #2505
 936              	.LBE22:
 937              	.LBE21:
 938              		.loc 1 182 0
 939 0132 02B0     		add	sp, sp, #8
 940 0134 BDE87040 		pop	{r4, r5, r6, lr}
 941              	.LBB24:
 942              	.LBB23:
 943              		.loc 1 181 0
 944 0138 FFF7FEBF 		b	_test_assert_time_window
 945              	.L36:
 946              		.align	2
 947              	.L35:
 948 013c 00000000 		.word	.LANCHOR0
 949 0140 00000000 		.word	rlist
 950 0144 00000000 		.word	wa
 951 0148 00000000 		.word	thread2
 952 014c 00000000 		.word	threads
 953 0150 00000000 		.word	vtlist
 954 0154 14000000 		.word	.LC5
 955              	.LBE23:
 956              	.LBE24:
 957              		.cfi_endproc
 958              	.LFE12:
 959              		.size	sem2_execute, .-sem2_execute
 960              		.global	patternsem
 961              		.global	testsem4
 962              		.global	testsem3
 963              		.global	testsem2
ARM GAS  /tmp/ccRwVlcw.s 			page 18


 964              		.global	testsem1
 965 0158 AFF30080 		.section	.rodata.testsem1,"a",%progbits
 965      AFF30080 
 966              		.align	2
 967              		.type	testsem1, %object
 968              		.size	testsem1, 16
 969              	testsem1:
 970 0000 74000000 		.word	.LC9
 971 0004 00000000 		.word	sem1_setup
 972 0008 00000000 		.word	0
 973 000c 00000000 		.word	sem1_execute
 974              		.section	.rodata.testsem2,"a",%progbits
 975              		.align	2
 976              		.type	testsem2, %object
 977              		.size	testsem2, 16
 978              	testsem2:
 979 0000 60000000 		.word	.LC8
 980 0004 00000000 		.word	sem2_setup
 981 0008 00000000 		.word	0
 982 000c 00000000 		.word	sem2_execute
 983              		.section	.rodata.testsem3,"a",%progbits
 984              		.align	2
 985              		.type	testsem3, %object
 986              		.size	testsem3, 16
 987              	testsem3:
 988 0000 40000000 		.word	.LC7
 989 0004 00000000 		.word	sem3_setup
 990 0008 00000000 		.word	0
 991 000c 00000000 		.word	sem3_execute
 992              		.section	.rodata.testsem4,"a",%progbits
 993              		.align	2
 994              		.type	testsem4, %object
 995              		.size	testsem4, 16
 996              	testsem4:
 997 0000 1C000000 		.word	.LC6
 998 0004 00000000 		.word	0
 999 0008 00000000 		.word	0
 1000 000c 00000000 		.word	sem4_execute
 1001              		.section	.data.sem1,"aw",%progbits
 1002              		.align	2
 1003              		.set	.LANCHOR0,. + 0
 1004              		.type	sem1, %object
 1005              		.size	sem1, 12
 1006              	sem1:
 1007 0000 00000000 		.word	sem1
 1008 0004 00000000 		.word	sem1
 1009 0008 00000000 		.word	0
 1010              		.section	.rodata.patternsem,"a",%progbits
 1011              		.align	2
 1012              		.type	patternsem, %object
 1013              		.size	patternsem, 20
 1014              	patternsem:
 1015 0000 00000000 		.word	testsem1
 1016 0004 00000000 		.word	testsem2
 1017 0008 00000000 		.word	testsem3
 1018 000c 00000000 		.word	testsem4
 1019 0010 00000000 		.word	0
ARM GAS  /tmp/ccRwVlcw.s 			page 19


 1020              		.section	.rodata.str1.4,"aMS",%progbits,1
 1021              		.align	2
 1022              	.LC0:
 1023 0000 4100     		.ascii	"A\000"
 1024 0002 0000     		.space	2
 1025              	.LC1:
 1026 0004 4200     		.ascii	"B\000"
 1027 0006 0000     		.space	2
 1028              	.LC2:
 1029 0008 4300     		.ascii	"C\000"
 1030 000a 0000     		.space	2
 1031              	.LC3:
 1032 000c 4400     		.ascii	"D\000"
 1033 000e 0000     		.space	2
 1034              	.LC4:
 1035 0010 4500     		.ascii	"E\000"
 1036 0012 0000     		.space	2
 1037              	.LC5:
 1038 0014 41424344 		.ascii	"ABCDE\000"
 1038      4500
 1039 001a 0000     		.space	2
 1040              	.LC6:
 1041 001c 42696E61 		.ascii	"Binary Semaphores, functionality\000"
 1041      72792053 
 1041      656D6170 
 1041      686F7265 
 1041      732C2066 
 1042 003d 000000   		.space	3
 1043              	.LC7:
 1044 0040 53656D61 		.ascii	"Semaphores, atomic signal-wait\000"
 1044      70686F72 
 1044      65732C20 
 1044      61746F6D 
 1044      69632073 
 1045 005f 00       		.space	1
 1046              	.LC8:
 1047 0060 53656D61 		.ascii	"Semaphores, timeout\000"
 1047      70686F72 
 1047      65732C20 
 1047      74696D65 
 1047      6F757400 
 1048              	.LC9:
 1049 0074 53656D61 		.ascii	"Semaphores, enqueuing\000"
 1049      70686F72 
 1049      65732C20 
 1049      656E7175 
 1049      6575696E 
 1050 008a 0000     		.text
 1051              	.Letext0:
 1052              		.file 2 "/opt/paparazzi/arm-multilib/lib/gcc/arm-none-eabi/4.6.2/../../../../arm-none-eabi/include
 1053              		.file 3 "../../os/ports/GCC/ARMCMx/chtypes.h"
 1054              		.file 4 "../../os/kernel/include/chlists.h"
 1055              		.file 5 "../../os/kernel/include/chthreads.h"
 1056              		.file 6 "../../os/ports/GCC/ARMCMx/chcore_v7m.h"
 1057              		.file 7 "../../os/kernel/include/chvt.h"
 1058              		.file 8 "../../os/kernel/include/chschd.h"
 1059              		.file 9 "../../os/kernel/include/chsem.h"
ARM GAS  /tmp/ccRwVlcw.s 			page 20


 1060              		.file 10 "../../os/kernel/include/chbsem.h"
 1061              		.file 11 "../../os/kernel/include/chmtx.h"
 1062              		.file 12 "../../test/test.h"
 1063              		.section	.debug_info,"",%progbits
 1064              	.Ldebug_info0:
 1065 0000 E1090000 		.4byte	0x9e1
 1066 0004 0200     		.2byte	0x2
 1067 0006 00000000 		.4byte	.Ldebug_abbrev0
 1068 000a 04       		.byte	0x4
 1069 000b 01       		.uleb128 0x1
 1070 000c 6D010000 		.4byte	.LASF102
 1071 0010 01       		.byte	0x1
 1072 0011 88020000 		.4byte	.LASF103
 1073 0015 2F030000 		.4byte	.LASF104
 1074 0019 00000000 		.4byte	0
 1075 001d 00000000 		.4byte	0
 1076 0021 60000000 		.4byte	.Ldebug_ranges0+0x60
 1077 0025 00000000 		.4byte	.Ldebug_line0
 1078 0029 02       		.uleb128 0x2
 1079 002a 04       		.byte	0x4
 1080 002b 05       		.byte	0x5
 1081 002c 696E7400 		.ascii	"int\000"
 1082 0030 03       		.uleb128 0x3
 1083 0031 04       		.byte	0x4
 1084 0032 07       		.byte	0x7
 1085 0033 E1000000 		.4byte	.LASF0
 1086 0037 03       		.uleb128 0x3
 1087 0038 01       		.byte	0x1
 1088 0039 06       		.byte	0x6
 1089 003a 54000000 		.4byte	.LASF1
 1090 003e 04       		.uleb128 0x4
 1091 003f DF030000 		.4byte	.LASF5
 1092 0043 02       		.byte	0x2
 1093 0044 2A       		.byte	0x2a
 1094 0045 49000000 		.4byte	0x49
 1095 0049 03       		.uleb128 0x3
 1096 004a 01       		.byte	0x1
 1097 004b 08       		.byte	0x8
 1098 004c 70020000 		.4byte	.LASF2
 1099 0050 03       		.uleb128 0x3
 1100 0051 02       		.byte	0x2
 1101 0052 05       		.byte	0x5
 1102 0053 B5010000 		.4byte	.LASF3
 1103 0057 03       		.uleb128 0x3
 1104 0058 02       		.byte	0x2
 1105 0059 07       		.byte	0x7
 1106 005a 55010000 		.4byte	.LASF4
 1107 005e 04       		.uleb128 0x4
 1108 005f 68020000 		.4byte	.LASF6
 1109 0063 02       		.byte	0x2
 1110 0064 4F       		.byte	0x4f
 1111 0065 69000000 		.4byte	0x69
 1112 0069 03       		.uleb128 0x3
 1113 006a 04       		.byte	0x4
 1114 006b 05       		.byte	0x5
 1115 006c 8F000000 		.4byte	.LASF7
 1116 0070 04       		.uleb128 0x4
ARM GAS  /tmp/ccRwVlcw.s 			page 21


 1117 0071 FC020000 		.4byte	.LASF8
 1118 0075 02       		.byte	0x2
 1119 0076 50       		.byte	0x50
 1120 0077 7B000000 		.4byte	0x7b
 1121 007b 03       		.uleb128 0x3
 1122 007c 04       		.byte	0x4
 1123 007d 07       		.byte	0x7
 1124 007e 27010000 		.4byte	.LASF9
 1125 0082 03       		.uleb128 0x3
 1126 0083 08       		.byte	0x8
 1127 0084 05       		.byte	0x5
 1128 0085 46000000 		.4byte	.LASF10
 1129 0089 03       		.uleb128 0x3
 1130 008a 08       		.byte	0x8
 1131 008b 07       		.byte	0x7
 1132 008c 1F000000 		.4byte	.LASF11
 1133 0090 03       		.uleb128 0x3
 1134 0091 01       		.byte	0x1
 1135 0092 02       		.byte	0x2
 1136 0093 62020000 		.4byte	.LASF12
 1137 0097 04       		.uleb128 0x4
 1138 0098 95010000 		.4byte	.LASF13
 1139 009c 03       		.byte	0x3
 1140 009d 2C       		.byte	0x2c
 1141 009e 3E000000 		.4byte	0x3e
 1142 00a2 04       		.uleb128 0x4
 1143 00a3 A4000000 		.4byte	.LASF14
 1144 00a7 03       		.byte	0x3
 1145 00a8 2D       		.byte	0x2d
 1146 00a9 3E000000 		.4byte	0x3e
 1147 00ad 04       		.uleb128 0x4
 1148 00ae 43020000 		.4byte	.LASF15
 1149 00b2 03       		.byte	0x3
 1150 00b3 2E       		.byte	0x2e
 1151 00b4 3E000000 		.4byte	0x3e
 1152 00b8 04       		.uleb128 0x4
 1153 00b9 78000000 		.4byte	.LASF16
 1154 00bd 03       		.byte	0x3
 1155 00be 2F       		.byte	0x2f
 1156 00bf 3E000000 		.4byte	0x3e
 1157 00c3 04       		.uleb128 0x4
 1158 00c4 5A020000 		.4byte	.LASF17
 1159 00c8 03       		.byte	0x3
 1160 00c9 30       		.byte	0x30
 1161 00ca 70000000 		.4byte	0x70
 1162 00ce 04       		.uleb128 0x4
 1163 00cf 8F010000 		.4byte	.LASF18
 1164 00d3 03       		.byte	0x3
 1165 00d4 31       		.byte	0x31
 1166 00d5 5E000000 		.4byte	0x5e
 1167 00d9 04       		.uleb128 0x4
 1168 00da A9010000 		.4byte	.LASF19
 1169 00de 03       		.byte	0x3
 1170 00df 33       		.byte	0x33
 1171 00e0 70000000 		.4byte	0x70
 1172 00e4 04       		.uleb128 0x4
 1173 00e5 75030000 		.4byte	.LASF20
ARM GAS  /tmp/ccRwVlcw.s 			page 22


 1174 00e9 03       		.byte	0x3
 1175 00ea 35       		.byte	0x35
 1176 00eb 70000000 		.4byte	0x70
 1177 00ef 04       		.uleb128 0x4
 1178 00f0 DB000000 		.4byte	.LASF21
 1179 00f4 03       		.byte	0x3
 1180 00f5 36       		.byte	0x36
 1181 00f6 5E000000 		.4byte	0x5e
 1182 00fa 04       		.uleb128 0x4
 1183 00fb D4020000 		.4byte	.LASF22
 1184 00ff 04       		.byte	0x4
 1185 0100 2A       		.byte	0x2a
 1186 0101 05010000 		.4byte	0x105
 1187 0105 05       		.uleb128 0x5
 1188 0106 D4020000 		.4byte	.LASF22
 1189 010a 48       		.byte	0x48
 1190 010b 05       		.byte	0x5
 1191 010c 5E       		.byte	0x5e
 1192 010d 2A020000 		.4byte	0x22a
 1193 0111 06       		.uleb128 0x6
 1194 0112 C5020000 		.4byte	.LASF23
 1195 0116 05       		.byte	0x5
 1196 0117 5F       		.byte	0x5f
 1197 0118 4F020000 		.4byte	0x24f
 1198 011c 02       		.byte	0x2
 1199 011d 23       		.byte	0x23
 1200 011e 00       		.uleb128 0
 1201 011f 06       		.uleb128 0x6
 1202 0120 4B020000 		.4byte	.LASF24
 1203 0124 05       		.byte	0x5
 1204 0125 61       		.byte	0x61
 1205 0126 4F020000 		.4byte	0x24f
 1206 012a 02       		.byte	0x2
 1207 012b 23       		.byte	0x23
 1208 012c 04       		.uleb128 0x4
 1209 012d 06       		.uleb128 0x6
 1210 012e 3F000000 		.4byte	.LASF25
 1211 0132 05       		.byte	0x5
 1212 0133 63       		.byte	0x63
 1213 0134 C3000000 		.4byte	0xc3
 1214 0138 02       		.byte	0x2
 1215 0139 23       		.byte	0x23
 1216 013a 08       		.uleb128 0x8
 1217 013b 06       		.uleb128 0x6
 1218 013c 16040000 		.4byte	.LASF26
 1219 0140 05       		.byte	0x5
 1220 0141 64       		.byte	0x64
 1221 0142 1D030000 		.4byte	0x31d
 1222 0146 02       		.byte	0x2
 1223 0147 23       		.byte	0x23
 1224 0148 0C       		.uleb128 0xc
 1225 0149 06       		.uleb128 0x6
 1226 014a AD000000 		.4byte	.LASF27
 1227 014e 05       		.byte	0x5
 1228 014f 66       		.byte	0x66
 1229 0150 4F020000 		.4byte	0x24f
 1230 0154 02       		.byte	0x2
ARM GAS  /tmp/ccRwVlcw.s 			page 23


 1231 0155 23       		.byte	0x23
 1232 0156 10       		.uleb128 0x10
 1233 0157 06       		.uleb128 0x6
 1234 0158 ED010000 		.4byte	.LASF28
 1235 015c 05       		.byte	0x5
 1236 015d 67       		.byte	0x67
 1237 015e 4F020000 		.4byte	0x24f
 1238 0162 02       		.byte	0x2
 1239 0163 23       		.byte	0x23
 1240 0164 14       		.uleb128 0x14
 1241 0165 06       		.uleb128 0x6
 1242 0166 EE030000 		.4byte	.LASF29
 1243 016a 05       		.byte	0x5
 1244 016b 6E       		.byte	0x6e
 1245 016c 4D050000 		.4byte	0x54d
 1246 0170 02       		.byte	0x2
 1247 0171 23       		.byte	0x23
 1248 0172 18       		.uleb128 0x18
 1249 0173 06       		.uleb128 0x6
 1250 0174 9D020000 		.4byte	.LASF30
 1251 0178 05       		.byte	0x5
 1252 0179 79       		.byte	0x79
 1253 017a A2000000 		.4byte	0xa2
 1254 017e 02       		.byte	0x2
 1255 017f 23       		.byte	0x23
 1256 0180 1C       		.uleb128 0x1c
 1257 0181 06       		.uleb128 0x6
 1258 0182 CC020000 		.4byte	.LASF31
 1259 0186 05       		.byte	0x5
 1260 0187 7D       		.byte	0x7d
 1261 0188 97000000 		.4byte	0x97
 1262 018c 02       		.byte	0x2
 1263 018d 23       		.byte	0x23
 1264 018e 1D       		.uleb128 0x1d
 1265 018f 06       		.uleb128 0x6
 1266 0190 C8030000 		.4byte	.LASF32
 1267 0194 05       		.byte	0x5
 1268 0195 82       		.byte	0x82
 1269 0196 AD000000 		.4byte	0xad
 1270 019a 02       		.byte	0x2
 1271 019b 23       		.byte	0x23
 1272 019c 1E       		.uleb128 0x1e
 1273 019d 06       		.uleb128 0x6
 1274 019e A5020000 		.4byte	.LASF33
 1275 01a2 05       		.byte	0x5
 1276 01a3 88       		.byte	0x88
 1277 01a4 B8000000 		.4byte	0xb8
 1278 01a8 02       		.byte	0x2
 1279 01a9 23       		.byte	0x23
 1280 01aa 1F       		.uleb128 0x1f
 1281 01ab 06       		.uleb128 0x6
 1282 01ac 93030000 		.4byte	.LASF34
 1283 01b0 05       		.byte	0x5
 1284 01b1 8F       		.byte	0x8f
 1285 01b2 02040000 		.4byte	0x402
 1286 01b6 02       		.byte	0x2
 1287 01b7 23       		.byte	0x23
ARM GAS  /tmp/ccRwVlcw.s 			page 24


 1288 01b8 20       		.uleb128 0x20
 1289 01b9 07       		.uleb128 0x7
 1290 01ba 705F7500 		.ascii	"p_u\000"
 1291 01be 05       		.byte	0x5
 1292 01bf B4       		.byte	0xb4
 1293 01c0 18050000 		.4byte	0x518
 1294 01c4 02       		.byte	0x2
 1295 01c5 23       		.byte	0x23
 1296 01c6 24       		.uleb128 0x24
 1297 01c7 06       		.uleb128 0x6
 1298 01c8 1C040000 		.4byte	.LASF35
 1299 01cc 05       		.byte	0x5
 1300 01cd B9       		.byte	0xb9
 1301 01ce 77020000 		.4byte	0x277
 1302 01d2 02       		.byte	0x2
 1303 01d3 23       		.byte	0x23
 1304 01d4 28       		.uleb128 0x28
 1305 01d5 06       		.uleb128 0x6
 1306 01d6 A1030000 		.4byte	.LASF36
 1307 01da 05       		.byte	0x5
 1308 01db BF       		.byte	0xbf
 1309 01dc 55020000 		.4byte	0x255
 1310 01e0 02       		.byte	0x2
 1311 01e1 23       		.byte	0x23
 1312 01e2 2C       		.uleb128 0x2c
 1313 01e3 06       		.uleb128 0x6
 1314 01e4 00000000 		.4byte	.LASF37
 1315 01e8 05       		.byte	0x5
 1316 01e9 C3       		.byte	0xc3
 1317 01ea CE000000 		.4byte	0xce
 1318 01ee 02       		.byte	0x2
 1319 01ef 23       		.byte	0x23
 1320 01f0 34       		.uleb128 0x34
 1321 01f1 06       		.uleb128 0x6
 1322 01f2 E4020000 		.4byte	.LASF38
 1323 01f6 05       		.byte	0x5
 1324 01f7 C9       		.byte	0xc9
 1325 01f8 D9000000 		.4byte	0xd9
 1326 01fc 02       		.byte	0x2
 1327 01fd 23       		.byte	0x23
 1328 01fe 38       		.uleb128 0x38
 1329 01ff 06       		.uleb128 0x6
 1330 0200 7E020000 		.4byte	.LASF39
 1331 0204 05       		.byte	0x5
 1332 0205 D0       		.byte	0xd0
 1333 0206 5F050000 		.4byte	0x55f
 1334 020a 02       		.byte	0x2
 1335 020b 23       		.byte	0x23
 1336 020c 3C       		.uleb128 0x3c
 1337 020d 06       		.uleb128 0x6
 1338 020e 7F030000 		.4byte	.LASF40
 1339 0212 05       		.byte	0x5
 1340 0213 D4       		.byte	0xd4
 1341 0214 C3000000 		.4byte	0xc3
 1342 0218 02       		.byte	0x2
 1343 0219 23       		.byte	0x23
 1344 021a 40       		.uleb128 0x40
ARM GAS  /tmp/ccRwVlcw.s 			page 25


 1345 021b 06       		.uleb128 0x6
 1346 021c 60000000 		.4byte	.LASF41
 1347 0220 05       		.byte	0x5
 1348 0221 DA       		.byte	0xda
 1349 0222 8D020000 		.4byte	0x28d
 1350 0226 02       		.byte	0x2
 1351 0227 23       		.byte	0x23
 1352 0228 44       		.uleb128 0x44
 1353 0229 00       		.byte	0
 1354 022a 08       		.uleb128 0x8
 1355 022b 08       		.byte	0x8
 1356 022c 04       		.byte	0x4
 1357 022d 61       		.byte	0x61
 1358 022e 4F020000 		.4byte	0x24f
 1359 0232 06       		.uleb128 0x6
 1360 0233 C5020000 		.4byte	.LASF23
 1361 0237 04       		.byte	0x4
 1362 0238 62       		.byte	0x62
 1363 0239 4F020000 		.4byte	0x24f
 1364 023d 02       		.byte	0x2
 1365 023e 23       		.byte	0x23
 1366 023f 00       		.uleb128 0
 1367 0240 06       		.uleb128 0x6
 1368 0241 4B020000 		.4byte	.LASF24
 1369 0245 04       		.byte	0x4
 1370 0246 64       		.byte	0x64
 1371 0247 4F020000 		.4byte	0x24f
 1372 024b 02       		.byte	0x2
 1373 024c 23       		.byte	0x23
 1374 024d 04       		.uleb128 0x4
 1375 024e 00       		.byte	0
 1376 024f 09       		.uleb128 0x9
 1377 0250 04       		.byte	0x4
 1378 0251 FA000000 		.4byte	0xfa
 1379 0255 04       		.uleb128 0x4
 1380 0256 13020000 		.4byte	.LASF42
 1381 025a 04       		.byte	0x4
 1382 025b 66       		.byte	0x66
 1383 025c 2A020000 		.4byte	0x22a
 1384 0260 08       		.uleb128 0x8
 1385 0261 04       		.byte	0x4
 1386 0262 04       		.byte	0x4
 1387 0263 6B       		.byte	0x6b
 1388 0264 77020000 		.4byte	0x277
 1389 0268 06       		.uleb128 0x6
 1390 0269 C5020000 		.4byte	.LASF23
 1391 026d 04       		.byte	0x4
 1392 026e 6D       		.byte	0x6d
 1393 026f 4F020000 		.4byte	0x24f
 1394 0273 02       		.byte	0x2
 1395 0274 23       		.byte	0x23
 1396 0275 00       		.uleb128 0
 1397 0276 00       		.byte	0
 1398 0277 04       		.uleb128 0x4
 1399 0278 9D010000 		.4byte	.LASF43
 1400 027c 04       		.byte	0x4
 1401 027d 70       		.byte	0x70
ARM GAS  /tmp/ccRwVlcw.s 			page 26


 1402 027e 60020000 		.4byte	0x260
 1403 0282 04       		.uleb128 0x4
 1404 0283 C5000000 		.4byte	.LASF44
 1405 0287 06       		.byte	0x6
 1406 0288 E5       		.byte	0xe5
 1407 0289 8D020000 		.4byte	0x28d
 1408 028d 0A       		.uleb128 0xa
 1409 028e 04       		.byte	0x4
 1410 028f 0B       		.uleb128 0xb
 1411 0290 9A030000 		.4byte	.LASF45
 1412 0294 24       		.byte	0x24
 1413 0295 06       		.byte	0x6
 1414 0296 0C01     		.2byte	0x10c
 1415 0298 1D030000 		.4byte	0x31d
 1416 029c 0C       		.uleb128 0xc
 1417 029d 723400   		.ascii	"r4\000"
 1418 02a0 06       		.byte	0x6
 1419 02a1 1F01     		.2byte	0x11f
 1420 02a3 82020000 		.4byte	0x282
 1421 02a7 02       		.byte	0x2
 1422 02a8 23       		.byte	0x23
 1423 02a9 00       		.uleb128 0
 1424 02aa 0C       		.uleb128 0xc
 1425 02ab 723500   		.ascii	"r5\000"
 1426 02ae 06       		.byte	0x6
 1427 02af 2001     		.2byte	0x120
 1428 02b1 82020000 		.4byte	0x282
 1429 02b5 02       		.byte	0x2
 1430 02b6 23       		.byte	0x23
 1431 02b7 04       		.uleb128 0x4
 1432 02b8 0C       		.uleb128 0xc
 1433 02b9 723600   		.ascii	"r6\000"
 1434 02bc 06       		.byte	0x6
 1435 02bd 2101     		.2byte	0x121
 1436 02bf 82020000 		.4byte	0x282
 1437 02c3 02       		.byte	0x2
 1438 02c4 23       		.byte	0x23
 1439 02c5 08       		.uleb128 0x8
 1440 02c6 0C       		.uleb128 0xc
 1441 02c7 723700   		.ascii	"r7\000"
 1442 02ca 06       		.byte	0x6
 1443 02cb 2201     		.2byte	0x122
 1444 02cd 82020000 		.4byte	0x282
 1445 02d1 02       		.byte	0x2
 1446 02d2 23       		.byte	0x23
 1447 02d3 0C       		.uleb128 0xc
 1448 02d4 0C       		.uleb128 0xc
 1449 02d5 723800   		.ascii	"r8\000"
 1450 02d8 06       		.byte	0x6
 1451 02d9 2301     		.2byte	0x123
 1452 02db 82020000 		.4byte	0x282
 1453 02df 02       		.byte	0x2
 1454 02e0 23       		.byte	0x23
 1455 02e1 10       		.uleb128 0x10
 1456 02e2 0C       		.uleb128 0xc
 1457 02e3 723900   		.ascii	"r9\000"
 1458 02e6 06       		.byte	0x6
ARM GAS  /tmp/ccRwVlcw.s 			page 27


 1459 02e7 2401     		.2byte	0x124
 1460 02e9 82020000 		.4byte	0x282
 1461 02ed 02       		.byte	0x2
 1462 02ee 23       		.byte	0x23
 1463 02ef 14       		.uleb128 0x14
 1464 02f0 0C       		.uleb128 0xc
 1465 02f1 72313000 		.ascii	"r10\000"
 1466 02f5 06       		.byte	0x6
 1467 02f6 2501     		.2byte	0x125
 1468 02f8 82020000 		.4byte	0x282
 1469 02fc 02       		.byte	0x2
 1470 02fd 23       		.byte	0x23
 1471 02fe 18       		.uleb128 0x18
 1472 02ff 0C       		.uleb128 0xc
 1473 0300 72313100 		.ascii	"r11\000"
 1474 0304 06       		.byte	0x6
 1475 0305 2601     		.2byte	0x126
 1476 0307 82020000 		.4byte	0x282
 1477 030b 02       		.byte	0x2
 1478 030c 23       		.byte	0x23
 1479 030d 1C       		.uleb128 0x1c
 1480 030e 0C       		.uleb128 0xc
 1481 030f 6C7200   		.ascii	"lr\000"
 1482 0312 06       		.byte	0x6
 1483 0313 2701     		.2byte	0x127
 1484 0315 82020000 		.4byte	0x282
 1485 0319 02       		.byte	0x2
 1486 031a 23       		.byte	0x23
 1487 031b 20       		.uleb128 0x20
 1488 031c 00       		.byte	0
 1489 031d 0B       		.uleb128 0xb
 1490 031e 4D010000 		.4byte	.LASF46
 1491 0322 04       		.byte	0x4
 1492 0323 06       		.byte	0x6
 1493 0324 3101     		.2byte	0x131
 1494 0326 3A030000 		.4byte	0x33a
 1495 032a 0C       		.uleb128 0xc
 1496 032b 72313300 		.ascii	"r13\000"
 1497 032f 06       		.byte	0x6
 1498 0330 3201     		.2byte	0x132
 1499 0332 3A030000 		.4byte	0x33a
 1500 0336 02       		.byte	0x2
 1501 0337 23       		.byte	0x23
 1502 0338 00       		.uleb128 0
 1503 0339 00       		.byte	0
 1504 033a 09       		.uleb128 0x9
 1505 033b 04       		.byte	0x4
 1506 033c 8F020000 		.4byte	0x28f
 1507 0340 04       		.uleb128 0x4
 1508 0341 8A030000 		.4byte	.LASF47
 1509 0345 07       		.byte	0x7
 1510 0346 58       		.byte	0x58
 1511 0347 4B030000 		.4byte	0x34b
 1512 034b 09       		.uleb128 0x9
 1513 034c 04       		.byte	0x4
 1514 034d 51030000 		.4byte	0x351
 1515 0351 0D       		.uleb128 0xd
ARM GAS  /tmp/ccRwVlcw.s 			page 28


 1516 0352 01       		.byte	0x1
 1517 0353 5D030000 		.4byte	0x35d
 1518 0357 0E       		.uleb128 0xe
 1519 0358 8D020000 		.4byte	0x28d
 1520 035c 00       		.byte	0
 1521 035d 04       		.uleb128 0x4
 1522 035e 0D030000 		.4byte	.LASF48
 1523 0362 07       		.byte	0x7
 1524 0363 5D       		.byte	0x5d
 1525 0364 68030000 		.4byte	0x368
 1526 0368 05       		.uleb128 0x5
 1527 0369 0D030000 		.4byte	.LASF48
 1528 036d 14       		.byte	0x14
 1529 036e 07       		.byte	0x7
 1530 036f 64       		.byte	0x64
 1531 0370 BB030000 		.4byte	0x3bb
 1532 0374 06       		.uleb128 0x6
 1533 0375 EE000000 		.4byte	.LASF49
 1534 0379 07       		.byte	0x7
 1535 037a 65       		.byte	0x65
 1536 037b BB030000 		.4byte	0x3bb
 1537 037f 02       		.byte	0x2
 1538 0380 23       		.byte	0x23
 1539 0381 00       		.uleb128 0
 1540 0382 06       		.uleb128 0x6
 1541 0383 CE000000 		.4byte	.LASF50
 1542 0387 07       		.byte	0x7
 1543 0388 67       		.byte	0x67
 1544 0389 BB030000 		.4byte	0x3bb
 1545 038d 02       		.byte	0x2
 1546 038e 23       		.byte	0x23
 1547 038f 04       		.uleb128 0x4
 1548 0390 06       		.uleb128 0x6
 1549 0391 D2010000 		.4byte	.LASF51
 1550 0395 07       		.byte	0x7
 1551 0396 69       		.byte	0x69
 1552 0397 E4000000 		.4byte	0xe4
 1553 039b 02       		.byte	0x2
 1554 039c 23       		.byte	0x23
 1555 039d 08       		.uleb128 0x8
 1556 039e 06       		.uleb128 0x6
 1557 039f DA010000 		.4byte	.LASF52
 1558 03a3 07       		.byte	0x7
 1559 03a4 6A       		.byte	0x6a
 1560 03a5 40030000 		.4byte	0x340
 1561 03a9 02       		.byte	0x2
 1562 03aa 23       		.byte	0x23
 1563 03ab 0C       		.uleb128 0xc
 1564 03ac 06       		.uleb128 0x6
 1565 03ad AC030000 		.4byte	.LASF53
 1566 03b1 07       		.byte	0x7
 1567 03b2 6C       		.byte	0x6c
 1568 03b3 8D020000 		.4byte	0x28d
 1569 03b7 02       		.byte	0x2
 1570 03b8 23       		.byte	0x23
 1571 03b9 10       		.uleb128 0x10
 1572 03ba 00       		.byte	0
ARM GAS  /tmp/ccRwVlcw.s 			page 29


 1573 03bb 09       		.uleb128 0x9
 1574 03bc 04       		.byte	0x4
 1575 03bd 5D030000 		.4byte	0x35d
 1576 03c1 08       		.uleb128 0x8
 1577 03c2 10       		.byte	0x10
 1578 03c3 07       		.byte	0x7
 1579 03c4 76       		.byte	0x76
 1580 03c5 02040000 		.4byte	0x402
 1581 03c9 06       		.uleb128 0x6
 1582 03ca EE000000 		.4byte	.LASF49
 1583 03ce 07       		.byte	0x7
 1584 03cf 77       		.byte	0x77
 1585 03d0 BB030000 		.4byte	0x3bb
 1586 03d4 02       		.byte	0x2
 1587 03d5 23       		.byte	0x23
 1588 03d6 00       		.uleb128 0
 1589 03d7 06       		.uleb128 0x6
 1590 03d8 CE000000 		.4byte	.LASF50
 1591 03dc 07       		.byte	0x7
 1592 03dd 79       		.byte	0x79
 1593 03de BB030000 		.4byte	0x3bb
 1594 03e2 02       		.byte	0x2
 1595 03e3 23       		.byte	0x23
 1596 03e4 04       		.uleb128 0x4
 1597 03e5 06       		.uleb128 0x6
 1598 03e6 D2010000 		.4byte	.LASF51
 1599 03ea 07       		.byte	0x7
 1600 03eb 7B       		.byte	0x7b
 1601 03ec E4000000 		.4byte	0xe4
 1602 03f0 02       		.byte	0x2
 1603 03f1 23       		.byte	0x23
 1604 03f2 08       		.uleb128 0x8
 1605 03f3 06       		.uleb128 0x6
 1606 03f4 F5030000 		.4byte	.LASF54
 1607 03f8 07       		.byte	0x7
 1608 03f9 7C       		.byte	0x7c
 1609 03fa 02040000 		.4byte	0x402
 1610 03fe 02       		.byte	0x2
 1611 03ff 23       		.byte	0x23
 1612 0400 0C       		.uleb128 0xc
 1613 0401 00       		.byte	0
 1614 0402 0F       		.uleb128 0xf
 1615 0403 E4000000 		.4byte	0xe4
 1616 0407 04       		.uleb128 0x4
 1617 0408 07040000 		.4byte	.LASF55
 1618 040c 07       		.byte	0x7
 1619 040d 7D       		.byte	0x7d
 1620 040e C1030000 		.4byte	0x3c1
 1621 0412 08       		.uleb128 0x8
 1622 0413 1C       		.byte	0x1c
 1623 0414 08       		.byte	0x8
 1624 0415 5E       		.byte	0x5e
 1625 0416 6F040000 		.4byte	0x46f
 1626 041a 06       		.uleb128 0x6
 1627 041b 05030000 		.4byte	.LASF56
 1628 041f 08       		.byte	0x8
 1629 0420 5F       		.byte	0x5f
ARM GAS  /tmp/ccRwVlcw.s 			page 30


 1630 0421 55020000 		.4byte	0x255
 1631 0425 02       		.byte	0x2
 1632 0426 23       		.byte	0x23
 1633 0427 00       		.uleb128 0
 1634 0428 06       		.uleb128 0x6
 1635 0429 B7020000 		.4byte	.LASF57
 1636 042d 08       		.byte	0x8
 1637 042e 60       		.byte	0x60
 1638 042f C3000000 		.4byte	0xc3
 1639 0433 02       		.byte	0x2
 1640 0434 23       		.byte	0x23
 1641 0435 08       		.uleb128 0x8
 1642 0436 06       		.uleb128 0x6
 1643 0437 05020000 		.4byte	.LASF58
 1644 043b 08       		.byte	0x8
 1645 043c 62       		.byte	0x62
 1646 043d 1D030000 		.4byte	0x31d
 1647 0441 02       		.byte	0x2
 1648 0442 23       		.byte	0x23
 1649 0443 0C       		.uleb128 0xc
 1650 0444 06       		.uleb128 0x6
 1651 0445 BD000000 		.4byte	.LASF59
 1652 0449 08       		.byte	0x8
 1653 044a 65       		.byte	0x65
 1654 044b 4F020000 		.4byte	0x24f
 1655 044f 02       		.byte	0x2
 1656 0450 23       		.byte	0x23
 1657 0451 10       		.uleb128 0x10
 1658 0452 06       		.uleb128 0x6
 1659 0453 30020000 		.4byte	.LASF60
 1660 0457 08       		.byte	0x8
 1661 0458 66       		.byte	0x66
 1662 0459 4F020000 		.4byte	0x24f
 1663 045d 02       		.byte	0x2
 1664 045e 23       		.byte	0x23
 1665 045f 14       		.uleb128 0x14
 1666 0460 06       		.uleb128 0x6
 1667 0461 26020000 		.4byte	.LASF61
 1668 0465 08       		.byte	0x8
 1669 0466 69       		.byte	0x69
 1670 0467 4F020000 		.4byte	0x24f
 1671 046b 02       		.byte	0x2
 1672 046c 23       		.byte	0x23
 1673 046d 18       		.uleb128 0x18
 1674 046e 00       		.byte	0
 1675 046f 04       		.uleb128 0x4
 1676 0470 CF030000 		.4byte	.LASF62
 1677 0474 08       		.byte	0x8
 1678 0475 6B       		.byte	0x6b
 1679 0476 12040000 		.4byte	0x412
 1680 047a 05       		.uleb128 0x5
 1681 047b B3030000 		.4byte	.LASF63
 1682 047f 0C       		.byte	0xc
 1683 0480 09       		.byte	0x9
 1684 0481 2C       		.byte	0x2c
 1685 0482 A3040000 		.4byte	0x4a3
 1686 0486 06       		.uleb128 0x6
ARM GAS  /tmp/ccRwVlcw.s 			page 31


 1687 0487 B5000000 		.4byte	.LASF64
 1688 048b 09       		.byte	0x9
 1689 048c 2D       		.byte	0x2d
 1690 048d 55020000 		.4byte	0x255
 1691 0491 02       		.byte	0x2
 1692 0492 23       		.byte	0x23
 1693 0493 00       		.uleb128 0
 1694 0494 06       		.uleb128 0x6
 1695 0495 47010000 		.4byte	.LASF65
 1696 0499 09       		.byte	0x9
 1697 049a 2F       		.byte	0x2f
 1698 049b EF000000 		.4byte	0xef
 1699 049f 02       		.byte	0x2
 1700 04a0 23       		.byte	0x23
 1701 04a1 08       		.uleb128 0x8
 1702 04a2 00       		.byte	0
 1703 04a3 04       		.uleb128 0x4
 1704 04a4 B3030000 		.4byte	.LASF63
 1705 04a8 09       		.byte	0x9
 1706 04a9 30       		.byte	0x30
 1707 04aa 7A040000 		.4byte	0x47a
 1708 04ae 08       		.uleb128 0x8
 1709 04af 0C       		.byte	0xc
 1710 04b0 0A       		.byte	0xa
 1711 04b1 44       		.byte	0x44
 1712 04b2 C5040000 		.4byte	0x4c5
 1713 04b6 06       		.uleb128 0x6
 1714 04b7 00040000 		.4byte	.LASF66
 1715 04bb 0A       		.byte	0xa
 1716 04bc 45       		.byte	0x45
 1717 04bd A3040000 		.4byte	0x4a3
 1718 04c1 02       		.byte	0x2
 1719 04c2 23       		.byte	0x23
 1720 04c3 00       		.uleb128 0
 1721 04c4 00       		.byte	0
 1722 04c5 04       		.uleb128 0x4
 1723 04c6 1F030000 		.4byte	.LASF67
 1724 04ca 0A       		.byte	0xa
 1725 04cb 46       		.byte	0x46
 1726 04cc AE040000 		.4byte	0x4ae
 1727 04d0 05       		.uleb128 0x5
 1728 04d1 BF010000 		.4byte	.LASF68
 1729 04d5 10       		.byte	0x10
 1730 04d6 0B       		.byte	0xb
 1731 04d7 2C       		.byte	0x2c
 1732 04d8 07050000 		.4byte	0x507
 1733 04dc 06       		.uleb128 0x6
 1734 04dd 68000000 		.4byte	.LASF69
 1735 04e1 0B       		.byte	0xb
 1736 04e2 2D       		.byte	0x2d
 1737 04e3 55020000 		.4byte	0x255
 1738 04e7 02       		.byte	0x2
 1739 04e8 23       		.byte	0x23
 1740 04e9 00       		.uleb128 0
 1741 04ea 06       		.uleb128 0x6
 1742 04eb 0E040000 		.4byte	.LASF70
 1743 04ef 0B       		.byte	0xb
ARM GAS  /tmp/ccRwVlcw.s 			page 32


 1744 04f0 2F       		.byte	0x2f
 1745 04f1 4F020000 		.4byte	0x24f
 1746 04f5 02       		.byte	0x2
 1747 04f6 23       		.byte	0x23
 1748 04f7 08       		.uleb128 0x8
 1749 04f8 06       		.uleb128 0x6
 1750 04f9 6E030000 		.4byte	.LASF71
 1751 04fd 0B       		.byte	0xb
 1752 04fe 31       		.byte	0x31
 1753 04ff 07050000 		.4byte	0x507
 1754 0503 02       		.byte	0x2
 1755 0504 23       		.byte	0x23
 1756 0505 0C       		.uleb128 0xc
 1757 0506 00       		.byte	0
 1758 0507 09       		.uleb128 0x9
 1759 0508 04       		.byte	0x4
 1760 0509 D0040000 		.4byte	0x4d0
 1761 050d 04       		.uleb128 0x4
 1762 050e BF010000 		.4byte	.LASF68
 1763 0512 0B       		.byte	0xb
 1764 0513 33       		.byte	0x33
 1765 0514 D0040000 		.4byte	0x4d0
 1766 0518 10       		.uleb128 0x10
 1767 0519 04       		.byte	0x4
 1768 051a 05       		.byte	0x5
 1769 051b 96       		.byte	0x96
 1770 051c 4D050000 		.4byte	0x54d
 1771 0520 11       		.uleb128 0x11
 1772 0521 06000000 		.4byte	.LASF72
 1773 0525 05       		.byte	0x5
 1774 0526 9D       		.byte	0x9d
 1775 0527 CE000000 		.4byte	0xce
 1776 052b 11       		.uleb128 0x11
 1777 052c 36000000 		.4byte	.LASF73
 1778 0530 05       		.byte	0x5
 1779 0531 A4       		.byte	0xa4
 1780 0532 CE000000 		.4byte	0xce
 1781 0536 11       		.uleb128 0x11
 1782 0537 E7030000 		.4byte	.LASF74
 1783 053b 05       		.byte	0x5
 1784 053c AB       		.byte	0xab
 1785 053d 8D020000 		.4byte	0x28d
 1786 0541 11       		.uleb128 0x11
 1787 0542 BE020000 		.4byte	.LASF75
 1788 0546 05       		.byte	0x5
 1789 0547 B2       		.byte	0xb2
 1790 0548 D9000000 		.4byte	0xd9
 1791 054c 00       		.byte	0
 1792 054d 09       		.uleb128 0x9
 1793 054e 04       		.byte	0x4
 1794 054f 53050000 		.4byte	0x553
 1795 0553 12       		.uleb128 0x12
 1796 0554 58050000 		.4byte	0x558
 1797 0558 03       		.uleb128 0x3
 1798 0559 01       		.byte	0x1
 1799 055a 08       		.byte	0x8
 1800 055b 1A030000 		.4byte	.LASF76
ARM GAS  /tmp/ccRwVlcw.s 			page 33


 1801 055f 09       		.uleb128 0x9
 1802 0560 04       		.byte	0x4
 1803 0561 0D050000 		.4byte	0x50d
 1804 0565 05       		.uleb128 0x5
 1805 0566 DB020000 		.4byte	.LASF77
 1806 056a 10       		.byte	0x10
 1807 056b 0C       		.byte	0xc
 1808 056c 3B       		.byte	0x3b
 1809 056d AA050000 		.4byte	0x5aa
 1810 0571 06       		.uleb128 0x6
 1811 0572 42010000 		.4byte	.LASF78
 1812 0576 0C       		.byte	0xc
 1813 0577 3C       		.byte	0x3c
 1814 0578 4D050000 		.4byte	0x54d
 1815 057c 02       		.byte	0x2
 1816 057d 23       		.byte	0x23
 1817 057e 00       		.uleb128 0
 1818 057f 06       		.uleb128 0x6
 1819 0580 20020000 		.4byte	.LASF79
 1820 0584 0C       		.byte	0xc
 1821 0585 3D       		.byte	0x3d
 1822 0586 AC050000 		.4byte	0x5ac
 1823 058a 02       		.byte	0x2
 1824 058b 23       		.byte	0x23
 1825 058c 04       		.uleb128 0x4
 1826 058d 06       		.uleb128 0x6
 1827 058e 39010000 		.4byte	.LASF80
 1828 0592 0C       		.byte	0xc
 1829 0593 3E       		.byte	0x3e
 1830 0594 AC050000 		.4byte	0x5ac
 1831 0598 02       		.byte	0x2
 1832 0599 23       		.byte	0x23
 1833 059a 08       		.uleb128 0x8
 1834 059b 06       		.uleb128 0x6
 1835 059c 52020000 		.4byte	.LASF81
 1836 05a0 0C       		.byte	0xc
 1837 05a1 3F       		.byte	0x3f
 1838 05a2 AC050000 		.4byte	0x5ac
 1839 05a6 02       		.byte	0x2
 1840 05a7 23       		.byte	0x23
 1841 05a8 0C       		.uleb128 0xc
 1842 05a9 00       		.byte	0
 1843 05aa 13       		.uleb128 0x13
 1844 05ab 01       		.byte	0x1
 1845 05ac 09       		.uleb128 0x9
 1846 05ad 04       		.byte	0x4
 1847 05ae AA050000 		.4byte	0x5aa
 1848 05b2 14       		.uleb128 0x14
 1849 05b3 F6000000 		.4byte	.LASF105
 1850 05b7 01       		.byte	0x1
 1851 05b8 D9       		.byte	0xd9
 1852 05b9 01       		.byte	0x1
 1853 05ba 01       		.byte	0x1
 1854 05bb 15       		.uleb128 0x15
 1855 05bc 82000000 		.4byte	.LASF106
 1856 05c0 01       		.byte	0x1
 1857 05c1 90       		.byte	0x90
ARM GAS  /tmp/ccRwVlcw.s 			page 34


 1858 05c2 01       		.byte	0x1
 1859 05c3 01       		.byte	0x1
 1860 05c4 E8050000 		.4byte	0x5e8
 1861 05c8 16       		.uleb128 0x16
 1862 05c9 6900     		.ascii	"i\000"
 1863 05cb 01       		.byte	0x1
 1864 05cc 91       		.byte	0x91
 1865 05cd 29000000 		.4byte	0x29
 1866 05d1 17       		.uleb128 0x17
 1867 05d2 98000000 		.4byte	.LASF82
 1868 05d6 01       		.byte	0x1
 1869 05d7 92       		.byte	0x92
 1870 05d8 E4000000 		.4byte	0xe4
 1871 05dc 16       		.uleb128 0x16
 1872 05dd 6D736700 		.ascii	"msg\000"
 1873 05e1 01       		.byte	0x1
 1874 05e2 93       		.byte	0x93
 1875 05e3 CE000000 		.4byte	0xce
 1876 05e7 00       		.byte	0
 1877 05e8 18       		.uleb128 0x18
 1878 05e9 BD030000 		.4byte	.LASF83
 1879 05ed 01       		.byte	0x1
 1880 05ee CC       		.byte	0xcc
 1881 05ef 01       		.byte	0x1
 1882 05f0 00000000 		.4byte	.LFB13
 1883 05f4 0E000000 		.4byte	.LFE13
 1884 05f8 02       		.byte	0x2
 1885 05f9 7D       		.byte	0x7d
 1886 05fa 00       		.sleb128 0
 1887 05fb 18       		.uleb128 0x18
 1888 05fc 0D000000 		.4byte	.LASF84
 1889 0600 01       		.byte	0x1
 1890 0601 80       		.byte	0x80
 1891 0602 01       		.byte	0x1
 1892 0603 00000000 		.4byte	.LFB10
 1893 0607 0E000000 		.4byte	.LFE10
 1894 060b 02       		.byte	0x2
 1895 060c 7D       		.byte	0x7d
 1896 060d 00       		.sleb128 0
 1897 060e 18       		.uleb128 0x18
 1898 060f E2010000 		.4byte	.LASF85
 1899 0613 01       		.byte	0x1
 1900 0614 48       		.byte	0x48
 1901 0615 01       		.byte	0x1
 1902 0616 00000000 		.4byte	.LFB7
 1903 061a 0E000000 		.4byte	.LFE7
 1904 061e 02       		.byte	0x2
 1905 061f 7D       		.byte	0x7d
 1906 0620 00       		.sleb128 0
 1907 0621 19       		.uleb128 0x19
 1908 0622 C5010000 		.4byte	.LASF91
 1909 0626 01       		.byte	0x1
 1910 0627 FB       		.byte	0xfb
 1911 0628 01       		.byte	0x1
 1912 0629 00000000 		.4byte	.LFB17
 1913 062d 00010000 		.4byte	.LFE17
 1914 0631 00000000 		.4byte	.LLST0
ARM GAS  /tmp/ccRwVlcw.s 			page 35


 1915 0635 BC060000 		.4byte	0x6bc
 1916 0639 1A       		.uleb128 0x1a
 1917 063a 68010000 		.4byte	.LASF86
 1918 063e 01       		.byte	0x1
 1919 063f FC       		.byte	0xfc
 1920 0640 C5040000 		.4byte	0x4c5
 1921 0644 02       		.byte	0x2
 1922 0645 91       		.byte	0x91
 1923 0646 6C       		.sleb128 -20
 1924 0647 1B       		.uleb128 0x1b
 1925 0648 62000000 		.4byte	.LBB2
 1926 064c 68000000 		.4byte	.LBE2
 1927 0650 65060000 		.4byte	0x665
 1928 0654 1C       		.uleb128 0x1c
 1929 0655 746D7000 		.ascii	"tmp\000"
 1930 0659 01       		.byte	0x1
 1931 065a 0F01     		.2byte	0x10f
 1932 065c 70000000 		.4byte	0x70
 1933 0660 2C000000 		.4byte	.LLST1
 1934 0664 00       		.byte	0
 1935 0665 1B       		.uleb128 0x1b
 1936 0666 72000000 		.4byte	.LBB3
 1937 066a 78000000 		.4byte	.LBE3
 1938 066e 83060000 		.4byte	0x683
 1939 0672 1C       		.uleb128 0x1c
 1940 0673 746D7000 		.ascii	"tmp\000"
 1941 0677 01       		.byte	0x1
 1942 0678 0F01     		.2byte	0x10f
 1943 067a 70000000 		.4byte	0x70
 1944 067e 3F000000 		.4byte	.LLST2
 1945 0682 00       		.byte	0
 1946 0683 1B       		.uleb128 0x1b
 1947 0684 A2000000 		.4byte	.LBB4
 1948 0688 A8000000 		.4byte	.LBE4
 1949 068c A1060000 		.4byte	0x6a1
 1950 0690 1C       		.uleb128 0x1c
 1951 0691 746D7000 		.ascii	"tmp\000"
 1952 0695 01       		.byte	0x1
 1953 0696 1401     		.2byte	0x114
 1954 0698 70000000 		.4byte	0x70
 1955 069c 52000000 		.4byte	.LLST3
 1956 06a0 00       		.byte	0
 1957 06a1 1D       		.uleb128 0x1d
 1958 06a2 B2000000 		.4byte	.LBB5
 1959 06a6 B8000000 		.4byte	.LBE5
 1960 06aa 1C       		.uleb128 0x1c
 1961 06ab 746D7000 		.ascii	"tmp\000"
 1962 06af 01       		.byte	0x1
 1963 06b0 1401     		.2byte	0x114
 1964 06b2 70000000 		.4byte	0x70
 1965 06b6 65000000 		.4byte	.LLST4
 1966 06ba 00       		.byte	0
 1967 06bb 00       		.byte	0
 1968 06bc 1E       		.uleb128 0x1e
 1969 06bd 0B020000 		.4byte	.LASF87
 1970 06c1 01       		.byte	0x1
 1971 06c2 F5       		.byte	0xf5
ARM GAS  /tmp/ccRwVlcw.s 			page 36


 1972 06c3 01       		.byte	0x1
 1973 06c4 CE000000 		.4byte	0xce
 1974 06c8 00000000 		.4byte	.LFB16
 1975 06cc 22000000 		.4byte	.LFE16
 1976 06d0 78000000 		.4byte	.LLST5
 1977 06d4 1C070000 		.4byte	0x71c
 1978 06d8 1F       		.uleb128 0x1f
 1979 06d9 7000     		.ascii	"p\000"
 1980 06db 01       		.byte	0x1
 1981 06dc F5       		.byte	0xf5
 1982 06dd 8D020000 		.4byte	0x28d
 1983 06e1 98000000 		.4byte	.LLST6
 1984 06e5 1B       		.uleb128 0x1b
 1985 06e6 02000000 		.4byte	.LBB6
 1986 06ea 08000000 		.4byte	.LBE6
 1987 06ee 02070000 		.4byte	0x702
 1988 06f2 20       		.uleb128 0x20
 1989 06f3 746D7000 		.ascii	"tmp\000"
 1990 06f7 01       		.byte	0x1
 1991 06f8 F7       		.byte	0xf7
 1992 06f9 70000000 		.4byte	0x70
 1993 06fd B6000000 		.4byte	.LLST7
 1994 0701 00       		.byte	0
 1995 0702 1D       		.uleb128 0x1d
 1996 0703 12000000 		.4byte	.LBB7
 1997 0707 18000000 		.4byte	.LBE7
 1998 070b 20       		.uleb128 0x20
 1999 070c 746D7000 		.ascii	"tmp\000"
 2000 0710 01       		.byte	0x1
 2001 0711 F7       		.byte	0xf7
 2002 0712 70000000 		.4byte	0x70
 2003 0716 C9000000 		.4byte	.LLST8
 2004 071a 00       		.byte	0
 2005 071b 00       		.byte	0
 2006 071c 1E       		.uleb128 0x1e
 2007 071d 70000000 		.4byte	.LASF88
 2008 0721 01       		.byte	0x1
 2009 0722 D1       		.byte	0xd1
 2010 0723 01       		.byte	0x1
 2011 0724 CE000000 		.4byte	0xce
 2012 0728 00000000 		.4byte	.LFB14
 2013 072c 1A000000 		.4byte	.LFE14
 2014 0730 DC000000 		.4byte	.LLST9
 2015 0734 46070000 		.4byte	0x746
 2016 0738 1F       		.uleb128 0x1f
 2017 0739 7000     		.ascii	"p\000"
 2018 073b 01       		.byte	0x1
 2019 073c D1       		.byte	0xd1
 2020 073d 8D020000 		.4byte	0x28d
 2021 0741 FC000000 		.4byte	.LLST10
 2022 0745 00       		.byte	0
 2023 0746 1E       		.uleb128 0x1e
 2024 0747 F5010000 		.4byte	.LASF89
 2025 074b 01       		.byte	0x1
 2026 074c 4D       		.byte	0x4d
 2027 074d 01       		.byte	0x1
 2028 074e CE000000 		.4byte	0xce
ARM GAS  /tmp/ccRwVlcw.s 			page 37


 2029 0752 00000000 		.4byte	.LFB8
 2030 0756 1A000000 		.4byte	.LFE8
 2031 075a 0F010000 		.4byte	.LLST11
 2032 075e 70070000 		.4byte	0x770
 2033 0762 1F       		.uleb128 0x1f
 2034 0763 7000     		.ascii	"p\000"
 2035 0765 01       		.byte	0x1
 2036 0766 4D       		.byte	0x4d
 2037 0767 8D020000 		.4byte	0x28d
 2038 076b 2F010000 		.4byte	.LLST12
 2039 076f 00       		.byte	0
 2040 0770 1E       		.uleb128 0x1e
 2041 0771 FD010000 		.4byte	.LASF90
 2042 0775 01       		.byte	0x1
 2043 0776 85       		.byte	0x85
 2044 0777 01       		.byte	0x1
 2045 0778 CE000000 		.4byte	0xce
 2046 077c 00000000 		.4byte	.LFB11
 2047 0780 28000000 		.4byte	.LFE11
 2048 0784 4D010000 		.4byte	.LLST13
 2049 0788 D0070000 		.4byte	0x7d0
 2050 078c 1F       		.uleb128 0x1f
 2051 078d 7000     		.ascii	"p\000"
 2052 078f 01       		.byte	0x1
 2053 0790 85       		.byte	0x85
 2054 0791 8D020000 		.4byte	0x28d
 2055 0795 6D010000 		.4byte	.LLST14
 2056 0799 1B       		.uleb128 0x1b
 2057 079a 08000000 		.4byte	.LBB8
 2058 079e 0E000000 		.4byte	.LBE8
 2059 07a2 B6070000 		.4byte	0x7b6
 2060 07a6 20       		.uleb128 0x20
 2061 07a7 746D7000 		.ascii	"tmp\000"
 2062 07ab 01       		.byte	0x1
 2063 07ac 89       		.byte	0x89
 2064 07ad 70000000 		.4byte	0x70
 2065 07b1 80010000 		.4byte	.LLST15
 2066 07b5 00       		.byte	0
 2067 07b6 1D       		.uleb128 0x1d
 2068 07b7 1E000000 		.4byte	.LBB9
 2069 07bb 24000000 		.4byte	.LBE9
 2070 07bf 20       		.uleb128 0x20
 2071 07c0 746D7000 		.ascii	"tmp\000"
 2072 07c4 01       		.byte	0x1
 2073 07c5 8C       		.byte	0x8c
 2074 07c6 70000000 		.4byte	0x70
 2075 07ca 93010000 		.4byte	.LLST16
 2076 07ce 00       		.byte	0
 2077 07cf 00       		.byte	0
 2078 07d0 19       		.uleb128 0x19
 2079 07d1 EF020000 		.4byte	.LASF92
 2080 07d5 01       		.byte	0x1
 2081 07d6 54       		.byte	0x54
 2082 07d7 01       		.byte	0x1
 2083 07d8 00000000 		.4byte	.LFB9
 2084 07dc 4C010000 		.4byte	.LFE9
 2085 07e0 A6010000 		.4byte	.LLST17
ARM GAS  /tmp/ccRwVlcw.s 			page 38


 2086 07e4 1B080000 		.4byte	0x81b
 2087 07e8 21       		.uleb128 0x21
 2088 07e9 00000000 		.4byte	.Ldebug_ranges0+0
 2089 07ed 01080000 		.4byte	0x801
 2090 07f1 20       		.uleb128 0x20
 2091 07f2 746D7000 		.ascii	"tmp\000"
 2092 07f6 01       		.byte	0x1
 2093 07f7 67       		.byte	0x67
 2094 07f8 70000000 		.4byte	0x70
 2095 07fc D2010000 		.4byte	.LLST18
 2096 0800 00       		.byte	0
 2097 0801 1D       		.uleb128 0x1d
 2098 0802 FC000000 		.4byte	.LBB12
 2099 0806 02010000 		.4byte	.LBE12
 2100 080a 20       		.uleb128 0x20
 2101 080b 746D7000 		.ascii	"tmp\000"
 2102 080f 01       		.byte	0x1
 2103 0810 69       		.byte	0x69
 2104 0811 70000000 		.4byte	0x70
 2105 0815 E5010000 		.4byte	.LLST19
 2106 0819 00       		.byte	0
 2107 081a 00       		.byte	0
 2108 081b 22       		.uleb128 0x22
 2109 081c B2050000 		.4byte	0x5b2
 2110 0820 00000000 		.4byte	.LFB15
 2111 0824 A0000000 		.4byte	.LFE15
 2112 0828 F8010000 		.4byte	.LLST20
 2113 082c 40080000 		.4byte	0x840
 2114 0830 23       		.uleb128 0x23
 2115 0831 B2050000 		.4byte	0x5b2
 2116 0835 56000000 		.4byte	.LBB15
 2117 0839 18000000 		.4byte	.Ldebug_ranges0+0x18
 2118 083d 01       		.byte	0x1
 2119 083e D9       		.byte	0xd9
 2120 083f 00       		.byte	0
 2121 0840 22       		.uleb128 0x22
 2122 0841 BB050000 		.4byte	0x5bb
 2123 0845 00000000 		.4byte	.LFB12
 2124 0849 58010000 		.4byte	.LFE12
 2125 084d 24020000 		.4byte	.LLST21
 2126 0851 97080000 		.4byte	0x897
 2127 0855 24       		.uleb128 0x24
 2128 0856 C8050000 		.4byte	0x5c8
 2129 085a 24       		.uleb128 0x24
 2130 085b D1050000 		.4byte	0x5d1
 2131 085f 25       		.uleb128 0x25
 2132 0860 DC050000 		.4byte	0x5dc
 2133 0864 50020000 		.4byte	.LLST22
 2134 0868 26       		.uleb128 0x26
 2135 0869 BB050000 		.4byte	0x5bb
 2136 086d 52000000 		.4byte	.LBB21
 2137 0871 30000000 		.4byte	.Ldebug_ranges0+0x30
 2138 0875 01       		.byte	0x1
 2139 0876 90       		.byte	0x90
 2140 0877 27       		.uleb128 0x27
 2141 0878 48000000 		.4byte	.Ldebug_ranges0+0x48
 2142 087c 24       		.uleb128 0x24
ARM GAS  /tmp/ccRwVlcw.s 			page 39


 2143 087d C8050000 		.4byte	0x5c8
 2144 0881 28       		.uleb128 0x28
 2145 0882 D1050000 		.4byte	0x5d1
 2146 0886 04       		.byte	0x4
 2147 0887 76       		.byte	0x76
 2148 0888 C413     		.sleb128 2500
 2149 088a 9F       		.byte	0x9f
 2150 088b 25       		.uleb128 0x25
 2151 088c DC050000 		.4byte	0x5dc
 2152 0890 70020000 		.4byte	.LLST23
 2153 0894 00       		.byte	0
 2154 0895 00       		.byte	0
 2155 0896 00       		.byte	0
 2156 0897 29       		.uleb128 0x29
 2157 0898 18000000 		.4byte	.LASF93
 2158 089c 07       		.byte	0x7
 2159 089d DB       		.byte	0xdb
 2160 089e 07040000 		.4byte	0x407
 2161 08a2 01       		.byte	0x1
 2162 08a3 01       		.byte	0x1
 2163 08a4 29       		.uleb128 0x29
 2164 08a5 D9030000 		.4byte	.LASF94
 2165 08a9 08       		.byte	0x8
 2166 08aa 6F       		.byte	0x6f
 2167 08ab 6F040000 		.4byte	0x46f
 2168 08af 01       		.byte	0x1
 2169 08b0 01       		.byte	0x1
 2170 08b1 2A       		.uleb128 0x2a
 2171 08b2 4F020000 		.4byte	0x24f
 2172 08b6 C1080000 		.4byte	0x8c1
 2173 08ba 2B       		.uleb128 0x2b
 2174 08bb 30000000 		.4byte	0x30
 2175 08bf 04       		.byte	0x4
 2176 08c0 00       		.byte	0
 2177 08c1 29       		.uleb128 0x29
 2178 08c2 AF020000 		.4byte	.LASF95
 2179 08c6 0C       		.byte	0xc
 2180 08c7 A5       		.byte	0xa5
 2181 08c8 B1080000 		.4byte	0x8b1
 2182 08cc 01       		.byte	0x1
 2183 08cd 01       		.byte	0x1
 2184 08ce 2A       		.uleb128 0x2a
 2185 08cf 8D020000 		.4byte	0x28d
 2186 08d3 D9080000 		.4byte	0x8d9
 2187 08d7 2C       		.uleb128 0x2c
 2188 08d8 00       		.byte	0
 2189 08d9 2D       		.uleb128 0x2d
 2190 08da 776100   		.ascii	"wa\000"
 2191 08dd 0C       		.byte	0xc
 2192 08de A7       		.byte	0xa7
 2193 08df E5080000 		.4byte	0x8e5
 2194 08e3 01       		.byte	0x1
 2195 08e4 01       		.byte	0x1
 2196 08e5 12       		.uleb128 0x12
 2197 08e6 CE080000 		.4byte	0x8ce
 2198 08ea 1A       		.uleb128 0x1a
 2199 08eb D6000000 		.4byte	.LASF96
ARM GAS  /tmp/ccRwVlcw.s 			page 40


 2200 08ef 01       		.byte	0x1
 2201 08f0 3B       		.byte	0x3b
 2202 08f1 A3040000 		.4byte	0x4a3
 2203 08f5 05       		.byte	0x5
 2204 08f6 03       		.byte	0x3
 2205 08f7 00000000 		.4byte	sem1
 2206 08fb 29       		.uleb128 0x29
 2207 08fc 03010000 		.4byte	.LASF97
 2208 0900 01       		.byte	0x1
 2209 0901 6E       		.byte	0x6e
 2210 0902 08090000 		.4byte	0x908
 2211 0906 01       		.byte	0x1
 2212 0907 01       		.byte	0x1
 2213 0908 12       		.uleb128 0x12
 2214 0909 65050000 		.4byte	0x565
 2215 090d 29       		.uleb128 0x29
 2216 090e 0C010000 		.4byte	.LASF98
 2217 0912 01       		.byte	0x1
 2218 0913 B8       		.byte	0xb8
 2219 0914 08090000 		.4byte	0x908
 2220 0918 01       		.byte	0x1
 2221 0919 01       		.byte	0x1
 2222 091a 29       		.uleb128 0x29
 2223 091b 15010000 		.4byte	.LASF99
 2224 091f 01       		.byte	0x1
 2225 0920 E5       		.byte	0xe5
 2226 0921 08090000 		.4byte	0x908
 2227 0925 01       		.byte	0x1
 2228 0926 01       		.byte	0x1
 2229 0927 2E       		.uleb128 0x2e
 2230 0928 1E010000 		.4byte	.LASF100
 2231 092c 01       		.byte	0x1
 2232 092d 1901     		.2byte	0x119
 2233 092f 08090000 		.4byte	0x908
 2234 0933 01       		.byte	0x1
 2235 0934 01       		.byte	0x1
 2236 0935 29       		.uleb128 0x29
 2237 0936 18000000 		.4byte	.LASF93
 2238 093a 07       		.byte	0x7
 2239 093b DB       		.byte	0xdb
 2240 093c 07040000 		.4byte	0x407
 2241 0940 01       		.byte	0x1
 2242 0941 01       		.byte	0x1
 2243 0942 29       		.uleb128 0x29
 2244 0943 D9030000 		.4byte	.LASF94
 2245 0947 08       		.byte	0x8
 2246 0948 6F       		.byte	0x6f
 2247 0949 6F040000 		.4byte	0x46f
 2248 094d 01       		.byte	0x1
 2249 094e 01       		.byte	0x1
 2250 094f 29       		.uleb128 0x29
 2251 0950 AF020000 		.4byte	.LASF95
 2252 0954 0C       		.byte	0xc
 2253 0955 A5       		.byte	0xa5
 2254 0956 B1080000 		.4byte	0x8b1
 2255 095a 01       		.byte	0x1
 2256 095b 01       		.byte	0x1
ARM GAS  /tmp/ccRwVlcw.s 			page 41


 2257 095c 2D       		.uleb128 0x2d
 2258 095d 776100   		.ascii	"wa\000"
 2259 0960 0C       		.byte	0xc
 2260 0961 A7       		.byte	0xa7
 2261 0962 68090000 		.4byte	0x968
 2262 0966 01       		.byte	0x1
 2263 0967 01       		.byte	0x1
 2264 0968 12       		.uleb128 0x12
 2265 0969 CE080000 		.4byte	0x8ce
 2266 096d 2F       		.uleb128 0x2f
 2267 096e 03010000 		.4byte	.LASF97
 2268 0972 01       		.byte	0x1
 2269 0973 6E       		.byte	0x6e
 2270 0974 08090000 		.4byte	0x908
 2271 0978 01       		.byte	0x1
 2272 0979 05       		.byte	0x5
 2273 097a 03       		.byte	0x3
 2274 097b 00000000 		.4byte	testsem1
 2275 097f 2F       		.uleb128 0x2f
 2276 0980 0C010000 		.4byte	.LASF98
 2277 0984 01       		.byte	0x1
 2278 0985 B8       		.byte	0xb8
 2279 0986 08090000 		.4byte	0x908
 2280 098a 01       		.byte	0x1
 2281 098b 05       		.byte	0x5
 2282 098c 03       		.byte	0x3
 2283 098d 00000000 		.4byte	testsem2
 2284 0991 2F       		.uleb128 0x2f
 2285 0992 15010000 		.4byte	.LASF99
 2286 0996 01       		.byte	0x1
 2287 0997 E5       		.byte	0xe5
 2288 0998 08090000 		.4byte	0x908
 2289 099c 01       		.byte	0x1
 2290 099d 05       		.byte	0x5
 2291 099e 03       		.byte	0x3
 2292 099f 00000000 		.4byte	testsem3
 2293 09a3 30       		.uleb128 0x30
 2294 09a4 1E010000 		.4byte	.LASF100
 2295 09a8 01       		.byte	0x1
 2296 09a9 1901     		.2byte	0x119
 2297 09ab 08090000 		.4byte	0x908
 2298 09af 01       		.byte	0x1
 2299 09b0 05       		.byte	0x5
 2300 09b1 03       		.byte	0x3
 2301 09b2 00000000 		.4byte	testsem4
 2302 09b6 2A       		.uleb128 0x2a
 2303 09b7 C6090000 		.4byte	0x9c6
 2304 09bb C6090000 		.4byte	0x9c6
 2305 09bf 2B       		.uleb128 0x2b
 2306 09c0 30000000 		.4byte	0x30
 2307 09c4 04       		.byte	0x4
 2308 09c5 00       		.byte	0
 2309 09c6 09       		.uleb128 0x9
 2310 09c7 04       		.byte	0x4
 2311 09c8 08090000 		.4byte	0x908
 2312 09cc 30       		.uleb128 0x30
 2313 09cd 38020000 		.4byte	.LASF101
ARM GAS  /tmp/ccRwVlcw.s 			page 42


 2314 09d1 01       		.byte	0x1
 2315 09d2 2401     		.2byte	0x124
 2316 09d4 DF090000 		.4byte	0x9df
 2317 09d8 01       		.byte	0x1
 2318 09d9 05       		.byte	0x5
 2319 09da 03       		.byte	0x3
 2320 09db 00000000 		.4byte	patternsem
 2321 09df 12       		.uleb128 0x12
 2322 09e0 B6090000 		.4byte	0x9b6
 2323 09e4 00       		.byte	0
 2324              		.section	.debug_abbrev,"",%progbits
 2325              	.Ldebug_abbrev0:
 2326 0000 01       		.uleb128 0x1
 2327 0001 11       		.uleb128 0x11
 2328 0002 01       		.byte	0x1
 2329 0003 25       		.uleb128 0x25
 2330 0004 0E       		.uleb128 0xe
 2331 0005 13       		.uleb128 0x13
 2332 0006 0B       		.uleb128 0xb
 2333 0007 03       		.uleb128 0x3
 2334 0008 0E       		.uleb128 0xe
 2335 0009 1B       		.uleb128 0x1b
 2336 000a 0E       		.uleb128 0xe
 2337 000b 11       		.uleb128 0x11
 2338 000c 01       		.uleb128 0x1
 2339 000d 52       		.uleb128 0x52
 2340 000e 01       		.uleb128 0x1
 2341 000f 55       		.uleb128 0x55
 2342 0010 06       		.uleb128 0x6
 2343 0011 10       		.uleb128 0x10
 2344 0012 06       		.uleb128 0x6
 2345 0013 00       		.byte	0
 2346 0014 00       		.byte	0
 2347 0015 02       		.uleb128 0x2
 2348 0016 24       		.uleb128 0x24
 2349 0017 00       		.byte	0
 2350 0018 0B       		.uleb128 0xb
 2351 0019 0B       		.uleb128 0xb
 2352 001a 3E       		.uleb128 0x3e
 2353 001b 0B       		.uleb128 0xb
 2354 001c 03       		.uleb128 0x3
 2355 001d 08       		.uleb128 0x8
 2356 001e 00       		.byte	0
 2357 001f 00       		.byte	0
 2358 0020 03       		.uleb128 0x3
 2359 0021 24       		.uleb128 0x24
 2360 0022 00       		.byte	0
 2361 0023 0B       		.uleb128 0xb
 2362 0024 0B       		.uleb128 0xb
 2363 0025 3E       		.uleb128 0x3e
 2364 0026 0B       		.uleb128 0xb
 2365 0027 03       		.uleb128 0x3
 2366 0028 0E       		.uleb128 0xe
 2367 0029 00       		.byte	0
 2368 002a 00       		.byte	0
 2369 002b 04       		.uleb128 0x4
 2370 002c 16       		.uleb128 0x16
ARM GAS  /tmp/ccRwVlcw.s 			page 43


 2371 002d 00       		.byte	0
 2372 002e 03       		.uleb128 0x3
 2373 002f 0E       		.uleb128 0xe
 2374 0030 3A       		.uleb128 0x3a
 2375 0031 0B       		.uleb128 0xb
 2376 0032 3B       		.uleb128 0x3b
 2377 0033 0B       		.uleb128 0xb
 2378 0034 49       		.uleb128 0x49
 2379 0035 13       		.uleb128 0x13
 2380 0036 00       		.byte	0
 2381 0037 00       		.byte	0
 2382 0038 05       		.uleb128 0x5
 2383 0039 13       		.uleb128 0x13
 2384 003a 01       		.byte	0x1
 2385 003b 03       		.uleb128 0x3
 2386 003c 0E       		.uleb128 0xe
 2387 003d 0B       		.uleb128 0xb
 2388 003e 0B       		.uleb128 0xb
 2389 003f 3A       		.uleb128 0x3a
 2390 0040 0B       		.uleb128 0xb
 2391 0041 3B       		.uleb128 0x3b
 2392 0042 0B       		.uleb128 0xb
 2393 0043 01       		.uleb128 0x1
 2394 0044 13       		.uleb128 0x13
 2395 0045 00       		.byte	0
 2396 0046 00       		.byte	0
 2397 0047 06       		.uleb128 0x6
 2398 0048 0D       		.uleb128 0xd
 2399 0049 00       		.byte	0
 2400 004a 03       		.uleb128 0x3
 2401 004b 0E       		.uleb128 0xe
 2402 004c 3A       		.uleb128 0x3a
 2403 004d 0B       		.uleb128 0xb
 2404 004e 3B       		.uleb128 0x3b
 2405 004f 0B       		.uleb128 0xb
 2406 0050 49       		.uleb128 0x49
 2407 0051 13       		.uleb128 0x13
 2408 0052 38       		.uleb128 0x38
 2409 0053 0A       		.uleb128 0xa
 2410 0054 00       		.byte	0
 2411 0055 00       		.byte	0
 2412 0056 07       		.uleb128 0x7
 2413 0057 0D       		.uleb128 0xd
 2414 0058 00       		.byte	0
 2415 0059 03       		.uleb128 0x3
 2416 005a 08       		.uleb128 0x8
 2417 005b 3A       		.uleb128 0x3a
 2418 005c 0B       		.uleb128 0xb
 2419 005d 3B       		.uleb128 0x3b
 2420 005e 0B       		.uleb128 0xb
 2421 005f 49       		.uleb128 0x49
 2422 0060 13       		.uleb128 0x13
 2423 0061 38       		.uleb128 0x38
 2424 0062 0A       		.uleb128 0xa
 2425 0063 00       		.byte	0
 2426 0064 00       		.byte	0
 2427 0065 08       		.uleb128 0x8
ARM GAS  /tmp/ccRwVlcw.s 			page 44


 2428 0066 13       		.uleb128 0x13
 2429 0067 01       		.byte	0x1
 2430 0068 0B       		.uleb128 0xb
 2431 0069 0B       		.uleb128 0xb
 2432 006a 3A       		.uleb128 0x3a
 2433 006b 0B       		.uleb128 0xb
 2434 006c 3B       		.uleb128 0x3b
 2435 006d 0B       		.uleb128 0xb
 2436 006e 01       		.uleb128 0x1
 2437 006f 13       		.uleb128 0x13
 2438 0070 00       		.byte	0
 2439 0071 00       		.byte	0
 2440 0072 09       		.uleb128 0x9
 2441 0073 0F       		.uleb128 0xf
 2442 0074 00       		.byte	0
 2443 0075 0B       		.uleb128 0xb
 2444 0076 0B       		.uleb128 0xb
 2445 0077 49       		.uleb128 0x49
 2446 0078 13       		.uleb128 0x13
 2447 0079 00       		.byte	0
 2448 007a 00       		.byte	0
 2449 007b 0A       		.uleb128 0xa
 2450 007c 0F       		.uleb128 0xf
 2451 007d 00       		.byte	0
 2452 007e 0B       		.uleb128 0xb
 2453 007f 0B       		.uleb128 0xb
 2454 0080 00       		.byte	0
 2455 0081 00       		.byte	0
 2456 0082 0B       		.uleb128 0xb
 2457 0083 13       		.uleb128 0x13
 2458 0084 01       		.byte	0x1
 2459 0085 03       		.uleb128 0x3
 2460 0086 0E       		.uleb128 0xe
 2461 0087 0B       		.uleb128 0xb
 2462 0088 0B       		.uleb128 0xb
 2463 0089 3A       		.uleb128 0x3a
 2464 008a 0B       		.uleb128 0xb
 2465 008b 3B       		.uleb128 0x3b
 2466 008c 05       		.uleb128 0x5
 2467 008d 01       		.uleb128 0x1
 2468 008e 13       		.uleb128 0x13
 2469 008f 00       		.byte	0
 2470 0090 00       		.byte	0
 2471 0091 0C       		.uleb128 0xc
 2472 0092 0D       		.uleb128 0xd
 2473 0093 00       		.byte	0
 2474 0094 03       		.uleb128 0x3
 2475 0095 08       		.uleb128 0x8
 2476 0096 3A       		.uleb128 0x3a
 2477 0097 0B       		.uleb128 0xb
 2478 0098 3B       		.uleb128 0x3b
 2479 0099 05       		.uleb128 0x5
 2480 009a 49       		.uleb128 0x49
 2481 009b 13       		.uleb128 0x13
 2482 009c 38       		.uleb128 0x38
 2483 009d 0A       		.uleb128 0xa
 2484 009e 00       		.byte	0
ARM GAS  /tmp/ccRwVlcw.s 			page 45


 2485 009f 00       		.byte	0
 2486 00a0 0D       		.uleb128 0xd
 2487 00a1 15       		.uleb128 0x15
 2488 00a2 01       		.byte	0x1
 2489 00a3 27       		.uleb128 0x27
 2490 00a4 0C       		.uleb128 0xc
 2491 00a5 01       		.uleb128 0x1
 2492 00a6 13       		.uleb128 0x13
 2493 00a7 00       		.byte	0
 2494 00a8 00       		.byte	0
 2495 00a9 0E       		.uleb128 0xe
 2496 00aa 05       		.uleb128 0x5
 2497 00ab 00       		.byte	0
 2498 00ac 49       		.uleb128 0x49
 2499 00ad 13       		.uleb128 0x13
 2500 00ae 00       		.byte	0
 2501 00af 00       		.byte	0
 2502 00b0 0F       		.uleb128 0xf
 2503 00b1 35       		.uleb128 0x35
 2504 00b2 00       		.byte	0
 2505 00b3 49       		.uleb128 0x49
 2506 00b4 13       		.uleb128 0x13
 2507 00b5 00       		.byte	0
 2508 00b6 00       		.byte	0
 2509 00b7 10       		.uleb128 0x10
 2510 00b8 17       		.uleb128 0x17
 2511 00b9 01       		.byte	0x1
 2512 00ba 0B       		.uleb128 0xb
 2513 00bb 0B       		.uleb128 0xb
 2514 00bc 3A       		.uleb128 0x3a
 2515 00bd 0B       		.uleb128 0xb
 2516 00be 3B       		.uleb128 0x3b
 2517 00bf 0B       		.uleb128 0xb
 2518 00c0 01       		.uleb128 0x1
 2519 00c1 13       		.uleb128 0x13
 2520 00c2 00       		.byte	0
 2521 00c3 00       		.byte	0
 2522 00c4 11       		.uleb128 0x11
 2523 00c5 0D       		.uleb128 0xd
 2524 00c6 00       		.byte	0
 2525 00c7 03       		.uleb128 0x3
 2526 00c8 0E       		.uleb128 0xe
 2527 00c9 3A       		.uleb128 0x3a
 2528 00ca 0B       		.uleb128 0xb
 2529 00cb 3B       		.uleb128 0x3b
 2530 00cc 0B       		.uleb128 0xb
 2531 00cd 49       		.uleb128 0x49
 2532 00ce 13       		.uleb128 0x13
 2533 00cf 00       		.byte	0
 2534 00d0 00       		.byte	0
 2535 00d1 12       		.uleb128 0x12
 2536 00d2 26       		.uleb128 0x26
 2537 00d3 00       		.byte	0
 2538 00d4 49       		.uleb128 0x49
 2539 00d5 13       		.uleb128 0x13
 2540 00d6 00       		.byte	0
 2541 00d7 00       		.byte	0
ARM GAS  /tmp/ccRwVlcw.s 			page 46


 2542 00d8 13       		.uleb128 0x13
 2543 00d9 15       		.uleb128 0x15
 2544 00da 00       		.byte	0
 2545 00db 27       		.uleb128 0x27
 2546 00dc 0C       		.uleb128 0xc
 2547 00dd 00       		.byte	0
 2548 00de 00       		.byte	0
 2549 00df 14       		.uleb128 0x14
 2550 00e0 2E       		.uleb128 0x2e
 2551 00e1 00       		.byte	0
 2552 00e2 03       		.uleb128 0x3
 2553 00e3 0E       		.uleb128 0xe
 2554 00e4 3A       		.uleb128 0x3a
 2555 00e5 0B       		.uleb128 0xb
 2556 00e6 3B       		.uleb128 0x3b
 2557 00e7 0B       		.uleb128 0xb
 2558 00e8 27       		.uleb128 0x27
 2559 00e9 0C       		.uleb128 0xc
 2560 00ea 20       		.uleb128 0x20
 2561 00eb 0B       		.uleb128 0xb
 2562 00ec 00       		.byte	0
 2563 00ed 00       		.byte	0
 2564 00ee 15       		.uleb128 0x15
 2565 00ef 2E       		.uleb128 0x2e
 2566 00f0 01       		.byte	0x1
 2567 00f1 03       		.uleb128 0x3
 2568 00f2 0E       		.uleb128 0xe
 2569 00f3 3A       		.uleb128 0x3a
 2570 00f4 0B       		.uleb128 0xb
 2571 00f5 3B       		.uleb128 0x3b
 2572 00f6 0B       		.uleb128 0xb
 2573 00f7 27       		.uleb128 0x27
 2574 00f8 0C       		.uleb128 0xc
 2575 00f9 20       		.uleb128 0x20
 2576 00fa 0B       		.uleb128 0xb
 2577 00fb 01       		.uleb128 0x1
 2578 00fc 13       		.uleb128 0x13
 2579 00fd 00       		.byte	0
 2580 00fe 00       		.byte	0
 2581 00ff 16       		.uleb128 0x16
 2582 0100 34       		.uleb128 0x34
 2583 0101 00       		.byte	0
 2584 0102 03       		.uleb128 0x3
 2585 0103 08       		.uleb128 0x8
 2586 0104 3A       		.uleb128 0x3a
 2587 0105 0B       		.uleb128 0xb
 2588 0106 3B       		.uleb128 0x3b
 2589 0107 0B       		.uleb128 0xb
 2590 0108 49       		.uleb128 0x49
 2591 0109 13       		.uleb128 0x13
 2592 010a 00       		.byte	0
 2593 010b 00       		.byte	0
 2594 010c 17       		.uleb128 0x17
 2595 010d 34       		.uleb128 0x34
 2596 010e 00       		.byte	0
 2597 010f 03       		.uleb128 0x3
 2598 0110 0E       		.uleb128 0xe
ARM GAS  /tmp/ccRwVlcw.s 			page 47


 2599 0111 3A       		.uleb128 0x3a
 2600 0112 0B       		.uleb128 0xb
 2601 0113 3B       		.uleb128 0x3b
 2602 0114 0B       		.uleb128 0xb
 2603 0115 49       		.uleb128 0x49
 2604 0116 13       		.uleb128 0x13
 2605 0117 00       		.byte	0
 2606 0118 00       		.byte	0
 2607 0119 18       		.uleb128 0x18
 2608 011a 2E       		.uleb128 0x2e
 2609 011b 00       		.byte	0
 2610 011c 03       		.uleb128 0x3
 2611 011d 0E       		.uleb128 0xe
 2612 011e 3A       		.uleb128 0x3a
 2613 011f 0B       		.uleb128 0xb
 2614 0120 3B       		.uleb128 0x3b
 2615 0121 0B       		.uleb128 0xb
 2616 0122 27       		.uleb128 0x27
 2617 0123 0C       		.uleb128 0xc
 2618 0124 11       		.uleb128 0x11
 2619 0125 01       		.uleb128 0x1
 2620 0126 12       		.uleb128 0x12
 2621 0127 01       		.uleb128 0x1
 2622 0128 40       		.uleb128 0x40
 2623 0129 0A       		.uleb128 0xa
 2624 012a 00       		.byte	0
 2625 012b 00       		.byte	0
 2626 012c 19       		.uleb128 0x19
 2627 012d 2E       		.uleb128 0x2e
 2628 012e 01       		.byte	0x1
 2629 012f 03       		.uleb128 0x3
 2630 0130 0E       		.uleb128 0xe
 2631 0131 3A       		.uleb128 0x3a
 2632 0132 0B       		.uleb128 0xb
 2633 0133 3B       		.uleb128 0x3b
 2634 0134 0B       		.uleb128 0xb
 2635 0135 27       		.uleb128 0x27
 2636 0136 0C       		.uleb128 0xc
 2637 0137 11       		.uleb128 0x11
 2638 0138 01       		.uleb128 0x1
 2639 0139 12       		.uleb128 0x12
 2640 013a 01       		.uleb128 0x1
 2641 013b 40       		.uleb128 0x40
 2642 013c 06       		.uleb128 0x6
 2643 013d 01       		.uleb128 0x1
 2644 013e 13       		.uleb128 0x13
 2645 013f 00       		.byte	0
 2646 0140 00       		.byte	0
 2647 0141 1A       		.uleb128 0x1a
 2648 0142 34       		.uleb128 0x34
 2649 0143 00       		.byte	0
 2650 0144 03       		.uleb128 0x3
 2651 0145 0E       		.uleb128 0xe
 2652 0146 3A       		.uleb128 0x3a
 2653 0147 0B       		.uleb128 0xb
 2654 0148 3B       		.uleb128 0x3b
 2655 0149 0B       		.uleb128 0xb
ARM GAS  /tmp/ccRwVlcw.s 			page 48


 2656 014a 49       		.uleb128 0x49
 2657 014b 13       		.uleb128 0x13
 2658 014c 02       		.uleb128 0x2
 2659 014d 0A       		.uleb128 0xa
 2660 014e 00       		.byte	0
 2661 014f 00       		.byte	0
 2662 0150 1B       		.uleb128 0x1b
 2663 0151 0B       		.uleb128 0xb
 2664 0152 01       		.byte	0x1
 2665 0153 11       		.uleb128 0x11
 2666 0154 01       		.uleb128 0x1
 2667 0155 12       		.uleb128 0x12
 2668 0156 01       		.uleb128 0x1
 2669 0157 01       		.uleb128 0x1
 2670 0158 13       		.uleb128 0x13
 2671 0159 00       		.byte	0
 2672 015a 00       		.byte	0
 2673 015b 1C       		.uleb128 0x1c
 2674 015c 34       		.uleb128 0x34
 2675 015d 00       		.byte	0
 2676 015e 03       		.uleb128 0x3
 2677 015f 08       		.uleb128 0x8
 2678 0160 3A       		.uleb128 0x3a
 2679 0161 0B       		.uleb128 0xb
 2680 0162 3B       		.uleb128 0x3b
 2681 0163 05       		.uleb128 0x5
 2682 0164 49       		.uleb128 0x49
 2683 0165 13       		.uleb128 0x13
 2684 0166 02       		.uleb128 0x2
 2685 0167 06       		.uleb128 0x6
 2686 0168 00       		.byte	0
 2687 0169 00       		.byte	0
 2688 016a 1D       		.uleb128 0x1d
 2689 016b 0B       		.uleb128 0xb
 2690 016c 01       		.byte	0x1
 2691 016d 11       		.uleb128 0x11
 2692 016e 01       		.uleb128 0x1
 2693 016f 12       		.uleb128 0x12
 2694 0170 01       		.uleb128 0x1
 2695 0171 00       		.byte	0
 2696 0172 00       		.byte	0
 2697 0173 1E       		.uleb128 0x1e
 2698 0174 2E       		.uleb128 0x2e
 2699 0175 01       		.byte	0x1
 2700 0176 03       		.uleb128 0x3
 2701 0177 0E       		.uleb128 0xe
 2702 0178 3A       		.uleb128 0x3a
 2703 0179 0B       		.uleb128 0xb
 2704 017a 3B       		.uleb128 0x3b
 2705 017b 0B       		.uleb128 0xb
 2706 017c 27       		.uleb128 0x27
 2707 017d 0C       		.uleb128 0xc
 2708 017e 49       		.uleb128 0x49
 2709 017f 13       		.uleb128 0x13
 2710 0180 11       		.uleb128 0x11
 2711 0181 01       		.uleb128 0x1
 2712 0182 12       		.uleb128 0x12
ARM GAS  /tmp/ccRwVlcw.s 			page 49


 2713 0183 01       		.uleb128 0x1
 2714 0184 40       		.uleb128 0x40
 2715 0185 06       		.uleb128 0x6
 2716 0186 01       		.uleb128 0x1
 2717 0187 13       		.uleb128 0x13
 2718 0188 00       		.byte	0
 2719 0189 00       		.byte	0
 2720 018a 1F       		.uleb128 0x1f
 2721 018b 05       		.uleb128 0x5
 2722 018c 00       		.byte	0
 2723 018d 03       		.uleb128 0x3
 2724 018e 08       		.uleb128 0x8
 2725 018f 3A       		.uleb128 0x3a
 2726 0190 0B       		.uleb128 0xb
 2727 0191 3B       		.uleb128 0x3b
 2728 0192 0B       		.uleb128 0xb
 2729 0193 49       		.uleb128 0x49
 2730 0194 13       		.uleb128 0x13
 2731 0195 02       		.uleb128 0x2
 2732 0196 06       		.uleb128 0x6
 2733 0197 00       		.byte	0
 2734 0198 00       		.byte	0
 2735 0199 20       		.uleb128 0x20
 2736 019a 34       		.uleb128 0x34
 2737 019b 00       		.byte	0
 2738 019c 03       		.uleb128 0x3
 2739 019d 08       		.uleb128 0x8
 2740 019e 3A       		.uleb128 0x3a
 2741 019f 0B       		.uleb128 0xb
 2742 01a0 3B       		.uleb128 0x3b
 2743 01a1 0B       		.uleb128 0xb
 2744 01a2 49       		.uleb128 0x49
 2745 01a3 13       		.uleb128 0x13
 2746 01a4 02       		.uleb128 0x2
 2747 01a5 06       		.uleb128 0x6
 2748 01a6 00       		.byte	0
 2749 01a7 00       		.byte	0
 2750 01a8 21       		.uleb128 0x21
 2751 01a9 0B       		.uleb128 0xb
 2752 01aa 01       		.byte	0x1
 2753 01ab 55       		.uleb128 0x55
 2754 01ac 06       		.uleb128 0x6
 2755 01ad 01       		.uleb128 0x1
 2756 01ae 13       		.uleb128 0x13
 2757 01af 00       		.byte	0
 2758 01b0 00       		.byte	0
 2759 01b1 22       		.uleb128 0x22
 2760 01b2 2E       		.uleb128 0x2e
 2761 01b3 01       		.byte	0x1
 2762 01b4 31       		.uleb128 0x31
 2763 01b5 13       		.uleb128 0x13
 2764 01b6 11       		.uleb128 0x11
 2765 01b7 01       		.uleb128 0x1
 2766 01b8 12       		.uleb128 0x12
 2767 01b9 01       		.uleb128 0x1
 2768 01ba 40       		.uleb128 0x40
 2769 01bb 06       		.uleb128 0x6
ARM GAS  /tmp/ccRwVlcw.s 			page 50


 2770 01bc 01       		.uleb128 0x1
 2771 01bd 13       		.uleb128 0x13
 2772 01be 00       		.byte	0
 2773 01bf 00       		.byte	0
 2774 01c0 23       		.uleb128 0x23
 2775 01c1 1D       		.uleb128 0x1d
 2776 01c2 00       		.byte	0
 2777 01c3 31       		.uleb128 0x31
 2778 01c4 13       		.uleb128 0x13
 2779 01c5 52       		.uleb128 0x52
 2780 01c6 01       		.uleb128 0x1
 2781 01c7 55       		.uleb128 0x55
 2782 01c8 06       		.uleb128 0x6
 2783 01c9 58       		.uleb128 0x58
 2784 01ca 0B       		.uleb128 0xb
 2785 01cb 59       		.uleb128 0x59
 2786 01cc 0B       		.uleb128 0xb
 2787 01cd 00       		.byte	0
 2788 01ce 00       		.byte	0
 2789 01cf 24       		.uleb128 0x24
 2790 01d0 34       		.uleb128 0x34
 2791 01d1 00       		.byte	0
 2792 01d2 31       		.uleb128 0x31
 2793 01d3 13       		.uleb128 0x13
 2794 01d4 00       		.byte	0
 2795 01d5 00       		.byte	0
 2796 01d6 25       		.uleb128 0x25
 2797 01d7 34       		.uleb128 0x34
 2798 01d8 00       		.byte	0
 2799 01d9 31       		.uleb128 0x31
 2800 01da 13       		.uleb128 0x13
 2801 01db 02       		.uleb128 0x2
 2802 01dc 06       		.uleb128 0x6
 2803 01dd 00       		.byte	0
 2804 01de 00       		.byte	0
 2805 01df 26       		.uleb128 0x26
 2806 01e0 1D       		.uleb128 0x1d
 2807 01e1 01       		.byte	0x1
 2808 01e2 31       		.uleb128 0x31
 2809 01e3 13       		.uleb128 0x13
 2810 01e4 52       		.uleb128 0x52
 2811 01e5 01       		.uleb128 0x1
 2812 01e6 55       		.uleb128 0x55
 2813 01e7 06       		.uleb128 0x6
 2814 01e8 58       		.uleb128 0x58
 2815 01e9 0B       		.uleb128 0xb
 2816 01ea 59       		.uleb128 0x59
 2817 01eb 0B       		.uleb128 0xb
 2818 01ec 00       		.byte	0
 2819 01ed 00       		.byte	0
 2820 01ee 27       		.uleb128 0x27
 2821 01ef 0B       		.uleb128 0xb
 2822 01f0 01       		.byte	0x1
 2823 01f1 55       		.uleb128 0x55
 2824 01f2 06       		.uleb128 0x6
 2825 01f3 00       		.byte	0
 2826 01f4 00       		.byte	0
ARM GAS  /tmp/ccRwVlcw.s 			page 51


 2827 01f5 28       		.uleb128 0x28
 2828 01f6 34       		.uleb128 0x34
 2829 01f7 00       		.byte	0
 2830 01f8 31       		.uleb128 0x31
 2831 01f9 13       		.uleb128 0x13
 2832 01fa 02       		.uleb128 0x2
 2833 01fb 0A       		.uleb128 0xa
 2834 01fc 00       		.byte	0
 2835 01fd 00       		.byte	0
 2836 01fe 29       		.uleb128 0x29
 2837 01ff 34       		.uleb128 0x34
 2838 0200 00       		.byte	0
 2839 0201 03       		.uleb128 0x3
 2840 0202 0E       		.uleb128 0xe
 2841 0203 3A       		.uleb128 0x3a
 2842 0204 0B       		.uleb128 0xb
 2843 0205 3B       		.uleb128 0x3b
 2844 0206 0B       		.uleb128 0xb
 2845 0207 49       		.uleb128 0x49
 2846 0208 13       		.uleb128 0x13
 2847 0209 3F       		.uleb128 0x3f
 2848 020a 0C       		.uleb128 0xc
 2849 020b 3C       		.uleb128 0x3c
 2850 020c 0C       		.uleb128 0xc
 2851 020d 00       		.byte	0
 2852 020e 00       		.byte	0
 2853 020f 2A       		.uleb128 0x2a
 2854 0210 01       		.uleb128 0x1
 2855 0211 01       		.byte	0x1
 2856 0212 49       		.uleb128 0x49
 2857 0213 13       		.uleb128 0x13
 2858 0214 01       		.uleb128 0x1
 2859 0215 13       		.uleb128 0x13
 2860 0216 00       		.byte	0
 2861 0217 00       		.byte	0
 2862 0218 2B       		.uleb128 0x2b
 2863 0219 21       		.uleb128 0x21
 2864 021a 00       		.byte	0
 2865 021b 49       		.uleb128 0x49
 2866 021c 13       		.uleb128 0x13
 2867 021d 2F       		.uleb128 0x2f
 2868 021e 0B       		.uleb128 0xb
 2869 021f 00       		.byte	0
 2870 0220 00       		.byte	0
 2871 0221 2C       		.uleb128 0x2c
 2872 0222 21       		.uleb128 0x21
 2873 0223 00       		.byte	0
 2874 0224 00       		.byte	0
 2875 0225 00       		.byte	0
 2876 0226 2D       		.uleb128 0x2d
 2877 0227 34       		.uleb128 0x34
 2878 0228 00       		.byte	0
 2879 0229 03       		.uleb128 0x3
 2880 022a 08       		.uleb128 0x8
 2881 022b 3A       		.uleb128 0x3a
 2882 022c 0B       		.uleb128 0xb
 2883 022d 3B       		.uleb128 0x3b
ARM GAS  /tmp/ccRwVlcw.s 			page 52


 2884 022e 0B       		.uleb128 0xb
 2885 022f 49       		.uleb128 0x49
 2886 0230 13       		.uleb128 0x13
 2887 0231 3F       		.uleb128 0x3f
 2888 0232 0C       		.uleb128 0xc
 2889 0233 3C       		.uleb128 0x3c
 2890 0234 0C       		.uleb128 0xc
 2891 0235 00       		.byte	0
 2892 0236 00       		.byte	0
 2893 0237 2E       		.uleb128 0x2e
 2894 0238 34       		.uleb128 0x34
 2895 0239 00       		.byte	0
 2896 023a 03       		.uleb128 0x3
 2897 023b 0E       		.uleb128 0xe
 2898 023c 3A       		.uleb128 0x3a
 2899 023d 0B       		.uleb128 0xb
 2900 023e 3B       		.uleb128 0x3b
 2901 023f 05       		.uleb128 0x5
 2902 0240 49       		.uleb128 0x49
 2903 0241 13       		.uleb128 0x13
 2904 0242 3F       		.uleb128 0x3f
 2905 0243 0C       		.uleb128 0xc
 2906 0244 3C       		.uleb128 0x3c
 2907 0245 0C       		.uleb128 0xc
 2908 0246 00       		.byte	0
 2909 0247 00       		.byte	0
 2910 0248 2F       		.uleb128 0x2f
 2911 0249 34       		.uleb128 0x34
 2912 024a 00       		.byte	0
 2913 024b 03       		.uleb128 0x3
 2914 024c 0E       		.uleb128 0xe
 2915 024d 3A       		.uleb128 0x3a
 2916 024e 0B       		.uleb128 0xb
 2917 024f 3B       		.uleb128 0x3b
 2918 0250 0B       		.uleb128 0xb
 2919 0251 49       		.uleb128 0x49
 2920 0252 13       		.uleb128 0x13
 2921 0253 3F       		.uleb128 0x3f
 2922 0254 0C       		.uleb128 0xc
 2923 0255 02       		.uleb128 0x2
 2924 0256 0A       		.uleb128 0xa
 2925 0257 00       		.byte	0
 2926 0258 00       		.byte	0
 2927 0259 30       		.uleb128 0x30
 2928 025a 34       		.uleb128 0x34
 2929 025b 00       		.byte	0
 2930 025c 03       		.uleb128 0x3
 2931 025d 0E       		.uleb128 0xe
 2932 025e 3A       		.uleb128 0x3a
 2933 025f 0B       		.uleb128 0xb
 2934 0260 3B       		.uleb128 0x3b
 2935 0261 05       		.uleb128 0x5
 2936 0262 49       		.uleb128 0x49
 2937 0263 13       		.uleb128 0x13
 2938 0264 3F       		.uleb128 0x3f
 2939 0265 0C       		.uleb128 0xc
 2940 0266 02       		.uleb128 0x2
ARM GAS  /tmp/ccRwVlcw.s 			page 53


 2941 0267 0A       		.uleb128 0xa
 2942 0268 00       		.byte	0
 2943 0269 00       		.byte	0
 2944 026a 00       		.byte	0
 2945              		.section	.debug_loc,"",%progbits
 2946              	.Ldebug_loc0:
 2947              	.LLST0:
 2948 0000 00000000 		.4byte	.LFB17
 2949 0004 02000000 		.4byte	.LCFI0
 2950 0008 0200     		.2byte	0x2
 2951 000a 7D       		.byte	0x7d
 2952 000b 00       		.sleb128 0
 2953 000c 02000000 		.4byte	.LCFI0
 2954 0010 04000000 		.4byte	.LCFI1
 2955 0014 0200     		.2byte	0x2
 2956 0016 7D       		.byte	0x7d
 2957 0017 08       		.sleb128 8
 2958 0018 04000000 		.4byte	.LCFI1
 2959 001c 00010000 		.4byte	.LFE17
 2960 0020 0200     		.2byte	0x2
 2961 0022 7D       		.byte	0x7d
 2962 0023 20       		.sleb128 32
 2963 0024 00000000 		.4byte	0
 2964 0028 00000000 		.4byte	0
 2965              	.LLST1:
 2966 002c 68000000 		.4byte	.LVL1
 2967 0030 6A000000 		.4byte	.LVL2
 2968 0034 0100     		.2byte	0x1
 2969 0036 53       		.byte	0x53
 2970 0037 00000000 		.4byte	0
 2971 003b 00000000 		.4byte	0
 2972              	.LLST2:
 2973 003f 78000000 		.4byte	.LVL4
 2974 0043 7E000000 		.4byte	.LVL5
 2975 0047 0100     		.2byte	0x1
 2976 0049 53       		.byte	0x53
 2977 004a 00000000 		.4byte	0
 2978 004e 00000000 		.4byte	0
 2979              	.LLST3:
 2980 0052 A8000000 		.4byte	.LVL7
 2981 0056 AA000000 		.4byte	.LVL8
 2982 005a 0100     		.2byte	0x1
 2983 005c 53       		.byte	0x53
 2984 005d 00000000 		.4byte	0
 2985 0061 00000000 		.4byte	0
 2986              	.LLST4:
 2987 0065 B8000000 		.4byte	.LVL10
 2988 0069 BE000000 		.4byte	.LVL11
 2989 006d 0100     		.2byte	0x1
 2990 006f 53       		.byte	0x53
 2991 0070 00000000 		.4byte	0
 2992 0074 00000000 		.4byte	0
 2993              	.LLST5:
 2994 0078 00000000 		.4byte	.LFB16
 2995 007c 02000000 		.4byte	.LCFI2
 2996 0080 0200     		.2byte	0x2
 2997 0082 7D       		.byte	0x7d
ARM GAS  /tmp/ccRwVlcw.s 			page 54


 2998 0083 00       		.sleb128 0
 2999 0084 02000000 		.4byte	.LCFI2
 3000 0088 22000000 		.4byte	.LFE16
 3001 008c 0200     		.2byte	0x2
 3002 008e 7D       		.byte	0x7d
 3003 008f 08       		.sleb128 8
 3004 0090 00000000 		.4byte	0
 3005 0094 00000000 		.4byte	0
 3006              	.LLST6:
 3007 0098 00000000 		.4byte	.LVL12
 3008 009c 0E000000 		.4byte	.LVL16
 3009 00a0 0100     		.2byte	0x1
 3010 00a2 50       		.byte	0x50
 3011 00a3 1C000000 		.4byte	.LVL19
 3012 00a7 1F000000 		.4byte	.LVL20-1
 3013 00ab 0100     		.2byte	0x1
 3014 00ad 50       		.byte	0x50
 3015 00ae 00000000 		.4byte	0
 3016 00b2 00000000 		.4byte	0
 3017              	.LLST7:
 3018 00b6 08000000 		.4byte	.LVL14
 3019 00ba 0A000000 		.4byte	.LVL15
 3020 00be 0100     		.2byte	0x1
 3021 00c0 53       		.byte	0x53
 3022 00c1 00000000 		.4byte	0
 3023 00c5 00000000 		.4byte	0
 3024              	.LLST8:
 3025 00c9 18000000 		.4byte	.LVL18
 3026 00cd 1C000000 		.4byte	.LVL19
 3027 00d1 0100     		.2byte	0x1
 3028 00d3 53       		.byte	0x53
 3029 00d4 00000000 		.4byte	0
 3030 00d8 00000000 		.4byte	0
 3031              	.LLST9:
 3032 00dc 00000000 		.4byte	.LFB14
 3033 00e0 02000000 		.4byte	.LCFI3
 3034 00e4 0200     		.2byte	0x2
 3035 00e6 7D       		.byte	0x7d
 3036 00e7 00       		.sleb128 0
 3037 00e8 02000000 		.4byte	.LCFI3
 3038 00ec 1A000000 		.4byte	.LFE14
 3039 00f0 0200     		.2byte	0x2
 3040 00f2 7D       		.byte	0x7d
 3041 00f3 08       		.sleb128 8
 3042 00f4 00000000 		.4byte	0
 3043 00f8 00000000 		.4byte	0
 3044              	.LLST10:
 3045 00fc 00000000 		.4byte	.LVL21
 3046 0100 0C000000 		.4byte	.LVL22
 3047 0104 0100     		.2byte	0x1
 3048 0106 50       		.byte	0x50
 3049 0107 00000000 		.4byte	0
 3050 010b 00000000 		.4byte	0
 3051              	.LLST11:
 3052 010f 00000000 		.4byte	.LFB8
 3053 0113 02000000 		.4byte	.LCFI4
 3054 0117 0200     		.2byte	0x2
ARM GAS  /tmp/ccRwVlcw.s 			page 55


 3055 0119 7D       		.byte	0x7d
 3056 011a 00       		.sleb128 0
 3057 011b 02000000 		.4byte	.LCFI4
 3058 011f 1A000000 		.4byte	.LFE8
 3059 0123 0200     		.2byte	0x2
 3060 0125 7D       		.byte	0x7d
 3061 0126 08       		.sleb128 8
 3062 0127 00000000 		.4byte	0
 3063 012b 00000000 		.4byte	0
 3064              	.LLST12:
 3065 012f 00000000 		.4byte	.LVL23
 3066 0133 08000000 		.4byte	.LVL24
 3067 0137 0100     		.2byte	0x1
 3068 0139 50       		.byte	0x50
 3069 013a 08000000 		.4byte	.LVL24
 3070 013e 1A000000 		.4byte	.LFE8
 3071 0142 0100     		.2byte	0x1
 3072 0144 54       		.byte	0x54
 3073 0145 00000000 		.4byte	0
 3074 0149 00000000 		.4byte	0
 3075              	.LLST13:
 3076 014d 00000000 		.4byte	.LFB11
 3077 0151 02000000 		.4byte	.LCFI5
 3078 0155 0200     		.2byte	0x2
 3079 0157 7D       		.byte	0x7d
 3080 0158 00       		.sleb128 0
 3081 0159 02000000 		.4byte	.LCFI5
 3082 015d 28000000 		.4byte	.LFE11
 3083 0161 0200     		.2byte	0x2
 3084 0163 7D       		.byte	0x7d
 3085 0164 08       		.sleb128 8
 3086 0165 00000000 		.4byte	0
 3087 0169 00000000 		.4byte	0
 3088              	.LLST14:
 3089 016d 00000000 		.4byte	.LVL25
 3090 0171 04000000 		.4byte	.LVL26
 3091 0175 0100     		.2byte	0x1
 3092 0177 50       		.byte	0x50
 3093 0178 00000000 		.4byte	0
 3094 017c 00000000 		.4byte	0
 3095              	.LLST15:
 3096 0180 0E000000 		.4byte	.LVL28
 3097 0184 19000000 		.4byte	.LVL29-1
 3098 0188 0100     		.2byte	0x1
 3099 018a 53       		.byte	0x53
 3100 018b 00000000 		.4byte	0
 3101 018f 00000000 		.4byte	0
 3102              	.LLST16:
 3103 0193 24000000 		.4byte	.LVL31
 3104 0197 28000000 		.4byte	.LFE11
 3105 019b 0100     		.2byte	0x1
 3106 019d 53       		.byte	0x53
 3107 019e 00000000 		.4byte	0
 3108 01a2 00000000 		.4byte	0
 3109              	.LLST17:
 3110 01a6 00000000 		.4byte	.LFB9
 3111 01aa 04000000 		.4byte	.LCFI6
ARM GAS  /tmp/ccRwVlcw.s 			page 56


 3112 01ae 0200     		.2byte	0x2
 3113 01b0 7D       		.byte	0x7d
 3114 01b1 00       		.sleb128 0
 3115 01b2 04000000 		.4byte	.LCFI6
 3116 01b6 14000000 		.4byte	.LCFI7
 3117 01ba 0200     		.2byte	0x2
 3118 01bc 7D       		.byte	0x7d
 3119 01bd 1C       		.sleb128 28
 3120 01be 14000000 		.4byte	.LCFI7
 3121 01c2 4C010000 		.4byte	.LFE9
 3122 01c6 0200     		.2byte	0x2
 3123 01c8 7D       		.byte	0x7d
 3124 01c9 28       		.sleb128 40
 3125 01ca 00000000 		.4byte	0
 3126 01ce 00000000 		.4byte	0
 3127              	.LLST18:
 3128 01d2 F4000000 		.4byte	.LVL33
 3129 01d6 FB000000 		.4byte	.LVL34-1
 3130 01da 0100     		.2byte	0x1
 3131 01dc 53       		.byte	0x53
 3132 01dd 00000000 		.4byte	0
 3133 01e1 00000000 		.4byte	0
 3134              	.LLST19:
 3135 01e5 02010000 		.4byte	.LVL36
 3136 01e9 05010000 		.4byte	.LVL37-1
 3137 01ed 0100     		.2byte	0x1
 3138 01ef 53       		.byte	0x53
 3139 01f0 00000000 		.4byte	0
 3140 01f4 00000000 		.4byte	0
 3141              	.LLST20:
 3142 01f8 00000000 		.4byte	.LFB15
 3143 01fc 04000000 		.4byte	.LCFI8
 3144 0200 0200     		.2byte	0x2
 3145 0202 7D       		.byte	0x7d
 3146 0203 00       		.sleb128 0
 3147 0204 04000000 		.4byte	.LCFI8
 3148 0208 0C000000 		.4byte	.LCFI9
 3149 020c 0200     		.2byte	0x2
 3150 020e 7D       		.byte	0x7d
 3151 020f 08       		.sleb128 8
 3152 0210 0C000000 		.4byte	.LCFI9
 3153 0214 A0000000 		.4byte	.LFE15
 3154 0218 0200     		.2byte	0x2
 3155 021a 7D       		.byte	0x7d
 3156 021b 10       		.sleb128 16
 3157 021c 00000000 		.4byte	0
 3158 0220 00000000 		.4byte	0
 3159              	.LLST21:
 3160 0224 00000000 		.4byte	.LFB12
 3161 0228 02000000 		.4byte	.LCFI10
 3162 022c 0200     		.2byte	0x2
 3163 022e 7D       		.byte	0x7d
 3164 022f 00       		.sleb128 0
 3165 0230 02000000 		.4byte	.LCFI10
 3166 0234 08000000 		.4byte	.LCFI11
 3167 0238 0200     		.2byte	0x2
 3168 023a 7D       		.byte	0x7d
ARM GAS  /tmp/ccRwVlcw.s 			page 57


 3169 023b 10       		.sleb128 16
 3170 023c 08000000 		.4byte	.LCFI11
 3171 0240 58010000 		.4byte	.LFE12
 3172 0244 0200     		.2byte	0x2
 3173 0246 7D       		.byte	0x7d
 3174 0247 18       		.sleb128 24
 3175 0248 00000000 		.4byte	0
 3176 024c 00000000 		.4byte	0
 3177              	.LLST22:
 3178 0250 0E000000 		.4byte	.LVL38
 3179 0254 1A000000 		.4byte	.LVL39
 3180 0258 0100     		.2byte	0x1
 3181 025a 50       		.byte	0x50
 3182 025b 1A000000 		.4byte	.LVL39
 3183 025f 1D000000 		.4byte	.LVL40-1
 3184 0263 0300     		.2byte	0x3
 3185 0265 73       		.byte	0x73
 3186 0266 7F       		.sleb128 -1
 3187 0267 9F       		.byte	0x9f
 3188 0268 00000000 		.4byte	0
 3189 026c 00000000 		.4byte	0
 3190              	.LLST23:
 3191 0270 7A000000 		.4byte	.LVL41
 3192 0274 7D000000 		.4byte	.LVL42-1
 3193 0278 0100     		.2byte	0x1
 3194 027a 50       		.byte	0x50
 3195 027b 7D000000 		.4byte	.LVL42-1
 3196 027f C4000000 		.4byte	.LVL43
 3197 0283 0100     		.2byte	0x1
 3198 0285 55       		.byte	0x55
 3199 0286 D6000000 		.4byte	.LVL45
 3200 028a DA000000 		.4byte	.LVL46
 3201 028e 0100     		.2byte	0x1
 3202 0290 50       		.byte	0x50
 3203 0291 DA000000 		.4byte	.LVL46
 3204 0295 E2000000 		.4byte	.LVL47
 3205 0299 0300     		.2byte	0x3
 3206 029b 70       		.byte	0x70
 3207 029c 7F       		.sleb128 -1
 3208 029d 9F       		.byte	0x9f
 3209 029e 00000000 		.4byte	0
 3210 02a2 00000000 		.4byte	0
 3211              		.section	.debug_aranges,"",%progbits
 3212 0000 6C000000 		.4byte	0x6c
 3213 0004 0200     		.2byte	0x2
 3214 0006 00000000 		.4byte	.Ldebug_info0
 3215 000a 04       		.byte	0x4
 3216 000b 00       		.byte	0
 3217 000c 0000     		.2byte	0
 3218 000e 0000     		.2byte	0
 3219 0010 00000000 		.4byte	.LFB13
 3220 0014 0E000000 		.4byte	.LFE13-.LFB13
 3221 0018 00000000 		.4byte	.LFB10
 3222 001c 0E000000 		.4byte	.LFE10-.LFB10
 3223 0020 00000000 		.4byte	.LFB7
 3224 0024 0E000000 		.4byte	.LFE7-.LFB7
 3225 0028 00000000 		.4byte	.LFB17
ARM GAS  /tmp/ccRwVlcw.s 			page 58


 3226 002c 00010000 		.4byte	.LFE17-.LFB17
 3227 0030 00000000 		.4byte	.LFB16
 3228 0034 22000000 		.4byte	.LFE16-.LFB16
 3229 0038 00000000 		.4byte	.LFB14
 3230 003c 1A000000 		.4byte	.LFE14-.LFB14
 3231 0040 00000000 		.4byte	.LFB8
 3232 0044 1A000000 		.4byte	.LFE8-.LFB8
 3233 0048 00000000 		.4byte	.LFB11
 3234 004c 28000000 		.4byte	.LFE11-.LFB11
 3235 0050 00000000 		.4byte	.LFB9
 3236 0054 4C010000 		.4byte	.LFE9-.LFB9
 3237 0058 00000000 		.4byte	.LFB15
 3238 005c A0000000 		.4byte	.LFE15-.LFB15
 3239 0060 00000000 		.4byte	.LFB12
 3240 0064 58010000 		.4byte	.LFE12-.LFB12
 3241 0068 00000000 		.4byte	0
 3242 006c 00000000 		.4byte	0
 3243              		.section	.debug_ranges,"",%progbits
 3244              	.Ldebug_ranges0:
 3245 0000 EC000000 		.4byte	.LBB10
 3246 0004 EE000000 		.4byte	.LBE10
 3247 0008 F0000000 		.4byte	.LBB11
 3248 000c F4000000 		.4byte	.LBE11
 3249 0010 00000000 		.4byte	0
 3250 0014 00000000 		.4byte	0
 3251 0018 56000000 		.4byte	.LBB15
 3252 001c 82000000 		.4byte	.LBE15
 3253 0020 88000000 		.4byte	.LBB18
 3254 0024 A0000000 		.4byte	.LBE18
 3255 0028 00000000 		.4byte	0
 3256 002c 00000000 		.4byte	0
 3257 0030 52000000 		.4byte	.LBB21
 3258 0034 32010000 		.4byte	.LBE21
 3259 0038 38010000 		.4byte	.LBB24
 3260 003c 58010000 		.4byte	.LBE24
 3261 0040 00000000 		.4byte	0
 3262 0044 00000000 		.4byte	0
 3263 0048 52000000 		.4byte	.LBB22
 3264 004c 32010000 		.4byte	.LBE22
 3265 0050 38010000 		.4byte	.LBB23
 3266 0054 58010000 		.4byte	.LBE23
 3267 0058 00000000 		.4byte	0
 3268 005c 00000000 		.4byte	0
 3269 0060 00000000 		.4byte	.LFB13
 3270 0064 0E000000 		.4byte	.LFE13
 3271 0068 00000000 		.4byte	.LFB10
 3272 006c 0E000000 		.4byte	.LFE10
 3273 0070 00000000 		.4byte	.LFB7
 3274 0074 0E000000 		.4byte	.LFE7
 3275 0078 00000000 		.4byte	.LFB17
 3276 007c 00010000 		.4byte	.LFE17
 3277 0080 00000000 		.4byte	.LFB16
 3278 0084 22000000 		.4byte	.LFE16
 3279 0088 00000000 		.4byte	.LFB14
 3280 008c 1A000000 		.4byte	.LFE14
 3281 0090 00000000 		.4byte	.LFB8
 3282 0094 1A000000 		.4byte	.LFE8
ARM GAS  /tmp/ccRwVlcw.s 			page 59


 3283 0098 00000000 		.4byte	.LFB11
 3284 009c 28000000 		.4byte	.LFE11
 3285 00a0 00000000 		.4byte	.LFB9
 3286 00a4 4C010000 		.4byte	.LFE9
 3287 00a8 00000000 		.4byte	.LFB15
 3288 00ac A0000000 		.4byte	.LFE15
 3289 00b0 00000000 		.4byte	.LFB12
 3290 00b4 58010000 		.4byte	.LFE12
 3291 00b8 00000000 		.4byte	0
 3292 00bc 00000000 		.4byte	0
 3293              		.section	.debug_line,"",%progbits
 3294              	.Ldebug_line0:
 3295 0000 AA020000 		.section	.debug_str,"MS",%progbits,1
 3295      02003E01 
 3295      00000201 
 3295      FB0E0D00 
 3295      01010101 
 3296              	.LASF37:
 3297 0000 705F6D73 		.ascii	"p_msg\000"
 3297      6700
 3298              	.LASF72:
 3299 0006 7264796D 		.ascii	"rdymsg\000"
 3299      736700
 3300              	.LASF84:
 3301 000d 73656D32 		.ascii	"sem2_setup\000"
 3301      5F736574 
 3301      757000
 3302              	.LASF93:
 3303 0018 76746C69 		.ascii	"vtlist\000"
 3303      737400
 3304              	.LASF11:
 3305 001f 6C6F6E67 		.ascii	"long long unsigned int\000"
 3305      206C6F6E 
 3305      6720756E 
 3305      7369676E 
 3305      65642069 
 3306              	.LASF73:
 3307 0036 65786974 		.ascii	"exitcode\000"
 3307      636F6465 
 3307      00
 3308              	.LASF25:
 3309 003f 705F7072 		.ascii	"p_prio\000"
 3309      696F00
 3310              	.LASF10:
 3311 0046 6C6F6E67 		.ascii	"long long int\000"
 3311      206C6F6E 
 3311      6720696E 
 3311      7400
 3312              	.LASF1:
 3313 0054 7369676E 		.ascii	"signed char\000"
 3313      65642063 
 3313      68617200 
 3314              	.LASF41:
 3315 0060 705F6D70 		.ascii	"p_mpool\000"
 3315      6F6F6C00 
 3316              	.LASF69:
 3317 0068 6D5F7175 		.ascii	"m_queue\000"
ARM GAS  /tmp/ccRwVlcw.s 			page 60


 3317      65756500 
 3318              	.LASF88:
 3319 0070 74687265 		.ascii	"thread3\000"
 3319      61643300 
 3320              	.LASF16:
 3321 0078 74736C69 		.ascii	"tslices_t\000"
 3321      6365735F 
 3321      7400
 3322              	.LASF106:
 3323 0082 73656D32 		.ascii	"sem2_execute\000"
 3323      5F657865 
 3323      63757465 
 3323      00
 3324              	.LASF7:
 3325 008f 6C6F6E67 		.ascii	"long int\000"
 3325      20696E74 
 3325      00
 3326              	.LASF82:
 3327 0098 74617267 		.ascii	"target_time\000"
 3327      65745F74 
 3327      696D6500 
 3328              	.LASF14:
 3329 00a4 74737461 		.ascii	"tstate_t\000"
 3329      74655F74 
 3329      00
 3330              	.LASF27:
 3331 00ad 705F6E65 		.ascii	"p_newer\000"
 3331      77657200 
 3332              	.LASF64:
 3333 00b5 735F7175 		.ascii	"s_queue\000"
 3333      65756500 
 3334              	.LASF59:
 3335 00bd 725F6E65 		.ascii	"r_newer\000"
 3335      77657200 
 3336              	.LASF44:
 3337 00c5 72656761 		.ascii	"regarm_t\000"
 3337      726D5F74 
 3337      00
 3338              	.LASF50:
 3339 00ce 76745F70 		.ascii	"vt_prev\000"
 3339      72657600 
 3340              	.LASF96:
 3341 00d6 73656D31 		.ascii	"sem1\000"
 3341      00
 3342              	.LASF21:
 3343 00db 636E745F 		.ascii	"cnt_t\000"
 3343      7400
 3344              	.LASF0:
 3345 00e1 756E7369 		.ascii	"unsigned int\000"
 3345      676E6564 
 3345      20696E74 
 3345      00
 3346              	.LASF49:
 3347 00ee 76745F6E 		.ascii	"vt_next\000"
 3347      65787400 
 3348              	.LASF105:
 3349 00f6 73656D33 		.ascii	"sem3_execute\000"
ARM GAS  /tmp/ccRwVlcw.s 			page 61


 3349      5F657865 
 3349      63757465 
 3349      00
 3350              	.LASF97:
 3351 0103 74657374 		.ascii	"testsem1\000"
 3351      73656D31 
 3351      00
 3352              	.LASF98:
 3353 010c 74657374 		.ascii	"testsem2\000"
 3353      73656D32 
 3353      00
 3354              	.LASF99:
 3355 0115 74657374 		.ascii	"testsem3\000"
 3355      73656D33 
 3355      00
 3356              	.LASF100:
 3357 011e 74657374 		.ascii	"testsem4\000"
 3357      73656D34 
 3357      00
 3358              	.LASF9:
 3359 0127 6C6F6E67 		.ascii	"long unsigned int\000"
 3359      20756E73 
 3359      69676E65 
 3359      6420696E 
 3359      7400
 3360              	.LASF80:
 3361 0139 74656172 		.ascii	"teardown\000"
 3361      646F776E 
 3361      00
 3362              	.LASF78:
 3363 0142 6E616D65 		.ascii	"name\000"
 3363      00
 3364              	.LASF65:
 3365 0147 735F636E 		.ascii	"s_cnt\000"
 3365      7400
 3366              	.LASF46:
 3367 014d 636F6E74 		.ascii	"context\000"
 3367      65787400 
 3368              	.LASF4:
 3369 0155 73686F72 		.ascii	"short unsigned int\000"
 3369      7420756E 
 3369      7369676E 
 3369      65642069 
 3369      6E7400
 3370              	.LASF86:
 3371 0168 6273656D 		.ascii	"bsem\000"
 3371      00
 3372              	.LASF102:
 3373 016d 474E5520 		.ascii	"GNU C 4.6.2 20110908 (prerelease)\000"
 3373      4320342E 
 3373      362E3220 
 3373      32303131 
 3373      30393038 
 3374              	.LASF18:
 3375 018f 6D73675F 		.ascii	"msg_t\000"
 3375      7400
 3376              	.LASF13:
ARM GAS  /tmp/ccRwVlcw.s 			page 62


 3377 0195 746D6F64 		.ascii	"tmode_t\000"
 3377      655F7400 
 3378              	.LASF43:
 3379 019d 54687265 		.ascii	"ThreadsList\000"
 3379      6164734C 
 3379      69737400 
 3380              	.LASF19:
 3381 01a9 6576656E 		.ascii	"eventmask_t\000"
 3381      746D6173 
 3381      6B5F7400 
 3382              	.LASF3:
 3383 01b5 73686F72 		.ascii	"short int\000"
 3383      7420696E 
 3383      7400
 3384              	.LASF68:
 3385 01bf 4D757465 		.ascii	"Mutex\000"
 3385      7800
 3386              	.LASF91:
 3387 01c5 73656D34 		.ascii	"sem4_execute\000"
 3387      5F657865 
 3387      63757465 
 3387      00
 3388              	.LASF51:
 3389 01d2 76745F74 		.ascii	"vt_time\000"
 3389      696D6500 
 3390              	.LASF52:
 3391 01da 76745F66 		.ascii	"vt_func\000"
 3391      756E6300 
 3392              	.LASF85:
 3393 01e2 73656D31 		.ascii	"sem1_setup\000"
 3393      5F736574 
 3393      757000
 3394              	.LASF28:
 3395 01ed 705F6F6C 		.ascii	"p_older\000"
 3395      64657200 
 3396              	.LASF89:
 3397 01f5 74687265 		.ascii	"thread1\000"
 3397      61643100 
 3398              	.LASF90:
 3399 01fd 74687265 		.ascii	"thread2\000"
 3399      61643200 
 3400              	.LASF58:
 3401 0205 725F6374 		.ascii	"r_ctx\000"
 3401      7800
 3402              	.LASF87:
 3403 020b 74687265 		.ascii	"thread4\000"
 3403      61643400 
 3404              	.LASF42:
 3405 0213 54687265 		.ascii	"ThreadsQueue\000"
 3405      61647351 
 3405      75657565 
 3405      00
 3406              	.LASF79:
 3407 0220 73657475 		.ascii	"setup\000"
 3407      7000
 3408              	.LASF61:
 3409 0226 725F6375 		.ascii	"r_current\000"
ARM GAS  /tmp/ccRwVlcw.s 			page 63


 3409      7272656E 
 3409      7400
 3410              	.LASF60:
 3411 0230 725F6F6C 		.ascii	"r_older\000"
 3411      64657200 
 3412              	.LASF101:
 3413 0238 70617474 		.ascii	"patternsem\000"
 3413      65726E73 
 3413      656D00
 3414              	.LASF15:
 3415 0243 74726566 		.ascii	"trefs_t\000"
 3415      735F7400 
 3416              	.LASF24:
 3417 024b 705F7072 		.ascii	"p_prev\000"
 3417      657600
 3418              	.LASF81:
 3419 0252 65786563 		.ascii	"execute\000"
 3419      75746500 
 3420              	.LASF17:
 3421 025a 74707269 		.ascii	"tprio_t\000"
 3421      6F5F7400 
 3422              	.LASF12:
 3423 0262 5F426F6F 		.ascii	"_Bool\000"
 3423      6C00
 3424              	.LASF6:
 3425 0268 696E7433 		.ascii	"int32_t\000"
 3425      325F7400 
 3426              	.LASF2:
 3427 0270 756E7369 		.ascii	"unsigned char\000"
 3427      676E6564 
 3427      20636861 
 3427      7200
 3428              	.LASF39:
 3429 027e 705F6D74 		.ascii	"p_mtxlist\000"
 3429      786C6973 
 3429      7400
 3430              	.LASF103:
 3431 0288 2E2E2F2E 		.ascii	"../../test/testsem.c\000"
 3431      2E2F7465 
 3431      73742F74 
 3431      65737473 
 3431      656D2E63 
 3432              	.LASF30:
 3433 029d 705F7374 		.ascii	"p_state\000"
 3433      61746500 
 3434              	.LASF33:
 3435 02a5 705F7072 		.ascii	"p_preempt\000"
 3435      65656D70 
 3435      7400
 3436              	.LASF95:
 3437 02af 74687265 		.ascii	"threads\000"
 3437      61647300 
 3438              	.LASF57:
 3439 02b7 725F7072 		.ascii	"r_prio\000"
 3439      696F00
 3440              	.LASF75:
 3441 02be 65776D61 		.ascii	"ewmask\000"
ARM GAS  /tmp/ccRwVlcw.s 			page 64


 3441      736B00
 3442              	.LASF23:
 3443 02c5 705F6E65 		.ascii	"p_next\000"
 3443      787400
 3444              	.LASF31:
 3445 02cc 705F666C 		.ascii	"p_flags\000"
 3445      61677300 
 3446              	.LASF22:
 3447 02d4 54687265 		.ascii	"Thread\000"
 3447      616400
 3448              	.LASF77:
 3449 02db 74657374 		.ascii	"testcase\000"
 3449      63617365 
 3449      00
 3450              	.LASF38:
 3451 02e4 705F6570 		.ascii	"p_epending\000"
 3451      656E6469 
 3451      6E6700
 3452              	.LASF92:
 3453 02ef 73656D31 		.ascii	"sem1_execute\000"
 3453      5F657865 
 3453      63757465 
 3453      00
 3454              	.LASF8:
 3455 02fc 75696E74 		.ascii	"uint32_t\000"
 3455      33325F74 
 3455      00
 3456              	.LASF56:
 3457 0305 725F7175 		.ascii	"r_queue\000"
 3457      65756500 
 3458              	.LASF48:
 3459 030d 56697274 		.ascii	"VirtualTimer\000"
 3459      75616C54 
 3459      696D6572 
 3459      00
 3460              	.LASF76:
 3461 031a 63686172 		.ascii	"char\000"
 3461      00
 3462              	.LASF67:
 3463 031f 42696E61 		.ascii	"BinarySemaphore\000"
 3463      72795365 
 3463      6D617068 
 3463      6F726500 
 3464              	.LASF104:
 3465 032f 2F686F6D 		.ascii	"/home/aggieair/workspace/ChibiOS_2.6.1/demos/ARMCM3"
 3465      652F6167 
 3465      67696561 
 3465      69722F77 
 3465      6F726B73 
 3466 0362 2D53544D 		.ascii	"-STM32F107/\000"
 3466      33324631 
 3466      30372F00 
 3467              	.LASF71:
 3468 036e 6D5F6E65 		.ascii	"m_next\000"
 3468      787400
 3469              	.LASF20:
 3470 0375 73797374 		.ascii	"systime_t\000"
ARM GAS  /tmp/ccRwVlcw.s 			page 65


 3470      696D655F 
 3470      7400
 3471              	.LASF40:
 3472 037f 705F7265 		.ascii	"p_realprio\000"
 3472      616C7072 
 3472      696F00
 3473              	.LASF47:
 3474 038a 76746675 		.ascii	"vtfunc_t\000"
 3474      6E635F74 
 3474      00
 3475              	.LASF34:
 3476 0393 705F7469 		.ascii	"p_time\000"
 3476      6D6500
 3477              	.LASF45:
 3478 039a 696E7463 		.ascii	"intctx\000"
 3478      747800
 3479              	.LASF36:
 3480 03a1 705F6D73 		.ascii	"p_msgqueue\000"
 3480      67717565 
 3480      756500
 3481              	.LASF53:
 3482 03ac 76745F70 		.ascii	"vt_par\000"
 3482      617200
 3483              	.LASF63:
 3484 03b3 53656D61 		.ascii	"Semaphore\000"
 3484      70686F72 
 3484      6500
 3485              	.LASF83:
 3486 03bd 73656D33 		.ascii	"sem3_setup\000"
 3486      5F736574 
 3486      757000
 3487              	.LASF32:
 3488 03c8 705F7265 		.ascii	"p_refs\000"
 3488      667300
 3489              	.LASF62:
 3490 03cf 52656164 		.ascii	"ReadyList\000"
 3490      794C6973 
 3490      7400
 3491              	.LASF94:
 3492 03d9 726C6973 		.ascii	"rlist\000"
 3492      7400
 3493              	.LASF5:
 3494 03df 75696E74 		.ascii	"uint8_t\000"
 3494      385F7400 
 3495              	.LASF74:
 3496 03e7 77746F62 		.ascii	"wtobjp\000"
 3496      6A7000
 3497              	.LASF29:
 3498 03ee 705F6E61 		.ascii	"p_name\000"
 3498      6D6500
 3499              	.LASF54:
 3500 03f5 76745F73 		.ascii	"vt_systime\000"
 3500      79737469 
 3500      6D6500
 3501              	.LASF66:
 3502 0400 62735F73 		.ascii	"bs_sem\000"
 3502      656D00
ARM GAS  /tmp/ccRwVlcw.s 			page 66


 3503              	.LASF55:
 3504 0407 56544C69 		.ascii	"VTList\000"
 3504      737400
 3505              	.LASF70:
 3506 040e 6D5F6F77 		.ascii	"m_owner\000"
 3506      6E657200 
 3507              	.LASF26:
 3508 0416 705F6374 		.ascii	"p_ctx\000"
 3508      7800
 3509              	.LASF35:
 3510 041c 705F7761 		.ascii	"p_waiting\000"
 3510      6974696E 
 3510      6700
 3511              		.ident	"GCC: (Linaro GCC 4.6-2011.09-1) 4.6.2 20110908 (prerelease)"
ARM GAS  /tmp/ccRwVlcw.s 			page 67


DEFINED SYMBOLS
                            *ABS*:0000000000000000 testsem.c
     /tmp/ccRwVlcw.s:18     .text.sem3_setup:0000000000000000 $t
     /tmp/ccRwVlcw.s:23     .text.sem3_setup:0000000000000000 sem3_setup
     /tmp/ccRwVlcw.s:1003   .data.sem1:0000000000000000 .LANCHOR0
     /tmp/ccRwVlcw.s:42     .text.sem2_setup:0000000000000000 $t
     /tmp/ccRwVlcw.s:47     .text.sem2_setup:0000000000000000 sem2_setup
     /tmp/ccRwVlcw.s:65     .text.sem1_setup:0000000000000000 $t
     /tmp/ccRwVlcw.s:70     .text.sem1_setup:0000000000000000 sem1_setup
     /tmp/ccRwVlcw.s:88     .text.sem4_execute:0000000000000000 $t
     /tmp/ccRwVlcw.s:93     .text.sem4_execute:0000000000000000 sem4_execute
     /tmp/ccRwVlcw.s:263    .text.sem4_execute:00000000000000f0 $d
     /tmp/ccRwVlcw.s:276    .text.thread4:0000000000000000 thread4
     /tmp/ccRwVlcw.s:271    .text.thread4:0000000000000000 $t
     /tmp/ccRwVlcw.s:328    .text.thread3:0000000000000000 $t
     /tmp/ccRwVlcw.s:333    .text.thread3:0000000000000000 thread3
     /tmp/ccRwVlcw.s:361    .text.thread1:0000000000000000 $t
     /tmp/ccRwVlcw.s:366    .text.thread1:0000000000000000 thread1
     /tmp/ccRwVlcw.s:395    .text.thread2:0000000000000000 $t
     /tmp/ccRwVlcw.s:400    .text.thread2:0000000000000000 thread2
     /tmp/ccRwVlcw.s:450    .text.sem1_execute:0000000000000000 $t
     /tmp/ccRwVlcw.s:455    .text.sem1_execute:0000000000000000 sem1_execute
     /tmp/ccRwVlcw.s:635    .text.sem1_execute:0000000000000120 $d
     /tmp/ccRwVlcw.s:650    .text.sem3_execute:0000000000000000 $t
     /tmp/ccRwVlcw.s:655    .text.sem3_execute:0000000000000000 sem3_execute
     /tmp/ccRwVlcw.s:751    .text.sem3_execute:000000000000008c $d
     /tmp/ccRwVlcw.s:762    .text.sem2_execute:0000000000000000 $t
     /tmp/ccRwVlcw.s:767    .text.sem2_execute:0000000000000000 sem2_execute
     /tmp/ccRwVlcw.s:948    .text.sem2_execute:000000000000013c $d
     /tmp/ccRwVlcw.s:1014   .rodata.patternsem:0000000000000000 patternsem
     /tmp/ccRwVlcw.s:996    .rodata.testsem4:0000000000000000 testsem4
     /tmp/ccRwVlcw.s:987    .rodata.testsem3:0000000000000000 testsem3
     /tmp/ccRwVlcw.s:978    .rodata.testsem2:0000000000000000 testsem2
     /tmp/ccRwVlcw.s:969    .rodata.testsem1:0000000000000000 testsem1
     /tmp/ccRwVlcw.s:966    .rodata.testsem1:0000000000000000 $d
     /tmp/ccRwVlcw.s:975    .rodata.testsem2:0000000000000000 $d
     /tmp/ccRwVlcw.s:984    .rodata.testsem3:0000000000000000 $d
     /tmp/ccRwVlcw.s:993    .rodata.testsem4:0000000000000000 $d
     /tmp/ccRwVlcw.s:1002   .data.sem1:0000000000000000 $d
     /tmp/ccRwVlcw.s:1006   .data.sem1:0000000000000000 sem1
     /tmp/ccRwVlcw.s:1011   .rodata.patternsem:0000000000000000 $d
     /tmp/ccRwVlcw.s:1021   .rodata.str1.4:0000000000000000 $d
                     .debug_frame:0000000000000010 $d
     /tmp/ccRwVlcw.s:649    .text.sem1_execute:000000000000014c $t
     /tmp/ccRwVlcw.s:965    .text.sem2_execute:0000000000000158 $t

UNDEFINED SYMBOLS
chSemInit
chSemReset
_test_assert
chThdCreateStatic
chSemWait
chSchRescheduleS
chSemSignalI
rlist
wa
threads
ARM GAS  /tmp/ccRwVlcw.s 			page 68


chSemSignal
test_emit_token
chThdSleep
test_wait_threads
_test_assert_sequence
chSemAddCounterI
chSemSignalWait
chSemWaitTimeout
test_wait_tick
_test_assert_time_window
vtlist
