ARM GAS  /tmp/ccRwVlcw.s 			page 1


   1              		.syntax unified
   2              		.cpu cortex-m3
   3              		.fpu softvfp
   4              		.eabi_attribute 20, 1
   5              		.eabi_attribute 21, 1
   6              		.eabi_attribute 23, 3
   7              		.eabi_attribute 24, 1
   8              		.eabi_attribute 25, 1
   9              		.eabi_attribute 26, 1
  10              		.eabi_attribute 30, 2
  11              		.eabi_attribute 18, 4
  12              		.thumb
  13              		.file	"testsem.c"
  14              		.text
  15              	.Ltext0:
  16              		.cfi_sections	.debug_frame
  17              		.section	.text.sem3_setup,"ax",%progbits
  18              		.align	2
  19              		.p2align 4,,15
  20              		.thumb
  21              		.thumb_func
  22              		.type	sem3_setup, %function
  23              	sem3_setup:
  24              	.LFB13:
  25              		.file 1 "../../test/testsem.c"
  26              		.loc 1 204 0
  27              		.cfi_startproc
  28              		@ args = 0, pretend = 0, frame = 0
  29              		@ frame_needed = 0, uses_anonymous_args = 0
  30              		@ link register save eliminated.
  31              		.loc 1 206 0
  32 0000 40F20000 		movw	r0, #:lower16:.LANCHOR0
  33 0004 C0F20000 		movt	r0, #:upper16:.LANCHOR0
  34 0008 0021     		movs	r1, #0
  35              		.loc 1 207 0
  36              		.loc 1 206 0
  37 000a FFF7FEBF 		b	chSemInit
  38              		.cfi_endproc
  39              	.LFE13:
  40              		.size	sem3_setup, .-sem3_setup
  41              		.section	.text.sem2_setup,"ax",%progbits
  42              		.align	2
  43              		.p2align 4,,15
  44              		.thumb
  45              		.thumb_func
  46              		.type	sem2_setup, %function
  47              	sem2_setup:
  48              	.LFB10:
  49              		.loc 1 128 0
  50              		.cfi_startproc
  51              		@ args = 0, pretend = 0, frame = 0
  52              		@ frame_needed = 0, uses_anonymous_args = 0
  53              		@ link register save eliminated.
  54              		.loc 1 130 0
  55 0000 40F20000 		movw	r0, #:lower16:.LANCHOR0
  56 0004 C0F20000 		movt	r0, #:upper16:.LANCHOR0
  57 0008 0021     		movs	r1, #0
ARM GAS  /tmp/ccRwVlcw.s 			page 2


  58              		.loc 1 131 0
  59              		.loc 1 130 0
  60 000a FFF7FEBF 		b	chSemInit
  61              		.cfi_endproc
  62              	.LFE10:
  63              		.size	sem2_setup, .-sem2_setup
  64 000e 00BF     		.section	.text.sem1_setup,"ax",%progbits
  65              		.align	2
  66              		.p2align 4,,15
  67              		.thumb
  68              		.thumb_func
  69              		.type	sem1_setup, %function
  70              	sem1_setup:
  71              	.LFB7:
  72              		.loc 1 72 0
  73              		.cfi_startproc
  74              		@ args = 0, pretend = 0, frame = 0
  75              		@ frame_needed = 0, uses_anonymous_args = 0
  76              		@ link register save eliminated.
  77              		.loc 1 74 0
  78 0000 40F20000 		movw	r0, #:lower16:.LANCHOR0
  79 0004 C0F20000 		movt	r0, #:upper16:.LANCHOR0
  80 0008 0021     		movs	r1, #0
  81              		.loc 1 75 0
  82              		.loc 1 74 0
  83 000a FFF7FEBF 		b	chSemInit
  84              		.cfi_endproc
  85              	.LFE7:
  86              		.size	sem1_setup, .-sem1_setup
  87 000e 00BF     		.section	.text.sem4_execute,"ax",%progbits
  88              		.align	2
  89              		.p2align 4,,15
  90              		.thumb
  91              		.thumb_func
  92              		.type	sem4_execute, %function
  93              	sem4_execute:
  94              	.LFB17:
  95              		.loc 1 251 0
  96              		.cfi_startproc
  97              		@ args = 0, pretend = 0, frame = 16
  98              		@ frame_needed = 0, uses_anonymous_args = 0
  99 0000 10B5     		push	{r4, lr}
 100              	.LCFI0:
 101              		.cfi_def_cfa_offset 8
 102              		.cfi_offset 14, -4
 103              		.cfi_offset 4, -8
 104 0002 86B0     		sub	sp, sp, #24
 105              	.LCFI1:
 106              		.cfi_def_cfa_offset 32
 107              		.loc 1 255 0
 108 0004 0021     		movs	r1, #0
 109 0006 03A8     		add	r0, sp, #12
 110 0008 FFF7FEFF 		bl	chSemInit
 111              		.loc 1 256 0
 112 000c 0021     		movs	r1, #0
 113 000e 03A8     		add	r0, sp, #12
 114 0010 FFF7FEFF 		bl	chSemReset
ARM GAS  /tmp/ccRwVlcw.s 			page 3


 115              		.loc 1 257 0
 116 0014 0599     		ldr	r1, [sp, #20]
 117 0016 0120     		movs	r0, #1
 118 0018 0029     		cmp	r1, #0
 119 001a CCBF     		ite	gt
 120 001c 0021     		movgt	r1, #0
 121 001e 0121     		movle	r1, #1
 122 0020 FFF7FEFF 		bl	_test_assert
 123 0024 08B1     		cbz	r0, .L9
 124              	.L4:
 125              		.loc 1 279 0
 126 0026 06B0     		add	sp, sp, #24
 127 0028 10BD     		pop	{r4, pc}
 128              	.L9:
 129              		.loc 1 261 0
 130 002a 314B     		ldr	r3, .L12
 131              		.loc 1 260 0
 132 002c 3148     		ldr	r0, .L12+4
 133              		.loc 1 261 0
 134 002e 9B69     		ldr	r3, [r3, #24]
 135              		.loc 1 260 0
 136 0030 4FF49871 		mov	r1, #304
 137 0034 9A68     		ldr	r2, [r3, #8]
 138 0036 0068     		ldr	r0, [r0, #0]
 139 0038 013A     		subs	r2, r2, #1
 140 003a 2F4B     		ldr	r3, .L12+8
 141 003c 03AC     		add	r4, sp, #12
 142 003e 0094     		str	r4, [sp, #0]
 143 0040 FFF7FEFF 		bl	chThdCreateStatic
 144 0044 2D4B     		ldr	r3, .L12+12
 145 0046 1860     		str	r0, [r3, #0]
 146              		.loc 1 264 0
 147 0048 03A8     		add	r0, sp, #12
 148 004a FFF7FEFF 		bl	chSemWait
 149              		.loc 1 267 0
 150 004e 0599     		ldr	r1, [sp, #20]
 151 0050 0220     		movs	r0, #2
 152 0052 0029     		cmp	r1, #0
 153 0054 CCBF     		ite	gt
 154 0056 0021     		movgt	r1, #0
 155 0058 0121     		movle	r1, #1
 156 005a FFF7FEFF 		bl	_test_assert
 157 005e 0028     		cmp	r0, #0
 158 0060 E1D1     		bne	.L4
 159              	.LBB2:
 160              		.loc 1 271 0
 161 0062 2023     		movs	r3, #32
 162              	.LVL0:
 163              	@ 271 "../../test/testsem.c" 1
 164 0064 83F31188 		msr     BASEPRI, r3
 165              	@ 0 "" 2
 166              	.LVL1:
 167              		.thumb
 168              	.LBE2:
 169 0068 059B     		ldr	r3, [sp, #20]
 170              	.LVL2:
 171 006a 002B     		cmp	r3, #0
ARM GAS  /tmp/ccRwVlcw.s 			page 4


 172 006c 3CDD     		ble	.L10
 173              	.L6:
 174              		.loc 1 271 0 is_stmt 0 discriminator 2
 175 006e FFF7FEFF 		bl	chSchRescheduleS
 176              	.LBB3:
 177 0072 0023     		movs	r3, #0
 178              	.LVL3:
 179              	@ 271 "../../test/testsem.c" 1
 180 0074 83F31188 		msr     BASEPRI, r3
 181              	@ 0 "" 2
 182              	.LVL4:
 183              		.thumb
 184              	.LBE3:
 185              		.loc 1 272 0 is_stmt 1 discriminator 2
 186 0078 0599     		ldr	r1, [sp, #20]
 187 007a 0320     		movs	r0, #3
 188 007c 9942     		cmp	r1, r3
 189              	.LVL5:
 190 007e D4BF     		ite	le
 191 0080 0021     		movle	r1, #0
 192 0082 0121     		movgt	r1, #1
 193 0084 FFF7FEFF 		bl	_test_assert
 194 0088 0028     		cmp	r0, #0
 195 008a CCD1     		bne	.L4
 196              		.loc 1 273 0
 197 008c 0599     		ldr	r1, [sp, #20]
 198 008e 0420     		movs	r0, #4
 199 0090 A1F10102 		sub	r2, r1, #1
 200 0094 5142     		rsbs	r1, r2, #0
 201 0096 41EB0201 		adc	r1, r1, r2
 202 009a FFF7FEFF 		bl	_test_assert
 203 009e 0028     		cmp	r0, #0
 204 00a0 C1D1     		bne	.L4
 205              	.LBB4:
 206              		.loc 1 276 0
 207 00a2 2023     		movs	r3, #32
 208              	.LVL6:
 209              	@ 276 "../../test/testsem.c" 1
 210 00a4 83F31188 		msr     BASEPRI, r3
 211              	@ 0 "" 2
 212              	.LVL7:
 213              		.thumb
 214              	.LBE4:
 215 00a8 059B     		ldr	r3, [sp, #20]
 216              	.LVL8:
 217 00aa 002B     		cmp	r3, #0
 218 00ac 18DD     		ble	.L11
 219              	.L7:
 220              		.loc 1 276 0 is_stmt 0 discriminator 2
 221 00ae FFF7FEFF 		bl	chSchRescheduleS
 222              	.LBB5:
 223 00b2 0023     		movs	r3, #0
 224              	.LVL9:
 225              	@ 276 "../../test/testsem.c" 1
 226 00b4 83F31188 		msr     BASEPRI, r3
 227              	@ 0 "" 2
 228              	.LVL10:
ARM GAS  /tmp/ccRwVlcw.s 			page 5


 229              		.thumb
 230              	.LBE5:
 231              		.loc 1 277 0 is_stmt 1 discriminator 2
 232 00b8 0599     		ldr	r1, [sp, #20]
 233 00ba 0320     		movs	r0, #3
 234 00bc 9942     		cmp	r1, r3
 235              	.LVL11:
 236 00be D4BF     		ite	le
 237 00c0 0021     		movle	r1, #0
 238 00c2 0121     		movgt	r1, #1
 239 00c4 FFF7FEFF 		bl	_test_assert
 240 00c8 0028     		cmp	r0, #0
 241 00ca ACD1     		bne	.L4
 242              		.loc 1 278 0
 243 00cc 0599     		ldr	r1, [sp, #20]
 244 00ce 0520     		movs	r0, #5
 245 00d0 A1F10103 		sub	r3, r1, #1
 246 00d4 5942     		rsbs	r1, r3, #0
 247 00d6 41EB0301 		adc	r1, r1, r3
 248 00da FFF7FEFF 		bl	_test_assert
 249 00de A2E7     		b	.L4
 250              	.L11:
 251              		.loc 1 276 0 discriminator 1
 252 00e0 03A8     		add	r0, sp, #12
 253 00e2 FFF7FEFF 		bl	chSemSignalI
 254 00e6 E2E7     		b	.L7
 255              	.L10:
 256              		.loc 1 271 0 discriminator 1
 257 00e8 03A8     		add	r0, sp, #12
 258 00ea FFF7FEFF 		bl	chSemSignalI
 259 00ee BEE7     		b	.L6
 260              	.L13:
 261              		.align	2
 262              	.L12:
 263 00f0 00000000 		.word	rlist
 264 00f4 00000000 		.word	wa
 265 00f8 00000000 		.word	thread4
 266 00fc 00000000 		.word	threads
 267              		.cfi_endproc
 268              	.LFE17:
 269              		.size	sem4_execute, .-sem4_execute
 270              		.section	.text.thread4,"ax",%progbits
 271              		.align	2
 272              		.p2align 4,,15
 273              		.thumb
 274              		.thumb_func
 275              		.type	thread4, %function
 276              	thread4:
 277              	.LFB16:
 278              		.loc 1 245 0
 279              		.cfi_startproc
 280              		@ args = 0, pretend = 0, frame = 0
 281              		@ frame_needed = 0, uses_anonymous_args = 0
 282              	.LVL12:
 283 0000 08B5     		push	{r3, lr}
 284              	.LCFI2:
 285              		.cfi_def_cfa_offset 8
ARM GAS  /tmp/ccRwVlcw.s 			page 6


 286              		.cfi_offset 14, -4
 287              		.cfi_offset 3, -8
 288              	.LBB6:
 289              		.loc 1 247 0
 290 0002 2023     		movs	r3, #32
 291              	.LVL13:
 292              	@ 247 "../../test/testsem.c" 1
 293 0004 83F31188 		msr     BASEPRI, r3
 294              	@ 0 "" 2
 295              	.LVL14:
 296              		.thumb
 297              	.LBE6:
 298 0008 8368     		ldr	r3, [r0, #8]
 299              	.LVL15:
 300 000a 002B     		cmp	r3, #0
 301 000c 06DD     		ble	.L16
 302              	.LVL16:
 303              	.L15:
 304              		.loc 1 247 0 is_stmt 0 discriminator 2
 305 000e FFF7FEFF 		bl	chSchRescheduleS
 306              	.LBB7:
 307 0012 0023     		movs	r3, #0
 308              	.LVL17:
 309              	@ 247 "../../test/testsem.c" 1
 310 0014 83F31188 		msr     BASEPRI, r3
 311              	@ 0 "" 2
 312              	.LVL18:
 313              		.thumb
 314              	.LBE7:
 315              		.loc 1 249 0 is_stmt 1 discriminator 2
 316 0018 1846     		mov	r0, r3
 317 001a 08BD     		pop	{r3, pc}
 318              	.LVL19:
 319              	.L16:
 320              		.loc 1 247 0 discriminator 1
 321 001c FFF7FEFF 		bl	chSemSignalI
 322              	.LVL20:
 323 0020 F5E7     		b	.L15
 324              		.cfi_endproc
 325              	.LFE16:
 326              		.size	thread4, .-thread4
 327 0022 00BFAFF3 		.section	.text.thread3,"ax",%progbits
 327      0080AFF3 
 327      0080AFF3 
 327      0080
 328              		.align	2
 329              		.p2align 4,,15
 330              		.thumb
 331              		.thumb_func
 332              		.type	thread3, %function
 333              	thread3:
 334              	.LFB14:
 335              		.loc 1 209 0
 336              		.cfi_startproc
 337              		@ args = 0, pretend = 0, frame = 0
 338              		@ frame_needed = 0, uses_anonymous_args = 0
 339              	.LVL21:
ARM GAS  /tmp/ccRwVlcw.s 			page 7


 340 0000 10B5     		push	{r4, lr}
 341              	.LCFI3:
 342              		.cfi_def_cfa_offset 8
 343              		.cfi_offset 14, -4
 344              		.cfi_offset 4, -8
 345              		.loc 1 212 0
 346 0002 40F20004 		movw	r4, #:lower16:.LANCHOR0
 347 0006 C0F20004 		movt	r4, #:upper16:.LANCHOR0
 348 000a 2046     		mov	r0, r4
 349              	.LVL22:
 350 000c FFF7FEFF 		bl	chSemWait
 351              		.loc 1 213 0
 352 0010 2046     		mov	r0, r4
 353 0012 FFF7FEFF 		bl	chSemSignal
 354              		.loc 1 215 0
 355 0016 0020     		movs	r0, #0
 356 0018 10BD     		pop	{r4, pc}
 357              		.cfi_endproc
 358              	.LFE14:
 359              		.size	thread3, .-thread3
 360 001a 00BFAFF3 		.section	.text.thread1,"ax",%progbits
 360      0080
 361              		.align	2
 362              		.p2align 4,,15
 363              		.thumb
 364              		.thumb_func
 365              		.type	thread1, %function
 366              	thread1:
 367              	.LFB8:
 368              		.loc 1 77 0
 369              		.cfi_startproc
 370              		@ args = 0, pretend = 0, frame = 0
 371              		@ frame_needed = 0, uses_anonymous_args = 0
 372              	.LVL23:
 373 0000 10B5     		push	{r4, lr}
 374              	.LCFI4:
 375              		.cfi_def_cfa_offset 8
 376              		.cfi_offset 14, -4
 377              		.cfi_offset 4, -8
 378              		.loc 1 77 0
 379 0002 0446     		mov	r4, r0
 380              		.loc 1 79 0
 381 0004 40F20000 		movw	r0, #:lower16:.LANCHOR0
 382              	.LVL24:
 383 0008 C0F20000 		movt	r0, #:upper16:.LANCHOR0
 384 000c FFF7FEFF 		bl	chSemWait
 385              		.loc 1 80 0
 386 0010 2078     		ldrb	r0, [r4, #0]	@ zero_extendqisi2
 387 0012 FFF7FEFF 		bl	test_emit_token
 388              		.loc 1 82 0
 389 0016 0020     		movs	r0, #0
 390 0018 10BD     		pop	{r4, pc}
 391              		.cfi_endproc
 392              	.LFE8:
 393              		.size	thread1, .-thread1
 394 001a 00BFAFF3 		.section	.text.thread2,"ax",%progbits
 394      0080
ARM GAS  /tmp/ccRwVlcw.s 			page 8


 395              		.align	2
 396              		.p2align 4,,15
 397              		.thumb
 398              		.thumb_func
 399              		.type	thread2, %function
 400              	thread2:
 401              	.LFB11:
 402              		.loc 1 133 0
 403              		.cfi_startproc
 404              		@ args = 0, pretend = 0, frame = 0
 405              		@ frame_needed = 0, uses_anonymous_args = 0
 406              	.LVL25:
 407 0000 08B5     		push	{r3, lr}
 408              	.LCFI5:
 409              		.cfi_def_cfa_offset 8
 410              		.cfi_offset 14, -4
 411              		.cfi_offset 3, -8
 412              		.loc 1 136 0
 413 0002 3220     		movs	r0, #50
 414              	.LVL26:
 415 0004 FFF7FEFF 		bl	chThdSleep
 416              	.LBB8:
 417              		.loc 1 137 0
 418 0008 2023     		movs	r3, #32
 419              	.LVL27:
 420              	@ 137 "../../test/testsem.c" 1
 421 000a 83F31188 		msr     BASEPRI, r3
 422              	@ 0 "" 2
 423              	.LVL28:
 424              		.thumb
 425              	.LBE8:
 426              		.loc 1 138 0
 427 000e 40F20000 		movw	r0, #:lower16:.LANCHOR0
 428 0012 C0F20000 		movt	r0, #:upper16:.LANCHOR0
 429 0016 FFF7FEFF 		bl	chSemSignalI
 430              	.LVL29:
 431              		.loc 1 139 0
 432 001a FFF7FEFF 		bl	chSchRescheduleS
 433              	.LBB9:
 434              		.loc 1 140 0
 435 001e 0023     		movs	r3, #0
 436              	.LVL30:
 437              	@ 140 "../../test/testsem.c" 1
 438 0020 83F31188 		msr     BASEPRI, r3
 439              	@ 0 "" 2
 440              	.LVL31:
 441              		.thumb
 442              	.LBE9:
 443              		.loc 1 142 0
 444 0024 1846     		mov	r0, r3
 445 0026 08BD     		pop	{r3, pc}
 446              		.cfi_endproc
 447              	.LFE11:
 448              		.size	thread2, .-thread2
 449 0028 AFF30080 		.section	.text.sem1_execute,"ax",%progbits
 449      AFF30080 
 450              		.align	2
ARM GAS  /tmp/ccRwVlcw.s 			page 9


 451              		.p2align 4,,15
 452              		.thumb
 453              		.thumb_func
 454              		.type	sem1_execute, %function
 455              	sem1_execute:
 456              	.LFB9:
 457              		.loc 1 84 0
 458              		.cfi_startproc
 459              		@ args = 0, pretend = 0, frame = 0
 460              		@ frame_needed = 0, uses_anonymous_args = 0
 461 0000 2DE9F043 		push	{r4, r5, r6, r7, r8, r9, lr}
 462              	.LCFI6:
 463              		.cfi_def_cfa_offset 28
 464              		.cfi_offset 14, -4
 465              		.cfi_offset 9, -8
 466              		.cfi_offset 8, -12
 467              		.cfi_offset 7, -16
 468              		.cfi_offset 6, -20
 469              		.cfi_offset 5, -24
 470              		.cfi_offset 4, -28
 471              		.loc 1 86 0
 472 0004 464E     		ldr	r6, .L23
 473 0006 474C     		ldr	r4, .L23+4
 474 0008 B369     		ldr	r3, [r6, #24]
 475 000a D4F80090 		ldr	r9, [r4, #0]
 476 000e 9A68     		ldr	r2, [r3, #8]
 477 0010 454F     		ldr	r7, .L23+8
 478              		.loc 1 84 0
 479 0012 83B0     		sub	sp, sp, #12
 480              	.LCFI7:
 481              		.cfi_def_cfa_offset 40
 482              		.loc 1 86 0
 483 0014 4FF49871 		mov	r1, #304
 484 0018 0532     		adds	r2, r2, #5
 485 001a 444B     		ldr	r3, .L23+12
 486 001c 4846     		mov	r0, r9
 487 001e 0097     		str	r7, [sp, #0]
 488 0020 FFF7FEFF 		bl	chThdCreateStatic
 489              		.loc 1 87 0
 490 0024 B369     		ldr	r3, [r6, #24]
 491              		.loc 1 86 0
 492 0026 424D     		ldr	r5, .L23+16
 493              		.loc 1 87 0
 494 0028 D4F804E0 		ldr	lr, [r4, #4]
 495 002c 9A68     		ldr	r2, [r3, #8]
 496              		.loc 1 86 0
 497 002e 2860     		str	r0, [r5, #0]
 498              		.loc 1 87 0
 499 0030 7046     		mov	r0, lr
 500 0032 DFF80CE1 		ldr	lr, .L23+32
 501 0036 4FF49871 		mov	r1, #304
 502 003a 0132     		adds	r2, r2, #1
 503 003c 3B4B     		ldr	r3, .L23+12
 504 003e CDF800E0 		str	lr, [sp, #0]
 505 0042 FFF7FEFF 		bl	chThdCreateStatic
 506              		.loc 1 88 0
 507 0046 B369     		ldr	r3, [r6, #24]
ARM GAS  /tmp/ccRwVlcw.s 			page 10


 508 0048 D4F808E0 		ldr	lr, [r4, #8]
 509 004c 9A68     		ldr	r2, [r3, #8]
 510              		.loc 1 87 0
 511 004e 6860     		str	r0, [r5, #4]
 512              		.loc 1 88 0
 513 0050 7046     		mov	r0, lr
 514 0052 DFF8F0E0 		ldr	lr, .L23+36
 515 0056 4FF49871 		mov	r1, #304
 516 005a 0332     		adds	r2, r2, #3
 517 005c 334B     		ldr	r3, .L23+12
 518 005e CDF800E0 		str	lr, [sp, #0]
 519 0062 FFF7FEFF 		bl	chThdCreateStatic
 520              		.loc 1 89 0
 521 0066 B369     		ldr	r3, [r6, #24]
 522 0068 D4F80CE0 		ldr	lr, [r4, #12]
 523 006c 9A68     		ldr	r2, [r3, #8]
 524              		.loc 1 88 0
 525 006e A860     		str	r0, [r5, #8]
 526              		.loc 1 89 0
 527 0070 7046     		mov	r0, lr
 528 0072 DFF8D4E0 		ldr	lr, .L23+40
 529 0076 4FF49871 		mov	r1, #304
 530 007a 0432     		adds	r2, r2, #4
 531 007c 2B4B     		ldr	r3, .L23+12
 532 007e CDF800E0 		str	lr, [sp, #0]
 533 0082 FFF7FEFF 		bl	chThdCreateStatic
 534              		.loc 1 90 0
 535 0086 B369     		ldr	r3, [r6, #24]
 536 0088 2469     		ldr	r4, [r4, #16]
 537 008a 9A68     		ldr	r2, [r3, #8]
 538              		.loc 1 89 0
 539 008c E860     		str	r0, [r5, #12]
 540              		.loc 1 90 0
 541 008e 2046     		mov	r0, r4
 542 0090 284C     		ldr	r4, .L23+20
 543 0092 4FF49871 		mov	r1, #304
 544 0096 0232     		adds	r2, r2, #2
 545 0098 244B     		ldr	r3, .L23+12
 546 009a 0094     		str	r4, [sp, #0]
 547 009c FFF7FEFF 		bl	chThdCreateStatic
 548              		.loc 1 91 0
 549 00a0 254C     		ldr	r4, .L23+24
 550              		.loc 1 90 0
 551 00a2 2861     		str	r0, [r5, #16]
 552              		.loc 1 91 0
 553 00a4 2046     		mov	r0, r4
 554 00a6 FFF7FEFF 		bl	chSemSignal
 555              		.loc 1 92 0
 556 00aa 2046     		mov	r0, r4
 557 00ac FFF7FEFF 		bl	chSemSignal
 558              		.loc 1 93 0
 559 00b0 2046     		mov	r0, r4
 560 00b2 FFF7FEFF 		bl	chSemSignal
 561              		.loc 1 94 0
 562 00b6 2046     		mov	r0, r4
 563 00b8 FFF7FEFF 		bl	chSemSignal
 564              		.loc 1 95 0
ARM GAS  /tmp/ccRwVlcw.s 			page 11


 565 00bc 2046     		mov	r0, r4
 566 00be FFF7FEFF 		bl	chSemSignal
 567              		.loc 1 96 0
 568 00c2 FFF7FEFF 		bl	test_wait_threads
 569              		.loc 1 100 0
 570 00c6 0120     		movs	r0, #1
 571 00c8 1C49     		ldr	r1, .L23+28
 572 00ca FFF7FEFF 		bl	_test_assert_sequence
 573 00ce 8046     		mov	r8, r0
 574 00d0 10B1     		cbz	r0, .L22
 575              		.loc 1 108 0
 576 00d2 03B0     		add	sp, sp, #12
 577 00d4 BDE8F083 		pop	{r4, r5, r6, r7, r8, r9, pc}
 578              	.L22:
 579              		.loc 1 102 0
 580 00d8 B369     		ldr	r3, [r6, #24]
 581 00da 4846     		mov	r0, r9
 582 00dc 9A68     		ldr	r2, [r3, #8]
 583 00de 4FF49871 		mov	r1, #304
 584 00e2 0532     		adds	r2, r2, #5
 585 00e4 114B     		ldr	r3, .L23+12
 586 00e6 0097     		str	r7, [sp, #0]
 587 00e8 FFF7FEFF 		bl	chThdCreateStatic
 588              	.LBB10:
 589              		.loc 1 103 0
 590 00ec 2023     		movs	r3, #32
 591              	.LVL32:
 592              	.LBE10:
 593              		.loc 1 102 0
 594 00ee 2860     		str	r0, [r5, #0]
 595              	.LBB11:
 596              		.loc 1 103 0
 597              	@ 103 "../../test/testsem.c" 1
 598 00f0 83F31188 		msr     BASEPRI, r3
 599              	@ 0 "" 2
 600              	.LVL33:
 601              		.thumb
 602              	.LBE11:
 603              		.loc 1 104 0
 604 00f4 0221     		movs	r1, #2
 605 00f6 2046     		mov	r0, r4
 606 00f8 FFF7FEFF 		bl	chSemAddCounterI
 607              	.LVL34:
 608              	.LBB12:
 609              		.loc 1 105 0
 610 00fc 4346     		mov	r3, r8
 611              	.LVL35:
 612              	@ 105 "../../test/testsem.c" 1
 613 00fe 83F31188 		msr     BASEPRI, r3
 614              	@ 0 "" 2
 615              	.LVL36:
 616              		.thumb
 617              	.LBE12:
 618              		.loc 1 106 0
 619 0102 FFF7FEFF 		bl	test_wait_threads
 620              	.LVL37:
 621              		.loc 1 107 0
ARM GAS  /tmp/ccRwVlcw.s 			page 12


 622 0106 A168     		ldr	r1, [r4, #8]
 623 0108 0220     		movs	r0, #2
 624 010a A1F1010E 		sub	lr, r1, #1
 625 010e DEF10001 		rsbs	r1, lr, #0
 626 0112 41EB0E01 		adc	r1, r1, lr
 627              		.loc 1 108 0
 628 0116 03B0     		add	sp, sp, #12
 629 0118 BDE8F043 		pop	{r4, r5, r6, r7, r8, r9, lr}
 630              		.loc 1 107 0
 631 011c FFF7FEBF 		b	_test_assert
 632              	.L24:
 633              		.align	2
 634              	.L23:
 635 0120 00000000 		.word	rlist
 636 0124 00000000 		.word	wa
 637 0128 00000000 		.word	.LC0
 638 012c 00000000 		.word	thread1
 639 0130 00000000 		.word	threads
 640 0134 10000000 		.word	.LC4
 641 0138 00000000 		.word	.LANCHOR0
 642 013c 14000000 		.word	.LC5
 643 0140 04000000 		.word	.LC1
 644 0144 08000000 		.word	.LC2
 645 0148 0C000000 		.word	.LC3
 646              		.cfi_endproc
 647              	.LFE9:
 648              		.size	sem1_execute, .-sem1_execute
 649 014c AFF30080 		.section	.text.sem3_execute,"ax",%progbits
 650              		.align	2
 651              		.p2align 4,,15
 652              		.thumb
 653              		.thumb_func
 654              		.type	sem3_execute, %function
 655              	sem3_execute:
 656              	.LFB15:
 657              		.loc 1 217 0
 658              		.cfi_startproc
 659              		@ args = 0, pretend = 0, frame = 0
 660              		@ frame_needed = 0, uses_anonymous_args = 0
 661              		.loc 1 219 0
 662 0000 224B     		ldr	r3, .L28
 663              		.loc 1 217 0
 664 0002 10B5     		push	{r4, lr}
 665              	.LCFI8:
 666              		.cfi_def_cfa_offset 8
 667              		.cfi_offset 14, -4
 668              		.cfi_offset 4, -8
 669              		.loc 1 219 0
 670 0004 9B69     		ldr	r3, [r3, #24]
 671 0006 2248     		ldr	r0, .L28+4
 672 0008 9A68     		ldr	r2, [r3, #8]
 673              		.loc 1 217 0
 674 000a 82B0     		sub	sp, sp, #8
 675              	.LCFI9:
 676              		.cfi_def_cfa_offset 16
 677              		.loc 1 219 0
 678 000c 0132     		adds	r2, r2, #1
ARM GAS  /tmp/ccRwVlcw.s 			page 13


 679 000e 0024     		movs	r4, #0
 680 0010 4FF49871 		mov	r1, #304
 681 0014 1F4B     		ldr	r3, .L28+8
 682 0016 0068     		ldr	r0, [r0, #0]
 683 0018 0094     		str	r4, [sp, #0]
 684 001a FFF7FEFF 		bl	chThdCreateStatic
 685              		.loc 1 220 0
 686 001e 1E4C     		ldr	r4, .L28+12
 687              		.loc 1 219 0
 688 0020 1E4B     		ldr	r3, .L28+16
 689              		.loc 1 220 0
 690 0022 2146     		mov	r1, r4
 691              		.loc 1 219 0
 692 0024 1860     		str	r0, [r3, #0]
 693              		.loc 1 220 0
 694 0026 2046     		mov	r0, r4
 695 0028 FFF7FEFF 		bl	chSemSignalWait
 696              		.loc 1 221 0
 697 002c 2168     		ldr	r1, [r4, #0]
 698 002e 0120     		movs	r0, #1
 699 0030 0B1B     		subs	r3, r1, r4
 700 0032 5942     		rsbs	r1, r3, #0
 701 0034 41EB0301 		adc	r1, r1, r3
 702 0038 FFF7FEFF 		bl	_test_assert
 703 003c 08B1     		cbz	r0, .L27
 704              	.L25:
 705              		.loc 1 227 0
 706 003e 02B0     		add	sp, sp, #8
 707 0040 10BD     		pop	{r4, pc}
 708              	.L27:
 709              		.loc 1 222 0
 710 0042 A168     		ldr	r1, [r4, #8]
 711 0044 0220     		movs	r0, #2
 712 0046 D1F10101 		rsbs	r1, r1, #1
 713 004a 38BF     		it	cc
 714 004c 0021     		movcc	r1, #0
 715 004e FFF7FEFF 		bl	_test_assert
 716 0052 0028     		cmp	r0, #0
 717 0054 F3D1     		bne	.L25
 718              	.LBB15:
 719              	.LBB16:
 720              		.loc 1 224 0
 721 0056 2146     		mov	r1, r4
 722 0058 2046     		mov	r0, r4
 723 005a FFF7FEFF 		bl	chSemSignalWait
 724              		.loc 1 225 0
 725 005e 2168     		ldr	r1, [r4, #0]
 726 0060 0320     		movs	r0, #3
 727 0062 C4EB010C 		rsb	ip, r4, r1
 728 0066 DCF10001 		rsbs	r1, ip, #0
 729 006a 41EB0C01 		adc	r1, r1, ip
 730 006e FFF7FEFF 		bl	_test_assert
 731 0072 0028     		cmp	r0, #0
 732 0074 E3D1     		bne	.L25
 733              		.loc 1 226 0
 734 0076 A168     		ldr	r1, [r4, #8]
 735 0078 0420     		movs	r0, #4
ARM GAS  /tmp/ccRwVlcw.s 			page 14


 736 007a D1F10101 		rsbs	r1, r1, #1
 737 007e 38BF     		it	cc
 738 0080 0021     		movcc	r1, #0
 739              	.LBE16:
 740              	.LBE15:
 741              		.loc 1 227 0
 742 0082 02B0     		add	sp, sp, #8
 743 0084 BDE81040 		pop	{r4, lr}
 744              	.LBB18:
 745              	.LBB17:
 746              		.loc 1 226 0
 747 0088 FFF7FEBF 		b	_test_assert
 748              	.L29:
 749              		.align	2
 750              	.L28:
 751 008c 00000000 		.word	rlist
 752 0090 00000000 		.word	wa
 753 0094 00000000 		.word	thread3
 754 0098 00000000 		.word	.LANCHOR0
 755 009c 00000000 		.word	threads
 756              	.LBE17:
 757              	.LBE18:
 758              		.cfi_endproc
 759              	.LFE15:
 760              		.size	sem3_execute, .-sem3_execute
 761              		.section	.text.sem2_execute,"ax",%progbits
 762              		.align	2
 763              		.p2align 4,,15
 764              		.thumb
 765              		.thumb_func
 766              		.type	sem2_execute, %function
 767              	sem2_execute:
 768              	.LFB12:
 769              		.loc 1 144 0
 770              		.cfi_startproc
 771              		@ args = 0, pretend = 0, frame = 0
 772              		@ frame_needed = 0, uses_anonymous_args = 0
 773 0000 70B5     		push	{r4, r5, r6, lr}
 774              	.LCFI10:
 775              		.cfi_def_cfa_offset 16
 776              		.cfi_offset 14, -4
 777              		.cfi_offset 6, -8
 778              		.cfi_offset 5, -12
 779              		.cfi_offset 4, -16
 780              		.loc 1 152 0
 781 0002 4E4C     		ldr	r4, .L35
 782 0004 0021     		movs	r1, #0
 783              		.loc 1 144 0
 784 0006 82B0     		sub	sp, sp, #8
 785              	.LCFI11:
 786              		.cfi_def_cfa_offset 24
 787              		.loc 1 152 0
 788 0008 2046     		mov	r0, r4
 789 000a FFF7FEFF 		bl	chSemWaitTimeout
 790              	.LVL38:
 791              		.loc 1 153 0
 792 000e A0F1FF33 		sub	r3, r0, #-1
ARM GAS  /tmp/ccRwVlcw.s 			page 15


 793 0012 5942     		rsbs	r1, r3, #0
 794 0014 41EB0301 		adc	r1, r1, r3
 795 0018 0120     		movs	r0, #1
 796              	.LVL39:
 797 001a FFF7FEFF 		bl	_test_assert
 798              	.LVL40:
 799 001e 08B1     		cbz	r0, .L34
 800              	.L30:
 801              		.loc 1 182 0
 802 0020 02B0     		add	sp, sp, #8
 803 0022 70BD     		pop	{r4, r5, r6, pc}
 804              	.L34:
 805              		.loc 1 154 0
 806 0024 2168     		ldr	r1, [r4, #0]
 807 0026 0220     		movs	r0, #2
 808 0028 C4EB010C 		rsb	ip, r4, r1
 809 002c DCF10001 		rsbs	r1, ip, #0
 810 0030 41EB0C01 		adc	r1, r1, ip
 811 0034 FFF7FEFF 		bl	_test_assert
 812 0038 0028     		cmp	r0, #0
 813 003a F1D1     		bne	.L30
 814              		.loc 1 155 0
 815 003c A168     		ldr	r1, [r4, #8]
 816 003e 0320     		movs	r0, #3
 817 0040 D1F10101 		rsbs	r1, r1, #1
 818 0044 38BF     		it	cc
 819 0046 0021     		movcc	r1, #0
 820 0048 FFF7FEFF 		bl	_test_assert
 821 004c 0546     		mov	r5, r0
 822 004e 0028     		cmp	r0, #0
 823 0050 E6D1     		bne	.L30
 824              	.LBB21:
 825              	.LBB22:
 826              		.loc 1 160 0
 827 0052 3B4B     		ldr	r3, .L35+4
 828 0054 3B48     		ldr	r0, .L35+8
 829 0056 9B69     		ldr	r3, [r3, #24]
 830 0058 4FF49871 		mov	r1, #304
 831 005c 9A68     		ldr	r2, [r3, #8]
 832 005e 0068     		ldr	r0, [r0, #0]
 833 0060 013A     		subs	r2, r2, #1
 834 0062 394B     		ldr	r3, .L35+12
 835 0064 0095     		str	r5, [sp, #0]
 836 0066 FFF7FEFF 		bl	chThdCreateStatic
 837 006a 384B     		ldr	r3, .L35+16
 838              		.loc 1 162 0
 839 006c 4FF4FA71 		mov	r1, #500
 840              		.loc 1 160 0
 841 0070 1860     		str	r0, [r3, #0]
 842              		.loc 1 162 0
 843 0072 2046     		mov	r0, r4
 844 0074 FFF7FEFF 		bl	chSemWaitTimeout
 845 0078 0546     		mov	r5, r0
 846              	.LVL41:
 847              		.loc 1 163 0
 848 007a FFF7FEFF 		bl	test_wait_threads
 849              	.LVL42:
ARM GAS  /tmp/ccRwVlcw.s 			page 16


 850              		.loc 1 164 0
 851 007e 0420     		movs	r0, #4
 852 0080 D5F10101 		rsbs	r1, r5, #1
 853 0084 38BF     		it	cc
 854 0086 0021     		movcc	r1, #0
 855 0088 FFF7FEFF 		bl	_test_assert
 856 008c 0028     		cmp	r0, #0
 857 008e C7D1     		bne	.L30
 858              		.loc 1 165 0
 859 0090 2168     		ldr	r1, [r4, #0]
 860 0092 0520     		movs	r0, #5
 861 0094 C4EB010E 		rsb	lr, r4, r1
 862 0098 DEF10001 		rsbs	r1, lr, #0
 863 009c 41EB0E01 		adc	r1, r1, lr
 864 00a0 FFF7FEFF 		bl	_test_assert
 865 00a4 0028     		cmp	r0, #0
 866 00a6 BBD1     		bne	.L30
 867              		.loc 1 166 0
 868 00a8 A168     		ldr	r1, [r4, #8]
 869 00aa 0620     		movs	r0, #6
 870 00ac D1F10101 		rsbs	r1, r1, #1
 871 00b0 38BF     		it	cc
 872 00b2 0021     		movcc	r1, #0
 873 00b4 FFF7FEFF 		bl	_test_assert
 874 00b8 0028     		cmp	r0, #0
 875 00ba B1D1     		bne	.L30
 876              		.loc 1 171 0
 877 00bc FFF7FEFF 		bl	test_wait_tick
 878              		.loc 1 172 0
 879 00c0 234B     		ldr	r3, .L35+20
 880 00c2 4125     		movs	r5, #65
 881              	.LVL43:
 882 00c4 DE68     		ldr	r6, [r3, #12]
 883              	.LVL44:
 884              	.L32:
 885              		.loc 1 174 0
 886 00c6 2846     		mov	r0, r5
 887 00c8 FFF7FEFF 		bl	test_emit_token
 888              		.loc 1 175 0
 889 00cc 4FF4FA71 		mov	r1, #500
 890 00d0 1A48     		ldr	r0, .L35
 891 00d2 FFF7FEFF 		bl	chSemWaitTimeout
 892              	.LVL45:
 893              		.loc 1 176 0
 894 00d6 A0F1FF30 		sub	r0, r0, #-1
 895              	.LVL46:
 896 00da 4142     		rsbs	r1, r0, #0
 897 00dc 41EB0001 		adc	r1, r1, r0
 898 00e0 0720     		movs	r0, #7
 899              	.LVL47:
 900 00e2 FFF7FEFF 		bl	_test_assert
 901 00e6 0028     		cmp	r0, #0
 902 00e8 9AD1     		bne	.L30
 903              		.loc 1 177 0
 904 00ea 2168     		ldr	r1, [r4, #0]
 905 00ec 0820     		movs	r0, #8
 906 00ee 0A1B     		subs	r2, r1, r4
ARM GAS  /tmp/ccRwVlcw.s 			page 17


 907 00f0 5142     		rsbs	r1, r2, #0
 908 00f2 41EB0201 		adc	r1, r1, r2
 909 00f6 FFF7FEFF 		bl	_test_assert
 910 00fa 0028     		cmp	r0, #0
 911 00fc 90D1     		bne	.L30
 912              		.loc 1 178 0
 913 00fe A168     		ldr	r1, [r4, #8]
 914 0100 0920     		movs	r0, #9
 915 0102 D1F10101 		rsbs	r1, r1, #1
 916 0106 38BF     		it	cc
 917 0108 0021     		movcc	r1, #0
 918 010a FFF7FEFF 		bl	_test_assert
 919 010e 0135     		adds	r5, r5, #1
 920 0110 EDB2     		uxtb	r5, r5
 921 0112 0028     		cmp	r0, #0
 922 0114 84D1     		bne	.L30
 923              		.loc 1 173 0
 924 0116 462D     		cmp	r5, #70
 925 0118 D5D1     		bne	.L32
 926              		.loc 1 180 0
 927 011a 0A20     		movs	r0, #10
 928 011c 0D49     		ldr	r1, .L35+24
 929 011e FFF7FEFF 		bl	_test_assert_sequence
 930 0122 0028     		cmp	r0, #0
 931 0124 7FF47CAF 		bne	.L30
 932              		.loc 1 181 0
 933 0128 0B20     		movs	r0, #11
 934 012a 06F6C411 		addw	r1, r6, #2500
 935 012e 06F6C912 		addw	r2, r6, #2505
 936              	.LBE22:
 937              	.LBE21:
 938              		.loc 1 182 0
 939 0132 02B0     		add	sp, sp, #8
 940 0134 BDE87040 		pop	{r4, r5, r6, lr}
 941              	.LBB24:
 942              	.LBB23:
 943              		.loc 1 181 0
 944 0138 FFF7FEBF 		b	_test_assert_time_window
 945              	.L36:
 946              		.align	2
 947              	.L35:
 948 013c 00000000 		.word	.LANCHOR0
 949 0140 00000000 		.word	rlist
 950 0144 00000000 		.word	wa
 951 0148 00000000 		.word	thread2
 952 014c 00000000 		.word	threads
 953 0150 00000000 		.word	vtlist
 954 0154 14000000 		.word	.LC5
 955              	.LBE23:
 956              	.LBE24:
 957              		.cfi_endproc
 958              	.LFE12:
 959              		.size	sem2_execute, .-sem2_execute
 960              		.global	patternsem
 961              		.global	testsem4
 962              		.global	testsem3
 963              		.global	testsem2
ARM GAS  /tmp/ccRwVlcw.s 			page 18


 964              		.global	testsem1
 965 0158 AFF30080 		.section	.rodata.testsem1,"a",%progbits
 965      AFF30080 
 966              		.align	2
 967              		.type	testsem1, %object
 968              		.size	testsem1, 16
 969              	testsem1:
 970 0000 74000000 		.word	.LC9
 971 0004 00000000 		.word	sem1_setup
 972 0008 00000000 		.word	0
 973 000c 00000000 		.word	sem1_execute
 974              		.section	.rodata.testsem2,"a",%progbits
 975              		.align	2
 976              		.type	testsem2, %object
 977              		.size	testsem2, 16
 978              	testsem2:
 979 0000 60000000 		.word	.LC8
 980 0004 00000000 		.word	sem2_setup
 981 0008 00000000 		.word	0
 982 000c 00000000 		.word	sem2_execute
 983              		.section	.rodata.testsem3,"a",%progbits
 984              		.align	2
 985              		.type	testsem3, %object
 986              		.size	testsem3, 16
 987              	testsem3:
 988 0000 40000000 		.word	.LC7
 989 0004 00000000 		.word	sem3_setup
 990 0008 00000000 		.word	0
 991 000c 00000000 		.word	sem3_execute
 992              		.section	.rodata.testsem4,"a",%progbits
 993              		.align	2
 994              		.type	testsem4, %object
 995              		.size	testsem4, 16
 996              	testsem4:
 997 0000 1C000000 		.word	.LC6
 998 0004 00000000 		.word	0
 999 0008 00000000 		.word	0
 1000 000c 00000000 		.word	sem4_execute
 1001              		.section	.data.sem1,"aw",%progbits
 1002              		.align	2
 1003              		.set	.LANCHOR0,. + 0
 1004              		.type	sem1, %object
 1005              		.size	sem1, 12
 1006              	sem1:
 1007 0000 00000000 		.word	sem1
 1008 0004 00000000 		.word	sem1
 1009 0008 00000000 		.word	0
 1010              		.section	.rodata.patternsem,"a",%progbits
 1011              		.align	2
 1012              		.type	patternsem, %object
 1013              		.size	patternsem, 20
 1014              	patternsem:
 1015 0000 00000000 		.word	testsem1
 1016 0004 00000000 		.word	testsem2
 1017 0008 00000000 		.word	testsem3
 1018 000c 00000000 		.word	testsem4
 1019 0010 00000000 		.word	0
ARM GAS  /tmp/ccRwVlcw.s 			page 19


 1020              		.section	.rodata.str1.4,"aMS",%progbits,1
 1021              		.align	2
 1022              	.LC0:
 1023 0000 4100     		.ascii	"A\000"
 1024 0002 0000     		.space	2
 1025              	.LC1:
 1026 0004 4200     		.ascii	"B\000"
 1027 0006 0000     		.space	2
 1028              	.LC2:
 1029 0008 4300     		.ascii	"C\000"
 1030 000a 0000     		.space	2
 1031              	.LC3:
 1032 000c 4400     		.ascii	"D\000"
 1033 000e 0000     		.space	2
 1034              	.LC4:
 1035 0010 4500     		.ascii	"E\000"
 1036 0012 0000     		.space	2
 1037              	.LC5:
 1038 0014 41424344 		.ascii	"ABCDE\000"
 1038      4500
 1039 001a 0000     		.space	2
 1040              	.LC6:
 1041 001c 42696E61 		.ascii	"Binary Semaphores, functionality\000"
 1041      72792053 
 1041      656D6170 
 1041      686F7265 
 1041      732C2066 
 1042 003d 000000   		.space	3
 1043              	.LC7:
 1044 0040 53656D61 		.ascii	"Semaphores, atomic signal-wait\000"
 1044      70686F72 
 1044      65732C20 
 1044      61746F6D 
 1044      69632073 
 1045 005f 00       		.space	1
 1046              	.LC8:
 1047 0060 53656D61 		.ascii	"Semaphores, timeout\000"
 1047      70686F72 
 1047      65732C20 
 1047      74696D65 
 1047      6F757400 
 1048              	.LC9:
 1049 0074 53656D61 		.ascii	"Semaphores, enqueuing\000"
 1049      70686F72 
 1049      65732C20 
 1049      656E7175 
 1049      6575696E 
 1050 008a 0000     		.text
 1051              	.Letext0:
 1052              		.file 2 "/opt/paparazzi/arm-multilib/lib/gcc/arm-none-eabi/4.6.2/../../../../arm-none-eabi/include
 1053              		.file 3 "../../os/ports/GCC/ARMCMx/chtypes.h"
 1054              		.file 4 "../../os/kernel/include/chlists.h"
 1055              		.file 5 "../../os/kernel/include/chthreads.h"
 1056              		.file 6 "../../os/ports/GCC/ARMCMx/chcore_v7m.h"
 1057              		.file 7 "../../os/kernel/include/chvt.h"
 1058              		.file 8 "../../os/kernel/include/chschd.h"
 1059              		.file 9 "../../os/kernel/include/chsem.h"
ARM GAS  /tmp/ccRwVlcw.s 			page 20


 1060              		.file 10 "../../os/kernel/include/chbsem.h"
 1061              		.file 11 "../../os/kernel/include/chmtx.h"
 1062              		.file 12 "../../test/test.h"