ARM GAS  /tmp/ccLF8X51.s 			page 1


   1              		.syntax unified
   2              		.cpu cortex-m4
   3              		.fpu softvfp
   4              		.eabi_attribute 20, 1
   5              		.eabi_attribute 21, 1
   6              		.eabi_attribute 23, 3
   7              		.eabi_attribute 24, 1
   8              		.eabi_attribute 25, 1
   9              		.eabi_attribute 26, 1
  10              		.eabi_attribute 30, 2
  11              		.eabi_attribute 18, 4
  12              		.thumb
  13              		.file	"adc_lld.c"
  14              		.text
  15              	.Ltext0:
  16              		.cfi_sections	.debug_frame
  17              		.section	.text.adc_lld_init,"ax",%progbits
  18              		.align	2
  19              		.p2align 4,,15
  20              		.global	adc_lld_init
  21              		.thumb
  22              		.thumb_func
  23              		.type	adc_lld_init, %function
  24              	adc_lld_init:
  25              	.LFB120:
  26              		.file 1 "../../os/hal/platforms/STM32F4xx/adc_lld.c"
  27              		.loc 1 171 0
  28              		.cfi_startproc
  29              		@ args = 0, pretend = 0, frame = 0
  30              		@ frame_needed = 0, uses_anonymous_args = 0
  31 0000 10B5     		push	{r4, lr}
  32              	.LCFI0:
  33              		.cfi_def_cfa_offset 8
  34              		.cfi_offset 14, -4
  35              		.cfi_offset 4, -8
  36              		.loc 1 175 0
  37 0002 40F20004 		movw	r4, #:lower16:.LANCHOR0
  38 0006 C0F20004 		movt	r4, #:upper16:.LANCHOR0
  39 000a 2046     		mov	r0, r4
  40 000c FFF7FEFF 		bl	adcObjectInit
  41              		.loc 1 176 0
  42 0010 4FF40052 		mov	r2, #8192
  43 0014 C4F20102 		movt	r2, 16385
  44 0018 A262     		str	r2, [r4, #40]
  45              		.loc 1 178 0
  46 001a 42F61643 		movw	r3, #11286
  47              		.loc 1 177 0
  48 001e 054A     		ldr	r2, .L2
  49              		.loc 1 178 0
  50 0020 C0F20203 		movt	r3, 2
  51              		.loc 1 214 0
  52 0024 1220     		movs	r0, #18
  53 0026 6021     		movs	r1, #96
  54              		.loc 1 177 0
  55 0028 E262     		str	r2, [r4, #44]
  56              		.loc 1 178 0
  57 002a 2363     		str	r3, [r4, #48]
ARM GAS  /tmp/ccLF8X51.s 			page 2


  58              		.loc 1 215 0
  59 002c BDE81040 		pop	{r4, lr}
  60              		.loc 1 214 0
  61 0030 FFF7FEBF 		b	nvicEnableVector
  62              	.L3:
  63              		.align	2
  64              	.L2:
  65 0034 90000000 		.word	_stm32_dma_streams+144
  66              		.cfi_endproc
  67              	.LFE120:
  68              		.size	adc_lld_init, .-adc_lld_init
  69 0038 AFF30080 		.section	.text.adc_lld_start,"ax",%progbits
  69      AFF30080 
  70              		.align	2
  71              		.p2align 4,,15
  72              		.global	adc_lld_start
  73              		.thumb
  74              		.thumb_func
  75              		.type	adc_lld_start, %function
  76              	adc_lld_start:
  77              	.LFB121:
  78              		.loc 1 224 0
  79              		.cfi_startproc
  80              		@ args = 0, pretend = 0, frame = 0
  81              		@ frame_needed = 0, uses_anonymous_args = 0
  82              	.LVL0:
  83              		.loc 1 227 0
  84 0000 0378     		ldrb	r3, [r0, #0]	@ zero_extendqisi2
  85 0002 012B     		cmp	r3, #1
  86              		.loc 1 224 0
  87 0004 10B5     		push	{r4, lr}
  88              	.LCFI1:
  89              		.cfi_def_cfa_offset 8
  90              		.cfi_offset 14, -4
  91              		.cfi_offset 4, -8
  92              		.loc 1 224 0
  93 0006 0446     		mov	r4, r0
  94              		.loc 1 227 0
  95 0008 00D0     		beq	.L8
  96 000a 10BD     		pop	{r4, pc}
  97              	.L8:
  98              		.loc 1 229 0
  99 000c 144B     		ldr	r3, .L10
 100 000e 9842     		cmp	r0, r3
 101 0010 10D0     		beq	.L9
 102              	.LVL1:
 103              	.L6:
 104              		.loc 1 269 0
 105 0012 4FF40C52 		mov	r2, #8960
 106 0016 C4F20102 		movt	r2, 16385
 107              		.loc 1 274 0
 108 001a A36A     		ldr	r3, [r4, #40]
 109              		.loc 1 269 0
 110 001c 5068     		ldr	r0, [r2, #4]
 111 001e 00F44000 		and	r0, r0, #12582912
 112 0022 40F48030 		orr	r0, r0, #65536
 113 0026 5060     		str	r0, [r2, #4]
ARM GAS  /tmp/ccLF8X51.s 			page 3


 114              		.loc 1 274 0
 115 0028 0021     		movs	r1, #0
 116              		.loc 1 276 0
 117 002a 0122     		movs	r2, #1
 118              		.loc 1 274 0
 119 002c 5960     		str	r1, [r3, #4]
 120              		.loc 1 275 0
 121 002e 9960     		str	r1, [r3, #8]
 122              		.loc 1 276 0
 123 0030 9A60     		str	r2, [r3, #8]
 124 0032 10BD     		pop	{r4, pc}
 125              	.L9:
 126              	.LBB2:
 127              		.loc 1 231 0
 128 0034 0B4A     		ldr	r2, .L10+4
 129 0036 C06A     		ldr	r0, [r0, #44]
 130 0038 0621     		movs	r1, #6
 131 003a 2346     		mov	r3, r4
 132 003c FFF7FEFF 		bl	dmaStreamAllocate
 133              		.loc 1 236 0
 134 0040 E36A     		ldr	r3, [r4, #44]
 135 0042 42F24C02 		movw	r2, #8268
 136 0046 1968     		ldr	r1, [r3, #0]
 137              		.loc 1 237 0
 138 0048 4FF46053 		mov	r3, #14336
 139 004c C4F20203 		movt	r3, 16386
 140              		.loc 1 236 0
 141 0050 C4F20102 		movt	r2, 16385
 142 0054 8A60     		str	r2, [r1, #8]
 143              		.loc 1 237 0
 144 0056 5A6C     		ldr	r2, [r3, #68]
 145 0058 42F48072 		orr	r2, r2, #256
 146 005c 5A64     		str	r2, [r3, #68]
 147 005e D8E7     		b	.L6
 148              	.L11:
 149              		.align	2
 150              	.L10:
 151 0060 00000000 		.word	.LANCHOR0
 152 0064 00000000 		.word	adc_lld_serve_rx_interrupt
 153              	.LBE2:
 154              		.cfi_endproc
 155              	.LFE121:
 156              		.size	adc_lld_start, .-adc_lld_start
 157 0068 AFF30080 		.section	.text.adc_lld_stop,"ax",%progbits
 157      AFF30080 
 158              		.align	2
 159              		.p2align 4,,15
 160              		.global	adc_lld_stop
 161              		.thumb
 162              		.thumb_func
 163              		.type	adc_lld_stop, %function
 164              	adc_lld_stop:
 165              	.LFB122:
 166              		.loc 1 287 0
 167              		.cfi_startproc
 168              		@ args = 0, pretend = 0, frame = 0
 169              		@ frame_needed = 0, uses_anonymous_args = 0
ARM GAS  /tmp/ccLF8X51.s 			page 4


 170              	.LVL2:
 171              		.loc 1 290 0
 172 0000 0378     		ldrb	r3, [r0, #0]	@ zero_extendqisi2
 173 0002 022B     		cmp	r3, #2
 174              		.loc 1 287 0
 175 0004 10B5     		push	{r4, lr}
 176              	.LCFI2:
 177              		.cfi_def_cfa_offset 8
 178              		.cfi_offset 14, -4
 179              		.cfi_offset 4, -8
 180              		.loc 1 287 0
 181 0006 0446     		mov	r4, r0
 182              		.loc 1 290 0
 183 0008 00D0     		beq	.L14
 184 000a 10BD     		pop	{r4, pc}
 185              	.L14:
 186              		.loc 1 291 0
 187 000c C06A     		ldr	r0, [r0, #44]
 188              	.LVL3:
 189 000e FFF7FEFF 		bl	dmaStreamRelease
 190              		.loc 1 292 0
 191 0012 A36A     		ldr	r3, [r4, #40]
 192 0014 0022     		movs	r2, #0
 193 0016 5A60     		str	r2, [r3, #4]
 194              		.loc 1 293 0
 195 0018 9A60     		str	r2, [r3, #8]
 196              		.loc 1 296 0
 197 001a 064B     		ldr	r3, .L15
 198 001c 9C42     		cmp	r4, r3
 199              		.loc 1 297 0
 200 001e 01BF     		itttt	eq
 201 0020 4FF46053 		moveq	r3, #14336
 202 0024 C4F20203 		movteq	r3, 16386
 203 0028 5A6C     		ldreq	r2, [r3, #68]
 204 002a 22F48072 		biceq	r2, r2, #256
 205 002e 08BF     		it	eq
 206 0030 5A64     		streq	r2, [r3, #68]
 207 0032 10BD     		pop	{r4, pc}
 208              	.L16:
 209              		.align	2
 210              	.L15:
 211 0034 00000000 		.word	.LANCHOR0
 212              		.cfi_endproc
 213              	.LFE122:
 214              		.size	adc_lld_stop, .-adc_lld_stop
 215 0038 AFF30080 		.section	.text.adc_lld_start_conversion,"ax",%progbits
 215      AFF30080 
 216              		.align	2
 217              		.p2align 4,,15
 218              		.global	adc_lld_start_conversion
 219              		.thumb
 220              		.thumb_func
 221              		.type	adc_lld_start_conversion, %function
 222              	adc_lld_start_conversion:
 223              	.LFB123:
 224              		.loc 1 319 0
 225              		.cfi_startproc
ARM GAS  /tmp/ccLF8X51.s 			page 5


 226              		@ args = 0, pretend = 0, frame = 0
 227              		@ frame_needed = 0, uses_anonymous_args = 0
 228              		@ link register save eliminated.
 229              	.LVL4:
 230              		.loc 1 321 0
 231 0000 0369     		ldr	r3, [r0, #16]
 232              	.LVL5:
 233              		.loc 1 324 0
 234 0002 026B     		ldr	r2, [r0, #48]
 235              	.LVL6:
 236              		.loc 1 325 0
 237 0004 1978     		ldrb	r1, [r3, #0]	@ zero_extendqisi2
 238              		.loc 1 319 0
 239 0006 2DE9F003 		push	{r4, r5, r6, r7, r8, r9}
 240              	.LCFI3:
 241              		.cfi_def_cfa_offset 24
 242              		.cfi_offset 9, -4
 243              		.cfi_offset 8, -8
 244              		.cfi_offset 7, -12
 245              		.cfi_offset 6, -16
 246              		.cfi_offset 5, -20
 247              		.cfi_offset 4, -24
 248              		.loc 1 325 0
 249 000a 09B1     		cbz	r1, .L18
 250              		.loc 1 326 0
 251 000c 42F48072 		orr	r2, r2, #256
 252              	.LVL7:
 253              	.L18:
 254              		.loc 1 328 0
 255 0010 C468     		ldr	r4, [r0, #12]
 256              		.loc 1 333 0
 257 0012 C16A     		ldr	r1, [r0, #44]
 258              		.loc 1 334 0
 259 0014 5D88     		ldrh	r5, [r3, #2]
 260              		.loc 1 333 0
 261 0016 0968     		ldr	r1, [r1, #0]
 262 0018 8668     		ldr	r6, [r0, #8]
 263              		.loc 1 349 0
 264 001a D3F80CC0 		ldr	ip, [r3, #12]
 265              		.loc 1 333 0
 266 001e CE60     		str	r6, [r1, #12]
 267              		.loc 1 328 0
 268 0020 012C     		cmp	r4, #1
 269              		.loc 1 331 0
 270 0022 88BF     		it	hi
 271 0024 42F00802 		orrhi	r2, r2, #8
 272              	.LVL8:
 273              		.loc 1 334 0
 274 0028 04FB05F4 		mul	r4, r4, r5
 275 002c 4C60     		str	r4, [r1, #4]
 276              		.loc 1 336 0
 277 002e 0A60     		str	r2, [r1, #0]
 278              		.loc 1 337 0
 279 0030 D1F80090 		ldr	r9, [r1, #0]
 280              		.loc 1 341 0
 281 0034 D3F81480 		ldr	r8, [r3, #20]
 282              		.loc 1 342 0
ARM GAS  /tmp/ccLF8X51.s 			page 6


 283 0038 9F69     		ldr	r7, [r3, #24]
 284              		.loc 1 343 0
 285 003a DE69     		ldr	r6, [r3, #28]
 286              		.loc 1 344 0
 287 003c 1D6A     		ldr	r5, [r3, #32]
 288              		.loc 1 345 0
 289 003e 5C6A     		ldr	r4, [r3, #36]
 290              		.loc 1 350 0
 291 0040 1B69     		ldr	r3, [r3, #16]
 292              		.loc 1 340 0
 293 0042 826A     		ldr	r2, [r0, #40]
 294              	.LVL9:
 295              		.loc 1 337 0
 296 0044 49F00109 		orr	r9, r9, #1
 297 0048 C1F80090 		str	r9, [r1, #0]
 298              		.loc 1 349 0
 299 004c 4CF08060 		orr	r0, ip, #67108864
 300              	.LVL10:
 301              		.loc 1 340 0
 302 0050 0021     		movs	r1, #0
 303              	.LVL11:
 304              		.loc 1 350 0
 305 0052 13F0804F 		tst	r3, #1073741824
 306              		.loc 1 352 0
 307 0056 43F44073 		orr	r3, r3, #768
 308              		.loc 1 349 0
 309 005a 40F48070 		orr	r0, r0, #256
 310              		.loc 1 352 0
 311 005e 14BF     		ite	ne
 312 0060 43F00303 		orrne	r3, r3, #3
 313              		.loc 1 355 0
 314 0064 43F00103 		orreq	r3, r3, #1
 315              		.loc 1 340 0
 316 0068 1160     		str	r1, [r2, #0]
 317              		.loc 1 341 0
 318 006a C2F80C80 		str	r8, [r2, #12]
 319              		.loc 1 342 0
 320 006e 1761     		str	r7, [r2, #16]
 321              		.loc 1 343 0
 322 0070 D662     		str	r6, [r2, #44]
 323              		.loc 1 344 0
 324 0072 1563     		str	r5, [r2, #48]
 325              		.loc 1 345 0
 326 0074 5463     		str	r4, [r2, #52]
 327              		.loc 1 349 0
 328 0076 5060     		str	r0, [r2, #4]
 329              		.loc 1 354 0
 330 0078 9360     		str	r3, [r2, #8]
 331              		.loc 1 356 0
 332 007a BDE8F003 		pop	{r4, r5, r6, r7, r8, r9}
 333 007e 7047     		bx	lr
 334              		.cfi_endproc
 335              	.LFE123:
 336              		.size	adc_lld_start_conversion, .-adc_lld_start_conversion
 337              		.section	.text.adc_lld_stop_conversion,"ax",%progbits
 338              		.align	2
 339              		.p2align 4,,15
ARM GAS  /tmp/ccLF8X51.s 			page 7


 340              		.global	adc_lld_stop_conversion
 341              		.thumb
 342              		.thumb_func
 343              		.type	adc_lld_stop_conversion, %function
 344              	adc_lld_stop_conversion:
 345              	.LFB124:
 346              		.loc 1 365 0
 347              		.cfi_startproc
 348              		@ args = 0, pretend = 0, frame = 0
 349              		@ frame_needed = 0, uses_anonymous_args = 0
 350              		@ link register save eliminated.
 351              	.LVL12:
 352              		.loc 1 367 0
 353 0000 C16A     		ldr	r1, [r0, #44]
 354 0002 0A68     		ldr	r2, [r1, #0]
 355 0004 1368     		ldr	r3, [r2, #0]
 356 0006 23F01F03 		bic	r3, r3, #31
 357              		.loc 1 365 0
 358 000a 10B4     		push	{r4}
 359              	.LCFI4:
 360              		.cfi_def_cfa_offset 4
 361              		.cfi_offset 4, -4
 362              		.loc 1 367 0
 363 000c 1360     		str	r3, [r2, #0]
 364              	.L23:
 365              		.loc 1 367 0 is_stmt 0 discriminator 1
 366 000e 1368     		ldr	r3, [r2, #0]
 367 0010 13F00103 		ands	r3, r3, #1
 368 0014 FBD1     		bne	.L23
 369              		.loc 1 367 0 discriminator 2
 370 0016 0C7A     		ldrb	r4, [r1, #8]	@ zero_extendqisi2
 371              		.loc 1 368 0 is_stmt 1 discriminator 2
 372 0018 826A     		ldr	r2, [r0, #40]
 373              		.loc 1 367 0 discriminator 2
 374 001a 4968     		ldr	r1, [r1, #4]
 375 001c 3D20     		movs	r0, #61
 376              	.LVL13:
 377 001e A040     		lsls	r0, r0, r4
 378 0020 0860     		str	r0, [r1, #0]
 379              		.loc 1 368 0 discriminator 2
 380 0022 5360     		str	r3, [r2, #4]
 381              		.loc 1 369 0 discriminator 2
 382 0024 9360     		str	r3, [r2, #8]
 383              		.loc 1 370 0 discriminator 2
 384 0026 0123     		movs	r3, #1
 385 0028 9360     		str	r3, [r2, #8]
 386              		.loc 1 371 0 discriminator 2
 387 002a 10BC     		pop	{r4}
 388 002c 7047     		bx	lr
 389              		.cfi_endproc
 390              	.LFE124:
 391              		.size	adc_lld_stop_conversion, .-adc_lld_stop_conversion
 392 002e 00BF     		.section	.text.adc_lld_serve_rx_interrupt,"ax",%progbits
 393              		.align	2
 394              		.p2align 4,,15
 395              		.thumb
 396              		.thumb_func
ARM GAS  /tmp/ccLF8X51.s 			page 8


 397              		.type	adc_lld_serve_rx_interrupt, %function
 398              	adc_lld_serve_rx_interrupt:
 399              	.LFB118:
 400              		.loc 1 76 0
 401              		.cfi_startproc
 402              		@ args = 0, pretend = 0, frame = 0
 403              		@ frame_needed = 0, uses_anonymous_args = 0
 404              	.LVL14:
 405              		.loc 1 79 0
 406 0000 11F00C0F 		tst	r1, #12
 407              		.loc 1 76 0
 408 0004 38B5     		push	{r3, r4, r5, lr}
 409              	.LCFI5:
 410              		.cfi_def_cfa_offset 16
 411              		.cfi_offset 14, -4
 412              		.cfi_offset 5, -8
 413              		.cfi_offset 4, -12
 414              		.cfi_offset 3, -16
 415              		.loc 1 76 0
 416 0006 0D46     		mov	r5, r1
 417 0008 0446     		mov	r4, r0
 418              		.loc 1 79 0
 419 000a 46D1     		bne	.L38
 420              		.loc 1 87 0
 421 000c 0369     		ldr	r3, [r0, #16]
 422 000e 002B     		cmp	r3, #0
 423 0010 42D0     		beq	.L25
 424              		.loc 1 88 0
 425 0012 CA06     		lsls	r2, r1, #27
 426 0014 05D5     		bpl	.L30
 427              		.loc 1 90 0
 428 0016 5B68     		ldr	r3, [r3, #4]
 429 0018 1BB1     		cbz	r3, .L30
 430              		.loc 1 90 0 is_stmt 0 discriminator 1
 431 001a C268     		ldr	r2, [r0, #12]
 432 001c 8168     		ldr	r1, [r0, #8]
 433              	.LVL15:
 434 001e 5208     		lsrs	r2, r2, #1
 435 0020 9847     		blx	r3
 436              	.LVL16:
 437              	.L30:
 438              		.loc 1 92 0 is_stmt 1
 439 0022 AB06     		lsls	r3, r5, #26
 440 0024 38D5     		bpl	.L25
 441              		.loc 1 94 0
 442 0026 2169     		ldr	r1, [r4, #16]
 443 0028 0B78     		ldrb	r3, [r1, #0]	@ zero_extendqisi2
 444 002a 7BB1     		cbz	r3, .L31
 445              		.loc 1 94 0 is_stmt 0 discriminator 1
 446 002c 4B68     		ldr	r3, [r1, #4]
 447 002e 002B     		cmp	r3, #0
 448 0030 32D0     		beq	.L25
 449              		.loc 1 94 0 discriminator 3
 450 0032 E268     		ldr	r2, [r4, #12]
 451 0034 012A     		cmp	r2, #1
 452 0036 4FD9     		bls	.L32
 453              	.LBB3:
ARM GAS  /tmp/ccLF8X51.s 			page 9


 454              		.loc 1 94 0 discriminator 4
 455 0038 4D88     		ldrh	r5, [r1, #2]
 456              	.LVL17:
 457 003a A168     		ldr	r1, [r4, #8]
 458 003c 5208     		lsrs	r2, r2, #1
 459              	.LVL18:
 460 003e 05FB02F5 		mul	r5, r5, r2
 461 0042 2046     		mov	r0, r4
 462 0044 01EB4501 		add	r1, r1, r5, lsl #1
 463 0048 9847     		blx	r3
 464              	.LVL19:
 465 004a 38BD     		pop	{r3, r4, r5, pc}
 466              	.LVL20:
 467              	.L31:
 468              	.LBE3:
 469              		.loc 1 94 0 discriminator 2
 470 004c 2046     		mov	r0, r4
 471 004e FFF7FEFF 		bl	adc_lld_stop_conversion
 472 0052 2169     		ldr	r1, [r4, #16]
 473 0054 4B68     		ldr	r3, [r1, #4]
 474 0056 002B     		cmp	r3, #0
 475 0058 4ED0     		beq	.L33
 476              		.loc 1 94 0 discriminator 6
 477 005a E268     		ldr	r2, [r4, #12]
 478 005c 0420     		movs	r0, #4
 479 005e 012A     		cmp	r2, #1
 480 0060 2070     		strb	r0, [r4, #0]
 481 0062 45D9     		bls	.L34
 482              	.LBB4:
 483              		.loc 1 94 0 discriminator 8
 484 0064 4D88     		ldrh	r5, [r1, #2]
 485              	.LVL21:
 486 0066 A168     		ldr	r1, [r4, #8]
 487 0068 5208     		lsrs	r2, r2, #1
 488              	.LVL22:
 489 006a 05FB02F5 		mul	r5, r5, r2
 490 006e 2046     		mov	r0, r4
 491 0070 01EB4501 		add	r1, r1, r5, lsl #1
 492 0074 9847     		blx	r3
 493              	.LVL23:
 494              	.L35:
 495              	.LBE4:
 496              		.loc 1 94 0 discriminator 10
 497 0076 2378     		ldrb	r3, [r4, #0]	@ zero_extendqisi2
 498 0078 042B     		cmp	r3, #4
 499 007a 34D0     		beq	.L39
 500              	.L36:
 501              	.LBB5:
 502              		.loc 1 94 0 discriminator 12
 503 007c 2023     		movs	r3, #32
 504              	.LVL24:
 505              	@ 94 "../../os/hal/platforms/STM32F4xx/adc_lld.c" 1
 506 007e 83F31188 		msr     BASEPRI, r3
 507              	@ 0 "" 2
 508              	.LVL25:
 509              		.thumb
 510              	.LBE5:
ARM GAS  /tmp/ccLF8X51.s 			page 10


 511 0082 6369     		ldr	r3, [r4, #20]
 512              	.LVL26:
 513 0084 2BB1     		cbz	r3, .L37
 514              	.LVL27:
 515              	.LBB6:
 516              		.loc 1 94 0 discriminator 13
 517 0086 0022     		movs	r2, #0
 518 0088 6261     		str	r2, [r4, #20]
 519 008a 1846     		mov	r0, r3
 520 008c 5A62     		str	r2, [r3, #36]
 521 008e FFF7FEFF 		bl	chSchReadyI
 522              	.LVL28:
 523              	.L37:
 524              	.LBE6:
 525              	.LBB7:
 526              		.loc 1 94 0 discriminator 14
 527 0092 0023     		movs	r3, #0
 528              	.LVL29:
 529              	@ 94 "../../os/hal/platforms/STM32F4xx/adc_lld.c" 1
 530 0094 83F31188 		msr     BASEPRI, r3
 531              	@ 0 "" 2
 532              	.LVL30:
 533              		.thumb
 534              	.L25:
 535 0098 38BD     		pop	{r3, r4, r5, pc}
 536              	.LVL31:
 537              	.L38:
 538              	.LBE7:
 539              		.loc 1 82 0 is_stmt 1
 540 009a FFF7FEFF 		bl	adc_lld_stop_conversion
 541              	.LVL32:
 542 009e 2369     		ldr	r3, [r4, #16]
 543 00a0 9B68     		ldr	r3, [r3, #8]
 544 00a2 3BB1     		cbz	r3, .L27
 545              		.loc 1 82 0 is_stmt 0 discriminator 1
 546 00a4 0522     		movs	r2, #5
 547 00a6 0021     		movs	r1, #0
 548 00a8 2270     		strb	r2, [r4, #0]
 549 00aa 2046     		mov	r0, r4
 550 00ac 9847     		blx	r3
 551 00ae 2378     		ldrb	r3, [r4, #0]	@ zero_extendqisi2
 552 00b0 052B     		cmp	r3, #5
 553 00b2 15D0     		beq	.L40
 554              	.L27:
 555              		.loc 1 82 0 discriminator 2
 556 00b4 0022     		movs	r2, #0
 557 00b6 2261     		str	r2, [r4, #16]
 558              	.LBB8:
 559 00b8 2023     		movs	r3, #32
 560              	.LVL33:
 561              	@ 82 "../../os/hal/platforms/STM32F4xx/adc_lld.c" 1
 562 00ba 83F31188 		msr     BASEPRI, r3
 563              	@ 0 "" 2
 564              	.LVL34:
 565              		.thumb
 566              	.LBE8:
 567 00be 6369     		ldr	r3, [r4, #20]
ARM GAS  /tmp/ccLF8X51.s 			page 11


 568              	.LVL35:
 569 00c0 33B1     		cbz	r3, .L28
 570              	.LVL36:
 571              	.LBB9:
 572              		.loc 1 82 0 discriminator 4
 573 00c2 6261     		str	r2, [r4, #20]
 574 00c4 4FF0FF32 		mov	r2, #-1
 575 00c8 1846     		mov	r0, r3
 576 00ca 5A62     		str	r2, [r3, #36]
 577 00cc FFF7FEFF 		bl	chSchReadyI
 578              	.LVL37:
 579              	.L28:
 580              	.LBE9:
 581              	.LBB10:
 582              		.loc 1 82 0 discriminator 5
 583 00d0 0023     		movs	r3, #0
 584              	.LVL38:
 585              	@ 82 "../../os/hal/platforms/STM32F4xx/adc_lld.c" 1
 586 00d2 83F31188 		msr     BASEPRI, r3
 587              	@ 0 "" 2
 588              	.LVL39:
 589              		.thumb
 590 00d6 38BD     		pop	{r3, r4, r5, pc}
 591              	.LVL40:
 592              	.L32:
 593              	.LBE10:
 594              		.loc 1 94 0 is_stmt 1 discriminator 5
 595 00d8 2046     		mov	r0, r4
 596 00da A168     		ldr	r1, [r4, #8]
 597 00dc 9847     		blx	r3
 598 00de 38BD     		pop	{r3, r4, r5, pc}
 599              	.L40:
 600              		.loc 1 82 0 discriminator 3
 601 00e0 0223     		movs	r3, #2
 602 00e2 2370     		strb	r3, [r4, #0]
 603 00e4 E6E7     		b	.L27
 604              	.LVL41:
 605              	.L39:
 606              		.loc 1 94 0 discriminator 11
 607 00e6 0223     		movs	r3, #2
 608 00e8 2370     		strb	r3, [r4, #0]
 609 00ea 0023     		movs	r3, #0
 610 00ec 2361     		str	r3, [r4, #16]
 611 00ee C5E7     		b	.L36
 612              	.LVL42:
 613              	.L34:
 614              		.loc 1 94 0 is_stmt 0 discriminator 9
 615 00f0 2046     		mov	r0, r4
 616 00f2 A168     		ldr	r1, [r4, #8]
 617 00f4 9847     		blx	r3
 618 00f6 BEE7     		b	.L35
 619              	.L33:
 620              		.loc 1 94 0 discriminator 7
 621 00f8 0222     		movs	r2, #2
 622 00fa 2270     		strb	r2, [r4, #0]
 623 00fc 2361     		str	r3, [r4, #16]
 624 00fe BDE7     		b	.L36
ARM GAS  /tmp/ccLF8X51.s 			page 12


 625              		.cfi_endproc
 626              	.LFE118:
 627              		.size	adc_lld_serve_rx_interrupt, .-adc_lld_serve_rx_interrupt
 628              		.section	.text.Vector88,"ax",%progbits
 629              		.align	2
 630              		.p2align 4,,15
 631              		.global	Vector88
 632              		.thumb
 633              		.thumb_func
 634              		.type	Vector88, %function
 635              	Vector88:
 636              	.LFB119:
 637              		.loc 1 111 0 is_stmt 1
 638              		.cfi_startproc
 639              		@ args = 0, pretend = 0, frame = 0
 640              		@ frame_needed = 0, uses_anonymous_args = 0
 641              		.loc 1 117 0
 642 0000 4FF40053 		mov	r3, #8192
 643 0004 C4F20103 		movt	r3, 16385
 644              		.loc 1 118 0
 645 0008 0021     		movs	r1, #0
 646              		.loc 1 117 0
 647 000a 1A68     		ldr	r2, [r3, #0]
 648              	.LVL43:
 649              		.loc 1 111 0
 650 000c 10B5     		push	{r4, lr}
 651              	.LCFI6:
 652              		.cfi_def_cfa_offset 8
 653              		.cfi_offset 14, -4
 654              		.cfi_offset 4, -8
 655              		.loc 1 118 0
 656 000e 1960     		str	r1, [r3, #0]
 657              		.loc 1 121 0
 658 0010 9106     		lsls	r1, r2, #26
 659 0012 25D5     		bpl	.L42
 660              		.loc 1 121 0 is_stmt 0 discriminator 1
 661 0014 164C     		ldr	r4, .L46
 662 0016 E36A     		ldr	r3, [r4, #44]
 663 0018 1B68     		ldr	r3, [r3, #0]
 664 001a 5B68     		ldr	r3, [r3, #4]
 665 001c 03B3     		cbz	r3, .L42
 666              		.loc 1 124 0 is_stmt 1
 667 001e 2369     		ldr	r3, [r4, #16]
 668 0020 F3B1     		cbz	r3, .L42
 669              		.loc 1 125 0
 670 0022 2046     		mov	r0, r4
 671 0024 FFF7FEFF 		bl	adc_lld_stop_conversion
 672              	.LVL44:
 673 0028 2369     		ldr	r3, [r4, #16]
 674 002a 9B68     		ldr	r3, [r3, #8]
 675 002c 3BB1     		cbz	r3, .L43
 676              		.loc 1 125 0 is_stmt 0 discriminator 1
 677 002e 0522     		movs	r2, #5
 678 0030 0121     		movs	r1, #1
 679 0032 2270     		strb	r2, [r4, #0]
 680 0034 2046     		mov	r0, r4
 681 0036 9847     		blx	r3
ARM GAS  /tmp/ccLF8X51.s 			page 13


 682 0038 2378     		ldrb	r3, [r4, #0]	@ zero_extendqisi2
 683 003a 052B     		cmp	r3, #5
 684 003c 14D0     		beq	.L45
 685              	.L43:
 686              		.loc 1 125 0 discriminator 2
 687 003e 0022     		movs	r2, #0
 688 0040 2261     		str	r2, [r4, #16]
 689              	.LBB11:
 690 0042 2023     		movs	r3, #32
 691              	.LVL45:
 692              	@ 125 "../../os/hal/platforms/STM32F4xx/adc_lld.c" 1
 693 0044 83F31188 		msr     BASEPRI, r3
 694              	@ 0 "" 2
 695              	.LVL46:
 696              		.thumb
 697              	.LBE11:
 698 0048 6069     		ldr	r0, [r4, #20]
 699 004a 30B1     		cbz	r0, .L44
 700              	.LVL47:
 701              	.LBB12:
 702              		.loc 1 125 0 discriminator 4
 703 004c 4FF0FF33 		mov	r3, #-1
 704              	.LVL48:
 705 0050 4362     		str	r3, [r0, #36]
 706 0052 074B     		ldr	r3, .L46
 707 0054 5A61     		str	r2, [r3, #20]
 708 0056 FFF7FEFF 		bl	chSchReadyI
 709              	.LVL49:
 710              	.L44:
 711              	.LBE12:
 712              	.LBB13:
 713              		.loc 1 125 0 discriminator 5
 714 005a 0023     		movs	r3, #0
 715              	.LVL50:
 716              	@ 125 "../../os/hal/platforms/STM32F4xx/adc_lld.c" 1
 717 005c 83F31188 		msr     BASEPRI, r3
 718              	@ 0 "" 2
 719              	.LVL51:
 720              		.thumb
 721              	.L42:
 722              	.LBE13:
 723              		.loc 1 159 0 is_stmt 1
 724 0060 BDE81040 		pop	{r4, lr}
 725              		.loc 1 158 0
 726 0064 FFF7FEBF 		b	_port_irq_epilogue
 727              	.LVL52:
 728              	.L45:
 729              		.loc 1 125 0 discriminator 3
 730 0068 0223     		movs	r3, #2
 731 006a 2370     		strb	r3, [r4, #0]
 732 006c E7E7     		b	.L43
 733              	.L47:
 734 006e 00BF     		.align	2
 735              	.L46:
 736 0070 00000000 		.word	.LANCHOR0
 737              		.cfi_endproc
 738              	.LFE119:
ARM GAS  /tmp/ccLF8X51.s 			page 14


 739              		.size	Vector88, .-Vector88
 740 0074 AFF30080 		.section	.text.adcSTM32EnableTSVREFE,"ax",%progbits
 740      AFF30080 
 740      AFF30080 
 741              		.align	2
 742              		.p2align 4,,15
 743              		.global	adcSTM32EnableTSVREFE
 744              		.thumb
 745              		.thumb_func
 746              		.type	adcSTM32EnableTSVREFE, %function
 747              	adcSTM32EnableTSVREFE:
 748              	.LFB125:
 749              		.loc 1 379 0
 750              		.cfi_startproc
 751              		@ args = 0, pretend = 0, frame = 0
 752              		@ frame_needed = 0, uses_anonymous_args = 0
 753              		@ link register save eliminated.
 754              		.loc 1 381 0
 755 0000 4FF40C53 		mov	r3, #8960
 756 0004 C4F20103 		movt	r3, 16385
 757 0008 5A68     		ldr	r2, [r3, #4]
 758 000a 42F40002 		orr	r2, r2, #8388608
 759 000e 5A60     		str	r2, [r3, #4]
 760              		.loc 1 382 0
 761 0010 7047     		bx	lr
 762              		.cfi_endproc
 763              	.LFE125:
 764              		.size	adcSTM32EnableTSVREFE, .-adcSTM32EnableTSVREFE
 765              		.section	.text.adcSTM32DisableTSVREFE,"ax",%progbits
 766              		.align	2
 767              		.p2align 4,,15
 768              		.global	adcSTM32DisableTSVREFE
 769              		.thumb
 770              		.thumb_func
 771              		.type	adcSTM32DisableTSVREFE, %function
 772              	adcSTM32DisableTSVREFE:
 773              	.LFB126:
 774              		.loc 1 390 0
 775              		.cfi_startproc
 776              		@ args = 0, pretend = 0, frame = 0
 777              		@ frame_needed = 0, uses_anonymous_args = 0
 778              		@ link register save eliminated.
 779              		.loc 1 392 0
 780 0000 4FF40C53 		mov	r3, #8960
 781 0004 C4F20103 		movt	r3, 16385
 782 0008 5A68     		ldr	r2, [r3, #4]
 783 000a 22F40002 		bic	r2, r2, #8388608
 784 000e 5A60     		str	r2, [r3, #4]
 785              		.loc 1 393 0
 786 0010 7047     		bx	lr
 787              		.cfi_endproc
 788              	.LFE126:
 789              		.size	adcSTM32DisableTSVREFE, .-adcSTM32DisableTSVREFE
 790              		.section	.text.adcSTM32EnableVBATE,"ax",%progbits
 791              		.align	2
 792              		.p2align 4,,15
 793              		.global	adcSTM32EnableVBATE
ARM GAS  /tmp/ccLF8X51.s 			page 15


 794              		.thumb
 795              		.thumb_func
 796              		.type	adcSTM32EnableVBATE, %function
 797              	adcSTM32EnableVBATE:
 798              	.LFB127:
 799              		.loc 1 401 0
 800              		.cfi_startproc
 801              		@ args = 0, pretend = 0, frame = 0
 802              		@ frame_needed = 0, uses_anonymous_args = 0
 803              		@ link register save eliminated.
 804              		.loc 1 403 0
 805 0000 4FF40C53 		mov	r3, #8960
 806 0004 C4F20103 		movt	r3, 16385
 807 0008 5A68     		ldr	r2, [r3, #4]
 808 000a 42F48002 		orr	r2, r2, #4194304
 809 000e 5A60     		str	r2, [r3, #4]
 810              		.loc 1 404 0
 811 0010 7047     		bx	lr
 812              		.cfi_endproc
 813              	.LFE127:
 814              		.size	adcSTM32EnableVBATE, .-adcSTM32EnableVBATE
 815              		.section	.text.adcSTM32DisableVBATE,"ax",%progbits
 816              		.align	2
 817              		.p2align 4,,15
 818              		.global	adcSTM32DisableVBATE
 819              		.thumb
 820              		.thumb_func
 821              		.type	adcSTM32DisableVBATE, %function
 822              	adcSTM32DisableVBATE:
 823              	.LFB128:
 824              		.loc 1 412 0
 825              		.cfi_startproc
 826              		@ args = 0, pretend = 0, frame = 0
 827              		@ frame_needed = 0, uses_anonymous_args = 0
 828              		@ link register save eliminated.
 829              		.loc 1 414 0
 830 0000 4FF40C53 		mov	r3, #8960
 831 0004 C4F20103 		movt	r3, 16385
 832 0008 5A68     		ldr	r2, [r3, #4]
 833 000a 22F48002 		bic	r2, r2, #4194304
 834 000e 5A60     		str	r2, [r3, #4]
 835              		.loc 1 415 0
 836 0010 7047     		bx	lr
 837              		.cfi_endproc
 838              	.LFE128:
 839              		.size	adcSTM32DisableVBATE, .-adcSTM32DisableVBATE
 840              		.global	ADCD1
 841 0012 00BFAFF3 		.section	.bss.ADCD1,"aw",%nobits
 841      0080AFF3 
 841      0080AFF3 
 841      0080
 842              		.align	2
 843              		.set	.LANCHOR0,. + 0
 844              		.type	ADCD1, %object
 845              		.size	ADCD1, 52
 846              	ADCD1:
 847 0000 00000000 		.space	52
ARM GAS  /tmp/ccLF8X51.s 			page 16


 847      00000000 
 847      00000000 
 847      00000000 
 847      00000000 
 848              		.text
 849              	.Letext0:
 850              		.file 2 "/opt/paparazzi/arm-multilib/lib/gcc/arm-none-eabi/4.6.2/include/stddef.h"
 851              		.file 3 "/opt/paparazzi/arm-multilib/lib/gcc/arm-none-eabi/4.6.2/../../../../arm-none-eabi/include
 852              		.file 4 "../../os/ports/GCC/ARMCMx/chtypes.h"
 853              		.file 5 "../../os/kernel/include/chlists.h"
 854              		.file 6 "../../os/kernel/include/chthreads.h"
 855              		.file 7 "../../os/ports/GCC/ARMCMx/chcore_v7m.h"
 856              		.file 8 "../../os/kernel/include/chmtx.h"
 857              		.file 9 "../../os/hal/platforms/STM32F4xx/stm32f4xx.h"
 858              		.file 10 "../../os/hal/platforms/STM32F4xx/stm32_dma.h"
 859              		.file 11 "../../os/hal/include/adc.h"
 860              		.file 12 "../../os/hal/platforms/STM32F4xx/adc_lld.h"
 861              		.file 13 "../../os/ports/common/ARMCMx/CMSIS/include/core_cm4.h"