ARM GAS  /tmp/cc9l1bLu.s 			page 1


   1              		.syntax unified
   2              		.cpu cortex-m4
   3              		.fpu softvfp
   4              		.eabi_attribute 20, 1
   5              		.eabi_attribute 21, 1
   6              		.eabi_attribute 23, 3
   7              		.eabi_attribute 24, 1
   8              		.eabi_attribute 25, 1
   9              		.eabi_attribute 26, 1
  10              		.eabi_attribute 30, 2
  11              		.eabi_attribute 18, 4
  12              		.thumb
  13              		.file	"chevents.c"
  14              		.text
  15              	.Ltext0:
  16              		.cfi_sections	.debug_frame
  17              		.section	.text.chEvtRegisterMask,"ax",%progbits
  18              		.align	2
  19              		.p2align 4,,15
  20              		.global	chEvtRegisterMask
  21              		.thumb
  22              		.thumb_func
  23              		.type	chEvtRegisterMask, %function
  24              	chEvtRegisterMask:
  25              	.LFB7:
  26              		.file 1 "../../os/kernel/src/chevents.c"
  27              		.loc 1 85 0
  28              		.cfi_startproc
  29              		@ args = 0, pretend = 0, frame = 0
  30              		@ frame_needed = 0, uses_anonymous_args = 0
  31              		@ link register save eliminated.
  32              	.LVL0:
  33 0000 30B4     		push	{r4, r5}
  34              	.LCFI0:
  35              		.cfi_def_cfa_offset 8
  36              		.cfi_offset 5, -4
  37              		.cfi_offset 4, -8
  38              	.LBB2:
  39              		.loc 1 89 0
  40 0002 2023     		movs	r3, #32
  41              	.LVL1:
  42              	@ 89 "../../os/kernel/src/chevents.c" 1
  43 0004 83F31188 		msr     BASEPRI, r3
  44              	@ 0 "" 2
  45              	.LVL2:
  46              		.thumb
  47              	.LBE2:
  48              		.loc 1 92 0
  49 0008 40F20003 		movw	r3, #:lower16:rlist
  50              	.LVL3:
  51 000c C0F20003 		movt	r3, #:upper16:rlist
  52              		.loc 1 90 0
  53 0010 0468     		ldr	r4, [r0, #0]
  54              		.loc 1 92 0
  55 0012 9D69     		ldr	r5, [r3, #24]
  56              		.loc 1 90 0
  57 0014 0C60     		str	r4, [r1, #0]
ARM GAS  /tmp/cc9l1bLu.s 			page 2


  58              		.loc 1 94 0
  59 0016 0024     		movs	r4, #0
  60              		.loc 1 91 0
  61 0018 0160     		str	r1, [r0, #0]
  62              	.LBB3:
  63              		.loc 1 95 0
  64 001a 2346     		mov	r3, r4
  65              	.LVL4:
  66              	.LBE3:
  67              		.loc 1 92 0
  68 001c 4D60     		str	r5, [r1, #4]
  69              		.loc 1 93 0
  70 001e 8A60     		str	r2, [r1, #8]
  71              		.loc 1 94 0
  72 0020 CC60     		str	r4, [r1, #12]
  73              	.LBB4:
  74              		.loc 1 95 0
  75              	@ 95 "../../os/kernel/src/chevents.c" 1
  76 0022 83F31188 		msr     BASEPRI, r3
  77              	@ 0 "" 2
  78              	.LVL5:
  79              		.thumb
  80              	.LBE4:
  81              		.loc 1 96 0
  82 0026 30BC     		pop	{r4, r5}
  83 0028 7047     		bx	lr
  84              		.cfi_endproc
  85              	.LFE7:
  86              		.size	chEvtRegisterMask, .-chEvtRegisterMask
  87 002a 00BFAFF3 		.section	.text.chEvtUnregister,"ax",%progbits
  87      0080
  88              		.align	2
  89              		.p2align 4,,15
  90              		.global	chEvtUnregister
  91              		.thumb
  92              		.thumb_func
  93              		.type	chEvtUnregister, %function
  94              	chEvtUnregister:
  95              	.LFB8:
  96              		.loc 1 111 0
  97              		.cfi_startproc
  98              		@ args = 0, pretend = 0, frame = 0
  99              		@ frame_needed = 0, uses_anonymous_args = 0
 100              		@ link register save eliminated.
 101              	.LVL6:
 102              	.LBB5:
 103              		.loc 1 117 0
 104 0000 2023     		movs	r3, #32
 105              	.LVL7:
 106              	@ 117 "../../os/kernel/src/chevents.c" 1
 107 0002 83F31188 		msr     BASEPRI, r3
 108              	@ 0 "" 2
 109              	.LVL8:
 110              		.thumb
 111              	.LBE5:
 112              		.loc 1 116 0
 113 0006 0246     		mov	r2, r0
ARM GAS  /tmp/cc9l1bLu.s 			page 3


 114              		.loc 1 118 0
 115 0008 02E0     		b	.L3
 116              	.LVL9:
 117              	.L5:
 118              		.loc 1 119 0
 119 000a 9942     		cmp	r1, r3
 120 000c 07D0     		beq	.L8
 121 000e 1A46     		mov	r2, r3
 122              	.LVL10:
 123              	.L3:
 124              		.loc 1 118 0 discriminator 1
 125 0010 1368     		ldr	r3, [r2, #0]
 126              	.LVL11:
 127 0012 8342     		cmp	r3, r0
 128 0014 F9D1     		bne	.L5
 129              	.L4:
 130              	.LBB6:
 131              		.loc 1 125 0
 132 0016 0023     		movs	r3, #0
 133              	.LVL12:
 134              	@ 125 "../../os/kernel/src/chevents.c" 1
 135 0018 83F31188 		msr     BASEPRI, r3
 136              	@ 0 "" 2
 137              	.LVL13:
 138              		.thumb
 139              	.LBE6:
 140              		.loc 1 126 0
 141 001c 7047     		bx	lr
 142              	.LVL14:
 143              	.L8:
 144              		.loc 1 120 0
 145 001e 0B68     		ldr	r3, [r1, #0]
 146 0020 1360     		str	r3, [r2, #0]
 147              		.loc 1 121 0
 148 0022 F8E7     		b	.L4
 149              		.cfi_endproc
 150              	.LFE8:
 151              		.size	chEvtUnregister, .-chEvtUnregister
 152 0024 AFF30080 		.section	.text.chEvtGetAndClearEvents,"ax",%progbits
 152      AFF30080 
 152      AFF30080 
 153              		.align	2
 154              		.p2align 4,,15
 155              		.global	chEvtGetAndClearEvents
 156              		.thumb
 157              		.thumb_func
 158              		.type	chEvtGetAndClearEvents, %function
 159              	chEvtGetAndClearEvents:
 160              	.LFB9:
 161              		.loc 1 136 0
 162              		.cfi_startproc
 163              		@ args = 0, pretend = 0, frame = 0
 164              		@ frame_needed = 0, uses_anonymous_args = 0
 165              		@ link register save eliminated.
 166              	.LVL15:
 167 0000 10B4     		push	{r4}
 168              	.LCFI1:
ARM GAS  /tmp/cc9l1bLu.s 			page 4


 169              		.cfi_def_cfa_offset 4
 170              		.cfi_offset 4, -4
 171              	.LBB7:
 172              		.loc 1 139 0
 173 0002 2023     		movs	r3, #32
 174              	.LVL16:
 175              	@ 139 "../../os/kernel/src/chevents.c" 1
 176 0004 83F31188 		msr     BASEPRI, r3
 177              	@ 0 "" 2
 178              	.LVL17:
 179              		.thumb
 180              	.LBE7:
 181              		.loc 1 141 0
 182 0008 40F20002 		movw	r2, #:lower16:rlist
 183 000c C0F20002 		movt	r2, #:upper16:rlist
 184              	.LBB8:
 185              		.loc 1 144 0
 186 0010 0023     		movs	r3, #0
 187              	.LVL18:
 188              	.LBE8:
 189              		.loc 1 141 0
 190 0012 9169     		ldr	r1, [r2, #24]
 191 0014 8A6B     		ldr	r2, [r1, #56]
 192              	.LVL19:
 193              		.loc 1 142 0
 194 0016 22EA0004 		bic	r4, r2, r0
 195 001a 8C63     		str	r4, [r1, #56]
 196              	.LBB9:
 197              		.loc 1 144 0
 198              	@ 144 "../../os/kernel/src/chevents.c" 1
 199 001c 83F31188 		msr     BASEPRI, r3
 200              	@ 0 "" 2
 201              	.LVL20:
 202              		.thumb
 203              	.LBE9:
 204              		.loc 1 146 0
 205 0020 1040     		ands	r0, r0, r2
 206              	.LVL21:
 207 0022 10BC     		pop	{r4}
 208 0024 7047     		bx	lr
 209              		.cfi_endproc
 210              	.LFE9:
 211              		.size	chEvtGetAndClearEvents, .-chEvtGetAndClearEvents
 212 0026 00BFAFF3 		.section	.text.chEvtAddEvents,"ax",%progbits
 212      0080AFF3 
 212      0080
 213              		.align	2
 214              		.p2align 4,,15
 215              		.global	chEvtAddEvents
 216              		.thumb
 217              		.thumb_func
 218              		.type	chEvtAddEvents, %function
 219              	chEvtAddEvents:
 220              	.LFB10:
 221              		.loc 1 157 0
 222              		.cfi_startproc
 223              		@ args = 0, pretend = 0, frame = 0
ARM GAS  /tmp/cc9l1bLu.s 			page 5


 224              		@ frame_needed = 0, uses_anonymous_args = 0
 225              		@ link register save eliminated.
 226              	.LVL22:
 227              	.LBB10:
 228              		.loc 1 159 0
 229 0000 2023     		movs	r3, #32
 230              	.LVL23:
 231              	@ 159 "../../os/kernel/src/chevents.c" 1
 232 0002 83F31188 		msr     BASEPRI, r3
 233              	@ 0 "" 2
 234              	.LVL24:
 235              		.thumb
 236              	.LBE10:
 237              		.loc 1 161 0
 238 0006 40F20002 		movw	r2, #:lower16:rlist
 239 000a C0F20002 		movt	r2, #:upper16:rlist
 240              	.LBB11:
 241              		.loc 1 163 0
 242 000e 0023     		movs	r3, #0
 243              	.LVL25:
 244              	.LBE11:
 245              		.loc 1 161 0
 246 0010 9269     		ldr	r2, [r2, #24]
 247 0012 916B     		ldr	r1, [r2, #56]
 248 0014 0843     		orrs	r0, r0, r1
 249              	.LVL26:
 250 0016 9063     		str	r0, [r2, #56]
 251              	.LVL27:
 252              	.LBB12:
 253              		.loc 1 163 0
 254              	@ 163 "../../os/kernel/src/chevents.c" 1
 255 0018 83F31188 		msr     BASEPRI, r3
 256              	@ 0 "" 2
 257              	.LVL28:
 258              		.thumb
 259              	.LBE12:
 260              		.loc 1 165 0
 261 001c 7047     		bx	lr
 262              		.cfi_endproc
 263              	.LFE10:
 264              		.size	chEvtAddEvents, .-chEvtAddEvents
 265 001e 00BF     		.section	.text.chEvtGetAndClearFlags,"ax",%progbits
 266              		.align	2
 267              		.p2align 4,,15
 268              		.global	chEvtGetAndClearFlags
 269              		.thumb
 270              		.thumb_func
 271              		.type	chEvtGetAndClearFlags, %function
 272              	chEvtGetAndClearFlags:
 273              	.LFB12:
 274              		.loc 1 209 0
 275              		.cfi_startproc
 276              		@ args = 0, pretend = 0, frame = 0
 277              		@ frame_needed = 0, uses_anonymous_args = 0
 278              		@ link register save eliminated.
 279              	.LVL29:
 280              		.loc 1 209 0
ARM GAS  /tmp/cc9l1bLu.s 			page 6


 281 0000 0246     		mov	r2, r0
 282              	.LBB13:
 283              		.loc 1 212 0
 284 0002 2023     		movs	r3, #32
 285              	.LVL30:
 286              	@ 212 "../../os/kernel/src/chevents.c" 1
 287 0004 83F31188 		msr     BASEPRI, r3
 288              	@ 0 "" 2
 289              	.LVL31:
 290              		.thumb
 291              	.LBE13:
 292              		.loc 1 215 0
 293 0008 0023     		movs	r3, #0
 294              	.LVL32:
 295              		.loc 1 214 0
 296 000a C068     		ldr	r0, [r0, #12]
 297              	.LVL33:
 298              		.loc 1 215 0
 299 000c D360     		str	r3, [r2, #12]
 300              	.LBB14:
 301              		.loc 1 217 0
 302              	@ 217 "../../os/kernel/src/chevents.c" 1
 303 000e 83F31188 		msr     BASEPRI, r3
 304              	@ 0 "" 2
 305              	.LVL34:
 306              		.thumb
 307              	.LBE14:
 308              		.loc 1 219 0
 309 0012 7047     		bx	lr
 310              		.cfi_endproc
 311              	.LFE12:
 312              		.size	chEvtGetAndClearFlags, .-chEvtGetAndClearFlags
 313 0014 AFF30080 		.section	.text.chEvtSignalI,"ax",%progbits
 313      AFF30080 
 313      AFF30080 
 314              		.align	2
 315              		.p2align 4,,15
 316              		.global	chEvtSignalI
 317              		.thumb
 318              		.thumb_func
 319              		.type	chEvtSignalI, %function
 320              	chEvtSignalI:
 321              	.LFB14:
 322              		.loc 1 251 0
 323              		.cfi_startproc
 324              		@ args = 0, pretend = 0, frame = 0
 325              		@ frame_needed = 0, uses_anonymous_args = 0
 326              	.LVL35:
 327 0000 08B5     		push	{r3, lr}
 328              	.LCFI2:
 329              		.cfi_def_cfa_offset 8
 330              		.cfi_offset 14, -4
 331              		.cfi_offset 3, -8
 332              		.loc 1 256 0
 333 0002 826B     		ldr	r2, [r0, #56]
 334              		.loc 1 258 0
 335 0004 037F     		ldrb	r3, [r0, #28]	@ zero_extendqisi2
ARM GAS  /tmp/cc9l1bLu.s 			page 7


 336              		.loc 1 256 0
 337 0006 0A43     		orrs	r2, r2, r1
 338              		.loc 1 258 0
 339 0008 082B     		cmp	r3, #8
 340              		.loc 1 256 0
 341 000a 8263     		str	r2, [r0, #56]
 342              		.loc 1 258 0
 343 000c 0BD0     		beq	.L16
 344              		.loc 1 259 0
 345 000e 092B     		cmp	r3, #9
 346 0010 00D0     		beq	.L17
 347              	.L12:
 348 0012 08BD     		pop	{r3, pc}
 349              	.L17:
 350              		.loc 1 261 0
 351 0014 436A     		ldr	r3, [r0, #36]
 352 0016 1A40     		ands	r2, r2, r3
 353              		.loc 1 260 0
 354 0018 9342     		cmp	r3, r2
 355 001a FAD1     		bne	.L12
 356              	.L14:
 357              	.LVL36:
 358              	.LBB17:
 359              	.LBB18:
 360              		.loc 1 262 0
 361 001c FFF7FEFF 		bl	chSchReadyI
 362              	.LVL37:
 363 0020 0023     		movs	r3, #0
 364 0022 4362     		str	r3, [r0, #36]
 365 0024 08BD     		pop	{r3, pc}
 366              	.LVL38:
 367              	.L16:
 368              	.LBE18:
 369              	.LBE17:
 370              		.loc 1 259 0 discriminator 1
 371 0026 436A     		ldr	r3, [r0, #36]
 372              		.loc 1 258 0 discriminator 1
 373 0028 1A42     		tst	r2, r3
 374 002a F7D1     		bne	.L14
 375 002c 08BD     		pop	{r3, pc}
 376              		.cfi_endproc
 377              	.LFE14:
 378              		.size	chEvtSignalI, .-chEvtSignalI
 379 002e 00BF     		.section	.text.chEvtSignal,"ax",%progbits
 380              		.align	2
 381              		.p2align 4,,15
 382              		.global	chEvtSignal
 383              		.thumb
 384              		.thumb_func
 385              		.type	chEvtSignal, %function
 386              	chEvtSignal:
 387              	.LFB13:
 388              		.loc 1 229 0
 389              		.cfi_startproc
 390              		@ args = 0, pretend = 0, frame = 0
 391              		@ frame_needed = 0, uses_anonymous_args = 0
 392              	.LVL39:
ARM GAS  /tmp/cc9l1bLu.s 			page 8


 393 0000 08B5     		push	{r3, lr}
 394              	.LCFI3:
 395              		.cfi_def_cfa_offset 8
 396              		.cfi_offset 14, -4
 397              		.cfi_offset 3, -8
 398              	.LBB19:
 399              		.loc 1 233 0
 400 0002 2023     		movs	r3, #32
 401              	.LVL40:
 402              	@ 233 "../../os/kernel/src/chevents.c" 1
 403 0004 83F31188 		msr     BASEPRI, r3
 404              	@ 0 "" 2
 405              	.LVL41:
 406              		.thumb
 407              	.LBE19:
 408              		.loc 1 234 0
 409 0008 FFF7FEFF 		bl	chEvtSignalI
 410              	.LVL42:
 411              		.loc 1 235 0
 412 000c FFF7FEFF 		bl	chSchRescheduleS
 413              	.LBB20:
 414              		.loc 1 236 0
 415 0010 0023     		movs	r3, #0
 416              	.LVL43:
 417              	@ 236 "../../os/kernel/src/chevents.c" 1
 418 0012 83F31188 		msr     BASEPRI, r3
 419              	@ 0 "" 2
 420              	.LVL44:
 421              		.thumb
 422              	.LBE20:
 423              		.loc 1 237 0
 424 0016 08BD     		pop	{r3, pc}
 425              		.cfi_endproc
 426              	.LFE13:
 427              		.size	chEvtSignal, .-chEvtSignal
 428 0018 AFF30080 		.section	.text.chEvtBroadcastFlagsI,"ax",%progbits
 428      AFF30080 
 429              		.align	2
 430              		.p2align 4,,15
 431              		.global	chEvtBroadcastFlagsI
 432              		.thumb
 433              		.thumb_func
 434              		.type	chEvtBroadcastFlagsI, %function
 435              	chEvtBroadcastFlagsI:
 436              	.LFB11:
 437              		.loc 1 184 0
 438              		.cfi_startproc
 439              		@ args = 0, pretend = 0, frame = 0
 440              		@ frame_needed = 0, uses_anonymous_args = 0
 441              	.LVL45:
 442 0000 70B5     		push	{r4, r5, r6, lr}
 443              	.LCFI4:
 444              		.cfi_def_cfa_offset 16
 445              		.cfi_offset 14, -4
 446              		.cfi_offset 6, -8
 447              		.cfi_offset 5, -12
 448              		.cfi_offset 4, -16
ARM GAS  /tmp/cc9l1bLu.s 			page 9


 449              		.loc 1 190 0
 450 0002 0468     		ldr	r4, [r0, #0]
 451              	.LVL46:
 452              		.loc 1 191 0
 453 0004 A042     		cmp	r0, r4
 454              		.loc 1 184 0
 455 0006 0546     		mov	r5, r0
 456 0008 0E46     		mov	r6, r1
 457              		.loc 1 191 0
 458 000a 08D0     		beq	.L19
 459              	.LVL47:
 460              	.L22:
 461              		.loc 1 193 0
 462 000c 201D     		adds	r0, r4, #4
 463 000e 0BC8     		ldmia	r0, {r0, r1, r3}
 464              		.loc 1 192 0
 465 0010 3343     		orrs	r3, r3, r6
 466 0012 E360     		str	r3, [r4, #12]
 467              		.loc 1 193 0
 468 0014 FFF7FEFF 		bl	chEvtSignalI
 469              		.loc 1 194 0
 470 0018 2468     		ldr	r4, [r4, #0]
 471              	.LVL48:
 472              		.loc 1 191 0
 473 001a A542     		cmp	r5, r4
 474 001c F6D1     		bne	.L22
 475              	.L19:
 476 001e 70BD     		pop	{r4, r5, r6, pc}
 477              		.cfi_endproc
 478              	.LFE11:
 479              		.size	chEvtBroadcastFlagsI, .-chEvtBroadcastFlagsI
 480              		.section	.text.chEvtBroadcastFlags,"ax",%progbits
 481              		.align	2
 482              		.p2align 4,,15
 483              		.global	chEvtBroadcastFlags
 484              		.thumb
 485              		.thumb_func
 486              		.type	chEvtBroadcastFlags, %function
 487              	chEvtBroadcastFlags:
 488              	.LFB15:
 489              		.loc 1 278 0
 490              		.cfi_startproc
 491              		@ args = 0, pretend = 0, frame = 0
 492              		@ frame_needed = 0, uses_anonymous_args = 0
 493              	.LVL49:
 494 0000 08B5     		push	{r3, lr}
 495              	.LCFI5:
 496              		.cfi_def_cfa_offset 8
 497              		.cfi_offset 14, -4
 498              		.cfi_offset 3, -8
 499              	.LBB21:
 500              		.loc 1 280 0
 501 0002 2023     		movs	r3, #32
 502              	.LVL50:
 503              	@ 280 "../../os/kernel/src/chevents.c" 1
 504 0004 83F31188 		msr     BASEPRI, r3
 505              	@ 0 "" 2
ARM GAS  /tmp/cc9l1bLu.s 			page 10


 506              	.LVL51:
 507              		.thumb
 508              	.LBE21:
 509              		.loc 1 281 0
 510 0008 FFF7FEFF 		bl	chEvtBroadcastFlagsI
 511              	.LVL52:
 512              		.loc 1 282 0
 513 000c FFF7FEFF 		bl	chSchRescheduleS
 514              	.LBB22:
 515              		.loc 1 283 0
 516 0010 0023     		movs	r3, #0
 517              	.LVL53:
 518              	@ 283 "../../os/kernel/src/chevents.c" 1
 519 0012 83F31188 		msr     BASEPRI, r3
 520              	@ 0 "" 2
 521              	.LVL54:
 522              		.thumb
 523              	.LBE22:
 524              		.loc 1 284 0
 525 0016 08BD     		pop	{r3, pc}
 526              		.cfi_endproc
 527              	.LFE15:
 528              		.size	chEvtBroadcastFlags, .-chEvtBroadcastFlags
 529 0018 AFF30080 		.section	.text.chEvtGetAndClearFlagsI,"ax",%progbits
 529      AFF30080 
 530              		.align	2
 531              		.p2align 4,,15
 532              		.global	chEvtGetAndClearFlagsI
 533              		.thumb
 534              		.thumb_func
 535              		.type	chEvtGetAndClearFlagsI, %function
 536              	chEvtGetAndClearFlagsI:
 537              	.LFB16:
 538              		.loc 1 297 0
 539              		.cfi_startproc
 540              		@ args = 0, pretend = 0, frame = 0
 541              		@ frame_needed = 0, uses_anonymous_args = 0
 542              		@ link register save eliminated.
 543              	.LVL55:
 544              		.loc 1 297 0
 545 0000 0346     		mov	r3, r0
 546              		.loc 1 301 0
 547 0002 0022     		movs	r2, #0
 548              		.loc 1 300 0
 549 0004 C068     		ldr	r0, [r0, #12]
 550              	.LVL56:
 551              		.loc 1 301 0
 552 0006 DA60     		str	r2, [r3, #12]
 553              		.loc 1 304 0
 554 0008 7047     		bx	lr
 555              		.cfi_endproc
 556              	.LFE16:
 557              		.size	chEvtGetAndClearFlagsI, .-chEvtGetAndClearFlagsI
 558 000a 00BFAFF3 		.section	.text.chEvtDispatch,"ax",%progbits
 558      0080
 559              		.align	2
 560              		.p2align 4,,15
ARM GAS  /tmp/cc9l1bLu.s 			page 11


 561              		.global	chEvtDispatch
 562              		.thumb
 563              		.thumb_func
 564              		.type	chEvtDispatch, %function
 565              	chEvtDispatch:
 566              	.LFB17:
 567              		.loc 1 315 0
 568              		.cfi_startproc
 569              		@ args = 0, pretend = 0, frame = 0
 570              		@ frame_needed = 0, uses_anonymous_args = 0
 571              	.LVL57:
 572 0000 F8B5     		push	{r3, r4, r5, r6, r7, lr}
 573              	.LCFI6:
 574              		.cfi_def_cfa_offset 24
 575              		.cfi_offset 14, -4
 576              		.cfi_offset 7, -8
 577              		.cfi_offset 6, -12
 578              		.cfi_offset 5, -16
 579              		.cfi_offset 4, -20
 580              		.cfi_offset 3, -24
 581              		.loc 1 321 0
 582 0002 0D46     		mov	r5, r1
 583              		.loc 1 315 0
 584 0004 0746     		mov	r7, r0
 585              		.loc 1 321 0
 586 0006 89B1     		cbz	r1, .L26
 587 0008 0024     		movs	r4, #0
 588              		.loc 1 322 0
 589 000a 0126     		movs	r6, #1
 590 000c 01E0     		b	.L29
 591              	.LVL58:
 592              	.L28:
 593              		.loc 1 329 0
 594 000e 0134     		adds	r4, r4, #1
 595              	.LVL59:
 596              		.loc 1 321 0
 597 0010 65B1     		cbz	r5, .L26
 598              	.LVL60:
 599              	.L29:
 600              		.loc 1 322 0
 601 0012 16FA04F3 		lsls	r3, r6, r4
 602 0016 2B42     		tst	r3, r5
 603 0018 F9D0     		beq	.L28
 604              		.loc 1 327 0
 605 001a 57F82420 		ldr	r2, [r7, r4, lsl #2]
 606 001e 2046     		mov	r0, r4
 607              		.loc 1 326 0
 608 0020 25EA0305 		bic	r5, r5, r3
 609              	.LVL61:
 610              		.loc 1 329 0
 611 0024 0134     		adds	r4, r4, #1
 612              		.loc 1 327 0
 613 0026 9047     		blx	r2
 614              	.LVL62:
 615              		.loc 1 321 0
 616 0028 002D     		cmp	r5, #0
 617 002a F2D1     		bne	.L29
ARM GAS  /tmp/cc9l1bLu.s 			page 12


 618              	.LVL63:
 619              	.L26:
 620 002c F8BD     		pop	{r3, r4, r5, r6, r7, pc}
 621              		.cfi_endproc
 622              	.LFE17:
 623              		.size	chEvtDispatch, .-chEvtDispatch
 624 002e 00BF     		.section	.text.chEvtWaitOne,"ax",%progbits
 625              		.align	2
 626              		.p2align 4,,15
 627              		.global	chEvtWaitOne
 628              		.thumb
 629              		.thumb_func
 630              		.type	chEvtWaitOne, %function
 631              	chEvtWaitOne:
 632              	.LFB18:
 633              		.loc 1 350 0
 634              		.cfi_startproc
 635              		@ args = 0, pretend = 0, frame = 0
 636              		@ frame_needed = 0, uses_anonymous_args = 0
 637              	.LVL64:
 638 0000 38B5     		push	{r3, r4, r5, lr}
 639              	.LCFI7:
 640              		.cfi_def_cfa_offset 16
 641              		.cfi_offset 14, -4
 642              		.cfi_offset 5, -8
 643              		.cfi_offset 4, -12
 644              		.cfi_offset 3, -16
 645              		.loc 1 351 0
 646 0002 0D4B     		ldr	r3, .L33
 647              		.loc 1 350 0
 648 0004 0546     		mov	r5, r0
 649              		.loc 1 351 0
 650 0006 9C69     		ldr	r4, [r3, #24]
 651              	.LVL65:
 652              	.LBB23:
 653              		.loc 1 354 0
 654 0008 2023     		movs	r3, #32
 655              	.LVL66:
 656              	@ 354 "../../os/kernel/src/chevents.c" 1
 657 000a 83F31188 		msr     BASEPRI, r3
 658              	@ 0 "" 2
 659              	.LVL67:
 660              		.thumb
 661              	.LBE23:
 662              		.loc 1 356 0
 663 000e A36B     		ldr	r3, [r4, #56]
 664              	.LVL68:
 665 0010 10EA0302 		ands	r2, r0, r3
 666 0014 06D1     		bne	.L32
 667              		.loc 1 357 0
 668 0016 6062     		str	r0, [r4, #36]
 669              		.loc 1 358 0
 670 0018 0820     		movs	r0, #8
 671              	.LVL69:
 672 001a FFF7FEFF 		bl	chSchGoSleepS
 673              	.LVL70:
 674              		.loc 1 359 0
ARM GAS  /tmp/cc9l1bLu.s 			page 13


 675 001e A36B     		ldr	r3, [r4, #56]
 676 0020 05EA0302 		and	r2, r5, r3
 677              	.LVL71:
 678              	.L32:
 679              		.loc 1 361 0
 680 0024 5042     		negs	r0, r2
 681 0026 1040     		ands	r0, r0, r2
 682              	.LVL72:
 683              		.loc 1 362 0
 684 0028 23EA0003 		bic	r3, r3, r0
 685 002c A363     		str	r3, [r4, #56]
 686              	.LBB24:
 687              		.loc 1 364 0
 688 002e 0023     		movs	r3, #0
 689              	.LVL73:
 690              	@ 364 "../../os/kernel/src/chevents.c" 1
 691 0030 83F31188 		msr     BASEPRI, r3
 692              	@ 0 "" 2
 693              	.LVL74:
 694              		.thumb
 695              	.LBE24:
 696              		.loc 1 366 0
 697 0034 38BD     		pop	{r3, r4, r5, pc}
 698              	.L34:
 699 0036 00BF     		.align	2
 700              	.L33:
 701 0038 00000000 		.word	rlist
 702              		.cfi_endproc
 703              	.LFE18:
 704              		.size	chEvtWaitOne, .-chEvtWaitOne
 705 003c AFF30080 		.section	.text.chEvtWaitAny,"ax",%progbits
 706              		.align	2
 707              		.p2align 4,,15
 708              		.global	chEvtWaitAny
 709              		.thumb
 710              		.thumb_func
 711              		.type	chEvtWaitAny, %function
 712              	chEvtWaitAny:
 713              	.LFB19:
 714              		.loc 1 379 0
 715              		.cfi_startproc
 716              		@ args = 0, pretend = 0, frame = 0
 717              		@ frame_needed = 0, uses_anonymous_args = 0
 718              	.LVL75:
 719 0000 38B5     		push	{r3, r4, r5, lr}
 720              	.LCFI8:
 721              		.cfi_def_cfa_offset 16
 722              		.cfi_offset 14, -4
 723              		.cfi_offset 5, -8
 724              		.cfi_offset 4, -12
 725              		.cfi_offset 3, -16
 726              		.loc 1 380 0
 727 0002 0B4B     		ldr	r3, .L37
 728              		.loc 1 379 0
 729 0004 0546     		mov	r5, r0
 730              		.loc 1 380 0
 731 0006 9C69     		ldr	r4, [r3, #24]
ARM GAS  /tmp/cc9l1bLu.s 			page 14


 732              	.LVL76:
 733              	.LBB25:
 734              		.loc 1 383 0
 735 0008 2023     		movs	r3, #32
 736              	.LVL77:
 737              	@ 383 "../../os/kernel/src/chevents.c" 1
 738 000a 83F31188 		msr     BASEPRI, r3
 739              	@ 0 "" 2
 740              	.LVL78:
 741              		.thumb
 742              	.LBE25:
 743              		.loc 1 385 0
 744 000e A36B     		ldr	r3, [r4, #56]
 745              	.LVL79:
 746 0010 1840     		ands	r0, r0, r3
 747              	.LVL80:
 748 0012 06D1     		bne	.L36
 749              		.loc 1 387 0
 750 0014 0820     		movs	r0, #8
 751              		.loc 1 386 0
 752 0016 6562     		str	r5, [r4, #36]
 753              		.loc 1 387 0
 754 0018 FFF7FEFF 		bl	chSchGoSleepS
 755              	.LVL81:
 756              		.loc 1 388 0
 757 001c A36B     		ldr	r3, [r4, #56]
 758 001e 05EA0300 		and	r0, r5, r3
 759              	.LVL82:
 760              	.L36:
 761              		.loc 1 390 0
 762 0022 23EA0003 		bic	r3, r3, r0
 763 0026 A363     		str	r3, [r4, #56]
 764              	.LBB26:
 765              		.loc 1 392 0
 766 0028 0023     		movs	r3, #0
 767              	.LVL83:
 768              	@ 392 "../../os/kernel/src/chevents.c" 1
 769 002a 83F31188 		msr     BASEPRI, r3
 770              	@ 0 "" 2
 771              	.LVL84:
 772              		.thumb
 773              	.LBE26:
 774              		.loc 1 394 0
 775 002e 38BD     		pop	{r3, r4, r5, pc}
 776              	.L38:
 777              		.align	2
 778              	.L37:
 779 0030 00000000 		.word	rlist
 780              		.cfi_endproc
 781              	.LFE19:
 782              		.size	chEvtWaitAny, .-chEvtWaitAny
 783 0034 AFF30080 		.section	.text.chEvtWaitAll,"ax",%progbits
 783      AFF30080 
 783      AFF30080 
 784              		.align	2
 785              		.p2align 4,,15
 786              		.global	chEvtWaitAll
ARM GAS  /tmp/cc9l1bLu.s 			page 15


 787              		.thumb
 788              		.thumb_func
 789              		.type	chEvtWaitAll, %function
 790              	chEvtWaitAll:
 791              	.LFB20:
 792              		.loc 1 407 0
 793              		.cfi_startproc
 794              		@ args = 0, pretend = 0, frame = 0
 795              		@ frame_needed = 0, uses_anonymous_args = 0
 796              	.LVL85:
 797 0000 38B5     		push	{r3, r4, r5, lr}
 798              	.LCFI9:
 799              		.cfi_def_cfa_offset 16
 800              		.cfi_offset 14, -4
 801              		.cfi_offset 5, -8
 802              		.cfi_offset 4, -12
 803              		.cfi_offset 3, -16
 804              		.loc 1 408 0
 805 0002 0C4B     		ldr	r3, .L41
 806              		.loc 1 407 0
 807 0004 0446     		mov	r4, r0
 808              		.loc 1 408 0
 809 0006 9D69     		ldr	r5, [r3, #24]
 810              	.LVL86:
 811              	.LBB27:
 812              		.loc 1 410 0
 813 0008 2023     		movs	r3, #32
 814              	.LVL87:
 815              	@ 410 "../../os/kernel/src/chevents.c" 1
 816 000a 83F31188 		msr     BASEPRI, r3
 817              	@ 0 "" 2
 818              	.LVL88:
 819              		.thumb
 820              	.LBE27:
 821              		.loc 1 412 0
 822 000e AB6B     		ldr	r3, [r5, #56]
 823              	.LVL89:
 824 0010 00EA0302 		and	r2, r0, r3
 825 0014 8242     		cmp	r2, r0
 826 0016 04D0     		beq	.L40
 827              		.loc 1 413 0
 828 0018 6862     		str	r0, [r5, #36]
 829              		.loc 1 414 0
 830 001a 0920     		movs	r0, #9
 831              	.LVL90:
 832 001c FFF7FEFF 		bl	chSchGoSleepS
 833              	.LVL91:
 834 0020 AB6B     		ldr	r3, [r5, #56]
 835              	.L40:
 836              		.loc 1 416 0
 837 0022 23EA0403 		bic	r3, r3, r4
 838 0026 AB63     		str	r3, [r5, #56]
 839              	.LBB28:
 840              		.loc 1 418 0
 841 0028 0023     		movs	r3, #0
 842              	.LVL92:
 843              	@ 418 "../../os/kernel/src/chevents.c" 1
ARM GAS  /tmp/cc9l1bLu.s 			page 16


 844 002a 83F31188 		msr     BASEPRI, r3
 845              	@ 0 "" 2
 846              	.LVL93:
 847              		.thumb
 848              	.LBE28:
 849              		.loc 1 420 0
 850 002e 2046     		mov	r0, r4
 851 0030 38BD     		pop	{r3, r4, r5, pc}
 852              	.L42:
 853 0032 00BF     		.align	2
 854              	.L41:
 855 0034 00000000 		.word	rlist
 856              		.cfi_endproc
 857              	.LFE20:
 858              		.size	chEvtWaitAll, .-chEvtWaitAll
 859 0038 AFF30080 		.section	.text.chEvtWaitOneTimeout,"ax",%progbits
 859      AFF30080 
 860              		.align	2
 861              		.p2align 4,,15
 862              		.global	chEvtWaitOneTimeout
 863              		.thumb
 864              		.thumb_func
 865              		.type	chEvtWaitOneTimeout, %function
 866              	chEvtWaitOneTimeout:
 867              	.LFB21:
 868              		.loc 1 446 0
 869              		.cfi_startproc
 870              		@ args = 0, pretend = 0, frame = 0
 871              		@ frame_needed = 0, uses_anonymous_args = 0
 872              	.LVL94:
 873              		.loc 1 447 0
 874 0000 114B     		ldr	r3, .L49
 875              		.loc 1 446 0
 876 0002 70B5     		push	{r4, r5, r6, lr}
 877              	.LCFI10:
 878              		.cfi_def_cfa_offset 16
 879              		.cfi_offset 14, -4
 880              		.cfi_offset 6, -8
 881              		.cfi_offset 5, -12
 882              		.cfi_offset 4, -16
 883              		.loc 1 447 0
 884 0004 9E69     		ldr	r6, [r3, #24]
 885              	.LVL95:
 886              		.loc 1 446 0
 887 0006 0546     		mov	r5, r0
 888              	.LBB29:
 889              		.loc 1 450 0
 890 0008 2023     		movs	r3, #32
 891              	.LVL96:
 892              	@ 450 "../../os/kernel/src/chevents.c" 1
 893 000a 83F31188 		msr     BASEPRI, r3
 894              	@ 0 "" 2
 895              	.LVL97:
 896              		.thumb
 897              	.LBE29:
 898              		.loc 1 452 0
 899 000e B36B     		ldr	r3, [r6, #56]
ARM GAS  /tmp/cc9l1bLu.s 			page 17


 900              	.LVL98:
 901 0010 10EA0304 		ands	r4, r0, r3
 902 0014 0ED1     		bne	.L44
 903              	.LVL99:
 904              		.loc 1 453 0
 905 0016 21B9     		cbnz	r1, .L45
 906              	.LVL100:
 907              	.L48:
 908              	.LBB30:
 909              		.loc 1 459 0
 910 0018 2346     		mov	r3, r4
 911              	.LVL101:
 912              	@ 459 "../../os/kernel/src/chevents.c" 1
 913 001a 83F31188 		msr     BASEPRI, r3
 914              	@ 0 "" 2
 915              	.LVL102:
 916              		.thumb
 917              	.LBE30:
 918              		.loc 1 469 0
 919 001e 2046     		mov	r0, r4
 920 0020 70BD     		pop	{r4, r5, r6, pc}
 921              	.LVL103:
 922              	.L45:
 923              		.loc 1 457 0
 924 0022 7062     		str	r0, [r6, #36]
 925              		.loc 1 458 0
 926 0024 0820     		movs	r0, #8
 927 0026 FFF7FEFF 		bl	chSchGoSleepTimeoutS
 928              	.LVL104:
 929 002a 0028     		cmp	r0, #0
 930 002c F4DB     		blt	.L48
 931              		.loc 1 462 0
 932 002e B36B     		ldr	r3, [r6, #56]
 933 0030 05EA0304 		and	r4, r5, r3
 934              	.LVL105:
 935              	.L44:
 936              		.loc 1 464 0
 937 0034 6242     		negs	r2, r4
 938 0036 1440     		ands	r4, r4, r2
 939              	.LVL106:
 940              		.loc 1 465 0
 941 0038 23EA0403 		bic	r3, r3, r4
 942 003c B363     		str	r3, [r6, #56]
 943              	.LBB31:
 944              		.loc 1 467 0
 945 003e 0023     		movs	r3, #0
 946              	.LVL107:
 947              	@ 467 "../../os/kernel/src/chevents.c" 1
 948 0040 83F31188 		msr     BASEPRI, r3
 949              	@ 0 "" 2
 950              	.LVL108:
 951              		.thumb
 952              	.LBE31:
 953              		.loc 1 469 0
 954 0044 2046     		mov	r0, r4
 955 0046 70BD     		pop	{r4, r5, r6, pc}
 956              	.L50:
ARM GAS  /tmp/cc9l1bLu.s 			page 18


 957              		.align	2
 958              	.L49:
 959 0048 00000000 		.word	rlist
 960              		.cfi_endproc
 961              	.LFE21:
 962              		.size	chEvtWaitOneTimeout, .-chEvtWaitOneTimeout
 963 004c AFF30080 		.section	.text.chEvtWaitAnyTimeout,"ax",%progbits
 964              		.align	2
 965              		.p2align 4,,15
 966              		.global	chEvtWaitAnyTimeout
 967              		.thumb
 968              		.thumb_func
 969              		.type	chEvtWaitAnyTimeout, %function
 970              	chEvtWaitAnyTimeout:
 971              	.LFB22:
 972              		.loc 1 489 0
 973              		.cfi_startproc
 974              		@ args = 0, pretend = 0, frame = 0
 975              		@ frame_needed = 0, uses_anonymous_args = 0
 976              	.LVL109:
 977              		.loc 1 490 0
 978 0000 104B     		ldr	r3, .L57
 979              		.loc 1 489 0
 980 0002 70B5     		push	{r4, r5, r6, lr}
 981              	.LCFI11:
 982              		.cfi_def_cfa_offset 16
 983              		.cfi_offset 14, -4
 984              		.cfi_offset 6, -8
 985              		.cfi_offset 5, -12
 986              		.cfi_offset 4, -16
 987              		.loc 1 490 0
 988 0004 9E69     		ldr	r6, [r3, #24]
 989              	.LVL110:
 990              		.loc 1 489 0
 991 0006 0446     		mov	r4, r0
 992              	.LBB32:
 993              		.loc 1 493 0
 994 0008 2023     		movs	r3, #32
 995              	.LVL111:
 996              	@ 493 "../../os/kernel/src/chevents.c" 1
 997 000a 83F31188 		msr     BASEPRI, r3
 998              	@ 0 "" 2
 999              	.LVL112:
 1000              		.thumb
 1001              	.LBE32:
 1002              		.loc 1 495 0
 1003 000e B36B     		ldr	r3, [r6, #56]
 1004              	.LVL113:
 1005 0010 10EA0305 		ands	r5, r0, r3
 1006 0014 0ED1     		bne	.L52
 1007              	.LVL114:
 1008              		.loc 1 496 0
 1009 0016 21B9     		cbnz	r1, .L53
 1010              	.LVL115:
 1011              	.L56:
 1012              	.LBB33:
 1013              		.loc 1 502 0
ARM GAS  /tmp/cc9l1bLu.s 			page 19


 1014 0018 2B46     		mov	r3, r5
 1015              	.LVL116:
 1016              	@ 502 "../../os/kernel/src/chevents.c" 1
 1017 001a 83F31188 		msr     BASEPRI, r3
 1018              	@ 0 "" 2
 1019              	.LVL117:
 1020              		.thumb
 1021              	.LBE33:
 1022              		.loc 1 511 0
 1023 001e 2846     		mov	r0, r5
 1024 0020 70BD     		pop	{r4, r5, r6, pc}
 1025              	.LVL118:
 1026              	.L53:
 1027              		.loc 1 500 0
 1028 0022 7062     		str	r0, [r6, #36]
 1029              		.loc 1 501 0
 1030 0024 0820     		movs	r0, #8
 1031 0026 FFF7FEFF 		bl	chSchGoSleepTimeoutS
 1032              	.LVL119:
 1033 002a 0028     		cmp	r0, #0
 1034 002c F4DB     		blt	.L56
 1035              		.loc 1 505 0
 1036 002e B36B     		ldr	r3, [r6, #56]
 1037 0030 04EA0305 		and	r5, r4, r3
 1038              	.LVL120:
 1039              	.L52:
 1040              		.loc 1 507 0
 1041 0034 23EA0503 		bic	r3, r3, r5
 1042 0038 B363     		str	r3, [r6, #56]
 1043              	.LBB34:
 1044              		.loc 1 509 0
 1045 003a 0023     		movs	r3, #0
 1046              	.LVL121:
 1047              	@ 509 "../../os/kernel/src/chevents.c" 1
 1048 003c 83F31188 		msr     BASEPRI, r3
 1049              	@ 0 "" 2
 1050              	.LVL122:
 1051              		.thumb
 1052              	.LBE34:
 1053              		.loc 1 511 0
 1054 0040 2846     		mov	r0, r5
 1055 0042 70BD     		pop	{r4, r5, r6, pc}
 1056              	.L58:
 1057              		.align	2
 1058              	.L57:
 1059 0044 00000000 		.word	rlist
 1060              		.cfi_endproc
 1061              	.LFE22:
 1062              		.size	chEvtWaitAnyTimeout, .-chEvtWaitAnyTimeout
 1063 0048 AFF30080 		.section	.text.chEvtWaitAllTimeout,"ax",%progbits
 1063      AFF30080 
 1064              		.align	2
 1065              		.p2align 4,,15
 1066              		.global	chEvtWaitAllTimeout
 1067              		.thumb
 1068              		.thumb_func
 1069              		.type	chEvtWaitAllTimeout, %function
ARM GAS  /tmp/cc9l1bLu.s 			page 20


 1070              	chEvtWaitAllTimeout:
 1071              	.LFB23:
 1072              		.loc 1 530 0
 1073              		.cfi_startproc
 1074              		@ args = 0, pretend = 0, frame = 0
 1075              		@ frame_needed = 0, uses_anonymous_args = 0
 1076              	.LVL123:
 1077 0000 38B5     		push	{r3, r4, r5, lr}
 1078              	.LCFI12:
 1079              		.cfi_def_cfa_offset 16
 1080              		.cfi_offset 14, -4
 1081              		.cfi_offset 5, -8
 1082              		.cfi_offset 4, -12
 1083              		.cfi_offset 3, -16
 1084              		.loc 1 531 0
 1085 0002 134B     		ldr	r3, .L65
 1086              		.loc 1 530 0
 1087 0004 0446     		mov	r4, r0
 1088              		.loc 1 531 0
 1089 0006 9D69     		ldr	r5, [r3, #24]
 1090              	.LVL124:
 1091              	.LBB35:
 1092              		.loc 1 533 0
 1093 0008 2023     		movs	r3, #32
 1094              	.LVL125:
 1095              	@ 533 "../../os/kernel/src/chevents.c" 1
 1096 000a 83F31188 		msr     BASEPRI, r3
 1097              	@ 0 "" 2
 1098              	.LVL126:
 1099              		.thumb
 1100              	.LBE35:
 1101              		.loc 1 535 0
 1102 000e AB6B     		ldr	r3, [r5, #56]
 1103              	.LVL127:
 1104 0010 1840     		ands	r0, r0, r3
 1105              	.LVL128:
 1106 0012 A042     		cmp	r0, r4
 1107 0014 0ED0     		beq	.L60
 1108              		.loc 1 536 0
 1109 0016 29B9     		cbnz	r1, .L61
 1110              	.LBB36:
 1111              		.loc 1 537 0
 1112 0018 0B46     		mov	r3, r1
 1113              	.LVL129:
 1114              	@ 537 "../../os/kernel/src/chevents.c" 1
 1115 001a 83F31188 		msr     BASEPRI, r3
 1116              	@ 0 "" 2
 1117              	.LVL130:
 1118              		.thumb
 1119              	.LBE36:
 1120              		.loc 1 538 0
 1121 001e 0C46     		mov	r4, r1
 1122              	.LVL131:
 1123              		.loc 1 550 0
 1124 0020 2046     		mov	r0, r4
 1125 0022 38BD     		pop	{r3, r4, r5, pc}
 1126              	.LVL132:
ARM GAS  /tmp/cc9l1bLu.s 			page 21


 1127              	.L61:
 1128              		.loc 1 541 0
 1129 0024 0920     		movs	r0, #9
 1130              		.loc 1 540 0
 1131 0026 6C62     		str	r4, [r5, #36]
 1132              		.loc 1 541 0
 1133 0028 FFF7FEFF 		bl	chSchGoSleepTimeoutS
 1134              	.LVL133:
 1135 002c 0028     		cmp	r0, #0
 1136 002e A8BF     		it	ge
 1137 0030 AB6B     		ldrge	r3, [r5, #56]
 1138 0032 07DB     		blt	.L64
 1139              	.L60:
 1140              		.loc 1 546 0
 1141 0034 23EA0403 		bic	r3, r3, r4
 1142 0038 AB63     		str	r3, [r5, #56]
 1143              	.LBB37:
 1144              		.loc 1 548 0
 1145 003a 0023     		movs	r3, #0
 1146              	.LVL134:
 1147              	@ 548 "../../os/kernel/src/chevents.c" 1
 1148 003c 83F31188 		msr     BASEPRI, r3
 1149              	@ 0 "" 2
 1150              	.LVL135:
 1151              		.thumb
 1152              	.L62:
 1153              	.LBE37:
 1154              		.loc 1 550 0
 1155 0040 2046     		mov	r0, r4
 1156 0042 38BD     		pop	{r3, r4, r5, pc}
 1157              	.LVL136:
 1158              	.L64:
 1159              	.LBB38:
 1160              		.loc 1 542 0
 1161 0044 0023     		movs	r3, #0
 1162              	@ 542 "../../os/kernel/src/chevents.c" 1
 1163 0046 83F31188 		msr     BASEPRI, r3
 1164              	@ 0 "" 2
 1165              	.LVL137:
 1166              		.thumb
 1167              	.LBE38:
 1168              		.loc 1 543 0
 1169 004a 1C46     		mov	r4, r3
 1170              	.LVL138:
 1171 004c F8E7     		b	.L62
 1172              	.L66:
 1173 004e 00BF     		.align	2
 1174              	.L65:
 1175 0050 00000000 		.word	rlist
 1176              		.cfi_endproc
 1177              	.LFE23:
 1178              		.size	chEvtWaitAllTimeout, .-chEvtWaitAllTimeout
 1179 0054 AFF30080 		.text
 1179      AFF30080 
 1179      AFF30080 
 1180              	.Letext0:
 1181              		.file 2 "/opt/paparazzi/arm-multilib/lib/gcc/arm-none-eabi/4.6.2/../../../../arm-none-eabi/include
ARM GAS  /tmp/cc9l1bLu.s 			page 22


 1182              		.file 3 "../../os/ports/GCC/ARMCMx/chtypes.h"
 1183              		.file 4 "../../os/kernel/include/chlists.h"
 1184              		.file 5 "../../os/kernel/include/chthreads.h"
 1185              		.file 6 "../../os/ports/GCC/ARMCMx/chcore_v7m.h"
 1186              		.file 7 "../../os/kernel/include/chschd.h"
 1187              		.file 8 "../../os/kernel/include/chmtx.h"
 1188              		.file 9 "../../os/kernel/include/chevents.h"