ARM GAS  /tmp/ccD24ZmC.s 			page 1


   1              		.syntax unified
   2              		.cpu cortex-m4
   3              		.fpu softvfp
   4              		.eabi_attribute 20, 1
   5              		.eabi_attribute 21, 1
   6              		.eabi_attribute 23, 3
   7              		.eabi_attribute 24, 1
   8              		.eabi_attribute 25, 1
   9              		.eabi_attribute 26, 1
  10              		.eabi_attribute 30, 2
  11              		.eabi_attribute 18, 4
  12              		.thumb
  13              		.file	"chmboxes.c"
  14              		.text
  15              	.Ltext0:
  16              		.cfi_sections	.debug_frame
  17              		.section	.text.chMBInit,"ax",%progbits
  18              		.align	2
  19              		.p2align 4,,15
  20              		.global	chMBInit
  21              		.thumb
  22              		.thumb_func
  23              		.type	chMBInit, %function
  24              	chMBInit:
  25              	.LFB7:
  26              		.file 1 "../../os/kernel/src/chmboxes.c"
  27              		.loc 1 72 0
  28              		.cfi_startproc
  29              		@ args = 0, pretend = 0, frame = 0
  30              		@ frame_needed = 0, uses_anonymous_args = 0
  31              	.LVL0:
  32 0000 38B5     		push	{r3, r4, r5, lr}
  33              	.LCFI0:
  34              		.cfi_def_cfa_offset 16
  35              		.cfi_offset 14, -4
  36              		.cfi_offset 5, -8
  37              		.cfi_offset 4, -12
  38              		.cfi_offset 3, -16
  39              		.loc 1 72 0
  40 0002 0446     		mov	r4, r0
  41 0004 0B46     		mov	r3, r1
  42              		.loc 1 77 0
  43 0006 01EB8205 		add	r5, r1, r2, lsl #2
  44              		.loc 1 78 0
  45 000a 00F11C00 		add	r0, r0, #28
  46              	.LVL1:
  47 000e 1146     		mov	r1, r2
  48              	.LVL2:
  49              		.loc 1 76 0
  50 0010 E360     		str	r3, [r4, #12]
  51 0012 A360     		str	r3, [r4, #8]
  52              		.loc 1 77 0
  53 0014 84E82800 		stmia	r4, {r3, r5}
  54              		.loc 1 78 0
  55 0018 FFF7FEFF 		bl	chSemInit
  56              	.LVL3:
  57              		.loc 1 79 0
ARM GAS  /tmp/ccD24ZmC.s 			page 2


  58 001c 04F11000 		add	r0, r4, #16
  59 0020 0021     		movs	r1, #0
  60              		.loc 1 80 0
  61 0022 BDE83840 		pop	{r3, r4, r5, lr}
  62              		.loc 1 79 0
  63 0026 FFF7FEBF 		b	chSemInit
  64              		.cfi_endproc
  65              	.LFE7:
  66              		.size	chMBInit, .-chMBInit
  67 002a 00BFAFF3 		.section	.text.chMBReset,"ax",%progbits
  67      0080
  68              		.align	2
  69              		.p2align 4,,15
  70              		.global	chMBReset
  71              		.thumb
  72              		.thumb_func
  73              		.type	chMBReset, %function
  74              	chMBReset:
  75              	.LFB8:
  76              		.loc 1 91 0
  77              		.cfi_startproc
  78              		@ args = 0, pretend = 0, frame = 0
  79              		@ frame_needed = 0, uses_anonymous_args = 0
  80              	.LVL4:
  81 0000 10B5     		push	{r4, lr}
  82              	.LCFI1:
  83              		.cfi_def_cfa_offset 8
  84              		.cfi_offset 14, -4
  85              		.cfi_offset 4, -8
  86              	.LBB2:
  87              		.loc 1 95 0
  88 0002 2023     		movs	r3, #32
  89              	.LVL5:
  90              	.LBE2:
  91              		.loc 1 91 0
  92 0004 0446     		mov	r4, r0
  93              	.LBB3:
  94              		.loc 1 95 0
  95              	@ 95 "../../os/kernel/src/chmboxes.c" 1
  96 0006 83F31188 		msr     BASEPRI, r3
  97              	@ 0 "" 2
  98              	.LVL6:
  99              		.thumb
 100              	.LBE3:
 101              		.loc 1 96 0
 102 000a 0368     		ldr	r3, [r0, #0]
 103              	.LVL7:
 104              		.loc 1 97 0
 105 000c 4168     		ldr	r1, [r0, #4]
 106              		.loc 1 96 0
 107 000e C360     		str	r3, [r0, #12]
 108              		.loc 1 97 0
 109 0010 C91A     		subs	r1, r1, r3
 110              		.loc 1 96 0
 111 0012 A360     		str	r3, [r4, #8]
 112              		.loc 1 97 0
 113 0014 8910     		asrs	r1, r1, #2
ARM GAS  /tmp/ccD24ZmC.s 			page 3


 114 0016 00F11C00 		add	r0, r0, #28
 115              	.LVL8:
 116 001a FFF7FEFF 		bl	chSemResetI
 117              		.loc 1 98 0
 118 001e 04F11000 		add	r0, r4, #16
 119 0022 0021     		movs	r1, #0
 120 0024 FFF7FEFF 		bl	chSemResetI
 121              		.loc 1 99 0
 122 0028 FFF7FEFF 		bl	chSchRescheduleS
 123              	.LBB4:
 124              		.loc 1 100 0
 125 002c 0023     		movs	r3, #0
 126              	.LVL9:
 127              	@ 100 "../../os/kernel/src/chmboxes.c" 1
 128 002e 83F31188 		msr     BASEPRI, r3
 129              	@ 0 "" 2
 130              	.LVL10:
 131              		.thumb
 132              	.LBE4:
 133              		.loc 1 101 0
 134 0032 10BD     		pop	{r4, pc}
 135              		.cfi_endproc
 136              	.LFE8:
 137              		.size	chMBReset, .-chMBReset
 138 0034 AFF30080 		.section	.text.chMBPostS,"ax",%progbits
 138      AFF30080 
 138      AFF30080 
 139              		.align	2
 140              		.p2align 4,,15
 141              		.global	chMBPostS
 142              		.thumb
 143              		.thumb_func
 144              		.type	chMBPostS, %function
 145              	chMBPostS:
 146              	.LFB10:
 147              		.loc 1 150 0
 148              		.cfi_startproc
 149              		@ args = 0, pretend = 0, frame = 0
 150              		@ frame_needed = 0, uses_anonymous_args = 0
 151              	.LVL11:
 152 0000 70B5     		push	{r4, r5, r6, lr}
 153              	.LCFI2:
 154              		.cfi_def_cfa_offset 16
 155              		.cfi_offset 14, -4
 156              		.cfi_offset 6, -8
 157              		.cfi_offset 5, -12
 158              		.cfi_offset 4, -16
 159              		.loc 1 150 0
 160 0002 0446     		mov	r4, r0
 161 0004 0D46     		mov	r5, r1
 162              		.loc 1 156 0
 163 0006 00F11C00 		add	r0, r0, #28
 164              	.LVL12:
 165 000a 1146     		mov	r1, r2
 166              	.LVL13:
 167 000c FFF7FEFF 		bl	chSemWaitTimeoutS
 168              	.LVL14:
ARM GAS  /tmp/ccD24ZmC.s 			page 4


 169              		.loc 1 157 0
 170 0010 0646     		mov	r6, r0
 171 0012 78B9     		cbnz	r0, .L4
 172              		.loc 1 158 0
 173 0014 A368     		ldr	r3, [r4, #8]
 174              		.loc 1 159 0
 175 0016 6268     		ldr	r2, [r4, #4]
 176              		.loc 1 158 0
 177 0018 43F8045B 		str	r5, [r3], #4
 178              		.loc 1 159 0
 179 001c 9342     		cmp	r3, r2
 180              		.loc 1 158 0
 181 001e A360     		str	r3, [r4, #8]
 182              		.loc 1 160 0
 183 0020 28BF     		it	cs
 184 0022 2368     		ldrcs	r3, [r4, #0]
 185              		.loc 1 161 0
 186 0024 04F11000 		add	r0, r4, #16
 187              	.LVL15:
 188              		.loc 1 160 0
 189 0028 28BF     		it	cs
 190 002a A360     		strcs	r3, [r4, #8]
 191              		.loc 1 161 0
 192 002c FFF7FEFF 		bl	chSemSignalI
 193              		.loc 1 162 0
 194 0030 FFF7FEFF 		bl	chSchRescheduleS
 195              	.L4:
 196              		.loc 1 165 0
 197 0034 3046     		mov	r0, r6
 198 0036 70BD     		pop	{r4, r5, r6, pc}
 199              		.cfi_endproc
 200              	.LFE10:
 201              		.size	chMBPostS, .-chMBPostS
 202 0038 AFF30080 		.section	.text.chMBPost,"ax",%progbits
 202      AFF30080 
 203              		.align	2
 204              		.p2align 4,,15
 205              		.global	chMBPost
 206              		.thumb
 207              		.thumb_func
 208              		.type	chMBPost, %function
 209              	chMBPost:
 210              	.LFB9:
 211              		.loc 1 122 0
 212              		.cfi_startproc
 213              		@ args = 0, pretend = 0, frame = 0
 214              		@ frame_needed = 0, uses_anonymous_args = 0
 215              	.LVL16:
 216 0000 08B5     		push	{r3, lr}
 217              	.LCFI3:
 218              		.cfi_def_cfa_offset 8
 219              		.cfi_offset 14, -4
 220              		.cfi_offset 3, -8
 221              	.LBB5:
 222              		.loc 1 125 0
 223 0002 2023     		movs	r3, #32
 224              	.LVL17:
ARM GAS  /tmp/ccD24ZmC.s 			page 5


 225              	@ 125 "../../os/kernel/src/chmboxes.c" 1
 226 0004 83F31188 		msr     BASEPRI, r3
 227              	@ 0 "" 2
 228              	.LVL18:
 229              		.thumb
 230              	.LBE5:
 231              		.loc 1 126 0
 232 0008 FFF7FEFF 		bl	chMBPostS
 233              	.LVL19:
 234              	.LBB6:
 235              		.loc 1 127 0
 236 000c 0023     		movs	r3, #0
 237              	.LVL20:
 238              	@ 127 "../../os/kernel/src/chmboxes.c" 1
 239 000e 83F31188 		msr     BASEPRI, r3
 240              	@ 0 "" 2
 241              	.LVL21:
 242              		.thumb
 243              	.LBE6:
 244              		.loc 1 129 0
 245 0012 08BD     		pop	{r3, pc}
 246              		.cfi_endproc
 247              	.LFE9:
 248              		.size	chMBPost, .-chMBPost
 249 0014 AFF30080 		.section	.text.chMBPostI,"ax",%progbits
 249      AFF30080 
 249      AFF30080 
 250              		.align	2
 251              		.p2align 4,,15
 252              		.global	chMBPostI
 253              		.thumb
 254              		.thumb_func
 255              		.type	chMBPostI, %function
 256              	chMBPostI:
 257              	.LFB11:
 258              		.loc 1 181 0
 259              		.cfi_startproc
 260              		@ args = 0, pretend = 0, frame = 0
 261              		@ frame_needed = 0, uses_anonymous_args = 0
 262              	.LVL22:
 263              		.loc 1 186 0
 264 0000 436A     		ldr	r3, [r0, #36]
 265 0002 002B     		cmp	r3, #0
 266              		.loc 1 181 0
 267 0004 10B5     		push	{r4, lr}
 268              	.LCFI4:
 269              		.cfi_def_cfa_offset 8
 270              		.cfi_offset 14, -4
 271              		.cfi_offset 4, -8
 272              		.loc 1 186 0
 273 0006 10DD     		ble	.L11
 274              		.loc 1 189 0
 275 0008 8268     		ldr	r2, [r0, #8]
 276              		.loc 1 190 0
 277 000a 4468     		ldr	r4, [r0, #4]
 278              		.loc 1 188 0
 279 000c 013B     		subs	r3, r3, #1
ARM GAS  /tmp/ccD24ZmC.s 			page 6


 280 000e 4362     		str	r3, [r0, #36]
 281              		.loc 1 189 0
 282 0010 42F8041B 		str	r1, [r2], #4
 283              		.loc 1 190 0
 284 0014 A242     		cmp	r2, r4
 285              		.loc 1 191 0
 286 0016 28BF     		it	cs
 287 0018 0368     		ldrcs	r3, [r0, #0]
 288              		.loc 1 189 0
 289 001a 8260     		str	r2, [r0, #8]
 290              		.loc 1 191 0
 291 001c 28BF     		it	cs
 292 001e 8360     		strcs	r3, [r0, #8]
 293              		.loc 1 192 0
 294 0020 1030     		adds	r0, r0, #16
 295              	.LVL23:
 296 0022 FFF7FEFF 		bl	chSemSignalI
 297              	.LVL24:
 298              		.loc 1 193 0
 299 0026 0020     		movs	r0, #0
 300 0028 10BD     		pop	{r4, pc}
 301              	.LVL25:
 302              	.L11:
 303              		.loc 1 187 0
 304 002a 4FF0FF30 		mov	r0, #-1
 305              	.LVL26:
 306              		.loc 1 194 0
 307 002e 10BD     		pop	{r4, pc}
 308              		.cfi_endproc
 309              	.LFE11:
 310              		.size	chMBPostI, .-chMBPostI
 311              		.section	.text.chMBPostAheadS,"ax",%progbits
 312              		.align	2
 313              		.p2align 4,,15
 314              		.global	chMBPostAheadS
 315              		.thumb
 316              		.thumb_func
 317              		.type	chMBPostAheadS, %function
 318              	chMBPostAheadS:
 319              	.LFB13:
 320              		.loc 1 243 0
 321              		.cfi_startproc
 322              		@ args = 0, pretend = 0, frame = 0
 323              		@ frame_needed = 0, uses_anonymous_args = 0
 324              	.LVL27:
 325 0000 70B5     		push	{r4, r5, r6, lr}
 326              	.LCFI5:
 327              		.cfi_def_cfa_offset 16
 328              		.cfi_offset 14, -4
 329              		.cfi_offset 6, -8
 330              		.cfi_offset 5, -12
 331              		.cfi_offset 4, -16
 332              		.loc 1 243 0
 333 0002 0446     		mov	r4, r0
 334 0004 0D46     		mov	r5, r1
 335              		.loc 1 249 0
 336 0006 00F11C00 		add	r0, r0, #28
ARM GAS  /tmp/ccD24ZmC.s 			page 7


 337              	.LVL28:
 338 000a 1146     		mov	r1, r2
 339              	.LVL29:
 340 000c FFF7FEFF 		bl	chSemWaitTimeoutS
 341              	.LVL30:
 342              		.loc 1 250 0
 343 0010 0646     		mov	r6, r0
 344 0012 60B9     		cbnz	r0, .L13
 345              		.loc 1 251 0
 346 0014 E368     		ldr	r3, [r4, #12]
 347 0016 2268     		ldr	r2, [r4, #0]
 348 0018 043B     		subs	r3, r3, #4
 349 001a 9342     		cmp	r3, r2
 350 001c E360     		str	r3, [r4, #12]
 351 001e 08D3     		bcc	.L15
 352              	.L14:
 353              		.loc 1 254 0
 354 0020 04F11000 		add	r0, r4, #16
 355              	.LVL31:
 356              		.loc 1 253 0
 357 0024 1D60     		str	r5, [r3, #0]
 358              		.loc 1 254 0
 359 0026 FFF7FEFF 		bl	chSemSignalI
 360              		.loc 1 255 0
 361 002a FFF7FEFF 		bl	chSchRescheduleS
 362              	.L13:
 363              		.loc 1 258 0
 364 002e 3046     		mov	r0, r6
 365 0030 70BD     		pop	{r4, r5, r6, pc}
 366              	.L15:
 367              		.loc 1 252 0
 368 0032 6368     		ldr	r3, [r4, #4]
 369 0034 043B     		subs	r3, r3, #4
 370 0036 E360     		str	r3, [r4, #12]
 371 0038 F2E7     		b	.L14
 372              		.cfi_endproc
 373              	.LFE13:
 374              		.size	chMBPostAheadS, .-chMBPostAheadS
 375 003a 00BFAFF3 		.section	.text.chMBPostAhead,"ax",%progbits
 375      0080
 376              		.align	2
 377              		.p2align 4,,15
 378              		.global	chMBPostAhead
 379              		.thumb
 380              		.thumb_func
 381              		.type	chMBPostAhead, %function
 382              	chMBPostAhead:
 383              	.LFB12:
 384              		.loc 1 215 0
 385              		.cfi_startproc
 386              		@ args = 0, pretend = 0, frame = 0
 387              		@ frame_needed = 0, uses_anonymous_args = 0
 388              	.LVL32:
 389 0000 08B5     		push	{r3, lr}
 390              	.LCFI6:
 391              		.cfi_def_cfa_offset 8
 392              		.cfi_offset 14, -4
ARM GAS  /tmp/ccD24ZmC.s 			page 8


 393              		.cfi_offset 3, -8
 394              	.LBB7:
 395              		.loc 1 218 0
 396 0002 2023     		movs	r3, #32
 397              	.LVL33:
 398              	@ 218 "../../os/kernel/src/chmboxes.c" 1
 399 0004 83F31188 		msr     BASEPRI, r3
 400              	@ 0 "" 2
 401              	.LVL34:
 402              		.thumb
 403              	.LBE7:
 404              		.loc 1 219 0
 405 0008 FFF7FEFF 		bl	chMBPostAheadS
 406              	.LVL35:
 407              	.LBB8:
 408              		.loc 1 220 0
 409 000c 0023     		movs	r3, #0
 410              	.LVL36:
 411              	@ 220 "../../os/kernel/src/chmboxes.c" 1
 412 000e 83F31188 		msr     BASEPRI, r3
 413              	@ 0 "" 2
 414              	.LVL37:
 415              		.thumb
 416              	.LBE8:
 417              		.loc 1 222 0
 418 0012 08BD     		pop	{r3, pc}
 419              		.cfi_endproc
 420              	.LFE12:
 421              		.size	chMBPostAhead, .-chMBPostAhead
 422 0014 AFF30080 		.section	.text.chMBPostAheadI,"ax",%progbits
 422      AFF30080 
 422      AFF30080 
 423              		.align	2
 424              		.p2align 4,,15
 425              		.global	chMBPostAheadI
 426              		.thumb
 427              		.thumb_func
 428              		.type	chMBPostAheadI, %function
 429              	chMBPostAheadI:
 430              	.LFB14:
 431              		.loc 1 274 0
 432              		.cfi_startproc
 433              		@ args = 0, pretend = 0, frame = 0
 434              		@ frame_needed = 0, uses_anonymous_args = 0
 435              	.LVL38:
 436              		.loc 1 279 0
 437 0000 436A     		ldr	r3, [r0, #36]
 438 0002 002B     		cmp	r3, #0
 439              		.loc 1 274 0
 440 0004 10B5     		push	{r4, lr}
 441              	.LCFI7:
 442              		.cfi_def_cfa_offset 8
 443              		.cfi_offset 14, -4
 444              		.cfi_offset 4, -8
 445              		.loc 1 279 0
 446 0006 10DD     		ble	.L20
 447              		.loc 1 282 0
ARM GAS  /tmp/ccD24ZmC.s 			page 9


 448 0008 C268     		ldr	r2, [r0, #12]
 449 000a 0468     		ldr	r4, [r0, #0]
 450 000c 043A     		subs	r2, r2, #4
 451              		.loc 1 281 0
 452 000e 013B     		subs	r3, r3, #1
 453              		.loc 1 282 0
 454 0010 A242     		cmp	r2, r4
 455              		.loc 1 281 0
 456 0012 4362     		str	r3, [r0, #36]
 457              		.loc 1 282 0
 458 0014 C260     		str	r2, [r0, #12]
 459 0016 02D2     		bcs	.L19
 460              		.loc 1 283 0
 461 0018 4268     		ldr	r2, [r0, #4]
 462 001a 043A     		subs	r2, r2, #4
 463 001c C260     		str	r2, [r0, #12]
 464              	.L19:
 465              		.loc 1 285 0
 466 001e 1030     		adds	r0, r0, #16
 467              	.LVL39:
 468              		.loc 1 284 0
 469 0020 1160     		str	r1, [r2, #0]
 470              		.loc 1 285 0
 471 0022 FFF7FEFF 		bl	chSemSignalI
 472              	.LVL40:
 473              		.loc 1 286 0
 474 0026 0020     		movs	r0, #0
 475 0028 10BD     		pop	{r4, pc}
 476              	.LVL41:
 477              	.L20:
 478              		.loc 1 280 0
 479 002a 4FF0FF30 		mov	r0, #-1
 480              	.LVL42:
 481              		.loc 1 287 0
 482 002e 10BD     		pop	{r4, pc}
 483              		.cfi_endproc
 484              	.LFE14:
 485              		.size	chMBPostAheadI, .-chMBPostAheadI
 486              		.section	.text.chMBFetchS,"ax",%progbits
 487              		.align	2
 488              		.p2align 4,,15
 489              		.global	chMBFetchS
 490              		.thumb
 491              		.thumb_func
 492              		.type	chMBFetchS, %function
 493              	chMBFetchS:
 494              	.LFB16:
 495              		.loc 1 336 0
 496              		.cfi_startproc
 497              		@ args = 0, pretend = 0, frame = 0
 498              		@ frame_needed = 0, uses_anonymous_args = 0
 499              	.LVL43:
 500 0000 70B5     		push	{r4, r5, r6, lr}
 501              	.LCFI8:
 502              		.cfi_def_cfa_offset 16
 503              		.cfi_offset 14, -4
 504              		.cfi_offset 6, -8
ARM GAS  /tmp/ccD24ZmC.s 			page 10


 505              		.cfi_offset 5, -12
 506              		.cfi_offset 4, -16
 507              		.loc 1 336 0
 508 0002 0446     		mov	r4, r0
 509 0004 0D46     		mov	r5, r1
 510              		.loc 1 342 0
 511 0006 00F11000 		add	r0, r0, #16
 512              	.LVL44:
 513 000a 1146     		mov	r1, r2
 514              	.LVL45:
 515 000c FFF7FEFF 		bl	chSemWaitTimeoutS
 516              	.LVL46:
 517              		.loc 1 343 0
 518 0010 0646     		mov	r6, r0
 519 0012 80B9     		cbnz	r0, .L22
 520              		.loc 1 344 0
 521 0014 E368     		ldr	r3, [r4, #12]
 522              		.loc 1 345 0
 523 0016 6268     		ldr	r2, [r4, #4]
 524              		.loc 1 344 0
 525 0018 53F8041B 		ldr	r1, [r3], #4
 526              		.loc 1 345 0
 527 001c 9342     		cmp	r3, r2
 528              		.loc 1 344 0
 529 001e 2960     		str	r1, [r5, #0]
 530 0020 E360     		str	r3, [r4, #12]
 531              		.loc 1 346 0
 532 0022 28BF     		it	cs
 533 0024 2368     		ldrcs	r3, [r4, #0]
 534              		.loc 1 347 0
 535 0026 04F11C00 		add	r0, r4, #28
 536              	.LVL47:
 537              		.loc 1 346 0
 538 002a 28BF     		it	cs
 539 002c E360     		strcs	r3, [r4, #12]
 540              		.loc 1 347 0
 541 002e FFF7FEFF 		bl	chSemSignalI
 542              		.loc 1 348 0
 543 0032 FFF7FEFF 		bl	chSchRescheduleS
 544              	.L22:
 545              		.loc 1 351 0
 546 0036 3046     		mov	r0, r6
 547 0038 70BD     		pop	{r4, r5, r6, pc}
 548              		.cfi_endproc
 549              	.LFE16:
 550              		.size	chMBFetchS, .-chMBFetchS
 551 003a 00BFAFF3 		.section	.text.chMBFetch,"ax",%progbits
 551      0080
 552              		.align	2
 553              		.p2align 4,,15
 554              		.global	chMBFetch
 555              		.thumb
 556              		.thumb_func
 557              		.type	chMBFetch, %function
 558              	chMBFetch:
 559              	.LFB15:
 560              		.loc 1 308 0
ARM GAS  /tmp/ccD24ZmC.s 			page 11


 561              		.cfi_startproc
 562              		@ args = 0, pretend = 0, frame = 0
 563              		@ frame_needed = 0, uses_anonymous_args = 0
 564              	.LVL48:
 565 0000 08B5     		push	{r3, lr}
 566              	.LCFI9:
 567              		.cfi_def_cfa_offset 8
 568              		.cfi_offset 14, -4
 569              		.cfi_offset 3, -8
 570              	.LBB9:
 571              		.loc 1 311 0
 572 0002 2023     		movs	r3, #32
 573              	.LVL49:
 574              	@ 311 "../../os/kernel/src/chmboxes.c" 1
 575 0004 83F31188 		msr     BASEPRI, r3
 576              	@ 0 "" 2
 577              	.LVL50:
 578              		.thumb
 579              	.LBE9:
 580              		.loc 1 312 0
 581 0008 FFF7FEFF 		bl	chMBFetchS
 582              	.LVL51:
 583              	.LBB10:
 584              		.loc 1 313 0
 585 000c 0023     		movs	r3, #0
 586              	.LVL52:
 587              	@ 313 "../../os/kernel/src/chmboxes.c" 1
 588 000e 83F31188 		msr     BASEPRI, r3
 589              	@ 0 "" 2
 590              	.LVL53:
 591              		.thumb
 592              	.LBE10:
 593              		.loc 1 315 0
 594 0012 08BD     		pop	{r3, pc}
 595              		.cfi_endproc
 596              	.LFE15:
 597              		.size	chMBFetch, .-chMBFetch
 598 0014 AFF30080 		.section	.text.chMBFetchI,"ax",%progbits
 598      AFF30080 
 598      AFF30080 
 599              		.align	2
 600              		.p2align 4,,15
 601              		.global	chMBFetchI
 602              		.thumb
 603              		.thumb_func
 604              		.type	chMBFetchI, %function
 605              	chMBFetchI:
 606              	.LFB17:
 607              		.loc 1 367 0
 608              		.cfi_startproc
 609              		@ args = 0, pretend = 0, frame = 0
 610              		@ frame_needed = 0, uses_anonymous_args = 0
 611              	.LVL54:
 612              		.loc 1 372 0
 613 0000 8369     		ldr	r3, [r0, #24]
 614 0002 002B     		cmp	r3, #0
 615              		.loc 1 367 0
ARM GAS  /tmp/ccD24ZmC.s 			page 12


 616 0004 10B5     		push	{r4, lr}
 617              	.LCFI10:
 618              		.cfi_def_cfa_offset 8
 619              		.cfi_offset 14, -4
 620              		.cfi_offset 4, -8
 621              		.loc 1 372 0
 622 0006 11DD     		ble	.L28
 623              		.loc 1 375 0
 624 0008 C268     		ldr	r2, [r0, #12]
 625              		.loc 1 376 0
 626 000a 4468     		ldr	r4, [r0, #4]
 627              		.loc 1 374 0
 628 000c 013B     		subs	r3, r3, #1
 629 000e 8361     		str	r3, [r0, #24]
 630              		.loc 1 375 0
 631 0010 52F8043B 		ldr	r3, [r2], #4
 632              		.loc 1 376 0
 633 0014 A242     		cmp	r2, r4
 634              		.loc 1 375 0
 635 0016 0B60     		str	r3, [r1, #0]
 636              		.loc 1 377 0
 637 0018 28BF     		it	cs
 638 001a 0368     		ldrcs	r3, [r0, #0]
 639              		.loc 1 375 0
 640 001c C260     		str	r2, [r0, #12]
 641              		.loc 1 377 0
 642 001e 28BF     		it	cs
 643 0020 C360     		strcs	r3, [r0, #12]
 644              		.loc 1 378 0
 645 0022 1C30     		adds	r0, r0, #28
 646              	.LVL55:
 647 0024 FFF7FEFF 		bl	chSemSignalI
 648              	.LVL56:
 649              		.loc 1 379 0
 650 0028 0020     		movs	r0, #0
 651 002a 10BD     		pop	{r4, pc}
 652              	.LVL57:
 653              	.L28:
 654              		.loc 1 373 0
 655 002c 4FF0FF30 		mov	r0, #-1
 656              	.LVL58:
 657              		.loc 1 380 0
 658 0030 10BD     		pop	{r4, pc}
 659              		.cfi_endproc
 660              	.LFE17:
 661              		.size	chMBFetchI, .-chMBFetchI
 662 0032 00BFAFF3 		.text
 662      0080AFF3 
 662      0080AFF3 
 662      0080
 663              	.Letext0:
 664              		.file 2 "/opt/paparazzi/arm-multilib/lib/gcc/arm-none-eabi/4.6.2/../../../../arm-none-eabi/include
 665              		.file 3 "../../os/ports/GCC/ARMCMx/chtypes.h"
 666              		.file 4 "../../os/kernel/include/chlists.h"
 667              		.file 5 "../../os/kernel/include/chthreads.h"
 668              		.file 6 "../../os/ports/GCC/ARMCMx/chcore_v7m.h"
 669              		.file 7 "../../os/kernel/include/chsem.h"
ARM GAS  /tmp/ccD24ZmC.s 			page 13


 670              		.file 8 "../../os/kernel/include/chmtx.h"
 671              		.file 9 "../../os/kernel/include/chmboxes.h"