ARM GAS  /tmp/ccr3nZ3L.s 			page 1


   1              		.syntax unified
   2              		.cpu cortex-m4
   3              		.fpu softvfp
   4              		.eabi_attribute 20, 1
   5              		.eabi_attribute 21, 1
   6              		.eabi_attribute 23, 3
   7              		.eabi_attribute 24, 1
   8              		.eabi_attribute 25, 1
   9              		.eabi_attribute 26, 1
  10              		.eabi_attribute 30, 2
  11              		.eabi_attribute 18, 4
  12              		.thumb
  13              		.file	"chmemcore.c"
  14              		.text
  15              	.Ltext0:
  16              		.cfi_sections	.debug_frame
  17              		.section	.text._core_init,"ax",%progbits
  18              		.align	2
  19              		.p2align 4,,15
  20              		.global	_core_init
  21              		.thumb
  22              		.thumb_func
  23              		.type	_core_init, %function
  24              	_core_init:
  25              	.LFB7:
  26              		.file 1 "../../os/kernel/src/chmemcore.c"
  27              		.loc 1 66 0
  28              		.cfi_startproc
  29              		@ args = 0, pretend = 0, frame = 0
  30              		@ frame_needed = 0, uses_anonymous_args = 0
  31              		@ link register save eliminated.
  32              		.loc 1 70 0
  33 0000 40F20002 		movw	r2, #:lower16:.LANCHOR0
  34              		.loc 1 71 0
  35 0004 40F20003 		movw	r3, #:lower16:.LANCHOR1
  36 0008 40F20001 		movw	r1, #:lower16:__heap_end__
  37              		.loc 1 70 0
  38 000c 0648     		ldr	r0, .L2
  39 000e C0F20002 		movt	r2, #:upper16:.LANCHOR0
  40              		.loc 1 71 0
  41 0012 C0F20003 		movt	r3, #:upper16:.LANCHOR1
  42 0016 C0F20001 		movt	r1, #:upper16:__heap_end__
  43              		.loc 1 70 0
  44 001a 20F00700 		bic	r0, r0, #7
  45              		.loc 1 71 0
  46 001e 21F00701 		bic	r1, r1, #7
  47              		.loc 1 70 0
  48 0022 1060     		str	r0, [r2, #0]
  49              		.loc 1 71 0
  50 0024 1960     		str	r1, [r3, #0]
  51              		.loc 1 77 0
  52 0026 7047     		bx	lr
  53              	.L3:
  54              		.align	2
  55              	.L2:
  56 0028 07000000 		.word	__heap_base__+7
  57              		.cfi_endproc
ARM GAS  /tmp/ccr3nZ3L.s 			page 2


  58              	.LFE7:
  59              		.size	_core_init, .-_core_init
  60 002c AFF30080 		.section	.text.chCoreAlloc,"ax",%progbits
  61              		.align	2
  62              		.p2align 4,,15
  63              		.global	chCoreAlloc
  64              		.thumb
  65              		.thumb_func
  66              		.type	chCoreAlloc, %function
  67              	chCoreAlloc:
  68              	.LFB8:
  69              		.loc 1 91 0
  70              		.cfi_startproc
  71              		@ args = 0, pretend = 0, frame = 0
  72              		@ frame_needed = 0, uses_anonymous_args = 0
  73              		@ link register save eliminated.
  74              	.LVL0:
  75              	.LBB6:
  76              		.loc 1 94 0
  77 0000 2023     		movs	r3, #32
  78              	.LVL1:
  79              	@ 94 "../../os/kernel/src/chmemcore.c" 1
  80 0002 83F31188 		msr     BASEPRI, r3
  81              	@ 0 "" 2
  82              	.LVL2:
  83              		.thumb
  84              	.LBE6:
  85              	.LBB7:
  86              	.LBB8:
  87              		.loc 1 118 0
  88 0006 094B     		ldr	r3, .L7
  89              	.LVL3:
  90 0008 0949     		ldr	r1, .L7+4
  91 000a 1A68     		ldr	r2, [r3, #0]
  92 000c 0968     		ldr	r1, [r1, #0]
  93              		.loc 1 117 0
  94 000e 0730     		adds	r0, r0, #7
  95              	.LVL4:
  96 0010 20F00700 		bic	r0, r0, #7
  97              	.LVL5:
  98              		.loc 1 118 0
  99 0014 891A     		subs	r1, r1, r2
 100 0016 8842     		cmp	r0, r1
 101              	.LVL6:
 102              		.loc 1 121 0
 103 0018 9ABF     		itte	ls
 104 001a 1018     		addls	r0, r2, r0
 105              	.LVL7:
 106 001c 1860     		strls	r0, [r3, #0]
 107              		.loc 1 119 0
 108 001e 0022     		movhi	r2, #0
 109              	.LBE8:
 110              	.LBE7:
 111              	.LBB9:
 112              		.loc 1 96 0
 113 0020 0023     		movs	r3, #0
 114              	.LVL8:
ARM GAS  /tmp/ccr3nZ3L.s 			page 3


 115              	@ 96 "../../os/kernel/src/chmemcore.c" 1
 116 0022 83F31188 		msr     BASEPRI, r3
 117              	@ 0 "" 2
 118              	.LVL9:
 119              		.thumb
 120              	.LBE9:
 121              		.loc 1 98 0
 122 0026 1046     		mov	r0, r2
 123 0028 7047     		bx	lr
 124              	.L8:
 125 002a 00BF     		.align	2
 126              	.L7:
 127 002c 00000000 		.word	.LANCHOR0
 128 0030 00000000 		.word	.LANCHOR1
 129              		.cfi_endproc
 130              	.LFE8:
 131              		.size	chCoreAlloc, .-chCoreAlloc
 132 0034 AFF30080 		.section	.text.chCoreAllocI,"ax",%progbits
 132      AFF30080 
 132      AFF30080 
 133              		.align	2
 134              		.p2align 4,,15
 135              		.global	chCoreAllocI
 136              		.thumb
 137              		.thumb_func
 138              		.type	chCoreAllocI, %function
 139              	chCoreAllocI:
 140              	.LFB9:
 141              		.loc 1 112 0
 142              		.cfi_startproc
 143              		@ args = 0, pretend = 0, frame = 0
 144              		@ frame_needed = 0, uses_anonymous_args = 0
 145              		@ link register save eliminated.
 146              	.LVL10:
 147              		.loc 1 118 0
 148 0000 074A     		ldr	r2, .L12
 149 0002 0849     		ldr	r1, .L12+4
 150 0004 1368     		ldr	r3, [r2, #0]
 151 0006 0968     		ldr	r1, [r1, #0]
 152              		.loc 1 117 0
 153 0008 0730     		adds	r0, r0, #7
 154              	.LVL11:
 155 000a 20F00700 		bic	r0, r0, #7
 156              	.LVL12:
 157              		.loc 1 118 0
 158 000e C91A     		subs	r1, r1, r3
 159 0010 8842     		cmp	r0, r1
 160              	.LVL13:
 161              		.loc 1 121 0
 162 0012 9ABF     		itte	ls
 163 0014 1818     		addls	r0, r3, r0
 164              	.LVL14:
 165 0016 1060     		strls	r0, [r2, #0]
 166              		.loc 1 119 0
 167 0018 0023     		movhi	r3, #0
 168              		.loc 1 123 0
 169 001a 1846     		mov	r0, r3
ARM GAS  /tmp/ccr3nZ3L.s 			page 4


 170 001c 7047     		bx	lr
 171              	.L13:
 172 001e 00BF     		.align	2
 173              	.L12:
 174 0020 00000000 		.word	.LANCHOR0
 175 0024 00000000 		.word	.LANCHOR1
 176              		.cfi_endproc
 177              	.LFE9:
 178              		.size	chCoreAllocI, .-chCoreAllocI
 179 0028 AFF30080 		.section	.text.chCoreStatus,"ax",%progbits
 179      AFF30080 
 180              		.align	2
 181              		.p2align 4,,15
 182              		.global	chCoreStatus
 183              		.thumb
 184              		.thumb_func
 185              		.type	chCoreStatus, %function
 186              	chCoreStatus:
 187              	.LFB10:
 188              		.loc 1 132 0
 189              		.cfi_startproc
 190              		@ args = 0, pretend = 0, frame = 0
 191              		@ frame_needed = 0, uses_anonymous_args = 0
 192              		@ link register save eliminated.
 193              		.loc 1 134 0
 194 0000 40F20002 		movw	r2, #:lower16:.LANCHOR1
 195 0004 40F20003 		movw	r3, #:lower16:.LANCHOR0
 196 0008 C0F20002 		movt	r2, #:upper16:.LANCHOR1
 197 000c C0F20003 		movt	r3, #:upper16:.LANCHOR0
 198 0010 1068     		ldr	r0, [r2, #0]
 199 0012 1B68     		ldr	r3, [r3, #0]
 200              		.loc 1 135 0
 201 0014 C01A     		subs	r0, r0, r3
 202 0016 7047     		bx	lr
 203              		.cfi_endproc
 204              	.LFE10:
 205              		.size	chCoreStatus, .-chCoreStatus
 206 0018 AFF30080 		.section	.bss.endmem,"aw",%nobits
 206      AFF30080 
 207              		.align	2
 208              		.set	.LANCHOR1,. + 0
 209              		.type	endmem, %object
 210              		.size	endmem, 4
 211              	endmem:
 212 0000 00000000 		.space	4
 213              		.section	.bss.nextmem,"aw",%nobits
 214              		.align	2
 215              		.set	.LANCHOR0,. + 0
 216              		.type	nextmem, %object
 217              		.size	nextmem, 4
 218              	nextmem:
 219 0000 00000000 		.space	4
 220              		.text
 221              	.Letext0:
 222              		.file 2 "/opt/paparazzi/arm-multilib/lib/gcc/arm-none-eabi/4.6.2/include/stddef.h"
 223              		.file 3 "/opt/paparazzi/arm-multilib/lib/gcc/arm-none-eabi/4.6.2/../../../../arm-none-eabi/include