ARM GAS  /tmp/ccwjzVZM.s 			page 1


   1              		.syntax unified
   2              		.cpu cortex-m4
   3              		.fpu softvfp
   4              		.eabi_attribute 20, 1
   5              		.eabi_attribute 21, 1
   6              		.eabi_attribute 23, 3
   7              		.eabi_attribute 24, 1
   8              		.eabi_attribute 25, 1
   9              		.eabi_attribute 26, 1
  10              		.eabi_attribute 30, 2
  11              		.eabi_attribute 18, 4
  12              		.thumb
  13              		.file	"chmempools.c"
  14              		.text
  15              	.Ltext0:
  16              		.cfi_sections	.debug_frame
  17              		.section	.text.chPoolInit,"ax",%progbits
  18              		.align	2
  19              		.p2align 4,,15
  20              		.global	chPoolInit
  21              		.thumb
  22              		.thumb_func
  23              		.type	chPoolInit, %function
  24              	chPoolInit:
  25              	.LFB7:
  26              		.file 1 "../../os/kernel/src/chmempools.c"
  27              		.loc 1 62 0
  28              		.cfi_startproc
  29              		@ args = 0, pretend = 0, frame = 0
  30              		@ frame_needed = 0, uses_anonymous_args = 0
  31              		@ link register save eliminated.
  32              	.LVL0:
  33              		.loc 1 66 0
  34 0000 0023     		movs	r3, #0
  35 0002 0360     		str	r3, [r0, #0]
  36              		.loc 1 67 0
  37 0004 4160     		str	r1, [r0, #4]
  38              		.loc 1 68 0
  39 0006 8260     		str	r2, [r0, #8]
  40              		.loc 1 69 0
  41 0008 7047     		bx	lr
  42              		.cfi_endproc
  43              	.LFE7:
  44              		.size	chPoolInit, .-chPoolInit
  45 000a 00BFAFF3 		.section	.text.chPoolLoadArray,"ax",%progbits
  45      0080
  46              		.align	2
  47              		.p2align 4,,15
  48              		.global	chPoolLoadArray
  49              		.thumb
  50              		.thumb_func
  51              		.type	chPoolLoadArray, %function
  52              	chPoolLoadArray:
  53              	.LFB8:
  54              		.loc 1 84 0
  55              		.cfi_startproc
  56              		@ args = 0, pretend = 0, frame = 0
ARM GAS  /tmp/ccwjzVZM.s 			page 2


  57              		@ frame_needed = 0, uses_anonymous_args = 0
  58              		@ link register save eliminated.
  59              	.LVL1:
  60 0000 10B4     		push	{r4}
  61              	.LCFI0:
  62              		.cfi_def_cfa_offset 4
  63              		.cfi_offset 4, -4
  64              		.loc 1 88 0
  65 0002 62B1     		cbz	r2, .L2
  66              	.LVL2:
  67              	.L5:
  68              	.LBB16:
  69              	.LBB17:
  70              		.loc 1 173 0
  71 0004 2023     		movs	r3, #32
  72              	.LVL3:
  73              	@ 173 "../../os/kernel/src/chmempools.c" 1
  74 0006 83F31188 		msr     BASEPRI, r3
  75              	@ 0 "" 2
  76              	.LVL4:
  77              		.thumb
  78              	.LBE17:
  79              	.LBB18:
  80              	.LBB19:
  81              		.loc 1 155 0
  82 000a 0468     		ldr	r4, [r0, #0]
  83              	.LBE19:
  84              	.LBE18:
  85              	.LBB21:
  86              		.loc 1 175 0
  87 000c 0023     		movs	r3, #0
  88              	.LVL5:
  89              	.LBE21:
  90              	.LBB22:
  91              	.LBB20:
  92              		.loc 1 155 0
  93 000e 0C60     		str	r4, [r1, #0]
  94              		.loc 1 156 0
  95 0010 0160     		str	r1, [r0, #0]
  96              	.LBE20:
  97              	.LBE22:
  98              	.LBB23:
  99              		.loc 1 175 0
 100              	@ 175 "../../os/kernel/src/chmempools.c" 1
 101 0012 83F31188 		msr     BASEPRI, r3
 102              	@ 0 "" 2
 103              	.LVL6:
 104              		.thumb
 105              	.LBE23:
 106              	.LBE16:
 107              		.loc 1 90 0
 108 0016 4368     		ldr	r3, [r0, #4]
 109              	.LVL7:
 110              		.loc 1 88 0
 111 0018 013A     		subs	r2, r2, #1
 112              		.loc 1 90 0
 113 001a 1944     		add	r1, r1, r3
ARM GAS  /tmp/ccwjzVZM.s 			page 3


 114              	.LVL8:
 115              		.loc 1 88 0
 116 001c F2D1     		bne	.L5
 117              	.LVL9:
 118              	.L2:
 119              		.loc 1 93 0
 120 001e 10BC     		pop	{r4}
 121 0020 7047     		bx	lr
 122              		.cfi_endproc
 123              	.LFE8:
 124              		.size	chPoolLoadArray, .-chPoolLoadArray
 125 0022 00BFAFF3 		.section	.text.chPoolAllocI,"ax",%progbits
 125      0080AFF3 
 125      0080AFF3 
 125      0080
 126              		.align	2
 127              		.p2align 4,,15
 128              		.global	chPoolAllocI
 129              		.thumb
 130              		.thumb_func
 131              		.type	chPoolAllocI, %function
 132              	chPoolAllocI:
 133              	.LFB9:
 134              		.loc 1 105 0
 135              		.cfi_startproc
 136              		@ args = 0, pretend = 0, frame = 0
 137              		@ frame_needed = 0, uses_anonymous_args = 0
 138              	.LVL10:
 139 0000 0246     		mov	r2, r0
 140              		.loc 1 111 0
 141 0002 0068     		ldr	r0, [r0, #0]
 142              	.LVL11:
 143              		.loc 1 105 0
 144 0004 08B5     		push	{r3, lr}
 145              	.LCFI1:
 146              		.cfi_def_cfa_offset 8
 147              		.cfi_offset 14, -4
 148              		.cfi_offset 3, -8
 149              		.loc 1 111 0
 150 0006 10B1     		cbz	r0, .L9
 151              		.loc 1 112 0
 152 0008 0368     		ldr	r3, [r0, #0]
 153 000a 1360     		str	r3, [r2, #0]
 154 000c 08BD     		pop	{r3, pc}
 155              	.L9:
 156              		.loc 1 113 0
 157 000e 9368     		ldr	r3, [r2, #8]
 158 0010 0BB1     		cbz	r3, .L10
 159              		.loc 1 114 0
 160 0012 5068     		ldr	r0, [r2, #4]
 161 0014 9847     		blx	r3
 162              	.LVL12:
 163              	.L10:
 164              		.loc 1 116 0
 165 0016 08BD     		pop	{r3, pc}
 166              		.cfi_endproc
 167              	.LFE9:
ARM GAS  /tmp/ccwjzVZM.s 			page 4


 168              		.size	chPoolAllocI, .-chPoolAllocI
 169 0018 AFF30080 		.section	.text.chPoolAlloc,"ax",%progbits
 169      AFF30080 
 170              		.align	2
 171              		.p2align 4,,15
 172              		.global	chPoolAlloc
 173              		.thumb
 174              		.thumb_func
 175              		.type	chPoolAlloc, %function
 176              	chPoolAlloc:
 177              	.LFB10:
 178              		.loc 1 128 0
 179              		.cfi_startproc
 180              		@ args = 0, pretend = 0, frame = 0
 181              		@ frame_needed = 0, uses_anonymous_args = 0
 182              	.LVL13:
 183 0000 08B5     		push	{r3, lr}
 184              	.LCFI2:
 185              		.cfi_def_cfa_offset 8
 186              		.cfi_offset 14, -4
 187              		.cfi_offset 3, -8
 188              		.loc 1 128 0
 189 0002 0246     		mov	r2, r0
 190              	.LBB24:
 191              		.loc 1 131 0
 192 0004 2023     		movs	r3, #32
 193              	.LVL14:
 194              	@ 131 "../../os/kernel/src/chmempools.c" 1
 195 0006 83F31188 		msr     BASEPRI, r3
 196              	@ 0 "" 2
 197              	.LVL15:
 198              		.thumb
 199              	.LBE24:
 200              	.LBB25:
 201              	.LBB26:
 202              		.loc 1 111 0
 203 000a 0068     		ldr	r0, [r0, #0]
 204              	.LVL16:
 205 000c 28B1     		cbz	r0, .L12
 206              		.loc 1 112 0
 207 000e 0368     		ldr	r3, [r0, #0]
 208              	.LVL17:
 209 0010 1360     		str	r3, [r2, #0]
 210              	.LVL18:
 211              	.L13:
 212              	.LBE26:
 213              	.LBE25:
 214              	.LBB28:
 215              		.loc 1 133 0
 216 0012 0023     		movs	r3, #0
 217              	.LVL19:
 218              	@ 133 "../../os/kernel/src/chmempools.c" 1
 219 0014 83F31188 		msr     BASEPRI, r3
 220              	@ 0 "" 2
 221              	.LVL20:
 222              		.thumb
 223              	.LBE28:
ARM GAS  /tmp/ccwjzVZM.s 			page 5


 224              		.loc 1 135 0
 225 0018 08BD     		pop	{r3, pc}
 226              	.LVL21:
 227              	.L12:
 228              	.LBB29:
 229              	.LBB27:
 230              		.loc 1 113 0
 231 001a 9368     		ldr	r3, [r2, #8]
 232              	.LVL22:
 233 001c 002B     		cmp	r3, #0
 234 001e F8D0     		beq	.L13
 235              		.loc 1 114 0
 236 0020 5068     		ldr	r0, [r2, #4]
 237              	.LVL23:
 238 0022 9847     		blx	r3
 239              	.LVL24:
 240 0024 F5E7     		b	.L13
 241              	.LBE27:
 242              	.LBE29:
 243              		.cfi_endproc
 244              	.LFE10:
 245              		.size	chPoolAlloc, .-chPoolAlloc
 246              		.section	.text.chPoolFreeI,"ax",%progbits
 247              		.align	2
 248              		.p2align 4,,15
 249              		.global	chPoolFreeI
 250              		.thumb
 251              		.thumb_func
 252              		.type	chPoolFreeI, %function
 253              	chPoolFreeI:
 254              	.LFB11:
 255              		.loc 1 149 0
 256              		.cfi_startproc
 257              		@ args = 0, pretend = 0, frame = 0
 258              		@ frame_needed = 0, uses_anonymous_args = 0
 259              		@ link register save eliminated.
 260              	.LVL25:
 261              		.loc 1 155 0
 262 0000 0368     		ldr	r3, [r0, #0]
 263 0002 0B60     		str	r3, [r1, #0]
 264              		.loc 1 156 0
 265 0004 0160     		str	r1, [r0, #0]
 266              		.loc 1 157 0
 267 0006 7047     		bx	lr
 268              		.cfi_endproc
 269              	.LFE11:
 270              		.size	chPoolFreeI, .-chPoolFreeI
 271 0008 AFF30080 		.section	.text.chPoolFree,"ax",%progbits
 271      AFF30080 
 272              		.align	2
 273              		.p2align 4,,15
 274              		.global	chPoolFree
 275              		.thumb
 276              		.thumb_func
 277              		.type	chPoolFree, %function
 278              	chPoolFree:
 279              	.LFB12:
ARM GAS  /tmp/ccwjzVZM.s 			page 6


 280              		.loc 1 171 0
 281              		.cfi_startproc
 282              		@ args = 0, pretend = 0, frame = 0
 283              		@ frame_needed = 0, uses_anonymous_args = 0
 284              		@ link register save eliminated.
 285              	.LVL26:
 286              	.LBB30:
 287              		.loc 1 173 0
 288 0000 2023     		movs	r3, #32
 289              	.LVL27:
 290              	@ 173 "../../os/kernel/src/chmempools.c" 1
 291 0002 83F31188 		msr     BASEPRI, r3
 292              	@ 0 "" 2
 293              	.LVL28:
 294              		.thumb
 295              	.LBE30:
 296              	.LBB31:
 297              	.LBB32:
 298              		.loc 1 155 0
 299 0006 0268     		ldr	r2, [r0, #0]
 300              	.LBE32:
 301              	.LBE31:
 302              	.LBB34:
 303              		.loc 1 175 0
 304 0008 0023     		movs	r3, #0
 305              	.LVL29:
 306              	.LBE34:
 307              	.LBB35:
 308              	.LBB33:
 309              		.loc 1 155 0
 310 000a 0A60     		str	r2, [r1, #0]
 311              		.loc 1 156 0
 312 000c 0160     		str	r1, [r0, #0]
 313              	.LBE33:
 314              	.LBE35:
 315              	.LBB36:
 316              		.loc 1 175 0
 317              	@ 175 "../../os/kernel/src/chmempools.c" 1
 318 000e 83F31188 		msr     BASEPRI, r3
 319              	@ 0 "" 2
 320              	.LVL30:
 321              		.thumb
 322              	.LBE36:
 323              		.loc 1 176 0
 324 0012 7047     		bx	lr
 325              		.cfi_endproc
 326              	.LFE12:
 327              		.size	chPoolFree, .-chPoolFree
 328 0014 AFF30080 		.text
 328      AFF30080 
 328      AFF30080 
 329              	.Letext0:
 330              		.file 2 "/opt/paparazzi/arm-multilib/lib/gcc/arm-none-eabi/4.6.2/include/stddef.h"
 331              		.file 3 "/opt/paparazzi/arm-multilib/lib/gcc/arm-none-eabi/4.6.2/../../../../arm-none-eabi/include
 332              		.file 4 "../../os/kernel/include/chmemcore.h"
 333              		.file 5 "../../os/kernel/include/chmempools.h"