ARM GAS  /tmp/cc5aIz6t.s 			page 1


   1              		.syntax unified
   2              		.cpu cortex-m4
   3              		.fpu softvfp
   4              		.eabi_attribute 20, 1
   5              		.eabi_attribute 21, 1
   6              		.eabi_attribute 23, 3
   7              		.eabi_attribute 24, 1
   8              		.eabi_attribute 25, 1
   9              		.eabi_attribute 26, 1
  10              		.eabi_attribute 30, 2
  11              		.eabi_attribute 18, 4
  12              		.thumb
  13              		.file	"chmsg.c"
  14              		.text
  15              	.Ltext0:
  16              		.cfi_sections	.debug_frame
  17              		.section	.text.chMsgSend,"ax",%progbits
  18              		.align	2
  19              		.p2align 4,,15
  20              		.global	chMsgSend
  21              		.thumb
  22              		.thumb_func
  23              		.type	chMsgSend, %function
  24              	chMsgSend:
  25              	.LFB7:
  26              		.file 1 "../../os/kernel/src/chmsg.c"
  27              		.loc 1 75 0
  28              		.cfi_startproc
  29              		@ args = 0, pretend = 0, frame = 0
  30              		@ frame_needed = 0, uses_anonymous_args = 0
  31              	.LVL0:
  32 0000 70B5     		push	{r4, r5, r6, lr}
  33              	.LCFI0:
  34              		.cfi_def_cfa_offset 16
  35              		.cfi_offset 14, -4
  36              		.cfi_offset 6, -8
  37              		.cfi_offset 5, -12
  38              		.cfi_offset 4, -16
  39              		.loc 1 76 0
  40 0002 0E4B     		ldr	r3, .L5
  41 0004 9C69     		ldr	r4, [r3, #24]
  42              	.LVL1:
  43              	.LBB10:
  44              		.loc 1 80 0
  45 0006 2023     		movs	r3, #32
  46              	.LVL2:
  47              	@ 80 "../../os/kernel/src/chmsg.c" 1
  48 0008 83F31188 		msr     BASEPRI, r3
  49              	@ 0 "" 2
  50              	.LVL3:
  51              		.thumb
  52              	.LBE10:
  53              		.loc 1 82 0
  54 000c 00F12C05 		add	r5, r0, #44
  55 0010 6562     		str	r5, [r4, #36]
  56              	.LVL4:
  57              		.loc 1 84 0
ARM GAS  /tmp/cc5aIz6t.s 			page 2


  58 0012 067F     		ldrb	r6, [r0, #28]	@ zero_extendqisi2
  59              	.LBB11:
  60              	.LBB12:
  61              		.file 2 "../../os/kernel/include/chinline.h"
  62              		.loc 2 55 0
  63 0014 036B     		ldr	r3, [r0, #48]
  64              	.LVL5:
  65              		.loc 2 54 0
  66 0016 2560     		str	r5, [r4, #0]
  67              	.LBE12:
  68              	.LBE11:
  69              		.loc 1 84 0
  70 0018 0C2E     		cmp	r6, #12
  71              		.loc 1 81 0
  72 001a 6163     		str	r1, [r4, #52]
  73              	.LBB14:
  74              	.LBB13:
  75              		.loc 2 55 0
  76 001c 6360     		str	r3, [r4, #4]
  77              		.loc 2 56 0
  78 001e 0463     		str	r4, [r0, #48]
  79 0020 1C60     		str	r4, [r3, #0]
  80              	.LBE13:
  81              	.LBE14:
  82              		.loc 1 84 0
  83 0022 07D0     		beq	.L4
  84              	.LVL6:
  85              	.L2:
  86              		.loc 1 86 0
  87 0024 0A20     		movs	r0, #10
  88 0026 FFF7FEFF 		bl	chSchGoSleepS
  89              		.loc 1 87 0
  90 002a 606A     		ldr	r0, [r4, #36]
  91              	.LVL7:
  92              	.LBB15:
  93              		.loc 1 88 0
  94 002c 0023     		movs	r3, #0
  95              	.LVL8:
  96              	@ 88 "../../os/kernel/src/chmsg.c" 1
  97 002e 83F31188 		msr     BASEPRI, r3
  98              	@ 0 "" 2
  99              	.LVL9:
 100              		.thumb
 101              	.LBE15:
 102              		.loc 1 90 0
 103 0032 70BD     		pop	{r4, r5, r6, pc}
 104              	.LVL10:
 105              	.L4:
 106              		.loc 1 85 0
 107 0034 FFF7FEFF 		bl	chSchReadyI
 108              	.LVL11:
 109 0038 F4E7     		b	.L2
 110              	.L6:
 111 003a 00BF     		.align	2
 112              	.L5:
 113 003c 00000000 		.word	rlist
 114              		.cfi_endproc
ARM GAS  /tmp/cc5aIz6t.s 			page 3


 115              	.LFE7:
 116              		.size	chMsgSend, .-chMsgSend
 117              		.section	.text.chMsgWait,"ax",%progbits
 118              		.align	2
 119              		.p2align 4,,15
 120              		.global	chMsgWait
 121              		.thumb
 122              		.thumb_func
 123              		.type	chMsgWait, %function
 124              	chMsgWait:
 125              	.LFB8:
 126              		.loc 1 106 0
 127              		.cfi_startproc
 128              		@ args = 0, pretend = 0, frame = 0
 129              		@ frame_needed = 0, uses_anonymous_args = 0
 130 0000 10B5     		push	{r4, lr}
 131              	.LCFI1:
 132              		.cfi_def_cfa_offset 8
 133              		.cfi_offset 14, -4
 134              		.cfi_offset 4, -8
 135              	.LBB16:
 136              		.loc 1 109 0
 137 0002 2023     		movs	r3, #32
 138              	.LVL12:
 139              	@ 109 "../../os/kernel/src/chmsg.c" 1
 140 0004 83F31188 		msr     BASEPRI, r3
 141              	@ 0 "" 2
 142              	.LVL13:
 143              		.thumb
 144              	.LBE16:
 145              		.loc 1 110 0
 146 0008 0B4C     		ldr	r4, .L10
 147 000a A369     		ldr	r3, [r4, #24]
 148              	.LVL14:
 149 000c 1A46     		mov	r2, r3
 150 000e 52F82C0F 		ldr	r0, [r2, #44]!
 151 0012 9042     		cmp	r0, r2
 152 0014 08D0     		beq	.L9
 153              	.L8:
 154              	.LVL15:
 155              	.LBB17:
 156              	.LBB18:
 157              		.loc 2 62 0
 158 0016 0168     		ldr	r1, [r0, #0]
 159 0018 D962     		str	r1, [r3, #44]
 160 001a 4A60     		str	r2, [r1, #4]
 161              	.LBE18:
 162              	.LBE17:
 163              		.loc 1 113 0
 164 001c 0B22     		movs	r2, #11
 165 001e 0277     		strb	r2, [r0, #28]
 166              	.LBB19:
 167              		.loc 1 114 0
 168 0020 0023     		movs	r3, #0
 169              	.LVL16:
 170              	@ 114 "../../os/kernel/src/chmsg.c" 1
 171 0022 83F31188 		msr     BASEPRI, r3
ARM GAS  /tmp/cc5aIz6t.s 			page 4


 172              	@ 0 "" 2
 173              	.LVL17:
 174              		.thumb
 175              	.LBE19:
 176              		.loc 1 116 0
 177 0026 10BD     		pop	{r4, pc}
 178              	.LVL18:
 179              	.L9:
 180              		.loc 1 111 0
 181 0028 0C20     		movs	r0, #12
 182 002a FFF7FEFF 		bl	chSchGoSleepS
 183 002e A369     		ldr	r3, [r4, #24]
 184 0030 1A46     		mov	r2, r3
 185 0032 52F82C0F 		ldr	r0, [r2, #44]!
 186 0036 EEE7     		b	.L8
 187              	.L11:
 188              		.align	2
 189              	.L10:
 190 0038 00000000 		.word	rlist
 191              		.cfi_endproc
 192              	.LFE8:
 193              		.size	chMsgWait, .-chMsgWait
 194 003c AFF30080 		.section	.text.chMsgRelease,"ax",%progbits
 195              		.align	2
 196              		.p2align 4,,15
 197              		.global	chMsgRelease
 198              		.thumb
 199              		.thumb_func
 200              		.type	chMsgRelease, %function
 201              	chMsgRelease:
 202              	.LFB9:
 203              		.loc 1 128 0
 204              		.cfi_startproc
 205              		@ args = 0, pretend = 0, frame = 0
 206              		@ frame_needed = 0, uses_anonymous_args = 0
 207              	.LVL19:
 208 0000 08B5     		push	{r3, lr}
 209              	.LCFI2:
 210              		.cfi_def_cfa_offset 8
 211              		.cfi_offset 14, -4
 212              		.cfi_offset 3, -8
 213              	.LBB20:
 214              		.loc 1 130 0
 215 0002 2023     		movs	r3, #32
 216              	.LVL20:
 217              	@ 130 "../../os/kernel/src/chmsg.c" 1
 218 0004 83F31188 		msr     BASEPRI, r3
 219              	@ 0 "" 2
 220              	.LVL21:
 221              		.thumb
 222              	.LBE20:
 223              		.loc 1 133 0
 224 0008 FFF7FEFF 		bl	chSchWakeupS
 225              	.LVL22:
 226              	.LBB21:
 227              		.loc 1 134 0
 228 000c 0023     		movs	r3, #0
ARM GAS  /tmp/cc5aIz6t.s 			page 5


 229              	.LVL23:
 230              	@ 134 "../../os/kernel/src/chmsg.c" 1
 231 000e 83F31188 		msr     BASEPRI, r3
 232              	@ 0 "" 2
 233              	.LVL24:
 234              		.thumb
 235              	.LBE21:
 236              		.loc 1 135 0
 237 0012 08BD     		pop	{r3, pc}
 238              		.cfi_endproc
 239              	.LFE9:
 240              		.size	chMsgRelease, .-chMsgRelease
 241 0014 AFF30080 		.text
 241      AFF30080 
 241      AFF30080 
 242              	.Letext0:
 243              		.file 3 "/opt/paparazzi/arm-multilib/lib/gcc/arm-none-eabi/4.6.2/../../../../arm-none-eabi/include
 244              		.file 4 "../../os/ports/GCC/ARMCMx/chtypes.h"
 245              		.file 5 "../../os/kernel/include/chlists.h"
 246              		.file 6 "../../os/kernel/include/chthreads.h"
 247              		.file 7 "../../os/ports/GCC/ARMCMx/chcore_v7m.h"
 248              		.file 8 "../../os/kernel/include/chschd.h"
 249              		.file 9 "../../os/kernel/include/chmtx.h"