ARM GAS  /tmp/ccfbHYPf.s 			page 1


   1              		.syntax unified
   2              		.cpu cortex-m4
   3              		.fpu softvfp
   4              		.eabi_attribute 20, 1
   5              		.eabi_attribute 21, 1
   6              		.eabi_attribute 23, 3
   7              		.eabi_attribute 24, 1
   8              		.eabi_attribute 25, 1
   9              		.eabi_attribute 26, 1
  10              		.eabi_attribute 30, 2
  11              		.eabi_attribute 18, 4
  12              		.thumb
  13              		.file	"chmtx.c"
  14              		.text
  15              	.Ltext0:
  16              		.cfi_sections	.debug_frame
  17              		.section	.text.chMtxInit,"ax",%progbits
  18              		.align	2
  19              		.p2align 4,,15
  20              		.global	chMtxInit
  21              		.thumb
  22              		.thumb_func
  23              		.type	chMtxInit, %function
  24              	chMtxInit:
  25              	.LFB7:
  26              		.file 1 "../../os/kernel/src/chmtx.c"
  27              		.loc 1 86 0
  28              		.cfi_startproc
  29              		@ args = 0, pretend = 0, frame = 0
  30              		@ frame_needed = 0, uses_anonymous_args = 0
  31              		@ link register save eliminated.
  32              	.LVL0:
  33              		.loc 1 91 0
  34 0000 0023     		movs	r3, #0
  35              		.loc 1 90 0
  36 0002 4060     		str	r0, [r0, #4]
  37 0004 0060     		str	r0, [r0, #0]
  38              		.loc 1 91 0
  39 0006 8360     		str	r3, [r0, #8]
  40              		.loc 1 92 0
  41 0008 7047     		bx	lr
  42              		.cfi_endproc
  43              	.LFE7:
  44              		.size	chMtxInit, .-chMtxInit
  45 000a 00BFAFF3 		.section	.text.chMtxLockS,"ax",%progbits
  45      0080
  46              		.align	2
  47              		.p2align 4,,15
  48              		.global	chMtxLockS
  49              		.thumb
  50              		.thumb_func
  51              		.type	chMtxLockS, %function
  52              	chMtxLockS:
  53              	.LFB9:
  54              		.loc 1 121 0
  55              		.cfi_startproc
  56              		@ args = 0, pretend = 0, frame = 0
ARM GAS  /tmp/ccfbHYPf.s 			page 2


  57              		@ frame_needed = 0, uses_anonymous_args = 0
  58              	.LVL1:
  59 0000 F8B5     		push	{r3, r4, r5, r6, r7, lr}
  60              	.LCFI0:
  61              		.cfi_def_cfa_offset 24
  62              		.cfi_offset 14, -4
  63              		.cfi_offset 7, -8
  64              		.cfi_offset 6, -12
  65              		.cfi_offset 5, -16
  66              		.cfi_offset 4, -20
  67              		.cfi_offset 3, -24
  68              		.loc 1 121 0
  69 0002 0546     		mov	r5, r0
  70              		.loc 1 122 0
  71 0004 2E4B     		ldr	r3, .L24
  72              		.loc 1 128 0
  73 0006 8068     		ldr	r0, [r0, #8]
  74              	.LVL2:
  75              		.loc 1 122 0
  76 0008 9C69     		ldr	r4, [r3, #24]
  77              	.LVL3:
  78              		.loc 1 128 0
  79 000a 0028     		cmp	r0, #0
  80 000c 50D0     		beq	.L3
  81              	.LVL4:
  82              	.LBB33:
  83              		.loc 1 135 0 discriminator 1
  84 000e A268     		ldr	r2, [r4, #8]
  85 0010 8368     		ldr	r3, [r0, #8]
  86              	.LVL5:
  87 0012 9A42     		cmp	r2, r3
  88 0014 06D9     		bls	.L4
  89              	.LVL6:
  90              	.L18:
  91              		.loc 1 139 0
  92 0016 037F     		ldrb	r3, [r0, #28]	@ zero_extendqisi2
  93              		.loc 1 137 0
  94 0018 8260     		str	r2, [r0, #8]
  95              		.loc 1 139 0
  96 001a 042B     		cmp	r3, #4
  97 001c 30D0     		beq	.L6
  98 001e 052B     		cmp	r3, #5
  99 0020 1BD0     		beq	.L7
 100 0022 93B1     		cbz	r3, .L5
 101              	.LVL7:
 102              	.L4:
 103              		.file 2 "../../os/kernel/include/chinline.h"
 104              		.loc 2 43 0
 105 0024 2B46     		mov	r3, r5
 106              	.LVL8:
 107              	.L14:
 108              	.LBB34:
 109              	.LBB35:
 110              		.loc 2 45 0
 111 0026 1B68     		ldr	r3, [r3, #0]
 112              	.LVL9:
 113              		.loc 2 46 0
ARM GAS  /tmp/ccfbHYPf.s 			page 3


 114 0028 9D42     		cmp	r5, r3
 115 002a 03D0     		beq	.L13
 116 002c 9968     		ldr	r1, [r3, #8]
 117 002e A268     		ldr	r2, [r4, #8]
 118 0030 9142     		cmp	r1, r2
 119 0032 F8D2     		bcs	.L14
 120              	.L13:
 121              		.loc 2 48 0
 122 0034 5A68     		ldr	r2, [r3, #4]
 123              		.loc 2 47 0
 124 0036 2360     		str	r3, [r4, #0]
 125              	.LBE35:
 126              	.LBE34:
 127              		.loc 1 175 0
 128 0038 0420     		movs	r0, #4
 129              	.LBB37:
 130              	.LBB36:
 131              		.loc 2 48 0
 132 003a 6260     		str	r2, [r4, #4]
 133              		.loc 2 49 0
 134 003c 1460     		str	r4, [r2, #0]
 135 003e 5C60     		str	r4, [r3, #4]
 136              	.LBE36:
 137              	.LBE37:
 138              		.loc 1 174 0
 139 0040 6562     		str	r5, [r4, #36]
 140              	.LBE33:
 141              		.loc 1 187 0
 142 0042 BDE8F840 		pop	{r3, r4, r5, r6, r7, lr}
 143              	.LBB58:
 144              		.loc 1 175 0
 145 0046 FFF7FEBF 		b	chSchGoSleepS
 146              	.LVL10:
 147              	.L5:
 148              	.LBB38:
 149              	.LBB39:
 150              		.loc 2 75 0
 151 004a 90E80C00 		ldmia	r0, {r2, r3}
 152 004e 1A60     		str	r2, [r3, #0]
 153              		.loc 2 76 0
 154 0050 0268     		ldr	r2, [r0, #0]
 155 0052 5360     		str	r3, [r2, #4]
 156              	.LBE39:
 157              	.LBE38:
 158              		.loc 1 167 0
 159 0054 FFF7FEFF 		bl	chSchReadyI
 160              	.LVL11:
 161              		.loc 1 168 0
 162 0058 E4E7     		b	.L4
 163              	.LVL12:
 164              	.L7:
 165              	.LBB40:
 166              	.LBB41:
 167              		.loc 2 75 0
 168 005a 4168     		ldr	r1, [r0, #4]
 169 005c 0368     		ldr	r3, [r0, #0]
 170              	.LBE41:
ARM GAS  /tmp/ccfbHYPf.s 			page 4


 171              	.LBE40:
 172              		.loc 1 158 0
 173 005e 466A     		ldr	r6, [r0, #36]
 174              	.LVL13:
 175              	.LBB44:
 176              	.LBB42:
 177              		.loc 2 75 0
 178 0060 0B60     		str	r3, [r1, #0]
 179              		.loc 2 76 0
 180 0062 0768     		ldr	r7, [r0, #0]
 181              	.LBE42:
 182              	.LBE44:
 183              		.loc 2 43 0
 184 0064 3346     		mov	r3, r6
 185              	.LBB45:
 186              	.LBB43:
 187              		.loc 2 76 0
 188 0066 7960     		str	r1, [r7, #4]
 189              	.LVL14:
 190              	.L12:
 191              	.LBE43:
 192              	.LBE45:
 193              	.LBB46:
 194              	.LBB47:
 195              		.loc 2 45 0
 196 0068 1B68     		ldr	r3, [r3, #0]
 197              	.LVL15:
 198              		.loc 2 46 0
 199 006a 9E42     		cmp	r6, r3
 200 006c 02D0     		beq	.L11
 201 006e 9968     		ldr	r1, [r3, #8]
 202 0070 9142     		cmp	r1, r2
 203 0072 F9D2     		bcs	.L12
 204              	.L11:
 205              		.loc 2 48 0
 206 0074 5A68     		ldr	r2, [r3, #4]
 207              		.loc 2 47 0
 208 0076 0360     		str	r3, [r0, #0]
 209              		.loc 2 48 0
 210 0078 4260     		str	r2, [r0, #4]
 211              		.loc 2 49 0
 212 007a 1060     		str	r0, [r2, #0]
 213 007c 5860     		str	r0, [r3, #4]
 214 007e D1E7     		b	.L4
 215              	.LVL16:
 216              	.L6:
 217              	.LBE47:
 218              	.LBE46:
 219              	.LBB48:
 220              	.LBB49:
 221              		.loc 2 75 0
 222 0080 4168     		ldr	r1, [r0, #4]
 223 0082 0368     		ldr	r3, [r0, #0]
 224              	.LBE49:
 225              	.LBE48:
 226              		.loc 1 142 0
 227 0084 466A     		ldr	r6, [r0, #36]
ARM GAS  /tmp/ccfbHYPf.s 			page 5


 228              	.LVL17:
 229              	.LBB52:
 230              	.LBB50:
 231              		.loc 2 75 0
 232 0086 0B60     		str	r3, [r1, #0]
 233              		.loc 2 76 0
 234 0088 0768     		ldr	r7, [r0, #0]
 235              	.LBE50:
 236              	.LBE52:
 237              		.loc 1 142 0
 238 008a 3346     		mov	r3, r6
 239              	.LBB53:
 240              	.LBB51:
 241              		.loc 2 76 0
 242 008c 7960     		str	r1, [r7, #4]
 243              	.LVL18:
 244              	.L9:
 245              	.LBE51:
 246              	.LBE53:
 247              	.LBB54:
 248              	.LBB55:
 249              		.loc 2 45 0
 250 008e 1B68     		ldr	r3, [r3, #0]
 251              	.LVL19:
 252              		.loc 2 46 0
 253 0090 9E42     		cmp	r6, r3
 254 0092 12D0     		beq	.L15
 255 0094 9968     		ldr	r1, [r3, #8]
 256 0096 9142     		cmp	r1, r2
 257 0098 F9D2     		bcs	.L9
 258              	.LVL20:
 259              	.L8:
 260              		.loc 2 48 0
 261 009a 5A68     		ldr	r2, [r3, #4]
 262              		.loc 2 47 0
 263 009c 0360     		str	r3, [r0, #0]
 264              		.loc 2 48 0
 265 009e 4260     		str	r2, [r0, #4]
 266              		.loc 2 49 0
 267 00a0 1060     		str	r0, [r2, #0]
 268 00a2 5860     		str	r0, [r3, #4]
 269              	.LBE55:
 270              	.LBE54:
 271              		.loc 1 143 0
 272 00a4 B068     		ldr	r0, [r6, #8]
 273              	.LVL21:
 274              		.loc 1 135 0
 275 00a6 A268     		ldr	r2, [r4, #8]
 276 00a8 8368     		ldr	r3, [r0, #8]
 277              	.LVL22:
 278 00aa 9342     		cmp	r3, r2
 279 00ac B3D3     		bcc	.L18
 280 00ae B9E7     		b	.L4
 281              	.LVL23:
 282              	.L3:
 283              	.LBE58:
 284              		.loc 1 184 0
ARM GAS  /tmp/ccfbHYPf.s 			page 6


 285 00b0 E36B     		ldr	r3, [r4, #60]
 286              		.loc 1 183 0
 287 00b2 AC60     		str	r4, [r5, #8]
 288              		.loc 1 184 0
 289 00b4 EB60     		str	r3, [r5, #12]
 290              		.loc 1 185 0
 291 00b6 E563     		str	r5, [r4, #60]
 292              		.loc 1 187 0
 293 00b8 F8BD     		pop	{r3, r4, r5, r6, r7, pc}
 294              	.LVL24:
 295              	.L15:
 296              	.LBB59:
 297              	.LBB57:
 298              	.LBB56:
 299              		.loc 2 45 0
 300 00ba 3346     		mov	r3, r6
 301              	.LVL25:
 302 00bc EDE7     		b	.L8
 303              	.L25:
 304 00be 00BF     		.align	2
 305              	.L24:
 306 00c0 00000000 		.word	rlist
 307              	.LBE56:
 308              	.LBE57:
 309              	.LBE59:
 310              		.cfi_endproc
 311              	.LFE9:
 312              		.size	chMtxLockS, .-chMtxLockS
 313 00c4 AFF30080 		.section	.text.chMtxLock,"ax",%progbits
 313      AFF30080 
 313      AFF30080 
 314              		.align	2
 315              		.p2align 4,,15
 316              		.global	chMtxLock
 317              		.thumb
 318              		.thumb_func
 319              		.type	chMtxLock, %function
 320              	chMtxLock:
 321              	.LFB8:
 322              		.loc 1 103 0
 323              		.cfi_startproc
 324              		@ args = 0, pretend = 0, frame = 0
 325              		@ frame_needed = 0, uses_anonymous_args = 0
 326              	.LVL26:
 327 0000 08B5     		push	{r3, lr}
 328              	.LCFI1:
 329              		.cfi_def_cfa_offset 8
 330              		.cfi_offset 14, -4
 331              		.cfi_offset 3, -8
 332              	.LBB60:
 333              		.loc 1 105 0
 334 0002 2023     		movs	r3, #32
 335              	.LVL27:
 336              	@ 105 "../../os/kernel/src/chmtx.c" 1
 337 0004 83F31188 		msr     BASEPRI, r3
 338              	@ 0 "" 2
 339              	.LVL28:
ARM GAS  /tmp/ccfbHYPf.s 			page 7


 340              		.thumb
 341              	.LBE60:
 342              		.loc 1 107 0
 343 0008 FFF7FEFF 		bl	chMtxLockS
 344              	.LVL29:
 345              	.LBB61:
 346              		.loc 1 109 0
 347 000c 0023     		movs	r3, #0
 348              	.LVL30:
 349              	@ 109 "../../os/kernel/src/chmtx.c" 1
 350 000e 83F31188 		msr     BASEPRI, r3
 351              	@ 0 "" 2
 352              	.LVL31:
 353              		.thumb
 354              	.LBE61:
 355              		.loc 1 110 0
 356 0012 08BD     		pop	{r3, pc}
 357              		.cfi_endproc
 358              	.LFE8:
 359              		.size	chMtxLock, .-chMtxLock
 360 0014 AFF30080 		.section	.text.chMtxTryLock,"ax",%progbits
 360      AFF30080 
 360      AFF30080 
 361              		.align	2
 362              		.p2align 4,,15
 363              		.global	chMtxTryLock
 364              		.thumb
 365              		.thumb_func
 366              		.type	chMtxTryLock, %function
 367              	chMtxTryLock:
 368              	.LFB10:
 369              		.loc 1 206 0
 370              		.cfi_startproc
 371              		@ args = 0, pretend = 0, frame = 0
 372              		@ frame_needed = 0, uses_anonymous_args = 0
 373              		@ link register save eliminated.
 374              	.LVL32:
 375              		.loc 1 206 0
 376 0000 0246     		mov	r2, r0
 377              	.LBB62:
 378              		.loc 1 209 0
 379 0002 2023     		movs	r3, #32
 380              	.LVL33:
 381              	@ 209 "../../os/kernel/src/chmtx.c" 1
 382 0004 83F31188 		msr     BASEPRI, r3
 383              	@ 0 "" 2
 384              	.LVL34:
 385              		.thumb
 386              	.LBE62:
 387              	.LBB63:
 388              	.LBB64:
 389              		.loc 1 239 0
 390 0008 8368     		ldr	r3, [r0, #8]
 391              	.LVL35:
 392              		.loc 1 240 0
 393 000a 0020     		movs	r0, #0
 394              	.LVL36:
ARM GAS  /tmp/ccfbHYPf.s 			page 8


 395              		.loc 1 239 0
 396 000c 1BB1     		cbz	r3, .L30
 397              	.L28:
 398              	.LBE64:
 399              	.LBE63:
 400              	.LBB66:
 401              		.loc 1 213 0
 402 000e 0023     		movs	r3, #0
 403              	.LVL37:
 404              	@ 213 "../../os/kernel/src/chmtx.c" 1
 405 0010 83F31188 		msr     BASEPRI, r3
 406              	@ 0 "" 2
 407              	.LVL38:
 408              		.thumb
 409              	.LBE66:
 410              		.loc 1 215 0
 411 0014 7047     		bx	lr
 412              	.LVL39:
 413              	.L30:
 414              	.LBB67:
 415              	.LBB65:
 416              		.loc 1 241 0
 417 0016 044B     		ldr	r3, .L31
 418 0018 9B69     		ldr	r3, [r3, #24]
 419              		.loc 1 242 0
 420 001a D96B     		ldr	r1, [r3, #60]
 421              		.loc 1 241 0
 422 001c 9360     		str	r3, [r2, #8]
 423              		.loc 1 242 0
 424 001e D160     		str	r1, [r2, #12]
 425              		.loc 1 244 0
 426 0020 0120     		movs	r0, #1
 427              		.loc 1 243 0
 428 0022 DA63     		str	r2, [r3, #60]
 429 0024 F3E7     		b	.L28
 430              	.L32:
 431 0026 00BF     		.align	2
 432              	.L31:
 433 0028 00000000 		.word	rlist
 434              	.LBE65:
 435              	.LBE67:
 436              		.cfi_endproc
 437              	.LFE10:
 438              		.size	chMtxTryLock, .-chMtxTryLock
 439 002c AFF30080 		.section	.text.chMtxTryLockS,"ax",%progbits
 440              		.align	2
 441              		.p2align 4,,15
 442              		.global	chMtxTryLockS
 443              		.thumb
 444              		.thumb_func
 445              		.type	chMtxTryLockS, %function
 446              	chMtxTryLockS:
 447              	.LFB11:
 448              		.loc 1 234 0
 449              		.cfi_startproc
 450              		@ args = 0, pretend = 0, frame = 0
 451              		@ frame_needed = 0, uses_anonymous_args = 0
ARM GAS  /tmp/ccfbHYPf.s 			page 9


 452              		@ link register save eliminated.
 453              	.LVL40:
 454              		.loc 1 239 0
 455 0000 8268     		ldr	r2, [r0, #8]
 456              		.loc 1 234 0
 457 0002 0346     		mov	r3, r0
 458              		.loc 1 239 0
 459 0004 0AB1     		cbz	r2, .L36
 460              		.loc 1 240 0
 461 0006 0020     		movs	r0, #0
 462              	.LVL41:
 463              		.loc 1 245 0
 464 0008 7047     		bx	lr
 465              	.L36:
 466              		.loc 1 241 0
 467 000a 044A     		ldr	r2, .L37
 468 000c 9269     		ldr	r2, [r2, #24]
 469              		.loc 1 242 0
 470 000e D16B     		ldr	r1, [r2, #60]
 471              		.loc 1 241 0
 472 0010 8260     		str	r2, [r0, #8]
 473              		.loc 1 242 0
 474 0012 C160     		str	r1, [r0, #12]
 475              		.loc 1 244 0
 476 0014 0120     		movs	r0, #1
 477              		.loc 1 243 0
 478 0016 D363     		str	r3, [r2, #60]
 479              		.loc 1 244 0
 480 0018 7047     		bx	lr
 481              	.L38:
 482 001a 00BF     		.align	2
 483              	.L37:
 484 001c 00000000 		.word	rlist
 485              		.cfi_endproc
 486              	.LFE11:
 487              		.size	chMtxTryLockS, .-chMtxTryLockS
 488              		.section	.text.chMtxUnlock,"ax",%progbits
 489              		.align	2
 490              		.p2align 4,,15
 491              		.global	chMtxUnlock
 492              		.thumb
 493              		.thumb_func
 494              		.type	chMtxUnlock, %function
 495              	chMtxUnlock:
 496              	.LFB12:
 497              		.loc 1 257 0
 498              		.cfi_startproc
 499              		@ args = 0, pretend = 0, frame = 0
 500              		@ frame_needed = 0, uses_anonymous_args = 0
 501              		.loc 1 258 0
 502 0000 154A     		ldr	r2, .L47
 503              		.loc 1 257 0
 504 0002 F8B5     		push	{r3, r4, r5, r6, r7, lr}
 505              	.LCFI2:
 506              		.cfi_def_cfa_offset 24
 507              		.cfi_offset 14, -4
 508              		.cfi_offset 7, -8
ARM GAS  /tmp/ccfbHYPf.s 			page 10


 509              		.cfi_offset 6, -12
 510              		.cfi_offset 5, -16
 511              		.cfi_offset 4, -20
 512              		.cfi_offset 3, -24
 513              		.loc 1 258 0
 514 0004 9269     		ldr	r2, [r2, #24]
 515              	.LVL42:
 516              	.LBB68:
 517              		.loc 1 261 0
 518 0006 2023     		movs	r3, #32
 519              	.LVL43:
 520              	@ 261 "../../os/kernel/src/chmtx.c" 1
 521 0008 83F31188 		msr     BASEPRI, r3
 522              	@ 0 "" 2
 523              	.LVL44:
 524              		.thumb
 525              	.LBE68:
 526              		.loc 1 270 0
 527 000c D46B     		ldr	r4, [r2, #60]
 528              	.LVL45:
 529              		.loc 1 273 0
 530 000e 2368     		ldr	r3, [r4, #0]
 531              	.LVL46:
 532              		.loc 1 271 0
 533 0010 E168     		ldr	r1, [r4, #12]
 534              		.loc 1 273 0
 535 0012 A342     		cmp	r3, r4
 536              		.loc 1 271 0
 537 0014 D163     		str	r1, [r2, #60]
 538              		.loc 1 273 0
 539 0016 1CD0     		beq	.L40
 540              	.LBB69:
 541              		.loc 1 278 0
 542 0018 176C     		ldr	r7, [r2, #64]
 543              	.LVL47:
 544              		.loc 1 280 0
 545 001a 49B1     		cbz	r1, .L41
 546              	.LVL48:
 547              	.L45:
 548              		.loc 1 284 0
 549 001c 0868     		ldr	r0, [r1, #0]
 550 001e 8842     		cmp	r0, r1
 551 0020 03D0     		beq	.L42
 552              		.loc 1 284 0 is_stmt 0 discriminator 1
 553 0022 8068     		ldr	r0, [r0, #8]
 554 0024 8742     		cmp	r7, r0
 555 0026 38BF     		it	cc
 556 0028 0746     		movcc	r7, r0
 557              	.LVL49:
 558              	.L42:
 559              		.loc 1 286 0 is_stmt 1
 560 002a C968     		ldr	r1, [r1, #12]
 561              	.LVL50:
 562              		.loc 1 280 0
 563 002c 0029     		cmp	r1, #0
 564 002e F5D1     		bne	.L45
 565              	.L41:
ARM GAS  /tmp/ccfbHYPf.s 			page 11


 566              	.LBB70:
 567              	.LBB71:
 568              		.loc 2 62 0
 569 0030 1D68     		ldr	r5, [r3, #0]
 570              	.LBE71:
 571              	.LBE70:
 572              		.loc 1 295 0
 573 0032 DE6B     		ldr	r6, [r3, #60]
 574              		.loc 1 290 0
 575 0034 9760     		str	r7, [r2, #8]
 576              	.LVL51:
 577              		.loc 1 297 0
 578 0036 1846     		mov	r0, r3
 579              	.LBB74:
 580              	.LBB72:
 581              		.loc 2 62 0
 582 0038 2560     		str	r5, [r4, #0]
 583              	.LBE72:
 584              	.LBE74:
 585              		.loc 1 297 0
 586 003a 0021     		movs	r1, #0
 587              	.LVL52:
 588              	.LBB75:
 589              	.LBB73:
 590              		.loc 2 62 0
 591 003c 6C60     		str	r4, [r5, #4]
 592              	.LBE73:
 593              	.LBE75:
 594              		.loc 1 294 0
 595 003e A360     		str	r3, [r4, #8]
 596              		.loc 1 295 0
 597 0040 E660     		str	r6, [r4, #12]
 598              		.loc 1 296 0
 599 0042 DC63     		str	r4, [r3, #60]
 600              		.loc 1 297 0
 601 0044 FFF7FEFF 		bl	chSchWakeupS
 602              	.LVL53:
 603              	.L44:
 604              	.LBE69:
 605              	.LBB76:
 606              		.loc 1 301 0
 607 0048 0023     		movs	r3, #0
 608              	.LVL54:
 609              	@ 301 "../../os/kernel/src/chmtx.c" 1
 610 004a 83F31188 		msr     BASEPRI, r3
 611              	@ 0 "" 2
 612              	.LVL55:
 613              		.thumb
 614              	.LBE76:
 615              		.loc 1 303 0
 616 004e 2046     		mov	r0, r4
 617 0050 F8BD     		pop	{r3, r4, r5, r6, r7, pc}
 618              	.LVL56:
 619              	.L40:
 620              		.loc 1 300 0
 621 0052 0023     		movs	r3, #0
 622 0054 A360     		str	r3, [r4, #8]
ARM GAS  /tmp/ccfbHYPf.s 			page 12


 623 0056 F7E7     		b	.L44
 624              	.L48:
 625              		.align	2
 626              	.L47:
 627 0058 00000000 		.word	rlist
 628              		.cfi_endproc
 629              	.LFE12:
 630              		.size	chMtxUnlock, .-chMtxUnlock
 631 005c AFF30080 		.section	.text.chMtxUnlockS,"ax",%progbits
 632              		.align	2
 633              		.p2align 4,,15
 634              		.global	chMtxUnlockS
 635              		.thumb
 636              		.thumb_func
 637              		.type	chMtxUnlockS, %function
 638              	chMtxUnlockS:
 639              	.LFB13:
 640              		.loc 1 317 0
 641              		.cfi_startproc
 642              		@ args = 0, pretend = 0, frame = 0
 643              		@ frame_needed = 0, uses_anonymous_args = 0
 644              		.loc 1 318 0
 645 0000 124B     		ldr	r3, .L57
 646 0002 9969     		ldr	r1, [r3, #24]
 647              	.LVL57:
 648              		.loc 1 317 0
 649 0004 70B5     		push	{r4, r5, r6, lr}
 650              	.LCFI3:
 651              		.cfi_def_cfa_offset 16
 652              		.cfi_offset 14, -4
 653              		.cfi_offset 6, -8
 654              		.cfi_offset 5, -12
 655              		.cfi_offset 4, -16
 656              		.loc 1 331 0
 657 0006 CC6B     		ldr	r4, [r1, #60]
 658              	.LVL58:
 659              		.loc 1 334 0
 660 0008 2368     		ldr	r3, [r4, #0]
 661              	.LVL59:
 662              		.loc 1 332 0
 663 000a E268     		ldr	r2, [r4, #12]
 664              		.loc 1 334 0
 665 000c A342     		cmp	r3, r4
 666              		.loc 1 332 0
 667 000e CA63     		str	r2, [r1, #60]
 668              		.loc 1 334 0
 669 0010 18D0     		beq	.L50
 670              	.LBB77:
 671              		.loc 1 339 0
 672 0012 0E6C     		ldr	r6, [r1, #64]
 673              	.LVL60:
 674              		.loc 1 341 0
 675 0014 4AB1     		cbz	r2, .L51
 676              	.LVL61:
 677              	.L55:
 678              		.loc 1 345 0
 679 0016 1068     		ldr	r0, [r2, #0]
ARM GAS  /tmp/ccfbHYPf.s 			page 13


 680 0018 9042     		cmp	r0, r2
 681 001a 03D0     		beq	.L52
 682              		.loc 1 345 0 is_stmt 0 discriminator 1
 683 001c 8068     		ldr	r0, [r0, #8]
 684 001e 8642     		cmp	r6, r0
 685 0020 38BF     		it	cc
 686 0022 0646     		movcc	r6, r0
 687              	.LVL62:
 688              	.L52:
 689              		.loc 1 347 0 is_stmt 1
 690 0024 D268     		ldr	r2, [r2, #12]
 691              	.LVL63:
 692              		.loc 1 341 0
 693 0026 002A     		cmp	r2, #0
 694 0028 F5D1     		bne	.L55
 695              	.L51:
 696              	.LBB78:
 697              	.LBB79:
 698              		.loc 2 62 0
 699 002a 1A68     		ldr	r2, [r3, #0]
 700              	.LVL64:
 701              	.LBE79:
 702              	.LBE78:
 703              		.loc 1 354 0
 704 002c DD6B     		ldr	r5, [r3, #60]
 705              		.loc 1 349 0
 706 002e 8E60     		str	r6, [r1, #8]
 707              	.LVL65:
 708              		.loc 1 356 0
 709 0030 1846     		mov	r0, r3
 710              	.LBB81:
 711              	.LBB80:
 712              		.loc 2 62 0
 713 0032 2260     		str	r2, [r4, #0]
 714 0034 5460     		str	r4, [r2, #4]
 715              	.LBE80:
 716              	.LBE81:
 717              		.loc 1 353 0
 718 0036 A360     		str	r3, [r4, #8]
 719              		.loc 1 354 0
 720 0038 E560     		str	r5, [r4, #12]
 721              		.loc 1 355 0
 722 003a DC63     		str	r4, [r3, #60]
 723              		.loc 1 356 0
 724 003c FFF7FEFF 		bl	chSchReadyI
 725              	.LVL66:
 726              	.LBE77:
 727              		.loc 1 361 0
 728 0040 2046     		mov	r0, r4
 729 0042 70BD     		pop	{r4, r5, r6, pc}
 730              	.LVL67:
 731              	.L50:
 732              		.loc 1 359 0
 733 0044 0023     		movs	r3, #0
 734 0046 A360     		str	r3, [r4, #8]
 735              		.loc 1 361 0
 736 0048 2046     		mov	r0, r4
ARM GAS  /tmp/ccfbHYPf.s 			page 14


 737 004a 70BD     		pop	{r4, r5, r6, pc}
 738              	.L58:
 739              		.align	2
 740              	.L57:
 741 004c 00000000 		.word	rlist
 742              		.cfi_endproc
 743              	.LFE13:
 744              		.size	chMtxUnlockS, .-chMtxUnlockS
 745              		.section	.text.chMtxUnlockAll,"ax",%progbits
 746              		.align	2
 747              		.p2align 4,,15
 748              		.global	chMtxUnlockAll
 749              		.thumb
 750              		.thumb_func
 751              		.type	chMtxUnlockAll, %function
 752              	chMtxUnlockAll:
 753              	.LFB14:
 754              		.loc 1 374 0
 755              		.cfi_startproc
 756              		@ args = 0, pretend = 0, frame = 0
 757              		@ frame_needed = 0, uses_anonymous_args = 0
 758              		.loc 1 375 0
 759 0000 124A     		ldr	r2, .L66
 760              		.loc 1 374 0
 761 0002 70B5     		push	{r4, r5, r6, lr}
 762              	.LCFI4:
 763              		.cfi_def_cfa_offset 16
 764              		.cfi_offset 14, -4
 765              		.cfi_offset 6, -8
 766              		.cfi_offset 5, -12
 767              		.cfi_offset 4, -16
 768              	.LBB82:
 769              		.loc 1 377 0
 770 0004 2023     		movs	r3, #32
 771              	.LVL68:
 772              	.LBE82:
 773              		.loc 1 375 0
 774 0006 9469     		ldr	r4, [r2, #24]
 775              	.LVL69:
 776              	.LBB83:
 777              		.loc 1 377 0
 778              	@ 377 "../../os/kernel/src/chmtx.c" 1
 779 0008 83F31188 		msr     BASEPRI, r3
 780              	@ 0 "" 2
 781              	.LVL70:
 782              		.thumb
 783              	.LBE83:
 784              		.loc 1 378 0
 785 000c E36B     		ldr	r3, [r4, #60]
 786              	.LVL71:
 787 000e C3B1     		cbz	r3, .L60
 788              	.LBB84:
 789              		.loc 1 390 0
 790 0010 0025     		movs	r5, #0
 791              	.LVL72:
 792              	.L64:
 793              		.loc 1 382 0
ARM GAS  /tmp/ccfbHYPf.s 			page 15


 794 0012 1A68     		ldr	r2, [r3, #0]
 795              		.loc 1 381 0
 796 0014 D968     		ldr	r1, [r3, #12]
 797              		.loc 1 382 0
 798 0016 9A42     		cmp	r2, r3
 799              		.loc 1 381 0
 800 0018 E163     		str	r1, [r4, #60]
 801              		.loc 1 390 0
 802 001a 08BF     		it	eq
 803 001c 9D60     		streq	r5, [r3, #8]
 804              		.loc 1 382 0
 805 001e 09D0     		beq	.L62
 806              	.LVL73:
 807              	.LBB85:
 808              	.LBB86:
 809              	.LBB87:
 810              		.loc 2 62 0
 811 0020 1168     		ldr	r1, [r2, #0]
 812              	.LBE87:
 813              	.LBE86:
 814              		.loc 1 385 0
 815 0022 D66B     		ldr	r6, [r2, #60]
 816              	.LBB90:
 817              	.LBB88:
 818              		.loc 2 62 0
 819 0024 1960     		str	r1, [r3, #0]
 820              	.LBE88:
 821              	.LBE90:
 822              		.loc 1 387 0
 823 0026 1046     		mov	r0, r2
 824              	.LBB91:
 825              	.LBB89:
 826              		.loc 2 62 0
 827 0028 4B60     		str	r3, [r1, #4]
 828              	.LBE89:
 829              	.LBE91:
 830              		.loc 1 384 0
 831 002a 9A60     		str	r2, [r3, #8]
 832              		.loc 1 385 0
 833 002c DE60     		str	r6, [r3, #12]
 834              		.loc 1 386 0
 835 002e D363     		str	r3, [r2, #60]
 836              		.loc 1 387 0
 837 0030 FFF7FEFF 		bl	chSchReadyI
 838              	.LVL74:
 839              	.L62:
 840              	.LBE85:
 841              	.LBE84:
 842              		.loc 1 391 0
 843 0034 E36B     		ldr	r3, [r4, #60]
 844 0036 002B     		cmp	r3, #0
 845 0038 EBD1     		bne	.L64
 846              		.loc 1 392 0
 847 003a 236C     		ldr	r3, [r4, #64]
 848 003c A360     		str	r3, [r4, #8]
 849              		.loc 1 393 0
 850 003e FFF7FEFF 		bl	chSchRescheduleS
ARM GAS  /tmp/ccfbHYPf.s 			page 16


 851              	.L60:
 852              	.LBB92:
 853              		.loc 1 395 0
 854 0042 0023     		movs	r3, #0
 855              	.LVL75:
 856              	@ 395 "../../os/kernel/src/chmtx.c" 1
 857 0044 83F31188 		msr     BASEPRI, r3
 858              	@ 0 "" 2
 859              	.LVL76:
 860              		.thumb
 861              	.LBE92:
 862              		.loc 1 396 0
 863 0048 70BD     		pop	{r4, r5, r6, pc}
 864              	.L67:
 865 004a 00BF     		.align	2
 866              	.L66:
 867 004c 00000000 		.word	rlist
 868              		.cfi_endproc
 869              	.LFE14:
 870              		.size	chMtxUnlockAll, .-chMtxUnlockAll
 871              		.text
 872              	.Letext0:
 873              		.file 3 "/opt/paparazzi/arm-multilib/lib/gcc/arm-none-eabi/4.6.2/../../../../arm-none-eabi/include
 874              		.file 4 "../../os/ports/GCC/ARMCMx/chtypes.h"
 875              		.file 5 "../../os/kernel/include/chlists.h"
 876              		.file 6 "../../os/kernel/include/chthreads.h"
 877              		.file 7 "../../os/ports/GCC/ARMCMx/chcore_v7m.h"
 878              		.file 8 "../../os/kernel/include/chschd.h"
 879              		.file 9 "../../os/kernel/include/chmtx.h"