ARM GAS  /tmp/cciWq72G.s 			page 1


   1              		.syntax unified
   2              		.cpu cortex-m4
   3              		.fpu softvfp
   4              		.eabi_attribute 20, 1
   5              		.eabi_attribute 21, 1
   6              		.eabi_attribute 23, 3
   7              		.eabi_attribute 24, 1
   8              		.eabi_attribute 25, 1
   9              		.eabi_attribute 26, 1
  10              		.eabi_attribute 30, 2
  11              		.eabi_attribute 18, 4
  12              		.thumb
  13              		.file	"chqueues.c"
  14              		.text
  15              	.Ltext0:
  16              		.cfi_sections	.debug_frame
  17              		.section	.text.qwait,"ax",%progbits
  18              		.align	2
  19              		.p2align 4,,15
  20              		.thumb
  21              		.thumb_func
  22              		.type	qwait, %function
  23              	qwait:
  24              	.LFB7:
  25              		.file 1 "../../os/kernel/src/chqueues.c"
  26              		.loc 1 70 0
  27              		.cfi_startproc
  28              		@ args = 0, pretend = 0, frame = 0
  29              		@ frame_needed = 0, uses_anonymous_args = 0
  30              		@ link register save eliminated.
  31              	.LVL0:
  32 0000 10B4     		push	{r4}
  33              	.LCFI0:
  34              		.cfi_def_cfa_offset 4
  35              		.cfi_offset 4, -4
  36              		.loc 1 70 0
  37 0002 0246     		mov	r2, r0
  38              		.loc 1 72 0
  39 0004 59B1     		cbz	r1, .L2
  40              		.loc 1 74 0
  41 0006 084B     		ldr	r3, .L4
  42 0008 9B69     		ldr	r3, [r3, #24]
  43 000a 5862     		str	r0, [r3, #36]
  44              	.LVL1:
  45              	.LBB12:
  46              	.LBB13:
  47              		.file 2 "../../os/kernel/include/chinline.h"
  48              		.loc 2 55 0
  49 000c 4468     		ldr	r4, [r0, #4]
  50              	.LBE13:
  51              	.LBE12:
  52              		.loc 1 76 0
  53 000e 0D20     		movs	r0, #13
  54              	.LVL2:
  55              	.LBB15:
  56              	.LBB14:
  57              		.loc 2 55 0
ARM GAS  /tmp/cciWq72G.s 			page 2


  58 0010 83E81400 		stmia	r3, {r2, r4}
  59              		.loc 2 56 0
  60 0014 5360     		str	r3, [r2, #4]
  61 0016 2360     		str	r3, [r4, #0]
  62              	.LBE14:
  63              	.LBE15:
  64              		.loc 1 77 0
  65 0018 10BC     		pop	{r4}
  66              		.loc 1 76 0
  67 001a FFF7FEBF 		b	chSchGoSleepTimeoutS
  68              	.LVL3:
  69              	.L2:
  70              		.loc 1 77 0
  71 001e 4FF0FF30 		mov	r0, #-1
  72              	.LVL4:
  73 0022 10BC     		pop	{r4}
  74 0024 7047     		bx	lr
  75              	.L5:
  76 0026 00BF     		.align	2
  77              	.L4:
  78 0028 00000000 		.word	rlist
  79              		.cfi_endproc
  80              	.LFE7:
  81              		.size	qwait, .-qwait
  82 002c AFF30080 		.section	.text.chIQInit,"ax",%progbits
  83              		.align	2
  84              		.p2align 4,,15
  85              		.global	chIQInit
  86              		.thumb
  87              		.thumb_func
  88              		.type	chIQInit, %function
  89              	chIQInit:
  90              	.LFB8:
  91              		.loc 1 96 0
  92              		.cfi_startproc
  93              		@ args = 4, pretend = 0, frame = 0
  94              		@ frame_needed = 0, uses_anonymous_args = 0
  95              		@ link register save eliminated.
  96              	.LVL5:
  97 0000 10B4     		push	{r4}
  98              	.LCFI1:
  99              		.cfi_def_cfa_offset 4
 100              		.cfi_offset 4, -4
 101              		.loc 1 102 0
 102 0002 C361     		str	r3, [r0, #28]
 103              		.loc 1 103 0
 104 0004 019B     		ldr	r3, [sp, #4]
 105              	.LVL6:
 106              		.loc 1 98 0
 107 0006 4060     		str	r0, [r0, #4]
 108              		.loc 1 101 0
 109 0008 8A18     		adds	r2, r1, r2
 110              	.LVL7:
 111              		.loc 1 99 0
 112 000a 0024     		movs	r4, #0
 113              		.loc 1 98 0
 114 000c 0060     		str	r0, [r0, #0]
ARM GAS  /tmp/cciWq72G.s 			page 3


 115              		.loc 1 99 0
 116 000e 8460     		str	r4, [r0, #8]
 117              		.loc 1 100 0
 118 0010 4161     		str	r1, [r0, #20]
 119 0012 8161     		str	r1, [r0, #24]
 120 0014 C160     		str	r1, [r0, #12]
 121              		.loc 1 101 0
 122 0016 0261     		str	r2, [r0, #16]
 123              		.loc 1 103 0
 124 0018 0362     		str	r3, [r0, #32]
 125              		.loc 1 104 0
 126 001a 10BC     		pop	{r4}
 127 001c 7047     		bx	lr
 128              		.cfi_endproc
 129              	.LFE8:
 130              		.size	chIQInit, .-chIQInit
 131 001e 00BF     		.section	.text.chIQResetI,"ax",%progbits
 132              		.align	2
 133              		.p2align 4,,15
 134              		.global	chIQResetI
 135              		.thumb
 136              		.thumb_func
 137              		.type	chIQResetI, %function
 138              	chIQResetI:
 139              	.LFB9:
 140              		.loc 1 117 0
 141              		.cfi_startproc
 142              		@ args = 0, pretend = 0, frame = 0
 143              		@ frame_needed = 0, uses_anonymous_args = 0
 144              	.LVL8:
 145 0000 38B5     		push	{r3, r4, r5, lr}
 146              	.LCFI2:
 147              		.cfi_def_cfa_offset 16
 148              		.cfi_offset 14, -4
 149              		.cfi_offset 5, -8
 150              		.cfi_offset 4, -12
 151              		.cfi_offset 3, -16
 152              		.loc 1 117 0
 153 0002 0446     		mov	r4, r0
 154              		.loc 1 121 0
 155 0004 C368     		ldr	r3, [r0, #12]
 156              		.loc 1 123 0
 157 0006 0068     		ldr	r0, [r0, #0]
 158              	.LVL9:
 159              		.loc 1 121 0
 160 0008 6361     		str	r3, [r4, #20]
 161 000a A361     		str	r3, [r4, #24]
 162              		.loc 1 122 0
 163 000c 0023     		movs	r3, #0
 164              		.loc 1 123 0
 165 000e A042     		cmp	r0, r4
 166              		.loc 1 122 0
 167 0010 A360     		str	r3, [r4, #8]
 168              		.loc 1 123 0
 169 0012 0AD0     		beq	.L7
 170              		.loc 1 124 0
 171 0014 6FF00105 		mvn	r5, #1
ARM GAS  /tmp/cciWq72G.s 			page 4


 172              	.L10:
 173              	.LVL10:
 174              	.LBB16:
 175              	.LBB17:
 176              		.loc 2 62 0
 177 0018 0368     		ldr	r3, [r0, #0]
 178 001a 2360     		str	r3, [r4, #0]
 179 001c 5C60     		str	r4, [r3, #4]
 180              	.LBE17:
 181              	.LBE16:
 182              		.loc 1 124 0
 183 001e FFF7FEFF 		bl	chSchReadyI
 184              	.LVL11:
 185 0022 4562     		str	r5, [r0, #36]
 186              		.loc 1 123 0
 187 0024 2068     		ldr	r0, [r4, #0]
 188 0026 8442     		cmp	r4, r0
 189 0028 F6D1     		bne	.L10
 190              	.LVL12:
 191              	.L7:
 192 002a 38BD     		pop	{r3, r4, r5, pc}
 193              		.cfi_endproc
 194              	.LFE9:
 195              		.size	chIQResetI, .-chIQResetI
 196 002c AFF30080 		.section	.text.chIQPutI,"ax",%progbits
 197              		.align	2
 198              		.p2align 4,,15
 199              		.global	chIQPutI
 200              		.thumb
 201              		.thumb_func
 202              		.type	chIQPutI, %function
 203              	chIQPutI:
 204              	.LFB10:
 205              		.loc 1 140 0
 206              		.cfi_startproc
 207              		@ args = 0, pretend = 0, frame = 0
 208              		@ frame_needed = 0, uses_anonymous_args = 0
 209              	.LVL13:
 210              		.loc 1 144 0
 211 0000 4269     		ldr	r2, [r0, #20]
 212              		.loc 1 140 0
 213 0002 08B5     		push	{r3, lr}
 214              	.LCFI3:
 215              		.cfi_def_cfa_offset 8
 216              		.cfi_offset 14, -4
 217              		.cfi_offset 3, -8
 218              		.loc 1 140 0
 219 0004 0346     		mov	r3, r0
 220              		.loc 1 144 0
 221 0006 8069     		ldr	r0, [r0, #24]
 222              	.LVL14:
 223 0008 8242     		cmp	r2, r0
 224 000a 9868     		ldr	r0, [r3, #8]
 225 000c 1AD0     		beq	.L20
 226              	.L15:
 227              		.loc 1 147 0
 228 000e 0130     		adds	r0, r0, #1
ARM GAS  /tmp/cciWq72G.s 			page 5


 229 0010 9860     		str	r0, [r3, #8]
 230              		.loc 1 148 0
 231 0012 02F8011B 		strb	r1, [r2], #1
 232              		.loc 1 149 0
 233 0016 1969     		ldr	r1, [r3, #16]
 234              	.LVL15:
 235              		.loc 1 148 0
 236 0018 5A61     		str	r2, [r3, #20]
 237              		.loc 1 149 0
 238 001a 8A42     		cmp	r2, r1
 239 001c 0BD2     		bcs	.L16
 240              		.loc 1 152 0
 241 001e 1868     		ldr	r0, [r3, #0]
 242 0020 9842     		cmp	r0, r3
 243 0022 0DD0     		beq	.L19
 244              	.L21:
 245              	.LVL16:
 246              	.LBB18:
 247              	.LBB19:
 248              		.loc 2 62 0
 249 0024 0268     		ldr	r2, [r0, #0]
 250 0026 1A60     		str	r2, [r3, #0]
 251 0028 5360     		str	r3, [r2, #4]
 252              	.LBE19:
 253              	.LBE18:
 254              		.loc 1 153 0
 255 002a FFF7FEFF 		bl	chSchReadyI
 256              	.LVL17:
 257 002e 0023     		movs	r3, #0
 258 0030 4362     		str	r3, [r0, #36]
 259              		.loc 1 155 0
 260 0032 1846     		mov	r0, r3
 261 0034 08BD     		pop	{r3, pc}
 262              	.LVL18:
 263              	.L16:
 264              		.loc 1 152 0
 265 0036 1868     		ldr	r0, [r3, #0]
 266              		.loc 1 150 0
 267 0038 DA68     		ldr	r2, [r3, #12]
 268              		.loc 1 152 0
 269 003a 9842     		cmp	r0, r3
 270              		.loc 1 150 0
 271 003c 5A61     		str	r2, [r3, #20]
 272              		.loc 1 152 0
 273 003e F1D1     		bne	.L21
 274              	.L19:
 275              		.loc 1 155 0
 276 0040 0020     		movs	r0, #0
 277              		.loc 1 156 0
 278 0042 08BD     		pop	{r3, pc}
 279              	.LVL19:
 280              	.L20:
 281              		.loc 1 144 0 discriminator 1
 282 0044 0028     		cmp	r0, #0
 283 0046 E2D0     		beq	.L15
 284              		.loc 1 145 0
 285 0048 6FF00300 		mvn	r0, #3
ARM GAS  /tmp/cciWq72G.s 			page 6


 286 004c 08BD     		pop	{r3, pc}
 287              		.cfi_endproc
 288              	.LFE10:
 289              		.size	chIQPutI, .-chIQPutI
 290 004e 00BF     		.section	.text.chIQGetTimeout,"ax",%progbits
 291              		.align	2
 292              		.p2align 4,,15
 293              		.global	chIQGetTimeout
 294              		.thumb
 295              		.thumb_func
 296              		.type	chIQGetTimeout, %function
 297              	chIQGetTimeout:
 298              	.LFB11:
 299              		.loc 1 178 0
 300              		.cfi_startproc
 301              		@ args = 0, pretend = 0, frame = 0
 302              		@ frame_needed = 0, uses_anonymous_args = 0
 303              	.LVL20:
 304 0000 70B5     		push	{r4, r5, r6, lr}
 305              	.LCFI4:
 306              		.cfi_def_cfa_offset 16
 307              		.cfi_offset 14, -4
 308              		.cfi_offset 6, -8
 309              		.cfi_offset 5, -12
 310              		.cfi_offset 4, -16
 311              	.LBB20:
 312              		.loc 1 181 0
 313 0002 2023     		movs	r3, #32
 314              	.LVL21:
 315              	.LBE20:
 316              		.loc 1 178 0
 317 0004 0446     		mov	r4, r0
 318 0006 0D46     		mov	r5, r1
 319              	.LBB21:
 320              		.loc 1 181 0
 321              	@ 181 "../../os/kernel/src/chqueues.c" 1
 322 0008 83F31188 		msr     BASEPRI, r3
 323              	@ 0 "" 2
 324              	.LVL22:
 325              		.thumb
 326              	.LBE21:
 327              		.loc 1 182 0
 328 000c C369     		ldr	r3, [r0, #28]
 329              	.LVL23:
 330 000e 03B1     		cbz	r3, .L28
 331              		.loc 1 183 0
 332 0010 9847     		blx	r3
 333              	.LVL24:
 334              	.L28:
 335              		.loc 1 185 0 discriminator 1
 336 0012 A668     		ldr	r6, [r4, #8]
 337              	.LBB22:
 338              		.loc 1 187 0 discriminator 1
 339 0014 2046     		mov	r0, r4
 340 0016 2946     		mov	r1, r5
 341              	.LBE22:
 342              		.loc 1 185 0 discriminator 1
ARM GAS  /tmp/cciWq72G.s 			page 7


 343 0018 3EB9     		cbnz	r6, .L30
 344              	.LBB24:
 345              		.loc 1 187 0
 346 001a FFF7FEFF 		bl	qwait
 347              	.LVL25:
 348 001e 0028     		cmp	r0, #0
 349 0020 F7DA     		bge	.L28
 350              	.LBB23:
 351              		.loc 1 188 0
 352 0022 3346     		mov	r3, r6
 353              	.LVL26:
 354              	@ 188 "../../os/kernel/src/chqueues.c" 1
 355 0024 83F31188 		msr     BASEPRI, r3
 356              	@ 0 "" 2
 357              	.LVL27:
 358              		.thumb
 359              	.LBE23:
 360              		.loc 1 189 0
 361 0028 70BD     		pop	{r4, r5, r6, pc}
 362              	.LVL28:
 363              	.L30:
 364              	.LBE24:
 365              		.loc 1 194 0
 366 002a A369     		ldr	r3, [r4, #24]
 367              		.loc 1 195 0
 368 002c 2269     		ldr	r2, [r4, #16]
 369              		.loc 1 193 0
 370 002e 013E     		subs	r6, r6, #1
 371 0030 A660     		str	r6, [r4, #8]
 372              		.loc 1 194 0
 373 0032 13F8010B 		ldrb	r0, [r3], #1	@ zero_extendqisi2
 374              	.LVL29:
 375              		.loc 1 195 0
 376 0036 9342     		cmp	r3, r2
 377              		.loc 1 194 0
 378 0038 A361     		str	r3, [r4, #24]
 379              		.loc 1 196 0
 380 003a 24BF     		itt	cs
 381 003c E368     		ldrcs	r3, [r4, #12]
 382 003e A361     		strcs	r3, [r4, #24]
 383              	.LBB25:
 384              		.loc 1 198 0
 385 0040 0023     		movs	r3, #0
 386              	.LVL30:
 387              	@ 198 "../../os/kernel/src/chqueues.c" 1
 388 0042 83F31188 		msr     BASEPRI, r3
 389              	@ 0 "" 2
 390              	.LVL31:
 391              		.thumb
 392              	.LBE25:
 393              		.loc 1 200 0
 394 0046 70BD     		pop	{r4, r5, r6, pc}
 395              		.cfi_endproc
 396              	.LFE11:
 397              		.size	chIQGetTimeout, .-chIQGetTimeout
 398 0048 AFF30080 		.section	.text.chIQReadTimeout,"ax",%progbits
 398      AFF30080 
ARM GAS  /tmp/cciWq72G.s 			page 8


 399              		.align	2
 400              		.p2align 4,,15
 401              		.global	chIQReadTimeout
 402              		.thumb
 403              		.thumb_func
 404              		.type	chIQReadTimeout, %function
 405              	chIQReadTimeout:
 406              	.LFB12:
 407              		.loc 1 227 0
 408              		.cfi_startproc
 409              		@ args = 0, pretend = 0, frame = 0
 410              		@ frame_needed = 0, uses_anonymous_args = 0
 411              	.LVL32:
 412 0000 2DE9F047 		push	{r4, r5, r6, r7, r8, r9, sl, lr}
 413              	.LCFI5:
 414              		.cfi_def_cfa_offset 32
 415              		.cfi_offset 14, -4
 416              		.cfi_offset 10, -8
 417              		.cfi_offset 9, -12
 418              		.cfi_offset 8, -16
 419              		.cfi_offset 7, -20
 420              		.cfi_offset 6, -24
 421              		.cfi_offset 5, -28
 422              		.cfi_offset 4, -32
 423              		.loc 1 227 0
 424 0004 1D46     		mov	r5, r3
 425 0006 0446     		mov	r4, r0
 426 0008 0E46     		mov	r6, r1
 427 000a 9146     		mov	r9, r2
 428              		.loc 1 228 0
 429 000c D0F81C80 		ldr	r8, [r0, #28]
 430              	.LVL33:
 431              	.LBB26:
 432              		.loc 1 233 0
 433 0010 2023     		movs	r3, #32
 434              	.LVL34:
 435              	@ 233 "../../os/kernel/src/chqueues.c" 1
 436 0012 83F31188 		msr     BASEPRI, r3
 437              	@ 0 "" 2
 438              	.LVL35:
 439              		.loc 1 229 0
 440              		.thumb
 441 0016 0027     		movs	r7, #0
 442              	.LVL36:
 443              	.L37:
 444              	.LBE26:
 445              		.loc 1 235 0
 446 0018 B8F1000F 		cmp	r8, #0
 447 001c 01D0     		beq	.L38
 448              		.loc 1 236 0
 449 001e 2046     		mov	r0, r4
 450              	.LVL37:
 451 0020 C047     		blx	r8
 452              	.LVL38:
 453              	.L38:
 454              		.loc 1 238 0 discriminator 1
 455 0022 D4F808A0 		ldr	sl, [r4, #8]
ARM GAS  /tmp/cciWq72G.s 			page 9


 456              		.loc 1 239 0 discriminator 1
 457 0026 2046     		mov	r0, r4
 458 0028 2946     		mov	r1, r5
 459              		.loc 1 238 0 discriminator 1
 460 002a BAF1000F 		cmp	sl, #0
 461 002e 09D1     		bne	.L40
 462              		.loc 1 239 0
 463 0030 FFF7FEFF 		bl	qwait
 464              	.LVL39:
 465 0034 0028     		cmp	r0, #0
 466 0036 F4D0     		beq	.L38
 467              	.LBB27:
 468              		.loc 1 240 0
 469 0038 5346     		mov	r3, sl
 470              	.LVL40:
 471              	@ 240 "../../os/kernel/src/chqueues.c" 1
 472 003a 83F31188 		msr     BASEPRI, r3
 473              	@ 0 "" 2
 474              	.LVL41:
 475              		.thumb
 476              	.L34:
 477              	.LBE27:
 478              		.loc 1 257 0
 479 003e 3846     		mov	r0, r7
 480 0040 BDE8F087 		pop	{r4, r5, r6, r7, r8, r9, sl, pc}
 481              	.LVL42:
 482              	.L40:
 483              		.loc 1 246 0
 484 0044 A369     		ldr	r3, [r4, #24]
 485              	.LVL43:
 486              		.loc 1 245 0
 487 0046 0AF1FF32 		add	r2, sl, #-1
 488 004a A260     		str	r2, [r4, #8]
 489              		.loc 1 246 0
 490 004c 13F8012B 		ldrb	r2, [r3], #1	@ zero_extendqisi2
 491 0050 F255     		strb	r2, [r6, r7]
 492              		.loc 1 247 0
 493 0052 2269     		ldr	r2, [r4, #16]
 494              		.loc 1 246 0
 495 0054 A361     		str	r3, [r4, #24]
 496              		.loc 1 247 0
 497 0056 9342     		cmp	r3, r2
 498              		.loc 1 248 0
 499 0058 24BF     		itt	cs
 500 005a E368     		ldrcs	r3, [r4, #12]
 501 005c A361     		strcs	r3, [r4, #24]
 502              	.LBB28:
 503              		.loc 1 250 0
 504 005e 0023     		movs	r3, #0
 505              	@ 250 "../../os/kernel/src/chqueues.c" 1
 506 0060 83F31188 		msr     BASEPRI, r3
 507              	@ 0 "" 2
 508              	.LVL44:
 509              		.thumb
 510              	.LBE28:
 511              		.loc 1 251 0
 512 0064 0137     		adds	r7, r7, #1
ARM GAS  /tmp/cciWq72G.s 			page 10


 513              	.LVL45:
 514              		.loc 1 252 0
 515 0066 B945     		cmp	r9, r7
 516 0068 E9D0     		beq	.L34
 517              	.LBB29:
 518              		.loc 1 255 0
 519 006a 2023     		movs	r3, #32
 520              	.LVL46:
 521              	@ 255 "../../os/kernel/src/chqueues.c" 1
 522 006c 83F31188 		msr     BASEPRI, r3
 523              	@ 0 "" 2
 524              	.LVL47:
 525              		.thumb
 526              	.LBE29:
 527              		.loc 1 256 0
 528 0070 D2E7     		b	.L37
 529              		.cfi_endproc
 530              	.LFE12:
 531              		.size	chIQReadTimeout, .-chIQReadTimeout
 532 0072 00BFAFF3 		.section	.text.chOQInit,"ax",%progbits
 532      0080AFF3 
 532      0080AFF3 
 532      0080
 533              		.align	2
 534              		.p2align 4,,15
 535              		.global	chOQInit
 536              		.thumb
 537              		.thumb_func
 538              		.type	chOQInit, %function
 539              	chOQInit:
 540              	.LFB13:
 541              		.loc 1 276 0
 542              		.cfi_startproc
 543              		@ args = 4, pretend = 0, frame = 0
 544              		@ frame_needed = 0, uses_anonymous_args = 0
 545              		@ link register save eliminated.
 546              	.LVL48:
 547 0000 10B4     		push	{r4}
 548              	.LCFI6:
 549              		.cfi_def_cfa_offset 4
 550              		.cfi_offset 4, -4
 551              		.loc 1 282 0
 552 0002 C361     		str	r3, [r0, #28]
 553              		.loc 1 283 0
 554 0004 019B     		ldr	r3, [sp, #4]
 555              	.LVL49:
 556              		.loc 1 278 0
 557 0006 4060     		str	r0, [r0, #4]
 558              		.loc 1 281 0
 559 0008 8C18     		adds	r4, r1, r2
 560              		.loc 1 278 0
 561 000a 0060     		str	r0, [r0, #0]
 562              		.loc 1 279 0
 563 000c 8260     		str	r2, [r0, #8]
 564              		.loc 1 280 0
 565 000e 4161     		str	r1, [r0, #20]
 566 0010 8161     		str	r1, [r0, #24]
ARM GAS  /tmp/cciWq72G.s 			page 11


 567 0012 C160     		str	r1, [r0, #12]
 568              		.loc 1 281 0
 569 0014 0461     		str	r4, [r0, #16]
 570              		.loc 1 283 0
 571 0016 0362     		str	r3, [r0, #32]
 572              		.loc 1 284 0
 573 0018 10BC     		pop	{r4}
 574 001a 7047     		bx	lr
 575              		.cfi_endproc
 576              	.LFE13:
 577              		.size	chOQInit, .-chOQInit
 578 001c AFF30080 		.section	.text.chOQResetI,"ax",%progbits
 579              		.align	2
 580              		.p2align 4,,15
 581              		.global	chOQResetI
 582              		.thumb
 583              		.thumb_func
 584              		.type	chOQResetI, %function
 585              	chOQResetI:
 586              	.LFB14:
 587              		.loc 1 297 0
 588              		.cfi_startproc
 589              		@ args = 0, pretend = 0, frame = 0
 590              		@ frame_needed = 0, uses_anonymous_args = 0
 591              	.LVL50:
 592 0000 38B5     		push	{r3, r4, r5, lr}
 593              	.LCFI7:
 594              		.cfi_def_cfa_offset 16
 595              		.cfi_offset 14, -4
 596              		.cfi_offset 5, -8
 597              		.cfi_offset 4, -12
 598              		.cfi_offset 3, -16
 599              		.loc 1 302 0
 600 0002 0269     		ldr	r2, [r0, #16]
 601              		.loc 1 301 0
 602 0004 C368     		ldr	r3, [r0, #12]
 603              		.loc 1 297 0
 604 0006 0446     		mov	r4, r0
 605              		.loc 1 303 0
 606 0008 0068     		ldr	r0, [r0, #0]
 607              	.LVL51:
 608              		.loc 1 301 0
 609 000a 6361     		str	r3, [r4, #20]
 610              		.loc 1 302 0
 611 000c D21A     		subs	r2, r2, r3
 612              		.loc 1 303 0
 613 000e A042     		cmp	r0, r4
 614              		.loc 1 301 0
 615 0010 A361     		str	r3, [r4, #24]
 616              		.loc 1 302 0
 617 0012 A260     		str	r2, [r4, #8]
 618              		.loc 1 303 0
 619 0014 0AD0     		beq	.L42
 620              		.loc 1 304 0
 621 0016 6FF00105 		mvn	r5, #1
 622              	.L45:
 623              	.LVL52:
ARM GAS  /tmp/cciWq72G.s 			page 12


 624              	.LBB30:
 625              	.LBB31:
 626              		.loc 2 62 0
 627 001a 0368     		ldr	r3, [r0, #0]
 628 001c 2360     		str	r3, [r4, #0]
 629 001e 5C60     		str	r4, [r3, #4]
 630              	.LBE31:
 631              	.LBE30:
 632              		.loc 1 304 0
 633 0020 FFF7FEFF 		bl	chSchReadyI
 634              	.LVL53:
 635 0024 4562     		str	r5, [r0, #36]
 636              		.loc 1 303 0
 637 0026 2068     		ldr	r0, [r4, #0]
 638 0028 8442     		cmp	r4, r0
 639 002a F6D1     		bne	.L45
 640              	.LVL54:
 641              	.L42:
 642 002c 38BD     		pop	{r3, r4, r5, pc}
 643              		.cfi_endproc
 644              	.LFE14:
 645              		.size	chOQResetI, .-chOQResetI
 646 002e 00BF     		.section	.text.chOQPutTimeout,"ax",%progbits
 647              		.align	2
 648              		.p2align 4,,15
 649              		.global	chOQPutTimeout
 650              		.thumb
 651              		.thumb_func
 652              		.type	chOQPutTimeout, %function
 653              	chOQPutTimeout:
 654              	.LFB15:
 655              		.loc 1 329 0
 656              		.cfi_startproc
 657              		@ args = 0, pretend = 0, frame = 0
 658              		@ frame_needed = 0, uses_anonymous_args = 0
 659              	.LVL55:
 660 0000 F8B5     		push	{r3, r4, r5, r6, r7, lr}
 661              	.LCFI8:
 662              		.cfi_def_cfa_offset 24
 663              		.cfi_offset 14, -4
 664              		.cfi_offset 7, -8
 665              		.cfi_offset 6, -12
 666              		.cfi_offset 5, -16
 667              		.cfi_offset 4, -20
 668              		.cfi_offset 3, -24
 669              		.loc 1 329 0
 670 0002 0446     		mov	r4, r0
 671 0004 0D46     		mov	r5, r1
 672 0006 1646     		mov	r6, r2
 673              	.LBB32:
 674              		.loc 1 331 0
 675 0008 2023     		movs	r3, #32
 676              	.LVL56:
 677              	@ 331 "../../os/kernel/src/chqueues.c" 1
 678 000a 83F31188 		msr     BASEPRI, r3
 679              	@ 0 "" 2
 680              	.LVL57:
ARM GAS  /tmp/cciWq72G.s 			page 13


 681              		.thumb
 682              	.L48:
 683              	.LBE32:
 684              		.loc 1 332 0 discriminator 1
 685 000e A768     		ldr	r7, [r4, #8]
 686              	.LBB33:
 687              		.loc 1 335 0 discriminator 1
 688 0010 2046     		mov	r0, r4
 689 0012 3146     		mov	r1, r6
 690              	.LBE33:
 691              		.loc 1 332 0 discriminator 1
 692 0014 3FB9     		cbnz	r7, .L54
 693              	.LBB35:
 694              		.loc 1 335 0
 695 0016 FFF7FEFF 		bl	qwait
 696              	.LVL58:
 697 001a 0028     		cmp	r0, #0
 698 001c F7DA     		bge	.L48
 699              	.LBB34:
 700              		.loc 1 336 0
 701 001e 3B46     		mov	r3, r7
 702              	.LVL59:
 703              	@ 336 "../../os/kernel/src/chqueues.c" 1
 704 0020 83F31188 		msr     BASEPRI, r3
 705              	@ 0 "" 2
 706              	.LVL60:
 707              		.thumb
 708              	.LBE34:
 709              		.loc 1 337 0
 710 0024 F8BD     		pop	{r3, r4, r5, r6, r7, pc}
 711              	.LVL61:
 712              	.L54:
 713              	.LBE35:
 714              		.loc 1 342 0
 715 0026 6369     		ldr	r3, [r4, #20]
 716              	.LVL62:
 717              		.loc 1 341 0
 718 0028 013F     		subs	r7, r7, #1
 719 002a A760     		str	r7, [r4, #8]
 720              		.loc 1 342 0
 721 002c 03F8015B 		strb	r5, [r3], #1
 722              		.loc 1 343 0
 723 0030 2269     		ldr	r2, [r4, #16]
 724              		.loc 1 342 0
 725 0032 6361     		str	r3, [r4, #20]
 726              		.loc 1 343 0
 727 0034 9342     		cmp	r3, r2
 728              		.loc 1 344 0
 729 0036 24BF     		itt	cs
 730 0038 E368     		ldrcs	r3, [r4, #12]
 731 003a 6361     		strcs	r3, [r4, #20]
 732              		.loc 1 346 0
 733 003c E369     		ldr	r3, [r4, #28]
 734 003e 0BB1     		cbz	r3, .L52
 735              		.loc 1 347 0
 736 0040 2046     		mov	r0, r4
 737 0042 9847     		blx	r3
ARM GAS  /tmp/cciWq72G.s 			page 14


 738              	.L52:
 739              	.LBB36:
 740              		.loc 1 349 0
 741 0044 0023     		movs	r3, #0
 742              	.LVL63:
 743              	@ 349 "../../os/kernel/src/chqueues.c" 1
 744 0046 83F31188 		msr     BASEPRI, r3
 745              	@ 0 "" 2
 746              	.LVL64:
 747              		.thumb
 748              	.LBE36:
 749              		.loc 1 350 0
 750 004a 1846     		mov	r0, r3
 751              		.loc 1 351 0
 752 004c F8BD     		pop	{r3, r4, r5, r6, r7, pc}
 753              		.cfi_endproc
 754              	.LFE15:
 755              		.size	chOQPutTimeout, .-chOQPutTimeout
 756              		.section	.text.chOQGetI,"ax",%progbits
 757              		.align	2
 758              		.p2align 4,,15
 759              		.global	chOQGetI
 760              		.thumb
 761              		.thumb_func
 762              		.type	chOQGetI, %function
 763              	chOQGetI:
 764              	.LFB16:
 765              		.loc 1 363 0
 766              		.cfi_startproc
 767              		@ args = 0, pretend = 0, frame = 0
 768              		@ frame_needed = 0, uses_anonymous_args = 0
 769              	.LVL65:
 770              		.loc 1 368 0
 771 0000 4169     		ldr	r1, [r0, #20]
 772 0002 8269     		ldr	r2, [r0, #24]
 773 0004 9142     		cmp	r1, r2
 774              		.loc 1 363 0
 775 0006 10B5     		push	{r4, lr}
 776              	.LCFI9:
 777              		.cfi_def_cfa_offset 8
 778              		.cfi_offset 14, -4
 779              		.cfi_offset 4, -8
 780              		.loc 1 363 0
 781 0008 0346     		mov	r3, r0
 782              		.loc 1 368 0
 783 000a 8168     		ldr	r1, [r0, #8]
 784 000c 16D0     		beq	.L63
 785              	.L58:
 786              		.loc 1 371 0
 787 000e 0131     		adds	r1, r1, #1
 788 0010 9960     		str	r1, [r3, #8]
 789              		.loc 1 372 0
 790 0012 12F8014B 		ldrb	r4, [r2], #1	@ zero_extendqisi2
 791              	.LVL66:
 792              		.loc 1 373 0
 793 0016 1969     		ldr	r1, [r3, #16]
 794              		.loc 1 372 0
ARM GAS  /tmp/cciWq72G.s 			page 15


 795 0018 9A61     		str	r2, [r3, #24]
 796              		.loc 1 373 0
 797 001a 8A42     		cmp	r2, r1
 798 001c 0BD2     		bcs	.L60
 799              	.L61:
 800              		.loc 1 376 0
 801 001e 1868     		ldr	r0, [r3, #0]
 802              	.LVL67:
 803 0020 9842     		cmp	r0, r3
 804 0022 06D0     		beq	.L59
 805              	.LVL68:
 806              	.LBB37:
 807              	.LBB38:
 808              		.loc 2 62 0
 809 0024 0268     		ldr	r2, [r0, #0]
 810 0026 1A60     		str	r2, [r3, #0]
 811 0028 5360     		str	r3, [r2, #4]
 812              	.LBE38:
 813              	.LBE37:
 814              		.loc 1 377 0
 815 002a FFF7FEFF 		bl	chSchReadyI
 816              	.LVL69:
 817 002e 0023     		movs	r3, #0
 818 0030 4362     		str	r3, [r0, #36]
 819              	.L59:
 820              		.loc 1 379 0
 821 0032 2046     		mov	r0, r4
 822 0034 10BD     		pop	{r4, pc}
 823              	.LVL70:
 824              	.L60:
 825              		.loc 1 374 0
 826 0036 DA68     		ldr	r2, [r3, #12]
 827 0038 9A61     		str	r2, [r3, #24]
 828 003a F0E7     		b	.L61
 829              	.LVL71:
 830              	.L63:
 831              		.loc 1 368 0 discriminator 1
 832 003c 0029     		cmp	r1, #0
 833 003e E6D0     		beq	.L58
 834              		.loc 1 369 0
 835 0040 6FF00200 		mvn	r0, #2
 836              	.LVL72:
 837              		.loc 1 380 0
 838 0044 10BD     		pop	{r4, pc}
 839              		.cfi_endproc
 840              	.LFE16:
 841              		.size	chOQGetI, .-chOQGetI
 842 0046 00BFAFF3 		.section	.text.chOQWriteTimeout,"ax",%progbits
 842      0080AFF3 
 842      0080
 843              		.align	2
 844              		.p2align 4,,15
 845              		.global	chOQWriteTimeout
 846              		.thumb
 847              		.thumb_func
 848              		.type	chOQWriteTimeout, %function
 849              	chOQWriteTimeout:
ARM GAS  /tmp/cciWq72G.s 			page 16


 850              	.LFB17:
 851              		.loc 1 407 0
 852              		.cfi_startproc
 853              		@ args = 0, pretend = 0, frame = 0
 854              		@ frame_needed = 0, uses_anonymous_args = 0
 855              	.LVL73:
 856 0000 2DE9F047 		push	{r4, r5, r6, r7, r8, r9, sl, lr}
 857              	.LCFI10:
 858              		.cfi_def_cfa_offset 32
 859              		.cfi_offset 14, -4
 860              		.cfi_offset 10, -8
 861              		.cfi_offset 9, -12
 862              		.cfi_offset 8, -16
 863              		.cfi_offset 7, -20
 864              		.cfi_offset 6, -24
 865              		.cfi_offset 5, -28
 866              		.cfi_offset 4, -32
 867              		.loc 1 407 0
 868 0004 1E46     		mov	r6, r3
 869 0006 0446     		mov	r4, r0
 870 0008 0D46     		mov	r5, r1
 871 000a 1746     		mov	r7, r2
 872              		.loc 1 408 0
 873 000c D0F81C90 		ldr	r9, [r0, #28]
 874              	.LVL74:
 875              	.LBB39:
 876              		.loc 1 413 0
 877 0010 2023     		movs	r3, #32
 878              	.LVL75:
 879              	@ 413 "../../os/kernel/src/chqueues.c" 1
 880 0012 83F31188 		msr     BASEPRI, r3
 881              	@ 0 "" 2
 882              	.LVL76:
 883              		.loc 1 409 0
 884              		.thumb
 885 0016 4FF00008 		mov	r8, #0
 886              	.LVL77:
 887              	.L73:
 888              	.LBE39:
 889              		.loc 1 415 0 discriminator 1
 890 001a D4F808A0 		ldr	sl, [r4, #8]
 891              		.loc 1 427 0 discriminator 1
 892 001e 2046     		mov	r0, r4
 893              		.loc 1 421 0 discriminator 1
 894 0020 0AF1FF33 		add	r3, sl, #-1
 895              	.LVL78:
 896              		.loc 1 415 0 discriminator 1
 897 0024 BAF1000F 		cmp	sl, #0
 898 0028 21D0     		beq	.L68
 899              	.L74:
 900              		.loc 1 421 0
 901 002a A360     		str	r3, [r4, #8]
 902              		.loc 1 422 0
 903 002c 2A78     		ldrb	r2, [r5, #0]	@ zero_extendqisi2
 904 002e 6369     		ldr	r3, [r4, #20]
 905 0030 03F8012B 		strb	r2, [r3], #1
 906              		.loc 1 423 0
ARM GAS  /tmp/cciWq72G.s 			page 17


 907 0034 2269     		ldr	r2, [r4, #16]
 908              		.loc 1 422 0
 909 0036 6361     		str	r3, [r4, #20]
 910              	.LVL79:
 911              		.loc 1 423 0
 912 0038 9342     		cmp	r3, r2
 913              		.loc 1 424 0
 914 003a 24BF     		itt	cs
 915 003c E368     		ldrcs	r3, [r4, #12]
 916 003e 6361     		strcs	r3, [r4, #20]
 917              		.loc 1 426 0
 918 0040 B9F1000F 		cmp	r9, #0
 919 0044 00D0     		beq	.L70
 920              		.loc 1 427 0
 921 0046 C847     		blx	r9
 922              	.L70:
 923              	.LBB40:
 924              		.loc 1 429 0
 925 0048 0023     		movs	r3, #0
 926              	.LVL80:
 927              	@ 429 "../../os/kernel/src/chqueues.c" 1
 928 004a 83F31188 		msr     BASEPRI, r3
 929              	@ 0 "" 2
 930              	.LVL81:
 931              		.thumb
 932              	.LBE40:
 933              		.loc 1 431 0
 934 004e 013F     		subs	r7, r7, #1
 935              	.LVL82:
 936              		.loc 1 430 0
 937 0050 08F10108 		add	r8, r8, #1
 938              	.LVL83:
 939              		.loc 1 431 0
 940 0054 14D0     		beq	.L67
 941              		.loc 1 422 0
 942 0056 0135     		adds	r5, r5, #1
 943              	.LVL84:
 944              	.LBB41:
 945              		.loc 1 433 0
 946 0058 2023     		movs	r3, #32
 947              	.LVL85:
 948              	@ 433 "../../os/kernel/src/chqueues.c" 1
 949 005a 83F31188 		msr     BASEPRI, r3
 950              	@ 0 "" 2
 951              	.LVL86:
 952              		.thumb
 953              	.LBE41:
 954              		.loc 1 415 0
 955 005e D4F808A0 		ldr	sl, [r4, #8]
 956              		.loc 1 427 0
 957 0062 2046     		mov	r0, r4
 958              		.loc 1 421 0
 959 0064 0AF1FF33 		add	r3, sl, #-1
 960              	.LVL87:
 961              		.loc 1 415 0
 962 0068 BAF1000F 		cmp	sl, #0
 963 006c DDD1     		bne	.L74
ARM GAS  /tmp/cciWq72G.s 			page 18


 964              	.L68:
 965              		.loc 1 416 0
 966 006e 2046     		mov	r0, r4
 967 0070 3146     		mov	r1, r6
 968 0072 FFF7FEFF 		bl	qwait
 969 0076 0028     		cmp	r0, #0
 970 0078 CFD0     		beq	.L73
 971              	.LBB42:
 972              		.loc 1 417 0
 973 007a 5346     		mov	r3, sl
 974              	.LVL88:
 975              	@ 417 "../../os/kernel/src/chqueues.c" 1
 976 007c 83F31188 		msr     BASEPRI, r3
 977              	@ 0 "" 2
 978              	.LVL89:
 979              		.thumb
 980              	.L67:
 981              	.LBE42:
 982              		.loc 1 435 0
 983 0080 4046     		mov	r0, r8
 984 0082 BDE8F087 		pop	{r4, r5, r6, r7, r8, r9, sl, pc}
 985              		.cfi_endproc
 986              	.LFE17:
 987              		.size	chOQWriteTimeout, .-chOQWriteTimeout
 988 0086 00BFAFF3 		.text
 988      0080AFF3 
 988      0080
 989              	.Letext0:
 990              		.file 3 "/opt/paparazzi/arm-multilib/lib/gcc/arm-none-eabi/4.6.2/include/stddef.h"
 991              		.file 4 "/opt/paparazzi/arm-multilib/lib/gcc/arm-none-eabi/4.6.2/../../../../arm-none-eabi/include
 992              		.file 5 "../../os/ports/GCC/ARMCMx/chtypes.h"
 993              		.file 6 "../../os/kernel/include/chlists.h"
 994              		.file 7 "../../os/kernel/include/chthreads.h"
 995              		.file 8 "../../os/ports/GCC/ARMCMx/chcore_v7m.h"
 996              		.file 9 "../../os/kernel/include/chschd.h"
 997              		.file 10 "../../os/kernel/include/chmtx.h"
 998              		.file 11 "../../os/kernel/include/chqueues.h"
 999              		.section	.debug_info,"",%progbits
 1000              	.Ldebug_info0:
 1001 0000 5E0B0000 		.4byte	0xb5e
 1002 0004 0200     		.2byte	0x2
 1003 0006 00000000 		.4byte	.Ldebug_abbrev0
 1004 000a 04       		.byte	0x4
 1005 000b 01       		.uleb128 0x1
 1006 000c B5010000 		.4byte	.LASF92
 1007 0010 01       		.byte	0x1
 1008 0011 E3010000 		.4byte	.LASF93
 1009 0015 C0000000 		.4byte	.LASF94
 1010 0019 00000000 		.4byte	0
 1011 001d 00000000 		.4byte	0
 1012 0021 60000000 		.4byte	.Ldebug_ranges0+0x60
 1013 0025 00000000 		.4byte	.Ldebug_line0
 1014 0029 02       		.uleb128 0x2
 1015 002a 04       		.byte	0x4
 1016 002b 05       		.byte	0x5
 1017 002c 696E7400 		.ascii	"int\000"
 1018 0030 03       		.uleb128 0x3
ARM GAS  /tmp/cciWq72G.s 			page 19


 1019 0031 21000000 		.4byte	.LASF2
 1020 0035 03       		.byte	0x3
 1021 0036 D4       		.byte	0xd4
 1022 0037 3B000000 		.4byte	0x3b
 1023 003b 04       		.uleb128 0x4
 1024 003c 04       		.byte	0x4
 1025 003d 07       		.byte	0x7
 1026 003e 6B010000 		.4byte	.LASF0
 1027 0042 04       		.uleb128 0x4
 1028 0043 01       		.byte	0x1
 1029 0044 06       		.byte	0x6
 1030 0045 93000000 		.4byte	.LASF1
 1031 0049 03       		.uleb128 0x3
 1032 004a B4030000 		.4byte	.LASF3
 1033 004e 04       		.byte	0x4
 1034 004f 2A       		.byte	0x2a
 1035 0050 54000000 		.4byte	0x54
 1036 0054 04       		.uleb128 0x4
 1037 0055 01       		.byte	0x1
 1038 0056 08       		.byte	0x8
 1039 0057 BC020000 		.4byte	.LASF4
 1040 005b 04       		.uleb128 0x4
 1041 005c 02       		.byte	0x2
 1042 005d 05       		.byte	0x5
 1043 005e D4020000 		.4byte	.LASF5
 1044 0062 04       		.uleb128 0x4
 1045 0063 02       		.byte	0x2
 1046 0064 07       		.byte	0x7
 1047 0065 A2010000 		.4byte	.LASF6
 1048 0069 03       		.uleb128 0x3
 1049 006a B4020000 		.4byte	.LASF7
 1050 006e 04       		.byte	0x4
 1051 006f 4F       		.byte	0x4f
 1052 0070 74000000 		.4byte	0x74
 1053 0074 04       		.uleb128 0x4
 1054 0075 04       		.byte	0x4
 1055 0076 05       		.byte	0x5
 1056 0077 09010000 		.4byte	.LASF8
 1057 007b 03       		.uleb128 0x3
 1058 007c 27030000 		.4byte	.LASF9
 1059 0080 04       		.byte	0x4
 1060 0081 50       		.byte	0x50
 1061 0082 86000000 		.4byte	0x86
 1062 0086 04       		.uleb128 0x4
 1063 0087 04       		.byte	0x4
 1064 0088 07       		.byte	0x7
 1065 0089 83010000 		.4byte	.LASF10
 1066 008d 04       		.uleb128 0x4
 1067 008e 08       		.byte	0x8
 1068 008f 05       		.byte	0x5
 1069 0090 85000000 		.4byte	.LASF11
 1070 0094 04       		.uleb128 0x4
 1071 0095 08       		.byte	0x8
 1072 0096 07       		.byte	0x7
 1073 0097 54000000 		.4byte	.LASF12
 1074 009b 03       		.uleb128 0x3
 1075 009c A7000000 		.4byte	.LASF13
ARM GAS  /tmp/cciWq72G.s 			page 20


 1076 00a0 05       		.byte	0x5
 1077 00a1 2B       		.byte	0x2b
 1078 00a2 A6000000 		.4byte	0xa6
 1079 00a6 04       		.uleb128 0x4
 1080 00a7 01       		.byte	0x1
 1081 00a8 02       		.byte	0x2
 1082 00a9 AE020000 		.4byte	.LASF14
 1083 00ad 03       		.uleb128 0x3
 1084 00ae 05030000 		.4byte	.LASF15
 1085 00b2 05       		.byte	0x5
 1086 00b3 2C       		.byte	0x2c
 1087 00b4 49000000 		.4byte	0x49
 1088 00b8 03       		.uleb128 0x3
 1089 00b9 12010000 		.4byte	.LASF16
 1090 00bd 05       		.byte	0x5
 1091 00be 2D       		.byte	0x2d
 1092 00bf 49000000 		.4byte	0x49
 1093 00c3 03       		.uleb128 0x3
 1094 00c4 85020000 		.4byte	.LASF17
 1095 00c8 05       		.byte	0x5
 1096 00c9 2E       		.byte	0x2e
 1097 00ca 49000000 		.4byte	0x49
 1098 00ce 03       		.uleb128 0x3
 1099 00cf B6000000 		.4byte	.LASF18
 1100 00d3 05       		.byte	0x5
 1101 00d4 2F       		.byte	0x2f
 1102 00d5 49000000 		.4byte	0x49
 1103 00d9 03       		.uleb128 0x3
 1104 00da 9E020000 		.4byte	.LASF19
 1105 00de 05       		.byte	0x5
 1106 00df 30       		.byte	0x30
 1107 00e0 7B000000 		.4byte	0x7b
 1108 00e4 03       		.uleb128 0x3
 1109 00e5 DD010000 		.4byte	.LASF20
 1110 00e9 05       		.byte	0x5
 1111 00ea 31       		.byte	0x31
 1112 00eb 69000000 		.4byte	0x69
 1113 00ef 03       		.uleb128 0x3
 1114 00f0 0E020000 		.4byte	.LASF21
 1115 00f4 05       		.byte	0x5
 1116 00f5 33       		.byte	0x33
 1117 00f6 7B000000 		.4byte	0x7b
 1118 00fa 03       		.uleb128 0x3
 1119 00fb 50030000 		.4byte	.LASF22
 1120 00ff 05       		.byte	0x5
 1121 0100 35       		.byte	0x35
 1122 0101 7B000000 		.4byte	0x7b
 1123 0105 03       		.uleb128 0x3
 1124 0106 15030000 		.4byte	.LASF23
 1125 010a 06       		.byte	0x6
 1126 010b 2A       		.byte	0x2a
 1127 010c 10010000 		.4byte	0x110
 1128 0110 05       		.uleb128 0x5
 1129 0111 15030000 		.4byte	.LASF23
 1130 0115 48       		.byte	0x48
 1131 0116 07       		.byte	0x7
 1132 0117 5E       		.byte	0x5e
ARM GAS  /tmp/cciWq72G.s 			page 21


 1133 0118 35020000 		.4byte	0x235
 1134 011c 06       		.uleb128 0x6
 1135 011d FE020000 		.4byte	.LASF24
 1136 0121 07       		.byte	0x7
 1137 0122 5F       		.byte	0x5f
 1138 0123 5A020000 		.4byte	0x25a
 1139 0127 02       		.byte	0x2
 1140 0128 23       		.byte	0x23
 1141 0129 00       		.uleb128 0
 1142 012a 06       		.uleb128 0x6
 1143 012b 97020000 		.4byte	.LASF25
 1144 012f 07       		.byte	0x7
 1145 0130 61       		.byte	0x61
 1146 0131 5A020000 		.4byte	0x25a
 1147 0135 02       		.byte	0x2
 1148 0136 23       		.byte	0x23
 1149 0137 04       		.uleb128 0x4
 1150 0138 06       		.uleb128 0x6
 1151 0139 74000000 		.4byte	.LASF26
 1152 013d 07       		.byte	0x7
 1153 013e 63       		.byte	0x63
 1154 013f D9000000 		.4byte	0xd9
 1155 0143 02       		.byte	0x2
 1156 0144 23       		.byte	0x23
 1157 0145 08       		.uleb128 0x8
 1158 0146 06       		.uleb128 0x6
 1159 0147 D9030000 		.4byte	.LASF27
 1160 014b 07       		.byte	0x7
 1161 014c 64       		.byte	0x64
 1162 014d 28030000 		.4byte	0x328
 1163 0151 02       		.byte	0x2
 1164 0152 23       		.byte	0x23
 1165 0153 0C       		.uleb128 0xc
 1166 0154 06       		.uleb128 0x6
 1167 0155 35010000 		.4byte	.LASF28
 1168 0159 07       		.byte	0x7
 1169 015a 66       		.byte	0x66
 1170 015b 5A020000 		.4byte	0x25a
 1171 015f 02       		.byte	0x2
 1172 0160 23       		.byte	0x23
 1173 0161 10       		.uleb128 0x10
 1174 0162 06       		.uleb128 0x6
 1175 0163 53020000 		.4byte	.LASF29
 1176 0167 07       		.byte	0x7
 1177 0168 67       		.byte	0x67
 1178 0169 5A020000 		.4byte	0x25a
 1179 016d 02       		.byte	0x2
 1180 016e 23       		.byte	0x23
 1181 016f 14       		.uleb128 0x14
 1182 0170 06       		.uleb128 0x6
 1183 0171 C3030000 		.4byte	.LASF30
 1184 0175 07       		.byte	0x7
 1185 0176 6E       		.byte	0x6e
 1186 0177 35040000 		.4byte	0x435
 1187 017b 02       		.byte	0x2
 1188 017c 23       		.byte	0x23
 1189 017d 18       		.uleb128 0x18
ARM GAS  /tmp/cciWq72G.s 			page 22


 1190 017e 06       		.uleb128 0x6
 1191 017f DE020000 		.4byte	.LASF31
 1192 0183 07       		.byte	0x7
 1193 0184 79       		.byte	0x79
 1194 0185 B8000000 		.4byte	0xb8
 1195 0189 02       		.byte	0x2
 1196 018a 23       		.byte	0x23
 1197 018b 1C       		.uleb128 0x1c
 1198 018c 06       		.uleb128 0x6
 1199 018d 0D030000 		.4byte	.LASF32
 1200 0191 07       		.byte	0x7
 1201 0192 7D       		.byte	0x7d
 1202 0193 AD000000 		.4byte	0xad
 1203 0197 02       		.byte	0x2
 1204 0198 23       		.byte	0x23
 1205 0199 1D       		.uleb128 0x1d
 1206 019a 06       		.uleb128 0x6
 1207 019b 94030000 		.4byte	.LASF33
 1208 019f 07       		.byte	0x7
 1209 01a0 82       		.byte	0x82
 1210 01a1 C3000000 		.4byte	0xc3
 1211 01a5 02       		.byte	0x2
 1212 01a6 23       		.byte	0x23
 1213 01a7 1E       		.uleb128 0x1e
 1214 01a8 06       		.uleb128 0x6
 1215 01a9 E6020000 		.4byte	.LASF34
 1216 01ad 07       		.byte	0x7
 1217 01ae 88       		.byte	0x88
 1218 01af CE000000 		.4byte	0xce
 1219 01b3 02       		.byte	0x2
 1220 01b4 23       		.byte	0x23
 1221 01b5 1F       		.uleb128 0x1f
 1222 01b6 06       		.uleb128 0x6
 1223 01b7 75030000 		.4byte	.LASF35
 1224 01bb 07       		.byte	0x7
 1225 01bc 8F       		.byte	0x8f
 1226 01bd 4B030000 		.4byte	0x34b
 1227 01c1 02       		.byte	0x2
 1228 01c2 23       		.byte	0x23
 1229 01c3 20       		.uleb128 0x20
 1230 01c4 07       		.uleb128 0x7
 1231 01c5 705F7500 		.ascii	"p_u\000"
 1232 01c9 07       		.byte	0x7
 1233 01ca B4       		.byte	0xb4
 1234 01cb 00040000 		.4byte	0x400
 1235 01cf 02       		.byte	0x2
 1236 01d0 23       		.byte	0x23
 1237 01d1 24       		.uleb128 0x24
 1238 01d2 06       		.uleb128 0x6
 1239 01d3 DF030000 		.4byte	.LASF36
 1240 01d7 07       		.byte	0x7
 1241 01d8 B9       		.byte	0xb9
 1242 01d9 82020000 		.4byte	0x282
 1243 01dd 02       		.byte	0x2
 1244 01de 23       		.byte	0x23
 1245 01df 28       		.uleb128 0x28
 1246 01e0 06       		.uleb128 0x6
ARM GAS  /tmp/cciWq72G.s 			page 23


 1247 01e1 83030000 		.4byte	.LASF37
 1248 01e5 07       		.byte	0x7
 1249 01e6 BF       		.byte	0xbf
 1250 01e7 60020000 		.4byte	0x260
 1251 01eb 02       		.byte	0x2
 1252 01ec 23       		.byte	0x23
 1253 01ed 2C       		.uleb128 0x2c
 1254 01ee 06       		.uleb128 0x6
 1255 01ef 09000000 		.4byte	.LASF38
 1256 01f3 07       		.byte	0x7
 1257 01f4 C3       		.byte	0xc3
 1258 01f5 E4000000 		.4byte	0xe4
 1259 01f9 02       		.byte	0x2
 1260 01fa 23       		.byte	0x23
 1261 01fb 34       		.uleb128 0x34
 1262 01fc 06       		.uleb128 0x6
 1263 01fd 1C030000 		.4byte	.LASF39
 1264 0201 07       		.byte	0x7
 1265 0202 C9       		.byte	0xc9
 1266 0203 EF000000 		.4byte	0xef
 1267 0207 02       		.byte	0x2
 1268 0208 23       		.byte	0x23
 1269 0209 38       		.uleb128 0x38
 1270 020a 06       		.uleb128 0x6
 1271 020b CA020000 		.4byte	.LASF40
 1272 020f 07       		.byte	0x7
 1273 0210 D0       		.byte	0xd0
 1274 0211 47040000 		.4byte	0x447
 1275 0215 02       		.byte	0x2
 1276 0216 23       		.byte	0x23
 1277 0217 3C       		.uleb128 0x3c
 1278 0218 06       		.uleb128 0x6
 1279 0219 5A030000 		.4byte	.LASF41
 1280 021d 07       		.byte	0x7
 1281 021e D4       		.byte	0xd4
 1282 021f D9000000 		.4byte	0xd9
 1283 0223 02       		.byte	0x2
 1284 0224 23       		.byte	0x23
 1285 0225 40       		.uleb128 0x40
 1286 0226 06       		.uleb128 0x6
 1287 0227 9F000000 		.4byte	.LASF42
 1288 022b 07       		.byte	0x7
 1289 022c DA       		.byte	0xda
 1290 022d 98020000 		.4byte	0x298
 1291 0231 02       		.byte	0x2
 1292 0232 23       		.byte	0x23
 1293 0233 44       		.uleb128 0x44
 1294 0234 00       		.byte	0
 1295 0235 08       		.uleb128 0x8
 1296 0236 08       		.byte	0x8
 1297 0237 06       		.byte	0x6
 1298 0238 61       		.byte	0x61
 1299 0239 5A020000 		.4byte	0x25a
 1300 023d 06       		.uleb128 0x6
 1301 023e FE020000 		.4byte	.LASF24
 1302 0242 06       		.byte	0x6
 1303 0243 62       		.byte	0x62
ARM GAS  /tmp/cciWq72G.s 			page 24


 1304 0244 5A020000 		.4byte	0x25a
 1305 0248 02       		.byte	0x2
 1306 0249 23       		.byte	0x23
 1307 024a 00       		.uleb128 0
 1308 024b 06       		.uleb128 0x6
 1309 024c 97020000 		.4byte	.LASF25
 1310 0250 06       		.byte	0x6
 1311 0251 64       		.byte	0x64
 1312 0252 5A020000 		.4byte	0x25a
 1313 0256 02       		.byte	0x2
 1314 0257 23       		.byte	0x23
 1315 0258 04       		.uleb128 0x4
 1316 0259 00       		.byte	0
 1317 025a 09       		.uleb128 0x9
 1318 025b 04       		.byte	0x4
 1319 025c 05010000 		.4byte	0x105
 1320 0260 03       		.uleb128 0x3
 1321 0261 61020000 		.4byte	.LASF43
 1322 0265 06       		.byte	0x6
 1323 0266 66       		.byte	0x66
 1324 0267 35020000 		.4byte	0x235
 1325 026b 08       		.uleb128 0x8
 1326 026c 04       		.byte	0x4
 1327 026d 06       		.byte	0x6
 1328 026e 6B       		.byte	0x6b
 1329 026f 82020000 		.4byte	0x282
 1330 0273 06       		.uleb128 0x6
 1331 0274 FE020000 		.4byte	.LASF24
 1332 0278 06       		.byte	0x6
 1333 0279 6D       		.byte	0x6d
 1334 027a 5A020000 		.4byte	0x25a
 1335 027e 02       		.byte	0x2
 1336 027f 23       		.byte	0x23
 1337 0280 00       		.uleb128 0
 1338 0281 00       		.byte	0
 1339 0282 03       		.uleb128 0x3
 1340 0283 02020000 		.4byte	.LASF44
 1341 0287 06       		.byte	0x6
 1342 0288 70       		.byte	0x70
 1343 0289 6B020000 		.4byte	0x26b
 1344 028d 03       		.uleb128 0x3
 1345 028e 45010000 		.4byte	.LASF45
 1346 0292 08       		.byte	0x8
 1347 0293 E5       		.byte	0xe5
 1348 0294 98020000 		.4byte	0x298
 1349 0298 0A       		.uleb128 0xa
 1350 0299 04       		.byte	0x4
 1351 029a 0B       		.uleb128 0xb
 1352 029b 7C030000 		.4byte	.LASF46
 1353 029f 24       		.byte	0x24
 1354 02a0 08       		.byte	0x8
 1355 02a1 0C01     		.2byte	0x10c
 1356 02a3 28030000 		.4byte	0x328
 1357 02a7 0C       		.uleb128 0xc
 1358 02a8 723400   		.ascii	"r4\000"
 1359 02ab 08       		.byte	0x8
 1360 02ac 1F01     		.2byte	0x11f
ARM GAS  /tmp/cciWq72G.s 			page 25


 1361 02ae 8D020000 		.4byte	0x28d
 1362 02b2 02       		.byte	0x2
 1363 02b3 23       		.byte	0x23
 1364 02b4 00       		.uleb128 0
 1365 02b5 0C       		.uleb128 0xc
 1366 02b6 723500   		.ascii	"r5\000"
 1367 02b9 08       		.byte	0x8
 1368 02ba 2001     		.2byte	0x120
 1369 02bc 8D020000 		.4byte	0x28d
 1370 02c0 02       		.byte	0x2
 1371 02c1 23       		.byte	0x23
 1372 02c2 04       		.uleb128 0x4
 1373 02c3 0C       		.uleb128 0xc
 1374 02c4 723600   		.ascii	"r6\000"
 1375 02c7 08       		.byte	0x8
 1376 02c8 2101     		.2byte	0x121
 1377 02ca 8D020000 		.4byte	0x28d
 1378 02ce 02       		.byte	0x2
 1379 02cf 23       		.byte	0x23
 1380 02d0 08       		.uleb128 0x8
 1381 02d1 0C       		.uleb128 0xc
 1382 02d2 723700   		.ascii	"r7\000"
 1383 02d5 08       		.byte	0x8
 1384 02d6 2201     		.2byte	0x122
 1385 02d8 8D020000 		.4byte	0x28d
 1386 02dc 02       		.byte	0x2
 1387 02dd 23       		.byte	0x23
 1388 02de 0C       		.uleb128 0xc
 1389 02df 0C       		.uleb128 0xc
 1390 02e0 723800   		.ascii	"r8\000"
 1391 02e3 08       		.byte	0x8
 1392 02e4 2301     		.2byte	0x123
 1393 02e6 8D020000 		.4byte	0x28d
 1394 02ea 02       		.byte	0x2
 1395 02eb 23       		.byte	0x23
 1396 02ec 10       		.uleb128 0x10
 1397 02ed 0C       		.uleb128 0xc
 1398 02ee 723900   		.ascii	"r9\000"
 1399 02f1 08       		.byte	0x8
 1400 02f2 2401     		.2byte	0x124
 1401 02f4 8D020000 		.4byte	0x28d
 1402 02f8 02       		.byte	0x2
 1403 02f9 23       		.byte	0x23
 1404 02fa 14       		.uleb128 0x14
 1405 02fb 0C       		.uleb128 0xc
 1406 02fc 72313000 		.ascii	"r10\000"
 1407 0300 08       		.byte	0x8
 1408 0301 2501     		.2byte	0x125
 1409 0303 8D020000 		.4byte	0x28d
 1410 0307 02       		.byte	0x2
 1411 0308 23       		.byte	0x23
 1412 0309 18       		.uleb128 0x18
 1413 030a 0C       		.uleb128 0xc
 1414 030b 72313100 		.ascii	"r11\000"
 1415 030f 08       		.byte	0x8
 1416 0310 2601     		.2byte	0x126
 1417 0312 8D020000 		.4byte	0x28d
ARM GAS  /tmp/cciWq72G.s 			page 26


 1418 0316 02       		.byte	0x2
 1419 0317 23       		.byte	0x23
 1420 0318 1C       		.uleb128 0x1c
 1421 0319 0C       		.uleb128 0xc
 1422 031a 6C7200   		.ascii	"lr\000"
 1423 031d 08       		.byte	0x8
 1424 031e 2701     		.2byte	0x127
 1425 0320 8D020000 		.4byte	0x28d
 1426 0324 02       		.byte	0x2
 1427 0325 23       		.byte	0x23
 1428 0326 20       		.uleb128 0x20
 1429 0327 00       		.byte	0
 1430 0328 0B       		.uleb128 0xb
 1431 0329 95010000 		.4byte	.LASF47
 1432 032d 04       		.byte	0x4
 1433 032e 08       		.byte	0x8
 1434 032f 3101     		.2byte	0x131
 1435 0331 45030000 		.4byte	0x345
 1436 0335 0C       		.uleb128 0xc
 1437 0336 72313300 		.ascii	"r13\000"
 1438 033a 08       		.byte	0x8
 1439 033b 3201     		.2byte	0x132
 1440 033d 45030000 		.4byte	0x345
 1441 0341 02       		.byte	0x2
 1442 0342 23       		.byte	0x23
 1443 0343 00       		.uleb128 0
 1444 0344 00       		.byte	0
 1445 0345 09       		.uleb128 0x9
 1446 0346 04       		.byte	0x4
 1447 0347 9A020000 		.4byte	0x29a
 1448 034b 0D       		.uleb128 0xd
 1449 034c FA000000 		.4byte	0xfa
 1450 0350 08       		.uleb128 0x8
 1451 0351 1C       		.byte	0x1c
 1452 0352 09       		.byte	0x9
 1453 0353 5E       		.byte	0x5e
 1454 0354 AD030000 		.4byte	0x3ad
 1455 0358 06       		.uleb128 0x6
 1456 0359 30030000 		.4byte	.LASF48
 1457 035d 09       		.byte	0x9
 1458 035e 5F       		.byte	0x5f
 1459 035f 60020000 		.4byte	0x260
 1460 0363 02       		.byte	0x2
 1461 0364 23       		.byte	0x23
 1462 0365 00       		.uleb128 0
 1463 0366 06       		.uleb128 0x6
 1464 0367 F0020000 		.4byte	.LASF49
 1465 036b 09       		.byte	0x9
 1466 036c 60       		.byte	0x60
 1467 036d D9000000 		.4byte	0xd9
 1468 0371 02       		.byte	0x2
 1469 0372 23       		.byte	0x23
 1470 0373 08       		.uleb128 0x8
 1471 0374 06       		.uleb128 0x6
 1472 0375 5B020000 		.4byte	.LASF50
 1473 0379 09       		.byte	0x9
 1474 037a 62       		.byte	0x62
ARM GAS  /tmp/cciWq72G.s 			page 27


 1475 037b 28030000 		.4byte	0x328
 1476 037f 02       		.byte	0x2
 1477 0380 23       		.byte	0x23
 1478 0381 0C       		.uleb128 0xc
 1479 0382 06       		.uleb128 0x6
 1480 0383 3D010000 		.4byte	.LASF51
 1481 0387 09       		.byte	0x9
 1482 0388 65       		.byte	0x65
 1483 0389 5A020000 		.4byte	0x25a
 1484 038d 02       		.byte	0x2
 1485 038e 23       		.byte	0x23
 1486 038f 10       		.uleb128 0x10
 1487 0390 06       		.uleb128 0x6
 1488 0391 7D020000 		.4byte	.LASF52
 1489 0395 09       		.byte	0x9
 1490 0396 66       		.byte	0x66
 1491 0397 5A020000 		.4byte	0x25a
 1492 039b 02       		.byte	0x2
 1493 039c 23       		.byte	0x23
 1494 039d 14       		.uleb128 0x14
 1495 039e 06       		.uleb128 0x6
 1496 039f 73020000 		.4byte	.LASF53
 1497 03a3 09       		.byte	0x9
 1498 03a4 69       		.byte	0x69
 1499 03a5 5A020000 		.4byte	0x25a
 1500 03a9 02       		.byte	0x2
 1501 03aa 23       		.byte	0x23
 1502 03ab 18       		.uleb128 0x18
 1503 03ac 00       		.byte	0
 1504 03ad 03       		.uleb128 0x3
 1505 03ae 9B030000 		.4byte	.LASF54
 1506 03b2 09       		.byte	0x9
 1507 03b3 6B       		.byte	0x6b
 1508 03b4 50030000 		.4byte	0x350
 1509 03b8 05       		.uleb128 0x5
 1510 03b9 25020000 		.4byte	.LASF55
 1511 03bd 10       		.byte	0x10
 1512 03be 0A       		.byte	0xa
 1513 03bf 2C       		.byte	0x2c
 1514 03c0 EF030000 		.4byte	0x3ef
 1515 03c4 06       		.uleb128 0x6
 1516 03c5 AE000000 		.4byte	.LASF56
 1517 03c9 0A       		.byte	0xa
 1518 03ca 2D       		.byte	0x2d
 1519 03cb 60020000 		.4byte	0x260
 1520 03cf 02       		.byte	0x2
 1521 03d0 23       		.byte	0x23
 1522 03d1 00       		.uleb128 0
 1523 03d2 06       		.uleb128 0x6
 1524 03d3 D1030000 		.4byte	.LASF57
 1525 03d7 0A       		.byte	0xa
 1526 03d8 2F       		.byte	0x2f
 1527 03d9 5A020000 		.4byte	0x25a
 1528 03dd 02       		.byte	0x2
 1529 03de 23       		.byte	0x23
 1530 03df 08       		.uleb128 0x8
 1531 03e0 06       		.uleb128 0x6
ARM GAS  /tmp/cciWq72G.s 			page 28


 1532 03e1 49030000 		.4byte	.LASF58
 1533 03e5 0A       		.byte	0xa
 1534 03e6 31       		.byte	0x31
 1535 03e7 EF030000 		.4byte	0x3ef
 1536 03eb 02       		.byte	0x2
 1537 03ec 23       		.byte	0x23
 1538 03ed 0C       		.uleb128 0xc
 1539 03ee 00       		.byte	0
 1540 03ef 09       		.uleb128 0x9
 1541 03f0 04       		.byte	0x4
 1542 03f1 B8030000 		.4byte	0x3b8
 1543 03f5 03       		.uleb128 0x3
 1544 03f6 25020000 		.4byte	.LASF55
 1545 03fa 0A       		.byte	0xa
 1546 03fb 33       		.byte	0x33
 1547 03fc B8030000 		.4byte	0x3b8
 1548 0400 0E       		.uleb128 0xe
 1549 0401 04       		.byte	0x4
 1550 0402 07       		.byte	0x7
 1551 0403 96       		.byte	0x96
 1552 0404 35040000 		.4byte	0x435
 1553 0408 0F       		.uleb128 0xf
 1554 0409 28000000 		.4byte	.LASF59
 1555 040d 07       		.byte	0x7
 1556 040e 9D       		.byte	0x9d
 1557 040f E4000000 		.4byte	0xe4
 1558 0413 0F       		.uleb128 0xf
 1559 0414 6B000000 		.4byte	.LASF60
 1560 0418 07       		.byte	0x7
 1561 0419 A4       		.byte	0xa4
 1562 041a E4000000 		.4byte	0xe4
 1563 041e 0F       		.uleb128 0xf
 1564 041f BC030000 		.4byte	.LASF61
 1565 0423 07       		.byte	0x7
 1566 0424 AB       		.byte	0xab
 1567 0425 98020000 		.4byte	0x298
 1568 0429 0F       		.uleb128 0xf
 1569 042a F7020000 		.4byte	.LASF62
 1570 042e 07       		.byte	0x7
 1571 042f B2       		.byte	0xb2
 1572 0430 EF000000 		.4byte	0xef
 1573 0434 00       		.byte	0
 1574 0435 09       		.uleb128 0x9
 1575 0436 04       		.byte	0x4
 1576 0437 3B040000 		.4byte	0x43b
 1577 043b 10       		.uleb128 0x10
 1578 043c 40040000 		.4byte	0x440
 1579 0440 04       		.uleb128 0x4
 1580 0441 01       		.byte	0x1
 1581 0442 08       		.byte	0x8
 1582 0443 38030000 		.4byte	.LASF63
 1583 0447 09       		.uleb128 0x9
 1584 0448 04       		.byte	0x4
 1585 0449 F5030000 		.4byte	0x3f5
 1586 044d 03       		.uleb128 0x3
 1587 044e 2B020000 		.4byte	.LASF64
 1588 0452 0B       		.byte	0xb
ARM GAS  /tmp/cciWq72G.s 			page 29


 1589 0453 37       		.byte	0x37
 1590 0454 58040000 		.4byte	0x458
 1591 0458 05       		.uleb128 0x5
 1592 0459 2B020000 		.4byte	.LASF64
 1593 045d 24       		.byte	0x24
 1594 045e 0B       		.byte	0xb
 1595 045f 45       		.byte	0x45
 1596 0460 D5040000 		.4byte	0x4d5
 1597 0464 06       		.uleb128 0x6
 1598 0465 7B000000 		.4byte	.LASF65
 1599 0469 0B       		.byte	0xb
 1600 046a 46       		.byte	0x46
 1601 046b 60020000 		.4byte	0x260
 1602 046f 02       		.byte	0x2
 1603 0470 23       		.byte	0x23
 1604 0471 00       		.uleb128 0
 1605 0472 06       		.uleb128 0x6
 1606 0473 49020000 		.4byte	.LASF66
 1607 0477 0B       		.byte	0xb
 1608 0478 47       		.byte	0x47
 1609 0479 30000000 		.4byte	0x30
 1610 047d 02       		.byte	0x2
 1611 047e 23       		.byte	0x23
 1612 047f 08       		.uleb128 0x8
 1613 0480 06       		.uleb128 0x6
 1614 0481 24010000 		.4byte	.LASF67
 1615 0485 0B       		.byte	0xb
 1616 0486 48       		.byte	0x48
 1617 0487 F8040000 		.4byte	0x4f8
 1618 048b 02       		.byte	0x2
 1619 048c 23       		.byte	0x23
 1620 048d 0C       		.uleb128 0xc
 1621 048e 06       		.uleb128 0x6
 1622 048f 8E030000 		.4byte	.LASF68
 1623 0493 0B       		.byte	0xb
 1624 0494 49       		.byte	0x49
 1625 0495 F8040000 		.4byte	0x4f8
 1626 0499 02       		.byte	0x2
 1627 049a 23       		.byte	0x23
 1628 049b 10       		.uleb128 0x10
 1629 049c 06       		.uleb128 0x6
 1630 049d 2D010000 		.4byte	.LASF69
 1631 04a1 0B       		.byte	0xb
 1632 04a2 4B       		.byte	0x4b
 1633 04a3 F8040000 		.4byte	0x4f8
 1634 04a7 02       		.byte	0x2
 1635 04a8 23       		.byte	0x23
 1636 04a9 14       		.uleb128 0x14
 1637 04aa 06       		.uleb128 0x6
 1638 04ab A6020000 		.4byte	.LASF70
 1639 04af 0B       		.byte	0xb
 1640 04b0 4C       		.byte	0x4c
 1641 04b1 F8040000 		.4byte	0x4f8
 1642 04b5 02       		.byte	0x2
 1643 04b6 23       		.byte	0x23
 1644 04b7 18       		.uleb128 0x18
 1645 04b8 06       		.uleb128 0x6
ARM GAS  /tmp/cciWq72G.s 			page 30


 1646 04b9 A5030000 		.4byte	.LASF71
 1647 04bd 0B       		.byte	0xb
 1648 04be 4D       		.byte	0x4d
 1649 04bf D5040000 		.4byte	0x4d5
 1650 04c3 02       		.byte	0x2
 1651 04c4 23       		.byte	0x23
 1652 04c5 1C       		.uleb128 0x1c
 1653 04c6 06       		.uleb128 0x6
 1654 04c7 CA030000 		.4byte	.LASF72
 1655 04cb 0B       		.byte	0xb
 1656 04cc 4E       		.byte	0x4e
 1657 04cd 98020000 		.4byte	0x298
 1658 04d1 02       		.byte	0x2
 1659 04d2 23       		.byte	0x23
 1660 04d3 20       		.uleb128 0x20
 1661 04d4 00       		.byte	0
 1662 04d5 03       		.uleb128 0x3
 1663 04d6 8D020000 		.4byte	.LASF73
 1664 04da 0B       		.byte	0xb
 1665 04db 3A       		.byte	0x3a
 1666 04dc E0040000 		.4byte	0x4e0
 1667 04e0 09       		.uleb128 0x9
 1668 04e1 04       		.byte	0x4
 1669 04e2 E6040000 		.4byte	0x4e6
 1670 04e6 11       		.uleb128 0x11
 1671 04e7 01       		.byte	0x1
 1672 04e8 F2040000 		.4byte	0x4f2
 1673 04ec 12       		.uleb128 0x12
 1674 04ed F2040000 		.4byte	0x4f2
 1675 04f1 00       		.byte	0
 1676 04f2 09       		.uleb128 0x9
 1677 04f3 04       		.byte	0x4
 1678 04f4 4D040000 		.4byte	0x44d
 1679 04f8 09       		.uleb128 0x9
 1680 04f9 04       		.byte	0x4
 1681 04fa 49000000 		.4byte	0x49
 1682 04fe 03       		.uleb128 0x3
 1683 04ff 1A020000 		.4byte	.LASF74
 1684 0503 0B       		.byte	0xb
 1685 0504 82       		.byte	0x82
 1686 0505 4D040000 		.4byte	0x44d
 1687 0509 03       		.uleb128 0x3
 1688 050a 38000000 		.4byte	.LASF75
 1689 050e 0B       		.byte	0xb
 1690 050f F5       		.byte	0xf5
 1691 0510 4D040000 		.4byte	0x44d
 1692 0514 09       		.uleb128 0x9
 1693 0515 04       		.byte	0x4
 1694 0516 1A050000 		.4byte	0x51a
 1695 051a 10       		.uleb128 0x10
 1696 051b 49000000 		.4byte	0x49
 1697 051f 13       		.uleb128 0x13
 1698 0520 0F000000 		.4byte	.LASF95
 1699 0524 02       		.byte	0x2
 1700 0525 34       		.byte	0x34
 1701 0526 01       		.byte	0x1
 1702 0527 03       		.byte	0x3
ARM GAS  /tmp/cciWq72G.s 			page 31


 1703 0528 42050000 		.4byte	0x542
 1704 052c 14       		.uleb128 0x14
 1705 052d 747000   		.ascii	"tp\000"
 1706 0530 02       		.byte	0x2
 1707 0531 34       		.byte	0x34
 1708 0532 5A020000 		.4byte	0x25a
 1709 0536 14       		.uleb128 0x14
 1710 0537 74717000 		.ascii	"tqp\000"
 1711 053b 02       		.byte	0x2
 1712 053c 34       		.byte	0x34
 1713 053d 42050000 		.4byte	0x542
 1714 0541 00       		.byte	0
 1715 0542 09       		.uleb128 0x9
 1716 0543 04       		.byte	0x4
 1717 0544 60020000 		.4byte	0x260
 1718 0548 15       		.uleb128 0x15
 1719 0549 3D030000 		.4byte	.LASF96
 1720 054d 02       		.byte	0x2
 1721 054e 3B       		.byte	0x3b
 1722 054f 01       		.byte	0x1
 1723 0550 5A020000 		.4byte	0x25a
 1724 0554 03       		.byte	0x3
 1725 0555 6F050000 		.4byte	0x56f
 1726 0559 14       		.uleb128 0x14
 1727 055a 74717000 		.ascii	"tqp\000"
 1728 055e 02       		.byte	0x2
 1729 055f 3B       		.byte	0x3b
 1730 0560 42050000 		.4byte	0x542
 1731 0564 16       		.uleb128 0x16
 1732 0565 747000   		.ascii	"tp\000"
 1733 0568 02       		.byte	0x2
 1734 0569 3C       		.byte	0x3c
 1735 056a 5A020000 		.4byte	0x25a
 1736 056e 00       		.byte	0
 1737 056f 17       		.uleb128 0x17
 1738 0570 D7010000 		.4byte	.LASF97
 1739 0574 01       		.byte	0x1
 1740 0575 46       		.byte	0x46
 1741 0576 01       		.byte	0x1
 1742 0577 E4000000 		.4byte	0xe4
 1743 057b 00000000 		.4byte	.LFB7
 1744 057f 2C000000 		.4byte	.LFE7
 1745 0583 00000000 		.4byte	.LLST0
 1746 0587 C7050000 		.4byte	0x5c7
 1747 058b 18       		.uleb128 0x18
 1748 058c 717000   		.ascii	"qp\000"
 1749 058f 01       		.byte	0x1
 1750 0590 46       		.byte	0x46
 1751 0591 F2040000 		.4byte	0x4f2
 1752 0595 20000000 		.4byte	.LLST1
 1753 0599 19       		.uleb128 0x19
 1754 059a 6E020000 		.4byte	.LASF76
 1755 059e 01       		.byte	0x1
 1756 059f 46       		.byte	0x46
 1757 05a0 FA000000 		.4byte	0xfa
 1758 05a4 54000000 		.4byte	.LLST2
 1759 05a8 1A       		.uleb128 0x1a
ARM GAS  /tmp/cciWq72G.s 			page 32


 1760 05a9 1F050000 		.4byte	0x51f
 1761 05ad 0C000000 		.4byte	.LBB12
 1762 05b1 00000000 		.4byte	.Ldebug_ranges0+0
 1763 05b5 01       		.byte	0x1
 1764 05b6 4B       		.byte	0x4b
 1765 05b7 1B       		.uleb128 0x1b
 1766 05b8 36050000 		.4byte	0x536
 1767 05bc 72000000 		.4byte	.LLST3
 1768 05c0 1C       		.uleb128 0x1c
 1769 05c1 2C050000 		.4byte	0x52c
 1770 05c5 00       		.byte	0
 1771 05c6 00       		.byte	0
 1772 05c7 1D       		.uleb128 0x1d
 1773 05c8 01       		.byte	0x1
 1774 05c9 2F000000 		.4byte	.LASF80
 1775 05cd 01       		.byte	0x1
 1776 05ce 5F       		.byte	0x5f
 1777 05cf 01       		.byte	0x1
 1778 05d0 00000000 		.4byte	.LFB8
 1779 05d4 1E000000 		.4byte	.LFE8
 1780 05d8 90000000 		.4byte	.LLST4
 1781 05dc 26060000 		.4byte	0x626
 1782 05e0 1E       		.uleb128 0x1e
 1783 05e1 69717000 		.ascii	"iqp\000"
 1784 05e5 01       		.byte	0x1
 1785 05e6 5F       		.byte	0x5f
 1786 05e7 26060000 		.4byte	0x626
 1787 05eb 01       		.byte	0x1
 1788 05ec 50       		.byte	0x50
 1789 05ed 1E       		.uleb128 0x1e
 1790 05ee 627000   		.ascii	"bp\000"
 1791 05f1 01       		.byte	0x1
 1792 05f2 5F       		.byte	0x5f
 1793 05f3 F8040000 		.4byte	0x4f8
 1794 05f7 01       		.byte	0x1
 1795 05f8 51       		.byte	0x51
 1796 05f9 19       		.uleb128 0x19
 1797 05fa 9D010000 		.4byte	.LASF77
 1798 05fe 01       		.byte	0x1
 1799 05ff 5F       		.byte	0x5f
 1800 0600 30000000 		.4byte	0x30
 1801 0604 B0000000 		.4byte	.LLST5
 1802 0608 19       		.uleb128 0x19
 1803 0609 65030000 		.4byte	.LASF78
 1804 060d 01       		.byte	0x1
 1805 060e 5F       		.byte	0x5f
 1806 060f D5040000 		.4byte	0x4d5
 1807 0613 C3000000 		.4byte	.LLST6
 1808 0617 1F       		.uleb128 0x1f
 1809 0618 4E010000 		.4byte	.LASF79
 1810 061c 01       		.byte	0x1
 1811 061d 60       		.byte	0x60
 1812 061e 98020000 		.4byte	0x298
 1813 0622 02       		.byte	0x2
 1814 0623 91       		.byte	0x91
 1815 0624 00       		.sleb128 0
 1816 0625 00       		.byte	0
ARM GAS  /tmp/cciWq72G.s 			page 33


 1817 0626 09       		.uleb128 0x9
 1818 0627 04       		.byte	0x4
 1819 0628 FE040000 		.4byte	0x4fe
 1820 062c 1D       		.uleb128 0x1d
 1821 062d 01       		.byte	0x1
 1822 062e 78010000 		.4byte	.LASF81
 1823 0632 01       		.byte	0x1
 1824 0633 75       		.byte	0x75
 1825 0634 01       		.byte	0x1
 1826 0635 00000000 		.4byte	.LFB9
 1827 0639 2C000000 		.4byte	.LFE9
 1828 063d E2000000 		.4byte	.LLST7
 1829 0641 81060000 		.4byte	0x681
 1830 0645 18       		.uleb128 0x18
 1831 0646 69717000 		.ascii	"iqp\000"
 1832 064a 01       		.byte	0x1
 1833 064b 75       		.byte	0x75
 1834 064c 26060000 		.4byte	0x626
 1835 0650 02010000 		.4byte	.LLST8
 1836 0654 20       		.uleb128 0x20
 1837 0655 48050000 		.4byte	0x548
 1838 0659 18000000 		.4byte	.LBB16
 1839 065d 1E000000 		.4byte	.LBE16
 1840 0661 01       		.byte	0x1
 1841 0662 7C       		.byte	0x7c
 1842 0663 1B       		.uleb128 0x1b
 1843 0664 59050000 		.4byte	0x559
 1844 0668 20010000 		.4byte	.LLST9
 1845 066c 21       		.uleb128 0x21
 1846 066d 18000000 		.4byte	.LBB17
 1847 0671 1E000000 		.4byte	.LBE17
 1848 0675 22       		.uleb128 0x22
 1849 0676 64050000 		.4byte	0x564
 1850 067a 33010000 		.4byte	.LLST10
 1851 067e 00       		.byte	0
 1852 067f 00       		.byte	0
 1853 0680 00       		.byte	0
 1854 0681 23       		.uleb128 0x23
 1855 0682 01       		.byte	0x1
 1856 0683 62010000 		.4byte	.LASF82
 1857 0687 01       		.byte	0x1
 1858 0688 8C       		.byte	0x8c
 1859 0689 01       		.byte	0x1
 1860 068a E4000000 		.4byte	0xe4
 1861 068e 00000000 		.4byte	.LFB10
 1862 0692 4E000000 		.4byte	.LFE10
 1863 0696 46010000 		.4byte	.LLST11
 1864 069a E7060000 		.4byte	0x6e7
 1865 069e 18       		.uleb128 0x18
 1866 069f 69717000 		.ascii	"iqp\000"
 1867 06a3 01       		.byte	0x1
 1868 06a4 8C       		.byte	0x8c
 1869 06a5 26060000 		.4byte	0x626
 1870 06a9 66010000 		.4byte	.LLST12
 1871 06ad 18       		.uleb128 0x18
 1872 06ae 6200     		.ascii	"b\000"
 1873 06b0 01       		.byte	0x1
ARM GAS  /tmp/cciWq72G.s 			page 34


 1874 06b1 8C       		.byte	0x8c
 1875 06b2 49000000 		.4byte	0x49
 1876 06b6 8F010000 		.4byte	.LLST13
 1877 06ba 20       		.uleb128 0x20
 1878 06bb 48050000 		.4byte	0x548
 1879 06bf 24000000 		.4byte	.LBB18
 1880 06c3 2A000000 		.4byte	.LBE18
 1881 06c7 01       		.byte	0x1
 1882 06c8 99       		.byte	0x99
 1883 06c9 1B       		.uleb128 0x1b
 1884 06ca 59050000 		.4byte	0x559
 1885 06ce C7010000 		.4byte	.LLST14
 1886 06d2 21       		.uleb128 0x21
 1887 06d3 24000000 		.4byte	.LBB19
 1888 06d7 2A000000 		.4byte	.LBE19
 1889 06db 22       		.uleb128 0x22
 1890 06dc 64050000 		.4byte	0x564
 1891 06e0 DA010000 		.4byte	.LLST15
 1892 06e4 00       		.byte	0
 1893 06e5 00       		.byte	0
 1894 06e6 00       		.byte	0
 1895 06e7 23       		.uleb128 0x23
 1896 06e8 01       		.byte	0x1
 1897 06e9 E9030000 		.4byte	.LASF83
 1898 06ed 01       		.byte	0x1
 1899 06ee B2       		.byte	0xb2
 1900 06ef 01       		.byte	0x1
 1901 06f0 E4000000 		.4byte	0xe4
 1902 06f4 00000000 		.4byte	.LFB11
 1903 06f8 48000000 		.4byte	.LFE11
 1904 06fc ED010000 		.4byte	.LLST16
 1905 0700 92070000 		.4byte	0x792
 1906 0704 18       		.uleb128 0x18
 1907 0705 69717000 		.ascii	"iqp\000"
 1908 0709 01       		.byte	0x1
 1909 070a B2       		.byte	0xb2
 1910 070b 26060000 		.4byte	0x626
 1911 070f 0D020000 		.4byte	.LLST17
 1912 0713 19       		.uleb128 0x19
 1913 0714 6E020000 		.4byte	.LASF76
 1914 0718 01       		.byte	0x1
 1915 0719 B2       		.byte	0xb2
 1916 071a FA000000 		.4byte	0xfa
 1917 071e 2B020000 		.4byte	.LLST18
 1918 0722 24       		.uleb128 0x24
 1919 0723 6200     		.ascii	"b\000"
 1920 0725 01       		.byte	0x1
 1921 0726 B3       		.byte	0xb3
 1922 0727 49000000 		.4byte	0x49
 1923 072b 01       		.byte	0x1
 1924 072c 50       		.byte	0x50
 1925 072d 25       		.uleb128 0x25
 1926 072e 18000000 		.4byte	.Ldebug_ranges0+0x18
 1927 0732 46070000 		.4byte	0x746
 1928 0736 26       		.uleb128 0x26
 1929 0737 746D7000 		.ascii	"tmp\000"
 1930 073b 01       		.byte	0x1
ARM GAS  /tmp/cciWq72G.s 			page 35


 1931 073c B5       		.byte	0xb5
 1932 073d 7B000000 		.4byte	0x7b
 1933 0741 49020000 		.4byte	.LLST19
 1934 0745 00       		.byte	0
 1935 0746 25       		.uleb128 0x25
 1936 0747 30000000 		.4byte	.Ldebug_ranges0+0x30
 1937 074b 78070000 		.4byte	0x778
 1938 074f 26       		.uleb128 0x26
 1939 0750 6D736700 		.ascii	"msg\000"
 1940 0754 01       		.byte	0x1
 1941 0755 BA       		.byte	0xba
 1942 0756 E4000000 		.4byte	0xe4
 1943 075a 5C020000 		.4byte	.LLST20
 1944 075e 21       		.uleb128 0x21
 1945 075f 22000000 		.4byte	.LBB23
 1946 0763 28000000 		.4byte	.LBE23
 1947 0767 26       		.uleb128 0x26
 1948 0768 746D7000 		.ascii	"tmp\000"
 1949 076c 01       		.byte	0x1
 1950 076d BC       		.byte	0xbc
 1951 076e 7B000000 		.4byte	0x7b
 1952 0772 6F020000 		.4byte	.LLST21
 1953 0776 00       		.byte	0
 1954 0777 00       		.byte	0
 1955 0778 21       		.uleb128 0x21
 1956 0779 40000000 		.4byte	.LBB25
 1957 077d 46000000 		.4byte	.LBE25
 1958 0781 26       		.uleb128 0x26
 1959 0782 746D7000 		.ascii	"tmp\000"
 1960 0786 01       		.byte	0x1
 1961 0787 C6       		.byte	0xc6
 1962 0788 7B000000 		.4byte	0x7b
 1963 078c 82020000 		.4byte	.LLST22
 1964 0790 00       		.byte	0
 1965 0791 00       		.byte	0
 1966 0792 23       		.uleb128 0x23
 1967 0793 01       		.byte	0x1
 1968 0794 44000000 		.4byte	.LASF84
 1969 0798 01       		.byte	0x1
 1970 0799 E2       		.byte	0xe2
 1971 079a 01       		.byte	0x1
 1972 079b 30000000 		.4byte	0x30
 1973 079f 00000000 		.4byte	.LFB12
 1974 07a3 72000000 		.4byte	.LFE12
 1975 07a7 95020000 		.4byte	.LLST23
 1976 07ab 75080000 		.4byte	0x875
 1977 07af 18       		.uleb128 0x18
 1978 07b0 69717000 		.ascii	"iqp\000"
 1979 07b4 01       		.byte	0x1
 1980 07b5 E2       		.byte	0xe2
 1981 07b6 26060000 		.4byte	0x626
 1982 07ba B5020000 		.4byte	.LLST24
 1983 07be 18       		.uleb128 0x18
 1984 07bf 627000   		.ascii	"bp\000"
 1985 07c2 01       		.byte	0x1
 1986 07c3 E2       		.byte	0xe2
 1987 07c4 F8040000 		.4byte	0x4f8
ARM GAS  /tmp/cciWq72G.s 			page 36


 1988 07c8 D3020000 		.4byte	.LLST25
 1989 07cc 18       		.uleb128 0x18
 1990 07cd 6E00     		.ascii	"n\000"
 1991 07cf 01       		.byte	0x1
 1992 07d0 E3       		.byte	0xe3
 1993 07d1 30000000 		.4byte	0x30
 1994 07d5 E6020000 		.4byte	.LLST26
 1995 07d9 19       		.uleb128 0x19
 1996 07da 6E020000 		.4byte	.LASF76
 1997 07de 01       		.byte	0x1
 1998 07df E3       		.byte	0xe3
 1999 07e0 FA000000 		.4byte	0xfa
 2000 07e4 F9020000 		.4byte	.LLST27
 2001 07e8 26       		.uleb128 0x26
 2002 07e9 6E667900 		.ascii	"nfy\000"
 2003 07ed 01       		.byte	0x1
 2004 07ee E4       		.byte	0xe4
 2005 07ef D5040000 		.4byte	0x4d5
 2006 07f3 17030000 		.4byte	.LLST28
 2007 07f7 26       		.uleb128 0x26
 2008 07f8 7200     		.ascii	"r\000"
 2009 07fa 01       		.byte	0x1
 2010 07fb E5       		.byte	0xe5
 2011 07fc 30000000 		.4byte	0x30
 2012 0800 36030000 		.4byte	.LLST29
 2013 0804 27       		.uleb128 0x27
 2014 0805 10000000 		.4byte	.LBB26
 2015 0809 18000000 		.4byte	.LBE26
 2016 080d 21080000 		.4byte	0x821
 2017 0811 26       		.uleb128 0x26
 2018 0812 746D7000 		.ascii	"tmp\000"
 2019 0816 01       		.byte	0x1
 2020 0817 E9       		.byte	0xe9
 2021 0818 7B000000 		.4byte	0x7b
 2022 081c 55030000 		.4byte	.LLST30
 2023 0820 00       		.byte	0
 2024 0821 27       		.uleb128 0x27
 2025 0822 38000000 		.4byte	.LBB27
 2026 0826 3E000000 		.4byte	.LBE27
 2027 082a 3E080000 		.4byte	0x83e
 2028 082e 26       		.uleb128 0x26
 2029 082f 746D7000 		.ascii	"tmp\000"
 2030 0833 01       		.byte	0x1
 2031 0834 F0       		.byte	0xf0
 2032 0835 7B000000 		.4byte	0x7b
 2033 0839 7E030000 		.4byte	.LLST31
 2034 083d 00       		.byte	0
 2035 083e 27       		.uleb128 0x27
 2036 083f 5E000000 		.4byte	.LBB28
 2037 0843 64000000 		.4byte	.LBE28
 2038 0847 5B080000 		.4byte	0x85b
 2039 084b 26       		.uleb128 0x26
 2040 084c 746D7000 		.ascii	"tmp\000"
 2041 0850 01       		.byte	0x1
 2042 0851 FA       		.byte	0xfa
 2043 0852 7B000000 		.4byte	0x7b
 2044 0856 91030000 		.4byte	.LLST32
ARM GAS  /tmp/cciWq72G.s 			page 37


 2045 085a 00       		.byte	0
 2046 085b 21       		.uleb128 0x21
 2047 085c 6A000000 		.4byte	.LBB29
 2048 0860 70000000 		.4byte	.LBE29
 2049 0864 26       		.uleb128 0x26
 2050 0865 746D7000 		.ascii	"tmp\000"
 2051 0869 01       		.byte	0x1
 2052 086a FF       		.byte	0xff
 2053 086b 7B000000 		.4byte	0x7b
 2054 086f AF030000 		.4byte	.LLST33
 2055 0873 00       		.byte	0
 2056 0874 00       		.byte	0
 2057 0875 28       		.uleb128 0x28
 2058 0876 01       		.byte	0x1
 2059 0877 00000000 		.4byte	.LASF85
 2060 087b 01       		.byte	0x1
 2061 087c 1301     		.2byte	0x113
 2062 087e 01       		.byte	0x1
 2063 087f 00000000 		.4byte	.LFB13
 2064 0883 1C000000 		.4byte	.LFE13
 2065 0887 E3030000 		.4byte	.LLST34
 2066 088b D8080000 		.4byte	0x8d8
 2067 088f 29       		.uleb128 0x29
 2068 0890 6F717000 		.ascii	"oqp\000"
 2069 0894 01       		.byte	0x1
 2070 0895 1301     		.2byte	0x113
 2071 0897 D8080000 		.4byte	0x8d8
 2072 089b 01       		.byte	0x1
 2073 089c 50       		.byte	0x50
 2074 089d 29       		.uleb128 0x29
 2075 089e 627000   		.ascii	"bp\000"
 2076 08a1 01       		.byte	0x1
 2077 08a2 1301     		.2byte	0x113
 2078 08a4 F8040000 		.4byte	0x4f8
 2079 08a8 01       		.byte	0x1
 2080 08a9 51       		.byte	0x51
 2081 08aa 2A       		.uleb128 0x2a
 2082 08ab 9D010000 		.4byte	.LASF77
 2083 08af 01       		.byte	0x1
 2084 08b0 1301     		.2byte	0x113
 2085 08b2 30000000 		.4byte	0x30
 2086 08b6 01       		.byte	0x1
 2087 08b7 52       		.byte	0x52
 2088 08b8 2B       		.uleb128 0x2b
 2089 08b9 1C000000 		.4byte	.LASF86
 2090 08bd 01       		.byte	0x1
 2091 08be 1301     		.2byte	0x113
 2092 08c0 D5040000 		.4byte	0x4d5
 2093 08c4 03040000 		.4byte	.LLST35
 2094 08c8 2A       		.uleb128 0x2a
 2095 08c9 4E010000 		.4byte	.LASF79
 2096 08cd 01       		.byte	0x1
 2097 08ce 1401     		.2byte	0x114
 2098 08d0 98020000 		.4byte	0x298
 2099 08d4 02       		.byte	0x2
 2100 08d5 91       		.byte	0x91
 2101 08d6 00       		.sleb128 0
ARM GAS  /tmp/cciWq72G.s 			page 38


 2102 08d7 00       		.byte	0
 2103 08d8 09       		.uleb128 0x9
 2104 08d9 04       		.byte	0x4
 2105 08da 09050000 		.4byte	0x509
 2106 08de 28       		.uleb128 0x28
 2107 08df 01       		.byte	0x1
 2108 08e0 6A030000 		.4byte	.LASF87
 2109 08e4 01       		.byte	0x1
 2110 08e5 2901     		.2byte	0x129
 2111 08e7 01       		.byte	0x1
 2112 08e8 00000000 		.4byte	.LFB14
 2113 08ec 2E000000 		.4byte	.LFE14
 2114 08f0 22040000 		.4byte	.LLST36
 2115 08f4 36090000 		.4byte	0x936
 2116 08f8 2C       		.uleb128 0x2c
 2117 08f9 6F717000 		.ascii	"oqp\000"
 2118 08fd 01       		.byte	0x1
 2119 08fe 2901     		.2byte	0x129
 2120 0900 D8080000 		.4byte	0x8d8
 2121 0904 42040000 		.4byte	.LLST37
 2122 0908 2D       		.uleb128 0x2d
 2123 0909 48050000 		.4byte	0x548
 2124 090d 1A000000 		.4byte	.LBB30
 2125 0911 20000000 		.4byte	.LBE30
 2126 0915 01       		.byte	0x1
 2127 0916 3001     		.2byte	0x130
 2128 0918 1B       		.uleb128 0x1b
 2129 0919 59050000 		.4byte	0x559
 2130 091d 60040000 		.4byte	.LLST38
 2131 0921 21       		.uleb128 0x21
 2132 0922 1A000000 		.4byte	.LBB31
 2133 0926 20000000 		.4byte	.LBE31
 2134 092a 22       		.uleb128 0x22
 2135 092b 64050000 		.4byte	0x564
 2136 092f 73040000 		.4byte	.LLST39
 2137 0933 00       		.byte	0
 2138 0934 00       		.byte	0
 2139 0935 00       		.byte	0
 2140 0936 2E       		.uleb128 0x2e
 2141 0937 01       		.byte	0x1
 2142 0938 53010000 		.4byte	.LASF88
 2143 093c 01       		.byte	0x1
 2144 093d 4901     		.2byte	0x149
 2145 093f 01       		.byte	0x1
 2146 0940 E4000000 		.4byte	0xe4
 2147 0944 00000000 		.4byte	.LFB15
 2148 0948 4E000000 		.4byte	.LFE15
 2149 094c 86040000 		.4byte	.LLST40
 2150 0950 EF090000 		.4byte	0x9ef
 2151 0954 2C       		.uleb128 0x2c
 2152 0955 6F717000 		.ascii	"oqp\000"
 2153 0959 01       		.byte	0x1
 2154 095a 4901     		.2byte	0x149
 2155 095c D8080000 		.4byte	0x8d8
 2156 0960 A6040000 		.4byte	.LLST41
 2157 0964 2C       		.uleb128 0x2c
 2158 0965 6200     		.ascii	"b\000"
ARM GAS  /tmp/cciWq72G.s 			page 39


 2159 0967 01       		.byte	0x1
 2160 0968 4901     		.2byte	0x149
 2161 096a 49000000 		.4byte	0x49
 2162 096e C4040000 		.4byte	.LLST42
 2163 0972 2B       		.uleb128 0x2b
 2164 0973 6E020000 		.4byte	.LASF76
 2165 0977 01       		.byte	0x1
 2166 0978 4901     		.2byte	0x149
 2167 097a FA000000 		.4byte	0xfa
 2168 097e D7040000 		.4byte	.LLST43
 2169 0982 27       		.uleb128 0x27
 2170 0983 08000000 		.4byte	.LBB32
 2171 0987 0E000000 		.4byte	.LBE32
 2172 098b A0090000 		.4byte	0x9a0
 2173 098f 2F       		.uleb128 0x2f
 2174 0990 746D7000 		.ascii	"tmp\000"
 2175 0994 01       		.byte	0x1
 2176 0995 4B01     		.2byte	0x14b
 2177 0997 7B000000 		.4byte	0x7b
 2178 099b F5040000 		.4byte	.LLST44
 2179 099f 00       		.byte	0
 2180 09a0 25       		.uleb128 0x25
 2181 09a1 48000000 		.4byte	.Ldebug_ranges0+0x48
 2182 09a5 D4090000 		.4byte	0x9d4
 2183 09a9 2F       		.uleb128 0x2f
 2184 09aa 6D736700 		.ascii	"msg\000"
 2185 09ae 01       		.byte	0x1
 2186 09af 4D01     		.2byte	0x14d
 2187 09b1 E4000000 		.4byte	0xe4
 2188 09b5 13050000 		.4byte	.LLST45
 2189 09b9 21       		.uleb128 0x21
 2190 09ba 1E000000 		.4byte	.LBB34
 2191 09be 24000000 		.4byte	.LBE34
 2192 09c2 2F       		.uleb128 0x2f
 2193 09c3 746D7000 		.ascii	"tmp\000"
 2194 09c7 01       		.byte	0x1
 2195 09c8 5001     		.2byte	0x150
 2196 09ca 7B000000 		.4byte	0x7b
 2197 09ce 26050000 		.4byte	.LLST46
 2198 09d2 00       		.byte	0
 2199 09d3 00       		.byte	0
 2200 09d4 21       		.uleb128 0x21
 2201 09d5 44000000 		.4byte	.LBB36
 2202 09d9 4A000000 		.4byte	.LBE36
 2203 09dd 2F       		.uleb128 0x2f
 2204 09de 746D7000 		.ascii	"tmp\000"
 2205 09e2 01       		.byte	0x1
 2206 09e3 5D01     		.2byte	0x15d
 2207 09e5 7B000000 		.4byte	0x7b
 2208 09e9 39050000 		.4byte	.LLST47
 2209 09ed 00       		.byte	0
 2210 09ee 00       		.byte	0
 2211 09ef 2E       		.uleb128 0x2e
 2212 09f0 01       		.byte	0x1
 2213 09f1 1B010000 		.4byte	.LASF89
 2214 09f5 01       		.byte	0x1
 2215 09f6 6B01     		.2byte	0x16b
ARM GAS  /tmp/cciWq72G.s 			page 40


 2216 09f8 01       		.byte	0x1
 2217 09f9 E4000000 		.4byte	0xe4
 2218 09fd 00000000 		.4byte	.LFB16
 2219 0a01 46000000 		.4byte	.LFE16
 2220 0a05 4C050000 		.4byte	.LLST48
 2221 0a09 590A0000 		.4byte	0xa59
 2222 0a0d 2C       		.uleb128 0x2c
 2223 0a0e 6F717000 		.ascii	"oqp\000"
 2224 0a12 01       		.byte	0x1
 2225 0a13 6B01     		.2byte	0x16b
 2226 0a15 D8080000 		.4byte	0x8d8
 2227 0a19 6C050000 		.4byte	.LLST49
 2228 0a1d 2F       		.uleb128 0x2f
 2229 0a1e 6200     		.ascii	"b\000"
 2230 0a20 01       		.byte	0x1
 2231 0a21 6C01     		.2byte	0x16c
 2232 0a23 49000000 		.4byte	0x49
 2233 0a27 A0050000 		.4byte	.LLST50
 2234 0a2b 2D       		.uleb128 0x2d
 2235 0a2c 48050000 		.4byte	0x548
 2236 0a30 24000000 		.4byte	.LBB37
 2237 0a34 2A000000 		.4byte	.LBE37
 2238 0a38 01       		.byte	0x1
 2239 0a39 7901     		.2byte	0x179
 2240 0a3b 1B       		.uleb128 0x1b
 2241 0a3c 59050000 		.4byte	0x559
 2242 0a40 B3050000 		.4byte	.LLST51
 2243 0a44 21       		.uleb128 0x21
 2244 0a45 24000000 		.4byte	.LBB38
 2245 0a49 2A000000 		.4byte	.LBE38
 2246 0a4d 22       		.uleb128 0x22
 2247 0a4e 64050000 		.4byte	0x564
 2248 0a52 C6050000 		.4byte	.LLST52
 2249 0a56 00       		.byte	0
 2250 0a57 00       		.byte	0
 2251 0a58 00       		.byte	0
 2252 0a59 2E       		.uleb128 0x2e
 2253 0a5a 01       		.byte	0x1
 2254 0a5b 38020000 		.4byte	.LASF90
 2255 0a5f 01       		.byte	0x1
 2256 0a60 9601     		.2byte	0x196
 2257 0a62 01       		.byte	0x1
 2258 0a63 30000000 		.4byte	0x30
 2259 0a67 00000000 		.4byte	.LFB17
 2260 0a6b 86000000 		.4byte	.LFE17
 2261 0a6f DA050000 		.4byte	.LLST53
 2262 0a73 470B0000 		.4byte	0xb47
 2263 0a77 2C       		.uleb128 0x2c
 2264 0a78 6F717000 		.ascii	"oqp\000"
 2265 0a7c 01       		.byte	0x1
 2266 0a7d 9601     		.2byte	0x196
 2267 0a7f D8080000 		.4byte	0x8d8
 2268 0a83 FA050000 		.4byte	.LLST54
 2269 0a87 2C       		.uleb128 0x2c
 2270 0a88 627000   		.ascii	"bp\000"
 2271 0a8b 01       		.byte	0x1
 2272 0a8c 9601     		.2byte	0x196
ARM GAS  /tmp/cciWq72G.s 			page 41


 2273 0a8e 14050000 		.4byte	0x514
 2274 0a92 18060000 		.4byte	.LLST55
 2275 0a96 2C       		.uleb128 0x2c
 2276 0a97 6E00     		.ascii	"n\000"
 2277 0a99 01       		.byte	0x1
 2278 0a9a 9701     		.2byte	0x197
 2279 0a9c 30000000 		.4byte	0x30
 2280 0aa0 4E060000 		.4byte	.LLST56
 2281 0aa4 2B       		.uleb128 0x2b
 2282 0aa5 6E020000 		.4byte	.LASF76
 2283 0aa9 01       		.byte	0x1
 2284 0aaa 9701     		.2byte	0x197
 2285 0aac FA000000 		.4byte	0xfa
 2286 0ab0 84060000 		.4byte	.LLST57
 2287 0ab4 2F       		.uleb128 0x2f
 2288 0ab5 6E667900 		.ascii	"nfy\000"
 2289 0ab9 01       		.byte	0x1
 2290 0aba 9801     		.2byte	0x198
 2291 0abc D5040000 		.4byte	0x4d5
 2292 0ac0 A2060000 		.4byte	.LLST58
 2293 0ac4 2F       		.uleb128 0x2f
 2294 0ac5 7700     		.ascii	"w\000"
 2295 0ac7 01       		.byte	0x1
 2296 0ac8 9901     		.2byte	0x199
 2297 0aca 30000000 		.4byte	0x30
 2298 0ace C1060000 		.4byte	.LLST59
 2299 0ad2 27       		.uleb128 0x27
 2300 0ad3 10000000 		.4byte	.LBB39
 2301 0ad7 1A000000 		.4byte	.LBE39
 2302 0adb F00A0000 		.4byte	0xaf0
 2303 0adf 2F       		.uleb128 0x2f
 2304 0ae0 746D7000 		.ascii	"tmp\000"
 2305 0ae4 01       		.byte	0x1
 2306 0ae5 9D01     		.2byte	0x19d
 2307 0ae7 7B000000 		.4byte	0x7b
 2308 0aeb E0060000 		.4byte	.LLST60
 2309 0aef 00       		.byte	0
 2310 0af0 27       		.uleb128 0x27
 2311 0af1 48000000 		.4byte	.LBB40
 2312 0af5 4E000000 		.4byte	.LBE40
 2313 0af9 0E0B0000 		.4byte	0xb0e
 2314 0afd 2F       		.uleb128 0x2f
 2315 0afe 746D7000 		.ascii	"tmp\000"
 2316 0b02 01       		.byte	0x1
 2317 0b03 AD01     		.2byte	0x1ad
 2318 0b05 7B000000 		.4byte	0x7b
 2319 0b09 F3060000 		.4byte	.LLST61
 2320 0b0d 00       		.byte	0
 2321 0b0e 27       		.uleb128 0x27
 2322 0b0f 58000000 		.4byte	.LBB41
 2323 0b13 5E000000 		.4byte	.LBE41
 2324 0b17 2C0B0000 		.4byte	0xb2c
 2325 0b1b 2F       		.uleb128 0x2f
 2326 0b1c 746D7000 		.ascii	"tmp\000"
 2327 0b20 01       		.byte	0x1
 2328 0b21 B101     		.2byte	0x1b1
 2329 0b23 7B000000 		.4byte	0x7b
ARM GAS  /tmp/cciWq72G.s 			page 42


 2330 0b27 11070000 		.4byte	.LLST62
 2331 0b2b 00       		.byte	0
 2332 0b2c 21       		.uleb128 0x21
 2333 0b2d 7A000000 		.4byte	.LBB42
 2334 0b31 80000000 		.4byte	.LBE42
 2335 0b35 2F       		.uleb128 0x2f
 2336 0b36 746D7000 		.ascii	"tmp\000"
 2337 0b3a 01       		.byte	0x1
 2338 0b3b A101     		.2byte	0x1a1
 2339 0b3d 7B000000 		.4byte	0x7b
 2340 0b41 24070000 		.4byte	.LLST63
 2341 0b45 00       		.byte	0
 2342 0b46 00       		.byte	0
 2343 0b47 30       		.uleb128 0x30
 2344 0b48 AE030000 		.4byte	.LASF91
 2345 0b4c 09       		.byte	0x9
 2346 0b4d 6F       		.byte	0x6f
 2347 0b4e AD030000 		.4byte	0x3ad
 2348 0b52 01       		.byte	0x1
 2349 0b53 01       		.byte	0x1
 2350 0b54 30       		.uleb128 0x30
 2351 0b55 AE030000 		.4byte	.LASF91
 2352 0b59 09       		.byte	0x9
 2353 0b5a 6F       		.byte	0x6f
 2354 0b5b AD030000 		.4byte	0x3ad
 2355 0b5f 01       		.byte	0x1
 2356 0b60 01       		.byte	0x1
 2357 0b61 00       		.byte	0
 2358              		.section	.debug_abbrev,"",%progbits
 2359              	.Ldebug_abbrev0:
 2360 0000 01       		.uleb128 0x1
 2361 0001 11       		.uleb128 0x11
 2362 0002 01       		.byte	0x1
 2363 0003 25       		.uleb128 0x25
 2364 0004 0E       		.uleb128 0xe
 2365 0005 13       		.uleb128 0x13
 2366 0006 0B       		.uleb128 0xb
 2367 0007 03       		.uleb128 0x3
 2368 0008 0E       		.uleb128 0xe
 2369 0009 1B       		.uleb128 0x1b
 2370 000a 0E       		.uleb128 0xe
 2371 000b 11       		.uleb128 0x11
 2372 000c 01       		.uleb128 0x1
 2373 000d 52       		.uleb128 0x52
 2374 000e 01       		.uleb128 0x1
 2375 000f 55       		.uleb128 0x55
 2376 0010 06       		.uleb128 0x6
 2377 0011 10       		.uleb128 0x10
 2378 0012 06       		.uleb128 0x6
 2379 0013 00       		.byte	0
 2380 0014 00       		.byte	0
 2381 0015 02       		.uleb128 0x2
 2382 0016 24       		.uleb128 0x24
 2383 0017 00       		.byte	0
 2384 0018 0B       		.uleb128 0xb
 2385 0019 0B       		.uleb128 0xb
 2386 001a 3E       		.uleb128 0x3e
ARM GAS  /tmp/cciWq72G.s 			page 43


 2387 001b 0B       		.uleb128 0xb
 2388 001c 03       		.uleb128 0x3
 2389 001d 08       		.uleb128 0x8
 2390 001e 00       		.byte	0
 2391 001f 00       		.byte	0
 2392 0020 03       		.uleb128 0x3
 2393 0021 16       		.uleb128 0x16
 2394 0022 00       		.byte	0
 2395 0023 03       		.uleb128 0x3
 2396 0024 0E       		.uleb128 0xe
 2397 0025 3A       		.uleb128 0x3a
 2398 0026 0B       		.uleb128 0xb
 2399 0027 3B       		.uleb128 0x3b
 2400 0028 0B       		.uleb128 0xb
 2401 0029 49       		.uleb128 0x49
 2402 002a 13       		.uleb128 0x13
 2403 002b 00       		.byte	0
 2404 002c 00       		.byte	0
 2405 002d 04       		.uleb128 0x4
 2406 002e 24       		.uleb128 0x24
 2407 002f 00       		.byte	0
 2408 0030 0B       		.uleb128 0xb
 2409 0031 0B       		.uleb128 0xb
 2410 0032 3E       		.uleb128 0x3e
 2411 0033 0B       		.uleb128 0xb
 2412 0034 03       		.uleb128 0x3
 2413 0035 0E       		.uleb128 0xe
 2414 0036 00       		.byte	0
 2415 0037 00       		.byte	0
 2416 0038 05       		.uleb128 0x5
 2417 0039 13       		.uleb128 0x13
 2418 003a 01       		.byte	0x1
 2419 003b 03       		.uleb128 0x3
 2420 003c 0E       		.uleb128 0xe
 2421 003d 0B       		.uleb128 0xb
 2422 003e 0B       		.uleb128 0xb
 2423 003f 3A       		.uleb128 0x3a
 2424 0040 0B       		.uleb128 0xb
 2425 0041 3B       		.uleb128 0x3b
 2426 0042 0B       		.uleb128 0xb
 2427 0043 01       		.uleb128 0x1
 2428 0044 13       		.uleb128 0x13
 2429 0045 00       		.byte	0
 2430 0046 00       		.byte	0
 2431 0047 06       		.uleb128 0x6
 2432 0048 0D       		.uleb128 0xd
 2433 0049 00       		.byte	0
 2434 004a 03       		.uleb128 0x3
 2435 004b 0E       		.uleb128 0xe
 2436 004c 3A       		.uleb128 0x3a
 2437 004d 0B       		.uleb128 0xb
 2438 004e 3B       		.uleb128 0x3b
 2439 004f 0B       		.uleb128 0xb
 2440 0050 49       		.uleb128 0x49
 2441 0051 13       		.uleb128 0x13
 2442 0052 38       		.uleb128 0x38
 2443 0053 0A       		.uleb128 0xa
ARM GAS  /tmp/cciWq72G.s 			page 44


 2444 0054 00       		.byte	0
 2445 0055 00       		.byte	0
 2446 0056 07       		.uleb128 0x7
 2447 0057 0D       		.uleb128 0xd
 2448 0058 00       		.byte	0
 2449 0059 03       		.uleb128 0x3
 2450 005a 08       		.uleb128 0x8
 2451 005b 3A       		.uleb128 0x3a
 2452 005c 0B       		.uleb128 0xb
 2453 005d 3B       		.uleb128 0x3b
 2454 005e 0B       		.uleb128 0xb
 2455 005f 49       		.uleb128 0x49
 2456 0060 13       		.uleb128 0x13
 2457 0061 38       		.uleb128 0x38
 2458 0062 0A       		.uleb128 0xa
 2459 0063 00       		.byte	0
 2460 0064 00       		.byte	0
 2461 0065 08       		.uleb128 0x8
 2462 0066 13       		.uleb128 0x13
 2463 0067 01       		.byte	0x1
 2464 0068 0B       		.uleb128 0xb
 2465 0069 0B       		.uleb128 0xb
 2466 006a 3A       		.uleb128 0x3a
 2467 006b 0B       		.uleb128 0xb
 2468 006c 3B       		.uleb128 0x3b
 2469 006d 0B       		.uleb128 0xb
 2470 006e 01       		.uleb128 0x1
 2471 006f 13       		.uleb128 0x13
 2472 0070 00       		.byte	0
 2473 0071 00       		.byte	0
 2474 0072 09       		.uleb128 0x9
 2475 0073 0F       		.uleb128 0xf
 2476 0074 00       		.byte	0
 2477 0075 0B       		.uleb128 0xb
 2478 0076 0B       		.uleb128 0xb
 2479 0077 49       		.uleb128 0x49
 2480 0078 13       		.uleb128 0x13
 2481 0079 00       		.byte	0
 2482 007a 00       		.byte	0
 2483 007b 0A       		.uleb128 0xa
 2484 007c 0F       		.uleb128 0xf
 2485 007d 00       		.byte	0
 2486 007e 0B       		.uleb128 0xb
 2487 007f 0B       		.uleb128 0xb
 2488 0080 00       		.byte	0
 2489 0081 00       		.byte	0
 2490 0082 0B       		.uleb128 0xb
 2491 0083 13       		.uleb128 0x13
 2492 0084 01       		.byte	0x1
 2493 0085 03       		.uleb128 0x3
 2494 0086 0E       		.uleb128 0xe
 2495 0087 0B       		.uleb128 0xb
 2496 0088 0B       		.uleb128 0xb
 2497 0089 3A       		.uleb128 0x3a
 2498 008a 0B       		.uleb128 0xb
 2499 008b 3B       		.uleb128 0x3b
 2500 008c 05       		.uleb128 0x5
ARM GAS  /tmp/cciWq72G.s 			page 45


 2501 008d 01       		.uleb128 0x1
 2502 008e 13       		.uleb128 0x13
 2503 008f 00       		.byte	0
 2504 0090 00       		.byte	0
 2505 0091 0C       		.uleb128 0xc
 2506 0092 0D       		.uleb128 0xd
 2507 0093 00       		.byte	0
 2508 0094 03       		.uleb128 0x3
 2509 0095 08       		.uleb128 0x8
 2510 0096 3A       		.uleb128 0x3a
 2511 0097 0B       		.uleb128 0xb
 2512 0098 3B       		.uleb128 0x3b
 2513 0099 05       		.uleb128 0x5
 2514 009a 49       		.uleb128 0x49
 2515 009b 13       		.uleb128 0x13
 2516 009c 38       		.uleb128 0x38
 2517 009d 0A       		.uleb128 0xa
 2518 009e 00       		.byte	0
 2519 009f 00       		.byte	0
 2520 00a0 0D       		.uleb128 0xd
 2521 00a1 35       		.uleb128 0x35
 2522 00a2 00       		.byte	0
 2523 00a3 49       		.uleb128 0x49
 2524 00a4 13       		.uleb128 0x13
 2525 00a5 00       		.byte	0
 2526 00a6 00       		.byte	0
 2527 00a7 0E       		.uleb128 0xe
 2528 00a8 17       		.uleb128 0x17
 2529 00a9 01       		.byte	0x1
 2530 00aa 0B       		.uleb128 0xb
 2531 00ab 0B       		.uleb128 0xb
 2532 00ac 3A       		.uleb128 0x3a
 2533 00ad 0B       		.uleb128 0xb
 2534 00ae 3B       		.uleb128 0x3b
 2535 00af 0B       		.uleb128 0xb
 2536 00b0 01       		.uleb128 0x1
 2537 00b1 13       		.uleb128 0x13
 2538 00b2 00       		.byte	0
 2539 00b3 00       		.byte	0
 2540 00b4 0F       		.uleb128 0xf
 2541 00b5 0D       		.uleb128 0xd
 2542 00b6 00       		.byte	0
 2543 00b7 03       		.uleb128 0x3
 2544 00b8 0E       		.uleb128 0xe
 2545 00b9 3A       		.uleb128 0x3a
 2546 00ba 0B       		.uleb128 0xb
 2547 00bb 3B       		.uleb128 0x3b
 2548 00bc 0B       		.uleb128 0xb
 2549 00bd 49       		.uleb128 0x49
 2550 00be 13       		.uleb128 0x13
 2551 00bf 00       		.byte	0
 2552 00c0 00       		.byte	0
 2553 00c1 10       		.uleb128 0x10
 2554 00c2 26       		.uleb128 0x26
 2555 00c3 00       		.byte	0
 2556 00c4 49       		.uleb128 0x49
 2557 00c5 13       		.uleb128 0x13
ARM GAS  /tmp/cciWq72G.s 			page 46


 2558 00c6 00       		.byte	0
 2559 00c7 00       		.byte	0
 2560 00c8 11       		.uleb128 0x11
 2561 00c9 15       		.uleb128 0x15
 2562 00ca 01       		.byte	0x1
 2563 00cb 27       		.uleb128 0x27
 2564 00cc 0C       		.uleb128 0xc
 2565 00cd 01       		.uleb128 0x1
 2566 00ce 13       		.uleb128 0x13
 2567 00cf 00       		.byte	0
 2568 00d0 00       		.byte	0
 2569 00d1 12       		.uleb128 0x12
 2570 00d2 05       		.uleb128 0x5
 2571 00d3 00       		.byte	0
 2572 00d4 49       		.uleb128 0x49
 2573 00d5 13       		.uleb128 0x13
 2574 00d6 00       		.byte	0
 2575 00d7 00       		.byte	0
 2576 00d8 13       		.uleb128 0x13
 2577 00d9 2E       		.uleb128 0x2e
 2578 00da 01       		.byte	0x1
 2579 00db 03       		.uleb128 0x3
 2580 00dc 0E       		.uleb128 0xe
 2581 00dd 3A       		.uleb128 0x3a
 2582 00de 0B       		.uleb128 0xb
 2583 00df 3B       		.uleb128 0x3b
 2584 00e0 0B       		.uleb128 0xb
 2585 00e1 27       		.uleb128 0x27
 2586 00e2 0C       		.uleb128 0xc
 2587 00e3 20       		.uleb128 0x20
 2588 00e4 0B       		.uleb128 0xb
 2589 00e5 01       		.uleb128 0x1
 2590 00e6 13       		.uleb128 0x13
 2591 00e7 00       		.byte	0
 2592 00e8 00       		.byte	0
 2593 00e9 14       		.uleb128 0x14
 2594 00ea 05       		.uleb128 0x5
 2595 00eb 00       		.byte	0
 2596 00ec 03       		.uleb128 0x3
 2597 00ed 08       		.uleb128 0x8
 2598 00ee 3A       		.uleb128 0x3a
 2599 00ef 0B       		.uleb128 0xb
 2600 00f0 3B       		.uleb128 0x3b
 2601 00f1 0B       		.uleb128 0xb
 2602 00f2 49       		.uleb128 0x49
 2603 00f3 13       		.uleb128 0x13
 2604 00f4 00       		.byte	0
 2605 00f5 00       		.byte	0
 2606 00f6 15       		.uleb128 0x15
 2607 00f7 2E       		.uleb128 0x2e
 2608 00f8 01       		.byte	0x1
 2609 00f9 03       		.uleb128 0x3
 2610 00fa 0E       		.uleb128 0xe
 2611 00fb 3A       		.uleb128 0x3a
 2612 00fc 0B       		.uleb128 0xb
 2613 00fd 3B       		.uleb128 0x3b
 2614 00fe 0B       		.uleb128 0xb
ARM GAS  /tmp/cciWq72G.s 			page 47


 2615 00ff 27       		.uleb128 0x27
 2616 0100 0C       		.uleb128 0xc
 2617 0101 49       		.uleb128 0x49
 2618 0102 13       		.uleb128 0x13
 2619 0103 20       		.uleb128 0x20
 2620 0104 0B       		.uleb128 0xb
 2621 0105 01       		.uleb128 0x1
 2622 0106 13       		.uleb128 0x13
 2623 0107 00       		.byte	0
 2624 0108 00       		.byte	0
 2625 0109 16       		.uleb128 0x16
 2626 010a 34       		.uleb128 0x34
 2627 010b 00       		.byte	0
 2628 010c 03       		.uleb128 0x3
 2629 010d 08       		.uleb128 0x8
 2630 010e 3A       		.uleb128 0x3a
 2631 010f 0B       		.uleb128 0xb
 2632 0110 3B       		.uleb128 0x3b
 2633 0111 0B       		.uleb128 0xb
 2634 0112 49       		.uleb128 0x49
 2635 0113 13       		.uleb128 0x13
 2636 0114 00       		.byte	0
 2637 0115 00       		.byte	0
 2638 0116 17       		.uleb128 0x17
 2639 0117 2E       		.uleb128 0x2e
 2640 0118 01       		.byte	0x1
 2641 0119 03       		.uleb128 0x3
 2642 011a 0E       		.uleb128 0xe
 2643 011b 3A       		.uleb128 0x3a
 2644 011c 0B       		.uleb128 0xb
 2645 011d 3B       		.uleb128 0x3b
 2646 011e 0B       		.uleb128 0xb
 2647 011f 27       		.uleb128 0x27
 2648 0120 0C       		.uleb128 0xc
 2649 0121 49       		.uleb128 0x49
 2650 0122 13       		.uleb128 0x13
 2651 0123 11       		.uleb128 0x11
 2652 0124 01       		.uleb128 0x1
 2653 0125 12       		.uleb128 0x12
 2654 0126 01       		.uleb128 0x1
 2655 0127 40       		.uleb128 0x40
 2656 0128 06       		.uleb128 0x6
 2657 0129 01       		.uleb128 0x1
 2658 012a 13       		.uleb128 0x13
 2659 012b 00       		.byte	0
 2660 012c 00       		.byte	0
 2661 012d 18       		.uleb128 0x18
 2662 012e 05       		.uleb128 0x5
 2663 012f 00       		.byte	0
 2664 0130 03       		.uleb128 0x3
 2665 0131 08       		.uleb128 0x8
 2666 0132 3A       		.uleb128 0x3a
 2667 0133 0B       		.uleb128 0xb
 2668 0134 3B       		.uleb128 0x3b
 2669 0135 0B       		.uleb128 0xb
 2670 0136 49       		.uleb128 0x49
 2671 0137 13       		.uleb128 0x13
ARM GAS  /tmp/cciWq72G.s 			page 48


 2672 0138 02       		.uleb128 0x2
 2673 0139 06       		.uleb128 0x6
 2674 013a 00       		.byte	0
 2675 013b 00       		.byte	0
 2676 013c 19       		.uleb128 0x19
 2677 013d 05       		.uleb128 0x5
 2678 013e 00       		.byte	0
 2679 013f 03       		.uleb128 0x3
 2680 0140 0E       		.uleb128 0xe
 2681 0141 3A       		.uleb128 0x3a
 2682 0142 0B       		.uleb128 0xb
 2683 0143 3B       		.uleb128 0x3b
 2684 0144 0B       		.uleb128 0xb
 2685 0145 49       		.uleb128 0x49
 2686 0146 13       		.uleb128 0x13
 2687 0147 02       		.uleb128 0x2
 2688 0148 06       		.uleb128 0x6
 2689 0149 00       		.byte	0
 2690 014a 00       		.byte	0
 2691 014b 1A       		.uleb128 0x1a
 2692 014c 1D       		.uleb128 0x1d
 2693 014d 01       		.byte	0x1
 2694 014e 31       		.uleb128 0x31
 2695 014f 13       		.uleb128 0x13
 2696 0150 52       		.uleb128 0x52
 2697 0151 01       		.uleb128 0x1
 2698 0152 55       		.uleb128 0x55
 2699 0153 06       		.uleb128 0x6
 2700 0154 58       		.uleb128 0x58
 2701 0155 0B       		.uleb128 0xb
 2702 0156 59       		.uleb128 0x59
 2703 0157 0B       		.uleb128 0xb
 2704 0158 00       		.byte	0
 2705 0159 00       		.byte	0
 2706 015a 1B       		.uleb128 0x1b
 2707 015b 05       		.uleb128 0x5
 2708 015c 00       		.byte	0
 2709 015d 31       		.uleb128 0x31
 2710 015e 13       		.uleb128 0x13
 2711 015f 02       		.uleb128 0x2
 2712 0160 06       		.uleb128 0x6
 2713 0161 00       		.byte	0
 2714 0162 00       		.byte	0
 2715 0163 1C       		.uleb128 0x1c
 2716 0164 05       		.uleb128 0x5
 2717 0165 00       		.byte	0
 2718 0166 31       		.uleb128 0x31
 2719 0167 13       		.uleb128 0x13
 2720 0168 00       		.byte	0
 2721 0169 00       		.byte	0
 2722 016a 1D       		.uleb128 0x1d
 2723 016b 2E       		.uleb128 0x2e
 2724 016c 01       		.byte	0x1
 2725 016d 3F       		.uleb128 0x3f
 2726 016e 0C       		.uleb128 0xc
 2727 016f 03       		.uleb128 0x3
 2728 0170 0E       		.uleb128 0xe
ARM GAS  /tmp/cciWq72G.s 			page 49


 2729 0171 3A       		.uleb128 0x3a
 2730 0172 0B       		.uleb128 0xb
 2731 0173 3B       		.uleb128 0x3b
 2732 0174 0B       		.uleb128 0xb
 2733 0175 27       		.uleb128 0x27
 2734 0176 0C       		.uleb128 0xc
 2735 0177 11       		.uleb128 0x11
 2736 0178 01       		.uleb128 0x1
 2737 0179 12       		.uleb128 0x12
 2738 017a 01       		.uleb128 0x1
 2739 017b 40       		.uleb128 0x40
 2740 017c 06       		.uleb128 0x6
 2741 017d 01       		.uleb128 0x1
 2742 017e 13       		.uleb128 0x13
 2743 017f 00       		.byte	0
 2744 0180 00       		.byte	0
 2745 0181 1E       		.uleb128 0x1e
 2746 0182 05       		.uleb128 0x5
 2747 0183 00       		.byte	0
 2748 0184 03       		.uleb128 0x3
 2749 0185 08       		.uleb128 0x8
 2750 0186 3A       		.uleb128 0x3a
 2751 0187 0B       		.uleb128 0xb
 2752 0188 3B       		.uleb128 0x3b
 2753 0189 0B       		.uleb128 0xb
 2754 018a 49       		.uleb128 0x49
 2755 018b 13       		.uleb128 0x13
 2756 018c 02       		.uleb128 0x2
 2757 018d 0A       		.uleb128 0xa
 2758 018e 00       		.byte	0
 2759 018f 00       		.byte	0
 2760 0190 1F       		.uleb128 0x1f
 2761 0191 05       		.uleb128 0x5
 2762 0192 00       		.byte	0
 2763 0193 03       		.uleb128 0x3
 2764 0194 0E       		.uleb128 0xe
 2765 0195 3A       		.uleb128 0x3a
 2766 0196 0B       		.uleb128 0xb
 2767 0197 3B       		.uleb128 0x3b
 2768 0198 0B       		.uleb128 0xb
 2769 0199 49       		.uleb128 0x49
 2770 019a 13       		.uleb128 0x13
 2771 019b 02       		.uleb128 0x2
 2772 019c 0A       		.uleb128 0xa
 2773 019d 00       		.byte	0
 2774 019e 00       		.byte	0
 2775 019f 20       		.uleb128 0x20
 2776 01a0 1D       		.uleb128 0x1d
 2777 01a1 01       		.byte	0x1
 2778 01a2 31       		.uleb128 0x31
 2779 01a3 13       		.uleb128 0x13
 2780 01a4 11       		.uleb128 0x11
 2781 01a5 01       		.uleb128 0x1
 2782 01a6 12       		.uleb128 0x12
 2783 01a7 01       		.uleb128 0x1
 2784 01a8 58       		.uleb128 0x58
 2785 01a9 0B       		.uleb128 0xb
ARM GAS  /tmp/cciWq72G.s 			page 50


 2786 01aa 59       		.uleb128 0x59
 2787 01ab 0B       		.uleb128 0xb
 2788 01ac 00       		.byte	0
 2789 01ad 00       		.byte	0
 2790 01ae 21       		.uleb128 0x21
 2791 01af 0B       		.uleb128 0xb
 2792 01b0 01       		.byte	0x1
 2793 01b1 11       		.uleb128 0x11
 2794 01b2 01       		.uleb128 0x1
 2795 01b3 12       		.uleb128 0x12
 2796 01b4 01       		.uleb128 0x1
 2797 01b5 00       		.byte	0
 2798 01b6 00       		.byte	0
 2799 01b7 22       		.uleb128 0x22
 2800 01b8 34       		.uleb128 0x34
 2801 01b9 00       		.byte	0
 2802 01ba 31       		.uleb128 0x31
 2803 01bb 13       		.uleb128 0x13
 2804 01bc 02       		.uleb128 0x2
 2805 01bd 06       		.uleb128 0x6
 2806 01be 00       		.byte	0
 2807 01bf 00       		.byte	0
 2808 01c0 23       		.uleb128 0x23
 2809 01c1 2E       		.uleb128 0x2e
 2810 01c2 01       		.byte	0x1
 2811 01c3 3F       		.uleb128 0x3f
 2812 01c4 0C       		.uleb128 0xc
 2813 01c5 03       		.uleb128 0x3
 2814 01c6 0E       		.uleb128 0xe
 2815 01c7 3A       		.uleb128 0x3a
 2816 01c8 0B       		.uleb128 0xb
 2817 01c9 3B       		.uleb128 0x3b
 2818 01ca 0B       		.uleb128 0xb
 2819 01cb 27       		.uleb128 0x27
 2820 01cc 0C       		.uleb128 0xc
 2821 01cd 49       		.uleb128 0x49
 2822 01ce 13       		.uleb128 0x13
 2823 01cf 11       		.uleb128 0x11
 2824 01d0 01       		.uleb128 0x1
 2825 01d1 12       		.uleb128 0x12
 2826 01d2 01       		.uleb128 0x1
 2827 01d3 40       		.uleb128 0x40
 2828 01d4 06       		.uleb128 0x6
 2829 01d5 01       		.uleb128 0x1
 2830 01d6 13       		.uleb128 0x13
 2831 01d7 00       		.byte	0
 2832 01d8 00       		.byte	0
 2833 01d9 24       		.uleb128 0x24
 2834 01da 34       		.uleb128 0x34
 2835 01db 00       		.byte	0
 2836 01dc 03       		.uleb128 0x3
 2837 01dd 08       		.uleb128 0x8
 2838 01de 3A       		.uleb128 0x3a
 2839 01df 0B       		.uleb128 0xb
 2840 01e0 3B       		.uleb128 0x3b
 2841 01e1 0B       		.uleb128 0xb
 2842 01e2 49       		.uleb128 0x49
ARM GAS  /tmp/cciWq72G.s 			page 51


 2843 01e3 13       		.uleb128 0x13
 2844 01e4 02       		.uleb128 0x2
 2845 01e5 0A       		.uleb128 0xa
 2846 01e6 00       		.byte	0
 2847 01e7 00       		.byte	0
 2848 01e8 25       		.uleb128 0x25
 2849 01e9 0B       		.uleb128 0xb
 2850 01ea 01       		.byte	0x1
 2851 01eb 55       		.uleb128 0x55
 2852 01ec 06       		.uleb128 0x6
 2853 01ed 01       		.uleb128 0x1
 2854 01ee 13       		.uleb128 0x13
 2855 01ef 00       		.byte	0
 2856 01f0 00       		.byte	0
 2857 01f1 26       		.uleb128 0x26
 2858 01f2 34       		.uleb128 0x34
 2859 01f3 00       		.byte	0
 2860 01f4 03       		.uleb128 0x3
 2861 01f5 08       		.uleb128 0x8
 2862 01f6 3A       		.uleb128 0x3a
 2863 01f7 0B       		.uleb128 0xb
 2864 01f8 3B       		.uleb128 0x3b
 2865 01f9 0B       		.uleb128 0xb
 2866 01fa 49       		.uleb128 0x49
 2867 01fb 13       		.uleb128 0x13
 2868 01fc 02       		.uleb128 0x2
 2869 01fd 06       		.uleb128 0x6
 2870 01fe 00       		.byte	0
 2871 01ff 00       		.byte	0
 2872 0200 27       		.uleb128 0x27
 2873 0201 0B       		.uleb128 0xb
 2874 0202 01       		.byte	0x1
 2875 0203 11       		.uleb128 0x11
 2876 0204 01       		.uleb128 0x1
 2877 0205 12       		.uleb128 0x12
 2878 0206 01       		.uleb128 0x1
 2879 0207 01       		.uleb128 0x1
 2880 0208 13       		.uleb128 0x13
 2881 0209 00       		.byte	0
 2882 020a 00       		.byte	0
 2883 020b 28       		.uleb128 0x28
 2884 020c 2E       		.uleb128 0x2e
 2885 020d 01       		.byte	0x1
 2886 020e 3F       		.uleb128 0x3f
 2887 020f 0C       		.uleb128 0xc
 2888 0210 03       		.uleb128 0x3
 2889 0211 0E       		.uleb128 0xe
 2890 0212 3A       		.uleb128 0x3a
 2891 0213 0B       		.uleb128 0xb
 2892 0214 3B       		.uleb128 0x3b
 2893 0215 05       		.uleb128 0x5
 2894 0216 27       		.uleb128 0x27
 2895 0217 0C       		.uleb128 0xc
 2896 0218 11       		.uleb128 0x11
 2897 0219 01       		.uleb128 0x1
 2898 021a 12       		.uleb128 0x12
 2899 021b 01       		.uleb128 0x1
ARM GAS  /tmp/cciWq72G.s 			page 52


 2900 021c 40       		.uleb128 0x40
 2901 021d 06       		.uleb128 0x6
 2902 021e 01       		.uleb128 0x1
 2903 021f 13       		.uleb128 0x13
 2904 0220 00       		.byte	0
 2905 0221 00       		.byte	0
 2906 0222 29       		.uleb128 0x29
 2907 0223 05       		.uleb128 0x5
 2908 0224 00       		.byte	0
 2909 0225 03       		.uleb128 0x3
 2910 0226 08       		.uleb128 0x8
 2911 0227 3A       		.uleb128 0x3a
 2912 0228 0B       		.uleb128 0xb
 2913 0229 3B       		.uleb128 0x3b
 2914 022a 05       		.uleb128 0x5
 2915 022b 49       		.uleb128 0x49
 2916 022c 13       		.uleb128 0x13
 2917 022d 02       		.uleb128 0x2
 2918 022e 0A       		.uleb128 0xa
 2919 022f 00       		.byte	0
 2920 0230 00       		.byte	0
 2921 0231 2A       		.uleb128 0x2a
 2922 0232 05       		.uleb128 0x5
 2923 0233 00       		.byte	0
 2924 0234 03       		.uleb128 0x3
 2925 0235 0E       		.uleb128 0xe
 2926 0236 3A       		.uleb128 0x3a
 2927 0237 0B       		.uleb128 0xb
 2928 0238 3B       		.uleb128 0x3b
 2929 0239 05       		.uleb128 0x5
 2930 023a 49       		.uleb128 0x49
 2931 023b 13       		.uleb128 0x13
 2932 023c 02       		.uleb128 0x2
 2933 023d 0A       		.uleb128 0xa
 2934 023e 00       		.byte	0
 2935 023f 00       		.byte	0
 2936 0240 2B       		.uleb128 0x2b
 2937 0241 05       		.uleb128 0x5
 2938 0242 00       		.byte	0
 2939 0243 03       		.uleb128 0x3
 2940 0244 0E       		.uleb128 0xe
 2941 0245 3A       		.uleb128 0x3a
 2942 0246 0B       		.uleb128 0xb
 2943 0247 3B       		.uleb128 0x3b
 2944 0248 05       		.uleb128 0x5
 2945 0249 49       		.uleb128 0x49
 2946 024a 13       		.uleb128 0x13
 2947 024b 02       		.uleb128 0x2
 2948 024c 06       		.uleb128 0x6
 2949 024d 00       		.byte	0
 2950 024e 00       		.byte	0
 2951 024f 2C       		.uleb128 0x2c
 2952 0250 05       		.uleb128 0x5
 2953 0251 00       		.byte	0
 2954 0252 03       		.uleb128 0x3
 2955 0253 08       		.uleb128 0x8
 2956 0254 3A       		.uleb128 0x3a
ARM GAS  /tmp/cciWq72G.s 			page 53


 2957 0255 0B       		.uleb128 0xb
 2958 0256 3B       		.uleb128 0x3b
 2959 0257 05       		.uleb128 0x5
 2960 0258 49       		.uleb128 0x49
 2961 0259 13       		.uleb128 0x13
 2962 025a 02       		.uleb128 0x2
 2963 025b 06       		.uleb128 0x6
 2964 025c 00       		.byte	0
 2965 025d 00       		.byte	0
 2966 025e 2D       		.uleb128 0x2d
 2967 025f 1D       		.uleb128 0x1d
 2968 0260 01       		.byte	0x1
 2969 0261 31       		.uleb128 0x31
 2970 0262 13       		.uleb128 0x13
 2971 0263 11       		.uleb128 0x11
 2972 0264 01       		.uleb128 0x1
 2973 0265 12       		.uleb128 0x12
 2974 0266 01       		.uleb128 0x1
 2975 0267 58       		.uleb128 0x58
 2976 0268 0B       		.uleb128 0xb
 2977 0269 59       		.uleb128 0x59
 2978 026a 05       		.uleb128 0x5
 2979 026b 00       		.byte	0
 2980 026c 00       		.byte	0
 2981 026d 2E       		.uleb128 0x2e
 2982 026e 2E       		.uleb128 0x2e
 2983 026f 01       		.byte	0x1
 2984 0270 3F       		.uleb128 0x3f
 2985 0271 0C       		.uleb128 0xc
 2986 0272 03       		.uleb128 0x3
 2987 0273 0E       		.uleb128 0xe
 2988 0274 3A       		.uleb128 0x3a
 2989 0275 0B       		.uleb128 0xb
 2990 0276 3B       		.uleb128 0x3b
 2991 0277 05       		.uleb128 0x5
 2992 0278 27       		.uleb128 0x27
 2993 0279 0C       		.uleb128 0xc
 2994 027a 49       		.uleb128 0x49
 2995 027b 13       		.uleb128 0x13
 2996 027c 11       		.uleb128 0x11
 2997 027d 01       		.uleb128 0x1
 2998 027e 12       		.uleb128 0x12
 2999 027f 01       		.uleb128 0x1
 3000 0280 40       		.uleb128 0x40
 3001 0281 06       		.uleb128 0x6
 3002 0282 01       		.uleb128 0x1
 3003 0283 13       		.uleb128 0x13
 3004 0284 00       		.byte	0
 3005 0285 00       		.byte	0
 3006 0286 2F       		.uleb128 0x2f
 3007 0287 34       		.uleb128 0x34
 3008 0288 00       		.byte	0
 3009 0289 03       		.uleb128 0x3
 3010 028a 08       		.uleb128 0x8
 3011 028b 3A       		.uleb128 0x3a
 3012 028c 0B       		.uleb128 0xb
 3013 028d 3B       		.uleb128 0x3b
ARM GAS  /tmp/cciWq72G.s 			page 54


 3014 028e 05       		.uleb128 0x5
 3015 028f 49       		.uleb128 0x49
 3016 0290 13       		.uleb128 0x13
 3017 0291 02       		.uleb128 0x2
 3018 0292 06       		.uleb128 0x6
 3019 0293 00       		.byte	0
 3020 0294 00       		.byte	0
 3021 0295 30       		.uleb128 0x30
 3022 0296 34       		.uleb128 0x34
 3023 0297 00       		.byte	0
 3024 0298 03       		.uleb128 0x3
 3025 0299 0E       		.uleb128 0xe
 3026 029a 3A       		.uleb128 0x3a
 3027 029b 0B       		.uleb128 0xb
 3028 029c 3B       		.uleb128 0x3b
 3029 029d 0B       		.uleb128 0xb
 3030 029e 49       		.uleb128 0x49
 3031 029f 13       		.uleb128 0x13
 3032 02a0 3F       		.uleb128 0x3f
 3033 02a1 0C       		.uleb128 0xc
 3034 02a2 3C       		.uleb128 0x3c
 3035 02a3 0C       		.uleb128 0xc
 3036 02a4 00       		.byte	0
 3037 02a5 00       		.byte	0
 3038 02a6 00       		.byte	0
 3039              		.section	.debug_loc,"",%progbits
 3040              	.Ldebug_loc0:
 3041              	.LLST0:
 3042 0000 00000000 		.4byte	.LFB7
 3043 0004 02000000 		.4byte	.LCFI0
 3044 0008 0200     		.2byte	0x2
 3045 000a 7D       		.byte	0x7d
 3046 000b 00       		.sleb128 0
 3047 000c 02000000 		.4byte	.LCFI0
 3048 0010 2C000000 		.4byte	.LFE7
 3049 0014 0200     		.2byte	0x2
 3050 0016 7D       		.byte	0x7d
 3051 0017 04       		.sleb128 4
 3052 0018 00000000 		.4byte	0
 3053 001c 00000000 		.4byte	0
 3054              	.LLST1:
 3055 0020 00000000 		.4byte	.LVL0
 3056 0024 10000000 		.4byte	.LVL2
 3057 0028 0100     		.2byte	0x1
 3058 002a 50       		.byte	0x50
 3059 002b 10000000 		.4byte	.LVL2
 3060 002f 1D000000 		.4byte	.LVL3-1
 3061 0033 0100     		.2byte	0x1
 3062 0035 52       		.byte	0x52
 3063 0036 1E000000 		.4byte	.LVL3
 3064 003a 22000000 		.4byte	.LVL4
 3065 003e 0100     		.2byte	0x1
 3066 0040 50       		.byte	0x50
 3067 0041 22000000 		.4byte	.LVL4
 3068 0045 2C000000 		.4byte	.LFE7
 3069 0049 0100     		.2byte	0x1
 3070 004b 52       		.byte	0x52
ARM GAS  /tmp/cciWq72G.s 			page 55


 3071 004c 00000000 		.4byte	0
 3072 0050 00000000 		.4byte	0
 3073              	.LLST2:
 3074 0054 00000000 		.4byte	.LVL0
 3075 0058 1D000000 		.4byte	.LVL3-1
 3076 005c 0100     		.2byte	0x1
 3077 005e 51       		.byte	0x51
 3078 005f 1E000000 		.4byte	.LVL3
 3079 0063 2C000000 		.4byte	.LFE7
 3080 0067 0100     		.2byte	0x1
 3081 0069 51       		.byte	0x51
 3082 006a 00000000 		.4byte	0
 3083 006e 00000000 		.4byte	0
 3084              	.LLST3:
 3085 0072 0C000000 		.4byte	.LVL1
 3086 0076 10000000 		.4byte	.LVL2
 3087 007a 0100     		.2byte	0x1
 3088 007c 50       		.byte	0x50
 3089 007d 10000000 		.4byte	.LVL2
 3090 0081 1D000000 		.4byte	.LVL3-1
 3091 0085 0100     		.2byte	0x1
 3092 0087 52       		.byte	0x52
 3093 0088 00000000 		.4byte	0
 3094 008c 00000000 		.4byte	0
 3095              	.LLST4:
 3096 0090 00000000 		.4byte	.LFB8
 3097 0094 02000000 		.4byte	.LCFI1
 3098 0098 0200     		.2byte	0x2
 3099 009a 7D       		.byte	0x7d
 3100 009b 00       		.sleb128 0
 3101 009c 02000000 		.4byte	.LCFI1
 3102 00a0 1E000000 		.4byte	.LFE8
 3103 00a4 0200     		.2byte	0x2
 3104 00a6 7D       		.byte	0x7d
 3105 00a7 04       		.sleb128 4
 3106 00a8 00000000 		.4byte	0
 3107 00ac 00000000 		.4byte	0
 3108              	.LLST5:
 3109 00b0 00000000 		.4byte	.LVL5
 3110 00b4 0A000000 		.4byte	.LVL7
 3111 00b8 0100     		.2byte	0x1
 3112 00ba 52       		.byte	0x52
 3113 00bb 00000000 		.4byte	0
 3114 00bf 00000000 		.4byte	0
 3115              	.LLST6:
 3116 00c3 00000000 		.4byte	.LVL5
 3117 00c7 06000000 		.4byte	.LVL6
 3118 00cb 0100     		.2byte	0x1
 3119 00cd 53       		.byte	0x53
 3120 00ce 06000000 		.4byte	.LVL6
 3121 00d2 1E000000 		.4byte	.LFE8
 3122 00d6 0200     		.2byte	0x2
 3123 00d8 70       		.byte	0x70
 3124 00d9 1C       		.sleb128 28
 3125 00da 00000000 		.4byte	0
 3126 00de 00000000 		.4byte	0
 3127              	.LLST7:
ARM GAS  /tmp/cciWq72G.s 			page 56


 3128 00e2 00000000 		.4byte	.LFB9
 3129 00e6 02000000 		.4byte	.LCFI2
 3130 00ea 0200     		.2byte	0x2
 3131 00ec 7D       		.byte	0x7d
 3132 00ed 00       		.sleb128 0
 3133 00ee 02000000 		.4byte	.LCFI2
 3134 00f2 2C000000 		.4byte	.LFE9
 3135 00f6 0200     		.2byte	0x2
 3136 00f8 7D       		.byte	0x7d
 3137 00f9 10       		.sleb128 16
 3138 00fa 00000000 		.4byte	0
 3139 00fe 00000000 		.4byte	0
 3140              	.LLST8:
 3141 0102 00000000 		.4byte	.LVL8
 3142 0106 08000000 		.4byte	.LVL9
 3143 010a 0100     		.2byte	0x1
 3144 010c 50       		.byte	0x50
 3145 010d 08000000 		.4byte	.LVL9
 3146 0111 2C000000 		.4byte	.LFE9
 3147 0115 0100     		.2byte	0x1
 3148 0117 54       		.byte	0x54
 3149 0118 00000000 		.4byte	0
 3150 011c 00000000 		.4byte	0
 3151              	.LLST9:
 3152 0120 18000000 		.4byte	.LVL10
 3153 0124 2A000000 		.4byte	.LVL12
 3154 0128 0100     		.2byte	0x1
 3155 012a 54       		.byte	0x54
 3156 012b 00000000 		.4byte	0
 3157 012f 00000000 		.4byte	0
 3158              	.LLST10:
 3159 0133 18000000 		.4byte	.LVL10
 3160 0137 21000000 		.4byte	.LVL11-1
 3161 013b 0100     		.2byte	0x1
 3162 013d 50       		.byte	0x50
 3163 013e 00000000 		.4byte	0
 3164 0142 00000000 		.4byte	0
 3165              	.LLST11:
 3166 0146 00000000 		.4byte	.LFB10
 3167 014a 04000000 		.4byte	.LCFI3
 3168 014e 0200     		.2byte	0x2
 3169 0150 7D       		.byte	0x7d
 3170 0151 00       		.sleb128 0
 3171 0152 04000000 		.4byte	.LCFI3
 3172 0156 4E000000 		.4byte	.LFE10
 3173 015a 0200     		.2byte	0x2
 3174 015c 7D       		.byte	0x7d
 3175 015d 08       		.sleb128 8
 3176 015e 00000000 		.4byte	0
 3177 0162 00000000 		.4byte	0
 3178              	.LLST12:
 3179 0166 00000000 		.4byte	.LVL13
 3180 016a 08000000 		.4byte	.LVL14
 3181 016e 0100     		.2byte	0x1
 3182 0170 50       		.byte	0x50
 3183 0171 08000000 		.4byte	.LVL14
 3184 0175 2D000000 		.4byte	.LVL17-1
ARM GAS  /tmp/cciWq72G.s 			page 57


 3185 0179 0100     		.2byte	0x1
 3186 017b 53       		.byte	0x53
 3187 017c 36000000 		.4byte	.LVL18
 3188 0180 4E000000 		.4byte	.LFE10
 3189 0184 0100     		.2byte	0x1
 3190 0186 53       		.byte	0x53
 3191 0187 00000000 		.4byte	0
 3192 018b 00000000 		.4byte	0
 3193              	.LLST13:
 3194 018f 00000000 		.4byte	.LVL13
 3195 0193 18000000 		.4byte	.LVL15
 3196 0197 0100     		.2byte	0x1
 3197 0199 51       		.byte	0x51
 3198 019a 18000000 		.4byte	.LVL15
 3199 019e 2D000000 		.4byte	.LVL17-1
 3200 01a2 0300     		.2byte	0x3
 3201 01a4 73       		.byte	0x73
 3202 01a5 14       		.sleb128 20
 3203 01a6 06       		.byte	0x6
 3204 01a7 36000000 		.4byte	.LVL18
 3205 01ab 44000000 		.4byte	.LVL19
 3206 01af 0300     		.2byte	0x3
 3207 01b1 73       		.byte	0x73
 3208 01b2 14       		.sleb128 20
 3209 01b3 06       		.byte	0x6
 3210 01b4 44000000 		.4byte	.LVL19
 3211 01b8 4E000000 		.4byte	.LFE10
 3212 01bc 0100     		.2byte	0x1
 3213 01be 51       		.byte	0x51
 3214 01bf 00000000 		.4byte	0
 3215 01c3 00000000 		.4byte	0
 3216              	.LLST14:
 3217 01c7 24000000 		.4byte	.LVL16
 3218 01cb 2D000000 		.4byte	.LVL17-1
 3219 01cf 0100     		.2byte	0x1
 3220 01d1 53       		.byte	0x53
 3221 01d2 00000000 		.4byte	0
 3222 01d6 00000000 		.4byte	0
 3223              	.LLST15:
 3224 01da 24000000 		.4byte	.LVL16
 3225 01de 2D000000 		.4byte	.LVL17-1
 3226 01e2 0100     		.2byte	0x1
 3227 01e4 50       		.byte	0x50
 3228 01e5 00000000 		.4byte	0
 3229 01e9 00000000 		.4byte	0
 3230              	.LLST16:
 3231 01ed 00000000 		.4byte	.LFB11
 3232 01f1 02000000 		.4byte	.LCFI4
 3233 01f5 0200     		.2byte	0x2
 3234 01f7 7D       		.byte	0x7d
 3235 01f8 00       		.sleb128 0
 3236 01f9 02000000 		.4byte	.LCFI4
 3237 01fd 48000000 		.4byte	.LFE11
 3238 0201 0200     		.2byte	0x2
 3239 0203 7D       		.byte	0x7d
 3240 0204 10       		.sleb128 16
 3241 0205 00000000 		.4byte	0
ARM GAS  /tmp/cciWq72G.s 			page 58


 3242 0209 00000000 		.4byte	0
 3243              	.LLST17:
 3244 020d 00000000 		.4byte	.LVL20
 3245 0211 11000000 		.4byte	.LVL24-1
 3246 0215 0100     		.2byte	0x1
 3247 0217 50       		.byte	0x50
 3248 0218 11000000 		.4byte	.LVL24-1
 3249 021c 48000000 		.4byte	.LFE11
 3250 0220 0100     		.2byte	0x1
 3251 0222 54       		.byte	0x54
 3252 0223 00000000 		.4byte	0
 3253 0227 00000000 		.4byte	0
 3254              	.LLST18:
 3255 022b 00000000 		.4byte	.LVL20
 3256 022f 11000000 		.4byte	.LVL24-1
 3257 0233 0100     		.2byte	0x1
 3258 0235 51       		.byte	0x51
 3259 0236 11000000 		.4byte	.LVL24-1
 3260 023a 48000000 		.4byte	.LFE11
 3261 023e 0100     		.2byte	0x1
 3262 0240 55       		.byte	0x55
 3263 0241 00000000 		.4byte	0
 3264 0245 00000000 		.4byte	0
 3265              	.LLST19:
 3266 0249 0C000000 		.4byte	.LVL22
 3267 024d 0E000000 		.4byte	.LVL23
 3268 0251 0100     		.2byte	0x1
 3269 0253 53       		.byte	0x53
 3270 0254 00000000 		.4byte	0
 3271 0258 00000000 		.4byte	0
 3272              	.LLST20:
 3273 025c 1E000000 		.4byte	.LVL25
 3274 0260 2A000000 		.4byte	.LVL28
 3275 0264 0100     		.2byte	0x1
 3276 0266 50       		.byte	0x50
 3277 0267 00000000 		.4byte	0
 3278 026b 00000000 		.4byte	0
 3279              	.LLST21:
 3280 026f 28000000 		.4byte	.LVL27
 3281 0273 2A000000 		.4byte	.LVL28
 3282 0277 0100     		.2byte	0x1
 3283 0279 53       		.byte	0x53
 3284 027a 00000000 		.4byte	0
 3285 027e 00000000 		.4byte	0
 3286              	.LLST22:
 3287 0282 46000000 		.4byte	.LVL31
 3288 0286 48000000 		.4byte	.LFE11
 3289 028a 0100     		.2byte	0x1
 3290 028c 53       		.byte	0x53
 3291 028d 00000000 		.4byte	0
 3292 0291 00000000 		.4byte	0
 3293              	.LLST23:
 3294 0295 00000000 		.4byte	.LFB12
 3295 0299 04000000 		.4byte	.LCFI5
 3296 029d 0200     		.2byte	0x2
 3297 029f 7D       		.byte	0x7d
 3298 02a0 00       		.sleb128 0
ARM GAS  /tmp/cciWq72G.s 			page 59


 3299 02a1 04000000 		.4byte	.LCFI5
 3300 02a5 72000000 		.4byte	.LFE12
 3301 02a9 0200     		.2byte	0x2
 3302 02ab 7D       		.byte	0x7d
 3303 02ac 20       		.sleb128 32
 3304 02ad 00000000 		.4byte	0
 3305 02b1 00000000 		.4byte	0
 3306              	.LLST24:
 3307 02b5 00000000 		.4byte	.LVL32
 3308 02b9 20000000 		.4byte	.LVL37
 3309 02bd 0100     		.2byte	0x1
 3310 02bf 50       		.byte	0x50
 3311 02c0 20000000 		.4byte	.LVL37
 3312 02c4 72000000 		.4byte	.LFE12
 3313 02c8 0100     		.2byte	0x1
 3314 02ca 54       		.byte	0x54
 3315 02cb 00000000 		.4byte	0
 3316 02cf 00000000 		.4byte	0
 3317              	.LLST25:
 3318 02d3 00000000 		.4byte	.LVL32
 3319 02d7 18000000 		.4byte	.LVL36
 3320 02db 0100     		.2byte	0x1
 3321 02dd 51       		.byte	0x51
 3322 02de 00000000 		.4byte	0
 3323 02e2 00000000 		.4byte	0
 3324              	.LLST26:
 3325 02e6 00000000 		.4byte	.LVL32
 3326 02ea 18000000 		.4byte	.LVL36
 3327 02ee 0100     		.2byte	0x1
 3328 02f0 52       		.byte	0x52
 3329 02f1 00000000 		.4byte	0
 3330 02f5 00000000 		.4byte	0
 3331              	.LLST27:
 3332 02f9 00000000 		.4byte	.LVL32
 3333 02fd 12000000 		.4byte	.LVL34
 3334 0301 0100     		.2byte	0x1
 3335 0303 53       		.byte	0x53
 3336 0304 12000000 		.4byte	.LVL34
 3337 0308 72000000 		.4byte	.LFE12
 3338 030c 0100     		.2byte	0x1
 3339 030e 55       		.byte	0x55
 3340 030f 00000000 		.4byte	0
 3341 0313 00000000 		.4byte	0
 3342              	.LLST28:
 3343 0317 10000000 		.4byte	.LVL33
 3344 031b 18000000 		.4byte	.LVL36
 3345 031f 0200     		.2byte	0x2
 3346 0321 70       		.byte	0x70
 3347 0322 1C       		.sleb128 28
 3348 0323 18000000 		.4byte	.LVL36
 3349 0327 72000000 		.4byte	.LFE12
 3350 032b 0100     		.2byte	0x1
 3351 032d 58       		.byte	0x58
 3352 032e 00000000 		.4byte	0
 3353 0332 00000000 		.4byte	0
 3354              	.LLST29:
 3355 0336 10000000 		.4byte	.LVL33
ARM GAS  /tmp/cciWq72G.s 			page 60


 3356 033a 18000000 		.4byte	.LVL36
 3357 033e 0200     		.2byte	0x2
 3358 0340 30       		.byte	0x30
 3359 0341 9F       		.byte	0x9f
 3360 0342 18000000 		.4byte	.LVL36
 3361 0346 72000000 		.4byte	.LFE12
 3362 034a 0100     		.2byte	0x1
 3363 034c 57       		.byte	0x57
 3364 034d 00000000 		.4byte	0
 3365 0351 00000000 		.4byte	0
 3366              	.LLST30:
 3367 0355 16000000 		.4byte	.LVL35
 3368 0359 21000000 		.4byte	.LVL38-1
 3369 035d 0100     		.2byte	0x1
 3370 035f 53       		.byte	0x53
 3371 0360 22000000 		.4byte	.LVL38
 3372 0364 33000000 		.4byte	.LVL39-1
 3373 0368 0100     		.2byte	0x1
 3374 036a 53       		.byte	0x53
 3375 036b 44000000 		.4byte	.LVL42
 3376 036f 46000000 		.4byte	.LVL43
 3377 0373 0100     		.2byte	0x1
 3378 0375 53       		.byte	0x53
 3379 0376 00000000 		.4byte	0
 3380 037a 00000000 		.4byte	0
 3381              	.LLST31:
 3382 037e 3E000000 		.4byte	.LVL41
 3383 0382 44000000 		.4byte	.LVL42
 3384 0386 0100     		.2byte	0x1
 3385 0388 53       		.byte	0x53
 3386 0389 00000000 		.4byte	0
 3387 038d 00000000 		.4byte	0
 3388              	.LLST32:
 3389 0391 3E000000 		.4byte	.LVL41
 3390 0395 44000000 		.4byte	.LVL42
 3391 0399 0100     		.2byte	0x1
 3392 039b 53       		.byte	0x53
 3393 039c 64000000 		.4byte	.LVL44
 3394 03a0 6C000000 		.4byte	.LVL46
 3395 03a4 0100     		.2byte	0x1
 3396 03a6 53       		.byte	0x53
 3397 03a7 00000000 		.4byte	0
 3398 03ab 00000000 		.4byte	0
 3399              	.LLST33:
 3400 03af 18000000 		.4byte	.LVL36
 3401 03b3 21000000 		.4byte	.LVL38-1
 3402 03b7 0100     		.2byte	0x1
 3403 03b9 53       		.byte	0x53
 3404 03ba 22000000 		.4byte	.LVL38
 3405 03be 33000000 		.4byte	.LVL39-1
 3406 03c2 0100     		.2byte	0x1
 3407 03c4 53       		.byte	0x53
 3408 03c5 44000000 		.4byte	.LVL42
 3409 03c9 46000000 		.4byte	.LVL43
 3410 03cd 0100     		.2byte	0x1
 3411 03cf 53       		.byte	0x53
 3412 03d0 70000000 		.4byte	.LVL47
ARM GAS  /tmp/cciWq72G.s 			page 61


 3413 03d4 72000000 		.4byte	.LFE12
 3414 03d8 0100     		.2byte	0x1
 3415 03da 53       		.byte	0x53
 3416 03db 00000000 		.4byte	0
 3417 03df 00000000 		.4byte	0
 3418              	.LLST34:
 3419 03e3 00000000 		.4byte	.LFB13
 3420 03e7 02000000 		.4byte	.LCFI6
 3421 03eb 0200     		.2byte	0x2
 3422 03ed 7D       		.byte	0x7d
 3423 03ee 00       		.sleb128 0
 3424 03ef 02000000 		.4byte	.LCFI6
 3425 03f3 1C000000 		.4byte	.LFE13
 3426 03f7 0200     		.2byte	0x2
 3427 03f9 7D       		.byte	0x7d
 3428 03fa 04       		.sleb128 4
 3429 03fb 00000000 		.4byte	0
 3430 03ff 00000000 		.4byte	0
 3431              	.LLST35:
 3432 0403 00000000 		.4byte	.LVL48
 3433 0407 06000000 		.4byte	.LVL49
 3434 040b 0100     		.2byte	0x1
 3435 040d 53       		.byte	0x53
 3436 040e 06000000 		.4byte	.LVL49
 3437 0412 1C000000 		.4byte	.LFE13
 3438 0416 0200     		.2byte	0x2
 3439 0418 70       		.byte	0x70
 3440 0419 1C       		.sleb128 28
 3441 041a 00000000 		.4byte	0
 3442 041e 00000000 		.4byte	0
 3443              	.LLST36:
 3444 0422 00000000 		.4byte	.LFB14
 3445 0426 02000000 		.4byte	.LCFI7
 3446 042a 0200     		.2byte	0x2
 3447 042c 7D       		.byte	0x7d
 3448 042d 00       		.sleb128 0
 3449 042e 02000000 		.4byte	.LCFI7
 3450 0432 2E000000 		.4byte	.LFE14
 3451 0436 0200     		.2byte	0x2
 3452 0438 7D       		.byte	0x7d
 3453 0439 10       		.sleb128 16
 3454 043a 00000000 		.4byte	0
 3455 043e 00000000 		.4byte	0
 3456              	.LLST37:
 3457 0442 00000000 		.4byte	.LVL50
 3458 0446 0A000000 		.4byte	.LVL51
 3459 044a 0100     		.2byte	0x1
 3460 044c 50       		.byte	0x50
 3461 044d 0A000000 		.4byte	.LVL51
 3462 0451 2E000000 		.4byte	.LFE14
 3463 0455 0100     		.2byte	0x1
 3464 0457 54       		.byte	0x54
 3465 0458 00000000 		.4byte	0
 3466 045c 00000000 		.4byte	0
 3467              	.LLST38:
 3468 0460 1A000000 		.4byte	.LVL52
 3469 0464 2C000000 		.4byte	.LVL54
ARM GAS  /tmp/cciWq72G.s 			page 62


 3470 0468 0100     		.2byte	0x1
 3471 046a 54       		.byte	0x54
 3472 046b 00000000 		.4byte	0
 3473 046f 00000000 		.4byte	0
 3474              	.LLST39:
 3475 0473 1A000000 		.4byte	.LVL52
 3476 0477 23000000 		.4byte	.LVL53-1
 3477 047b 0100     		.2byte	0x1
 3478 047d 50       		.byte	0x50
 3479 047e 00000000 		.4byte	0
 3480 0482 00000000 		.4byte	0
 3481              	.LLST40:
 3482 0486 00000000 		.4byte	.LFB15
 3483 048a 02000000 		.4byte	.LCFI8
 3484 048e 0200     		.2byte	0x2
 3485 0490 7D       		.byte	0x7d
 3486 0491 00       		.sleb128 0
 3487 0492 02000000 		.4byte	.LCFI8
 3488 0496 4E000000 		.4byte	.LFE15
 3489 049a 0200     		.2byte	0x2
 3490 049c 7D       		.byte	0x7d
 3491 049d 18       		.sleb128 24
 3492 049e 00000000 		.4byte	0
 3493 04a2 00000000 		.4byte	0
 3494              	.LLST41:
 3495 04a6 00000000 		.4byte	.LVL55
 3496 04aa 0E000000 		.4byte	.LVL57
 3497 04ae 0100     		.2byte	0x1
 3498 04b0 50       		.byte	0x50
 3499 04b1 0E000000 		.4byte	.LVL57
 3500 04b5 4E000000 		.4byte	.LFE15
 3501 04b9 0100     		.2byte	0x1
 3502 04bb 54       		.byte	0x54
 3503 04bc 00000000 		.4byte	0
 3504 04c0 00000000 		.4byte	0
 3505              	.LLST42:
 3506 04c4 00000000 		.4byte	.LVL55
 3507 04c8 0E000000 		.4byte	.LVL57
 3508 04cc 0100     		.2byte	0x1
 3509 04ce 51       		.byte	0x51
 3510 04cf 00000000 		.4byte	0
 3511 04d3 00000000 		.4byte	0
 3512              	.LLST43:
 3513 04d7 00000000 		.4byte	.LVL55
 3514 04db 0E000000 		.4byte	.LVL57
 3515 04df 0100     		.2byte	0x1
 3516 04e1 52       		.byte	0x52
 3517 04e2 0E000000 		.4byte	.LVL57
 3518 04e6 4E000000 		.4byte	.LFE15
 3519 04ea 0100     		.2byte	0x1
 3520 04ec 56       		.byte	0x56
 3521 04ed 00000000 		.4byte	0
 3522 04f1 00000000 		.4byte	0
 3523              	.LLST44:
 3524 04f5 0E000000 		.4byte	.LVL57
 3525 04f9 19000000 		.4byte	.LVL58-1
 3526 04fd 0100     		.2byte	0x1
ARM GAS  /tmp/cciWq72G.s 			page 63


 3527 04ff 53       		.byte	0x53
 3528 0500 26000000 		.4byte	.LVL61
 3529 0504 28000000 		.4byte	.LVL62
 3530 0508 0100     		.2byte	0x1
 3531 050a 53       		.byte	0x53
 3532 050b 00000000 		.4byte	0
 3533 050f 00000000 		.4byte	0
 3534              	.LLST45:
 3535 0513 1A000000 		.4byte	.LVL58
 3536 0517 26000000 		.4byte	.LVL61
 3537 051b 0100     		.2byte	0x1
 3538 051d 50       		.byte	0x50
 3539 051e 00000000 		.4byte	0
 3540 0522 00000000 		.4byte	0
 3541              	.LLST46:
 3542 0526 24000000 		.4byte	.LVL60
 3543 052a 26000000 		.4byte	.LVL61
 3544 052e 0100     		.2byte	0x1
 3545 0530 53       		.byte	0x53
 3546 0531 00000000 		.4byte	0
 3547 0535 00000000 		.4byte	0
 3548              	.LLST47:
 3549 0539 4A000000 		.4byte	.LVL64
 3550 053d 4E000000 		.4byte	.LFE15
 3551 0541 0100     		.2byte	0x1
 3552 0543 53       		.byte	0x53
 3553 0544 00000000 		.4byte	0
 3554 0548 00000000 		.4byte	0
 3555              	.LLST48:
 3556 054c 00000000 		.4byte	.LFB16
 3557 0550 08000000 		.4byte	.LCFI9
 3558 0554 0200     		.2byte	0x2
 3559 0556 7D       		.byte	0x7d
 3560 0557 00       		.sleb128 0
 3561 0558 08000000 		.4byte	.LCFI9
 3562 055c 46000000 		.4byte	.LFE16
 3563 0560 0200     		.2byte	0x2
 3564 0562 7D       		.byte	0x7d
 3565 0563 08       		.sleb128 8
 3566 0564 00000000 		.4byte	0
 3567 0568 00000000 		.4byte	0
 3568              	.LLST49:
 3569 056c 00000000 		.4byte	.LVL65
 3570 0570 20000000 		.4byte	.LVL67
 3571 0574 0100     		.2byte	0x1
 3572 0576 50       		.byte	0x50
 3573 0577 20000000 		.4byte	.LVL67
 3574 057b 2D000000 		.4byte	.LVL69-1
 3575 057f 0100     		.2byte	0x1
 3576 0581 53       		.byte	0x53
 3577 0582 36000000 		.4byte	.LVL70
 3578 0586 44000000 		.4byte	.LVL72
 3579 058a 0100     		.2byte	0x1
 3580 058c 50       		.byte	0x50
 3581 058d 44000000 		.4byte	.LVL72
 3582 0591 46000000 		.4byte	.LFE16
 3583 0595 0100     		.2byte	0x1
ARM GAS  /tmp/cciWq72G.s 			page 64


 3584 0597 53       		.byte	0x53
 3585 0598 00000000 		.4byte	0
 3586 059c 00000000 		.4byte	0
 3587              	.LLST50:
 3588 05a0 16000000 		.4byte	.LVL66
 3589 05a4 3C000000 		.4byte	.LVL71
 3590 05a8 0100     		.2byte	0x1
 3591 05aa 54       		.byte	0x54
 3592 05ab 00000000 		.4byte	0
 3593 05af 00000000 		.4byte	0
 3594              	.LLST51:
 3595 05b3 24000000 		.4byte	.LVL68
 3596 05b7 2D000000 		.4byte	.LVL69-1
 3597 05bb 0100     		.2byte	0x1
 3598 05bd 53       		.byte	0x53
 3599 05be 00000000 		.4byte	0
 3600 05c2 00000000 		.4byte	0
 3601              	.LLST52:
 3602 05c6 24000000 		.4byte	.LVL68
 3603 05ca 2D000000 		.4byte	.LVL69-1
 3604 05ce 0200     		.2byte	0x2
 3605 05d0 73       		.byte	0x73
 3606 05d1 00       		.sleb128 0
 3607 05d2 00000000 		.4byte	0
 3608 05d6 00000000 		.4byte	0
 3609              	.LLST53:
 3610 05da 00000000 		.4byte	.LFB17
 3611 05de 04000000 		.4byte	.LCFI10
 3612 05e2 0200     		.2byte	0x2
 3613 05e4 7D       		.byte	0x7d
 3614 05e5 00       		.sleb128 0
 3615 05e6 04000000 		.4byte	.LCFI10
 3616 05ea 86000000 		.4byte	.LFE17
 3617 05ee 0200     		.2byte	0x2
 3618 05f0 7D       		.byte	0x7d
 3619 05f1 20       		.sleb128 32
 3620 05f2 00000000 		.4byte	0
 3621 05f6 00000000 		.4byte	0
 3622              	.LLST54:
 3623 05fa 00000000 		.4byte	.LVL73
 3624 05fe 1A000000 		.4byte	.LVL77
 3625 0602 0100     		.2byte	0x1
 3626 0604 50       		.byte	0x50
 3627 0605 1A000000 		.4byte	.LVL77
 3628 0609 86000000 		.4byte	.LFE17
 3629 060d 0100     		.2byte	0x1
 3630 060f 54       		.byte	0x54
 3631 0610 00000000 		.4byte	0
 3632 0614 00000000 		.4byte	0
 3633              	.LLST55:
 3634 0618 00000000 		.4byte	.LVL73
 3635 061c 1A000000 		.4byte	.LVL77
 3636 0620 0100     		.2byte	0x1
 3637 0622 51       		.byte	0x51
 3638 0623 1A000000 		.4byte	.LVL77
 3639 0627 38000000 		.4byte	.LVL79
 3640 062b 0100     		.2byte	0x1
ARM GAS  /tmp/cciWq72G.s 			page 65


 3641 062d 55       		.byte	0x55
 3642 062e 38000000 		.4byte	.LVL79
 3643 0632 58000000 		.4byte	.LVL84
 3644 0636 0300     		.2byte	0x3
 3645 0638 75       		.byte	0x75
 3646 0639 01       		.sleb128 1
 3647 063a 9F       		.byte	0x9f
 3648 063b 58000000 		.4byte	.LVL84
 3649 063f 80000000 		.4byte	.LVL89
 3650 0643 0100     		.2byte	0x1
 3651 0645 55       		.byte	0x55
 3652 0646 00000000 		.4byte	0
 3653 064a 00000000 		.4byte	0
 3654              	.LLST56:
 3655 064e 00000000 		.4byte	.LVL73
 3656 0652 1A000000 		.4byte	.LVL77
 3657 0656 0100     		.2byte	0x1
 3658 0658 52       		.byte	0x52
 3659 0659 1A000000 		.4byte	.LVL77
 3660 065d 50000000 		.4byte	.LVL82
 3661 0661 0100     		.2byte	0x1
 3662 0663 57       		.byte	0x57
 3663 0664 50000000 		.4byte	.LVL82
 3664 0668 54000000 		.4byte	.LVL83
 3665 066c 0300     		.2byte	0x3
 3666 066e 77       		.byte	0x77
 3667 066f 01       		.sleb128 1
 3668 0670 9F       		.byte	0x9f
 3669 0671 5E000000 		.4byte	.LVL86
 3670 0675 80000000 		.4byte	.LVL89
 3671 0679 0100     		.2byte	0x1
 3672 067b 57       		.byte	0x57
 3673 067c 00000000 		.4byte	0
 3674 0680 00000000 		.4byte	0
 3675              	.LLST57:
 3676 0684 00000000 		.4byte	.LVL73
 3677 0688 12000000 		.4byte	.LVL75
 3678 068c 0100     		.2byte	0x1
 3679 068e 53       		.byte	0x53
 3680 068f 12000000 		.4byte	.LVL75
 3681 0693 86000000 		.4byte	.LFE17
 3682 0697 0100     		.2byte	0x1
 3683 0699 56       		.byte	0x56
 3684 069a 00000000 		.4byte	0
 3685 069e 00000000 		.4byte	0
 3686              	.LLST58:
 3687 06a2 10000000 		.4byte	.LVL74
 3688 06a6 1A000000 		.4byte	.LVL77
 3689 06aa 0200     		.2byte	0x2
 3690 06ac 70       		.byte	0x70
 3691 06ad 1C       		.sleb128 28
 3692 06ae 1A000000 		.4byte	.LVL77
 3693 06b2 86000000 		.4byte	.LFE17
 3694 06b6 0100     		.2byte	0x1
 3695 06b8 59       		.byte	0x59
 3696 06b9 00000000 		.4byte	0
 3697 06bd 00000000 		.4byte	0
ARM GAS  /tmp/cciWq72G.s 			page 66


 3698              	.LLST59:
 3699 06c1 10000000 		.4byte	.LVL74
 3700 06c5 1A000000 		.4byte	.LVL77
 3701 06c9 0200     		.2byte	0x2
 3702 06cb 30       		.byte	0x30
 3703 06cc 9F       		.byte	0x9f
 3704 06cd 1A000000 		.4byte	.LVL77
 3705 06d1 86000000 		.4byte	.LFE17
 3706 06d5 0100     		.2byte	0x1
 3707 06d7 58       		.byte	0x58
 3708 06d8 00000000 		.4byte	0
 3709 06dc 00000000 		.4byte	0
 3710              	.LLST60:
 3711 06e0 16000000 		.4byte	.LVL76
 3712 06e4 24000000 		.4byte	.LVL78
 3713 06e8 0100     		.2byte	0x1
 3714 06ea 53       		.byte	0x53
 3715 06eb 00000000 		.4byte	0
 3716 06ef 00000000 		.4byte	0
 3717              	.LLST61:
 3718 06f3 4E000000 		.4byte	.LVL81
 3719 06f7 5A000000 		.4byte	.LVL85
 3720 06fb 0100     		.2byte	0x1
 3721 06fd 53       		.byte	0x53
 3722 06fe 80000000 		.4byte	.LVL89
 3723 0702 86000000 		.4byte	.LFE17
 3724 0706 0100     		.2byte	0x1
 3725 0708 53       		.byte	0x53
 3726 0709 00000000 		.4byte	0
 3727 070d 00000000 		.4byte	0
 3728              	.LLST62:
 3729 0711 5E000000 		.4byte	.LVL86
 3730 0715 68000000 		.4byte	.LVL87
 3731 0719 0100     		.2byte	0x1
 3732 071b 53       		.byte	0x53
 3733 071c 00000000 		.4byte	0
 3734 0720 00000000 		.4byte	0
 3735              	.LLST63:
 3736 0724 80000000 		.4byte	.LVL89
 3737 0728 86000000 		.4byte	.LFE17
 3738 072c 0100     		.2byte	0x1
 3739 072e 53       		.byte	0x53
 3740 072f 00000000 		.4byte	0
 3741 0733 00000000 		.4byte	0
 3742              		.section	.debug_aranges,"",%progbits
 3743 0000 6C000000 		.4byte	0x6c
 3744 0004 0200     		.2byte	0x2
 3745 0006 00000000 		.4byte	.Ldebug_info0
 3746 000a 04       		.byte	0x4
 3747 000b 00       		.byte	0
 3748 000c 0000     		.2byte	0
 3749 000e 0000     		.2byte	0
 3750 0010 00000000 		.4byte	.LFB7
 3751 0014 2C000000 		.4byte	.LFE7-.LFB7
 3752 0018 00000000 		.4byte	.LFB8
 3753 001c 1E000000 		.4byte	.LFE8-.LFB8
 3754 0020 00000000 		.4byte	.LFB9
ARM GAS  /tmp/cciWq72G.s 			page 67


 3755 0024 2C000000 		.4byte	.LFE9-.LFB9
 3756 0028 00000000 		.4byte	.LFB10
 3757 002c 4E000000 		.4byte	.LFE10-.LFB10
 3758 0030 00000000 		.4byte	.LFB11
 3759 0034 48000000 		.4byte	.LFE11-.LFB11
 3760 0038 00000000 		.4byte	.LFB12
 3761 003c 72000000 		.4byte	.LFE12-.LFB12
 3762 0040 00000000 		.4byte	.LFB13
 3763 0044 1C000000 		.4byte	.LFE13-.LFB13
 3764 0048 00000000 		.4byte	.LFB14
 3765 004c 2E000000 		.4byte	.LFE14-.LFB14
 3766 0050 00000000 		.4byte	.LFB15
 3767 0054 4E000000 		.4byte	.LFE15-.LFB15
 3768 0058 00000000 		.4byte	.LFB16
 3769 005c 46000000 		.4byte	.LFE16-.LFB16
 3770 0060 00000000 		.4byte	.LFB17
 3771 0064 86000000 		.4byte	.LFE17-.LFB17
 3772 0068 00000000 		.4byte	0
 3773 006c 00000000 		.4byte	0
 3774              		.section	.debug_ranges,"",%progbits
 3775              	.Ldebug_ranges0:
 3776 0000 0C000000 		.4byte	.LBB12
 3777 0004 0E000000 		.4byte	.LBE12
 3778 0008 10000000 		.4byte	.LBB15
 3779 000c 18000000 		.4byte	.LBE15
 3780 0010 00000000 		.4byte	0
 3781 0014 00000000 		.4byte	0
 3782 0018 02000000 		.4byte	.LBB20
 3783 001c 04000000 		.4byte	.LBE20
 3784 0020 08000000 		.4byte	.LBB21
 3785 0024 0C000000 		.4byte	.LBE21
 3786 0028 00000000 		.4byte	0
 3787 002c 00000000 		.4byte	0
 3788 0030 14000000 		.4byte	.LBB22
 3789 0034 18000000 		.4byte	.LBE22
 3790 0038 1A000000 		.4byte	.LBB24
 3791 003c 2A000000 		.4byte	.LBE24
 3792 0040 00000000 		.4byte	0
 3793 0044 00000000 		.4byte	0
 3794 0048 10000000 		.4byte	.LBB33
 3795 004c 14000000 		.4byte	.LBE33
 3796 0050 16000000 		.4byte	.LBB35
 3797 0054 26000000 		.4byte	.LBE35
 3798 0058 00000000 		.4byte	0
 3799 005c 00000000 		.4byte	0
 3800 0060 00000000 		.4byte	.LFB7
 3801 0064 2C000000 		.4byte	.LFE7
 3802 0068 00000000 		.4byte	.LFB8
 3803 006c 1E000000 		.4byte	.LFE8
 3804 0070 00000000 		.4byte	.LFB9
 3805 0074 2C000000 		.4byte	.LFE9
 3806 0078 00000000 		.4byte	.LFB10
 3807 007c 4E000000 		.4byte	.LFE10
 3808 0080 00000000 		.4byte	.LFB11
 3809 0084 48000000 		.4byte	.LFE11
 3810 0088 00000000 		.4byte	.LFB12
 3811 008c 72000000 		.4byte	.LFE12
ARM GAS  /tmp/cciWq72G.s 			page 68


 3812 0090 00000000 		.4byte	.LFB13
 3813 0094 1C000000 		.4byte	.LFE13
 3814 0098 00000000 		.4byte	.LFB14
 3815 009c 2E000000 		.4byte	.LFE14
 3816 00a0 00000000 		.4byte	.LFB15
 3817 00a4 4E000000 		.4byte	.LFE15
 3818 00a8 00000000 		.4byte	.LFB16
 3819 00ac 46000000 		.4byte	.LFE16
 3820 00b0 00000000 		.4byte	.LFB17
 3821 00b4 86000000 		.4byte	.LFE17
 3822 00b8 00000000 		.4byte	0
 3823 00bc 00000000 		.4byte	0
 3824              		.section	.debug_line,"",%progbits
 3825              	.Ldebug_line0:
 3826 0000 88030000 		.section	.debug_str,"MS",%progbits,1
 3826      02008501 
 3826      00000201 
 3826      FB0E0D00 
 3826      01010101 
 3827              	.LASF85:
 3828 0000 63684F51 		.ascii	"chOQInit\000"
 3828      496E6974 
 3828      00
 3829              	.LASF38:
 3830 0009 705F6D73 		.ascii	"p_msg\000"
 3830      6700
 3831              	.LASF95:
 3832 000f 71756575 		.ascii	"queue_insert\000"
 3832      655F696E 
 3832      73657274 
 3832      00
 3833              	.LASF86:
 3834 001c 6F6E6679 		.ascii	"onfy\000"
 3834      00
 3835              	.LASF2:
 3836 0021 73697A65 		.ascii	"size_t\000"
 3836      5F7400
 3837              	.LASF59:
 3838 0028 7264796D 		.ascii	"rdymsg\000"
 3838      736700
 3839              	.LASF80:
 3840 002f 63684951 		.ascii	"chIQInit\000"
 3840      496E6974 
 3840      00
 3841              	.LASF75:
 3842 0038 4F757470 		.ascii	"OutputQueue\000"
 3842      75745175 
 3842      65756500 
 3843              	.LASF84:
 3844 0044 63684951 		.ascii	"chIQReadTimeout\000"
 3844      52656164 
 3844      54696D65 
 3844      6F757400 
 3845              	.LASF12:
 3846 0054 6C6F6E67 		.ascii	"long long unsigned int\000"
 3846      206C6F6E 
 3846      6720756E 
ARM GAS  /tmp/cciWq72G.s 			page 69


 3846      7369676E 
 3846      65642069 
 3847              	.LASF60:
 3848 006b 65786974 		.ascii	"exitcode\000"
 3848      636F6465 
 3848      00
 3849              	.LASF26:
 3850 0074 705F7072 		.ascii	"p_prio\000"
 3850      696F00
 3851              	.LASF65:
 3852 007b 715F7761 		.ascii	"q_waiting\000"
 3852      6974696E 
 3852      6700
 3853              	.LASF11:
 3854 0085 6C6F6E67 		.ascii	"long long int\000"
 3854      206C6F6E 
 3854      6720696E 
 3854      7400
 3855              	.LASF1:
 3856 0093 7369676E 		.ascii	"signed char\000"
 3856      65642063 
 3856      68617200 
 3857              	.LASF42:
 3858 009f 705F6D70 		.ascii	"p_mpool\000"
 3858      6F6F6C00 
 3859              	.LASF13:
 3860 00a7 626F6F6C 		.ascii	"bool_t\000"
 3860      5F7400
 3861              	.LASF56:
 3862 00ae 6D5F7175 		.ascii	"m_queue\000"
 3862      65756500 
 3863              	.LASF18:
 3864 00b6 74736C69 		.ascii	"tslices_t\000"
 3864      6365735F 
 3864      7400
 3865              	.LASF94:
 3866 00c0 2F686F6D 		.ascii	"/home/aggieair/workspace/ChibiOS_2.6.1/demos/ARMCM4"
 3866      652F6167 
 3866      67696561 
 3866      69722F77 
 3866      6F726B73 
 3867 00f3 2D53544D 		.ascii	"-STM32F407-DISCOVERY/\000"
 3867      33324634 
 3867      30372D44 
 3867      4953434F 
 3867      56455259 
 3868              	.LASF8:
 3869 0109 6C6F6E67 		.ascii	"long int\000"
 3869      20696E74 
 3869      00
 3870              	.LASF16:
 3871 0112 74737461 		.ascii	"tstate_t\000"
 3871      74655F74 
 3871      00
 3872              	.LASF89:
 3873 011b 63684F51 		.ascii	"chOQGetI\000"
 3873      47657449 
ARM GAS  /tmp/cciWq72G.s 			page 70


 3873      00
 3874              	.LASF67:
 3875 0124 715F6275 		.ascii	"q_buffer\000"
 3875      66666572 
 3875      00
 3876              	.LASF69:
 3877 012d 715F7772 		.ascii	"q_wrptr\000"
 3877      70747200 
 3878              	.LASF28:
 3879 0135 705F6E65 		.ascii	"p_newer\000"
 3879      77657200 
 3880              	.LASF51:
 3881 013d 725F6E65 		.ascii	"r_newer\000"
 3881      77657200 
 3882              	.LASF45:
 3883 0145 72656761 		.ascii	"regarm_t\000"
 3883      726D5F74 
 3883      00
 3884              	.LASF79:
 3885 014e 6C696E6B 		.ascii	"link\000"
 3885      00
 3886              	.LASF88:
 3887 0153 63684F51 		.ascii	"chOQPutTimeout\000"
 3887      50757454 
 3887      696D656F 
 3887      757400
 3888              	.LASF82:
 3889 0162 63684951 		.ascii	"chIQPutI\000"
 3889      50757449 
 3889      00
 3890              	.LASF0:
 3891 016b 756E7369 		.ascii	"unsigned int\000"
 3891      676E6564 
 3891      20696E74 
 3891      00
 3892              	.LASF81:
 3893 0178 63684951 		.ascii	"chIQResetI\000"
 3893      52657365 
 3893      744900
 3894              	.LASF10:
 3895 0183 6C6F6E67 		.ascii	"long unsigned int\000"
 3895      20756E73 
 3895      69676E65 
 3895      6420696E 
 3895      7400
 3896              	.LASF47:
 3897 0195 636F6E74 		.ascii	"context\000"
 3897      65787400 
 3898              	.LASF77:
 3899 019d 73697A65 		.ascii	"size\000"
 3899      00
 3900              	.LASF6:
 3901 01a2 73686F72 		.ascii	"short unsigned int\000"
 3901      7420756E 
 3901      7369676E 
 3901      65642069 
 3901      6E7400
ARM GAS  /tmp/cciWq72G.s 			page 71


 3902              	.LASF92:
 3903 01b5 474E5520 		.ascii	"GNU C 4.6.2 20110908 (prerelease)\000"
 3903      4320342E 
 3903      362E3220 
 3903      32303131 
 3903      30393038 
 3904              	.LASF97:
 3905 01d7 71776169 		.ascii	"qwait\000"
 3905      7400
 3906              	.LASF20:
 3907 01dd 6D73675F 		.ascii	"msg_t\000"
 3907      7400
 3908              	.LASF93:
 3909 01e3 2E2E2F2E 		.ascii	"../../os/kernel/src/chqueues.c\000"
 3909      2E2F6F73 
 3909      2F6B6572 
 3909      6E656C2F 
 3909      7372632F 
 3910              	.LASF44:
 3911 0202 54687265 		.ascii	"ThreadsList\000"
 3911      6164734C 
 3911      69737400 
 3912              	.LASF21:
 3913 020e 6576656E 		.ascii	"eventmask_t\000"
 3913      746D6173 
 3913      6B5F7400 
 3914              	.LASF74:
 3915 021a 496E7075 		.ascii	"InputQueue\000"
 3915      74517565 
 3915      756500
 3916              	.LASF55:
 3917 0225 4D757465 		.ascii	"Mutex\000"
 3917      7800
 3918              	.LASF64:
 3919 022b 47656E65 		.ascii	"GenericQueue\000"
 3919      72696351 
 3919      75657565 
 3919      00
 3920              	.LASF90:
 3921 0238 63684F51 		.ascii	"chOQWriteTimeout\000"
 3921      57726974 
 3921      6554696D 
 3921      656F7574 
 3921      00
 3922              	.LASF66:
 3923 0249 715F636F 		.ascii	"q_counter\000"
 3923      756E7465 
 3923      7200
 3924              	.LASF29:
 3925 0253 705F6F6C 		.ascii	"p_older\000"
 3925      64657200 
 3926              	.LASF50:
 3927 025b 725F6374 		.ascii	"r_ctx\000"
 3927      7800
 3928              	.LASF43:
 3929 0261 54687265 		.ascii	"ThreadsQueue\000"
 3929      61647351 
ARM GAS  /tmp/cciWq72G.s 			page 72


 3929      75657565 
 3929      00
 3930              	.LASF76:
 3931 026e 74696D65 		.ascii	"time\000"
 3931      00
 3932              	.LASF53:
 3933 0273 725F6375 		.ascii	"r_current\000"
 3933      7272656E 
 3933      7400
 3934              	.LASF52:
 3935 027d 725F6F6C 		.ascii	"r_older\000"
 3935      64657200 
 3936              	.LASF17:
 3937 0285 74726566 		.ascii	"trefs_t\000"
 3937      735F7400 
 3938              	.LASF73:
 3939 028d 716E6F74 		.ascii	"qnotify_t\000"
 3939      6966795F 
 3939      7400
 3940              	.LASF25:
 3941 0297 705F7072 		.ascii	"p_prev\000"
 3941      657600
 3942              	.LASF19:
 3943 029e 74707269 		.ascii	"tprio_t\000"
 3943      6F5F7400 
 3944              	.LASF70:
 3945 02a6 715F7264 		.ascii	"q_rdptr\000"
 3945      70747200 
 3946              	.LASF14:
 3947 02ae 5F426F6F 		.ascii	"_Bool\000"
 3947      6C00
 3948              	.LASF7:
 3949 02b4 696E7433 		.ascii	"int32_t\000"
 3949      325F7400 
 3950              	.LASF4:
 3951 02bc 756E7369 		.ascii	"unsigned char\000"
 3951      676E6564 
 3951      20636861 
 3951      7200
 3952              	.LASF40:
 3953 02ca 705F6D74 		.ascii	"p_mtxlist\000"
 3953      786C6973 
 3953      7400
 3954              	.LASF5:
 3955 02d4 73686F72 		.ascii	"short int\000"
 3955      7420696E 
 3955      7400
 3956              	.LASF31:
 3957 02de 705F7374 		.ascii	"p_state\000"
 3957      61746500 
 3958              	.LASF34:
 3959 02e6 705F7072 		.ascii	"p_preempt\000"
 3959      65656D70 
 3959      7400
 3960              	.LASF49:
 3961 02f0 725F7072 		.ascii	"r_prio\000"
 3961      696F00
ARM GAS  /tmp/cciWq72G.s 			page 73


 3962              	.LASF62:
 3963 02f7 65776D61 		.ascii	"ewmask\000"
 3963      736B00
 3964              	.LASF24:
 3965 02fe 705F6E65 		.ascii	"p_next\000"
 3965      787400
 3966              	.LASF15:
 3967 0305 746D6F64 		.ascii	"tmode_t\000"
 3967      655F7400 
 3968              	.LASF32:
 3969 030d 705F666C 		.ascii	"p_flags\000"
 3969      61677300 
 3970              	.LASF23:
 3971 0315 54687265 		.ascii	"Thread\000"
 3971      616400
 3972              	.LASF39:
 3973 031c 705F6570 		.ascii	"p_epending\000"
 3973      656E6469 
 3973      6E6700
 3974              	.LASF9:
 3975 0327 75696E74 		.ascii	"uint32_t\000"
 3975      33325F74 
 3975      00
 3976              	.LASF48:
 3977 0330 725F7175 		.ascii	"r_queue\000"
 3977      65756500 
 3978              	.LASF63:
 3979 0338 63686172 		.ascii	"char\000"
 3979      00
 3980              	.LASF96:
 3981 033d 6669666F 		.ascii	"fifo_remove\000"
 3981      5F72656D 
 3981      6F766500 
 3982              	.LASF58:
 3983 0349 6D5F6E65 		.ascii	"m_next\000"
 3983      787400
 3984              	.LASF22:
 3985 0350 73797374 		.ascii	"systime_t\000"
 3985      696D655F 
 3985      7400
 3986              	.LASF41:
 3987 035a 705F7265 		.ascii	"p_realprio\000"
 3987      616C7072 
 3987      696F00
 3988              	.LASF78:
 3989 0365 696E6679 		.ascii	"infy\000"
 3989      00
 3990              	.LASF87:
 3991 036a 63684F51 		.ascii	"chOQResetI\000"
 3991      52657365 
 3991      744900
 3992              	.LASF35:
 3993 0375 705F7469 		.ascii	"p_time\000"
 3993      6D6500
 3994              	.LASF46:
 3995 037c 696E7463 		.ascii	"intctx\000"
 3995      747800
ARM GAS  /tmp/cciWq72G.s 			page 74


 3996              	.LASF37:
 3997 0383 705F6D73 		.ascii	"p_msgqueue\000"
 3997      67717565 
 3997      756500
 3998              	.LASF68:
 3999 038e 715F746F 		.ascii	"q_top\000"
 3999      7000
 4000              	.LASF33:
 4001 0394 705F7265 		.ascii	"p_refs\000"
 4001      667300
 4002              	.LASF54:
 4003 039b 52656164 		.ascii	"ReadyList\000"
 4003      794C6973 
 4003      7400
 4004              	.LASF71:
 4005 03a5 715F6E6F 		.ascii	"q_notify\000"
 4005      74696679 
 4005      00
 4006              	.LASF91:
 4007 03ae 726C6973 		.ascii	"rlist\000"
 4007      7400
 4008              	.LASF3:
 4009 03b4 75696E74 		.ascii	"uint8_t\000"
 4009      385F7400 
 4010              	.LASF61:
 4011 03bc 77746F62 		.ascii	"wtobjp\000"
 4011      6A7000
 4012              	.LASF30:
 4013 03c3 705F6E61 		.ascii	"p_name\000"
 4013      6D6500
 4014              	.LASF72:
 4015 03ca 715F6C69 		.ascii	"q_link\000"
 4015      6E6B00
 4016              	.LASF57:
 4017 03d1 6D5F6F77 		.ascii	"m_owner\000"
 4017      6E657200 
 4018              	.LASF27:
 4019 03d9 705F6374 		.ascii	"p_ctx\000"
 4019      7800
 4020              	.LASF36:
 4021 03df 705F7761 		.ascii	"p_waiting\000"
 4021      6974696E 
 4021      6700
 4022              	.LASF83:
 4023 03e9 63684951 		.ascii	"chIQGetTimeout\000"
 4023      47657454 
 4023      696D656F 
 4023      757400
 4024              		.ident	"GCC: (Linaro GCC 4.6-2011.09-1) 4.6.2 20110908 (prerelease)"
ARM GAS  /tmp/cciWq72G.s 			page 75


DEFINED SYMBOLS
                            *ABS*:0000000000000000 chqueues.c
     /tmp/cciWq72G.s:18     .text.qwait:0000000000000000 $t
     /tmp/cciWq72G.s:23     .text.qwait:0000000000000000 qwait
     /tmp/cciWq72G.s:78     .text.qwait:0000000000000028 $d
     /tmp/cciWq72G.s:83     .text.chIQInit:0000000000000000 $t
     /tmp/cciWq72G.s:89     .text.chIQInit:0000000000000000 chIQInit
     /tmp/cciWq72G.s:132    .text.chIQResetI:0000000000000000 $t
     /tmp/cciWq72G.s:138    .text.chIQResetI:0000000000000000 chIQResetI
     /tmp/cciWq72G.s:197    .text.chIQPutI:0000000000000000 $t
     /tmp/cciWq72G.s:203    .text.chIQPutI:0000000000000000 chIQPutI
     /tmp/cciWq72G.s:291    .text.chIQGetTimeout:0000000000000000 $t
     /tmp/cciWq72G.s:297    .text.chIQGetTimeout:0000000000000000 chIQGetTimeout
     /tmp/cciWq72G.s:399    .text.chIQReadTimeout:0000000000000000 $t
     /tmp/cciWq72G.s:405    .text.chIQReadTimeout:0000000000000000 chIQReadTimeout
     /tmp/cciWq72G.s:533    .text.chOQInit:0000000000000000 $t
     /tmp/cciWq72G.s:539    .text.chOQInit:0000000000000000 chOQInit
     /tmp/cciWq72G.s:579    .text.chOQResetI:0000000000000000 $t
     /tmp/cciWq72G.s:585    .text.chOQResetI:0000000000000000 chOQResetI
     /tmp/cciWq72G.s:647    .text.chOQPutTimeout:0000000000000000 $t
     /tmp/cciWq72G.s:653    .text.chOQPutTimeout:0000000000000000 chOQPutTimeout
     /tmp/cciWq72G.s:757    .text.chOQGetI:0000000000000000 $t
     /tmp/cciWq72G.s:763    .text.chOQGetI:0000000000000000 chOQGetI
     /tmp/cciWq72G.s:843    .text.chOQWriteTimeout:0000000000000000 $t
     /tmp/cciWq72G.s:849    .text.chOQWriteTimeout:0000000000000000 chOQWriteTimeout
                     .debug_frame:0000000000000010 $d
     /tmp/cciWq72G.s:82     .text.qwait:000000000000002c $t

UNDEFINED SYMBOLS
chSchGoSleepTimeoutS
rlist
chSchReadyI
