ARM GAS  /tmp/cciWq72G.s 			page 1


   1              		.syntax unified
   2              		.cpu cortex-m4
   3              		.fpu softvfp
   4              		.eabi_attribute 20, 1
   5              		.eabi_attribute 21, 1
   6              		.eabi_attribute 23, 3
   7              		.eabi_attribute 24, 1
   8              		.eabi_attribute 25, 1
   9              		.eabi_attribute 26, 1
  10              		.eabi_attribute 30, 2
  11              		.eabi_attribute 18, 4
  12              		.thumb
  13              		.file	"chqueues.c"
  14              		.text
  15              	.Ltext0:
  16              		.cfi_sections	.debug_frame
  17              		.section	.text.qwait,"ax",%progbits
  18              		.align	2
  19              		.p2align 4,,15
  20              		.thumb
  21              		.thumb_func
  22              		.type	qwait, %function
  23              	qwait:
  24              	.LFB7:
  25              		.file 1 "../../os/kernel/src/chqueues.c"
  26              		.loc 1 70 0
  27              		.cfi_startproc
  28              		@ args = 0, pretend = 0, frame = 0
  29              		@ frame_needed = 0, uses_anonymous_args = 0
  30              		@ link register save eliminated.
  31              	.LVL0:
  32 0000 10B4     		push	{r4}
  33              	.LCFI0:
  34              		.cfi_def_cfa_offset 4
  35              		.cfi_offset 4, -4
  36              		.loc 1 70 0
  37 0002 0246     		mov	r2, r0
  38              		.loc 1 72 0
  39 0004 59B1     		cbz	r1, .L2
  40              		.loc 1 74 0
  41 0006 084B     		ldr	r3, .L4
  42 0008 9B69     		ldr	r3, [r3, #24]
  43 000a 5862     		str	r0, [r3, #36]
  44              	.LVL1:
  45              	.LBB12:
  46              	.LBB13:
  47              		.file 2 "../../os/kernel/include/chinline.h"
  48              		.loc 2 55 0
  49 000c 4468     		ldr	r4, [r0, #4]
  50              	.LBE13:
  51              	.LBE12:
  52              		.loc 1 76 0
  53 000e 0D20     		movs	r0, #13
  54              	.LVL2:
  55              	.LBB15:
  56              	.LBB14:
  57              		.loc 2 55 0
ARM GAS  /tmp/cciWq72G.s 			page 2


  58 0010 83E81400 		stmia	r3, {r2, r4}
  59              		.loc 2 56 0
  60 0014 5360     		str	r3, [r2, #4]
  61 0016 2360     		str	r3, [r4, #0]
  62              	.LBE14:
  63              	.LBE15:
  64              		.loc 1 77 0
  65 0018 10BC     		pop	{r4}
  66              		.loc 1 76 0
  67 001a FFF7FEBF 		b	chSchGoSleepTimeoutS
  68              	.LVL3:
  69              	.L2:
  70              		.loc 1 77 0
  71 001e 4FF0FF30 		mov	r0, #-1
  72              	.LVL4:
  73 0022 10BC     		pop	{r4}
  74 0024 7047     		bx	lr
  75              	.L5:
  76 0026 00BF     		.align	2
  77              	.L4:
  78 0028 00000000 		.word	rlist
  79              		.cfi_endproc
  80              	.LFE7:
  81              		.size	qwait, .-qwait
  82 002c AFF30080 		.section	.text.chIQInit,"ax",%progbits
  83              		.align	2
  84              		.p2align 4,,15
  85              		.global	chIQInit
  86              		.thumb
  87              		.thumb_func
  88              		.type	chIQInit, %function
  89              	chIQInit:
  90              	.LFB8:
  91              		.loc 1 96 0
  92              		.cfi_startproc
  93              		@ args = 4, pretend = 0, frame = 0
  94              		@ frame_needed = 0, uses_anonymous_args = 0
  95              		@ link register save eliminated.
  96              	.LVL5:
  97 0000 10B4     		push	{r4}
  98              	.LCFI1:
  99              		.cfi_def_cfa_offset 4
 100              		.cfi_offset 4, -4
 101              		.loc 1 102 0
 102 0002 C361     		str	r3, [r0, #28]
 103              		.loc 1 103 0
 104 0004 019B     		ldr	r3, [sp, #4]
 105              	.LVL6:
 106              		.loc 1 98 0
 107 0006 4060     		str	r0, [r0, #4]
 108              		.loc 1 101 0
 109 0008 8A18     		adds	r2, r1, r2
 110              	.LVL7:
 111              		.loc 1 99 0
 112 000a 0024     		movs	r4, #0
 113              		.loc 1 98 0
 114 000c 0060     		str	r0, [r0, #0]
ARM GAS  /tmp/cciWq72G.s 			page 3


 115              		.loc 1 99 0
 116 000e 8460     		str	r4, [r0, #8]
 117              		.loc 1 100 0
 118 0010 4161     		str	r1, [r0, #20]
 119 0012 8161     		str	r1, [r0, #24]
 120 0014 C160     		str	r1, [r0, #12]
 121              		.loc 1 101 0
 122 0016 0261     		str	r2, [r0, #16]
 123              		.loc 1 103 0
 124 0018 0362     		str	r3, [r0, #32]
 125              		.loc 1 104 0
 126 001a 10BC     		pop	{r4}
 127 001c 7047     		bx	lr
 128              		.cfi_endproc
 129              	.LFE8:
 130              		.size	chIQInit, .-chIQInit
 131 001e 00BF     		.section	.text.chIQResetI,"ax",%progbits
 132              		.align	2
 133              		.p2align 4,,15
 134              		.global	chIQResetI
 135              		.thumb
 136              		.thumb_func
 137              		.type	chIQResetI, %function
 138              	chIQResetI:
 139              	.LFB9:
 140              		.loc 1 117 0
 141              		.cfi_startproc
 142              		@ args = 0, pretend = 0, frame = 0
 143              		@ frame_needed = 0, uses_anonymous_args = 0
 144              	.LVL8:
 145 0000 38B5     		push	{r3, r4, r5, lr}
 146              	.LCFI2:
 147              		.cfi_def_cfa_offset 16
 148              		.cfi_offset 14, -4
 149              		.cfi_offset 5, -8
 150              		.cfi_offset 4, -12
 151              		.cfi_offset 3, -16
 152              		.loc 1 117 0
 153 0002 0446     		mov	r4, r0
 154              		.loc 1 121 0
 155 0004 C368     		ldr	r3, [r0, #12]
 156              		.loc 1 123 0
 157 0006 0068     		ldr	r0, [r0, #0]
 158              	.LVL9:
 159              		.loc 1 121 0
 160 0008 6361     		str	r3, [r4, #20]
 161 000a A361     		str	r3, [r4, #24]
 162              		.loc 1 122 0
 163 000c 0023     		movs	r3, #0
 164              		.loc 1 123 0
 165 000e A042     		cmp	r0, r4
 166              		.loc 1 122 0
 167 0010 A360     		str	r3, [r4, #8]
 168              		.loc 1 123 0
 169 0012 0AD0     		beq	.L7
 170              		.loc 1 124 0
 171 0014 6FF00105 		mvn	r5, #1
ARM GAS  /tmp/cciWq72G.s 			page 4


 172              	.L10:
 173              	.LVL10:
 174              	.LBB16:
 175              	.LBB17:
 176              		.loc 2 62 0
 177 0018 0368     		ldr	r3, [r0, #0]
 178 001a 2360     		str	r3, [r4, #0]
 179 001c 5C60     		str	r4, [r3, #4]
 180              	.LBE17:
 181              	.LBE16:
 182              		.loc 1 124 0
 183 001e FFF7FEFF 		bl	chSchReadyI
 184              	.LVL11:
 185 0022 4562     		str	r5, [r0, #36]
 186              		.loc 1 123 0
 187 0024 2068     		ldr	r0, [r4, #0]
 188 0026 8442     		cmp	r4, r0
 189 0028 F6D1     		bne	.L10
 190              	.LVL12:
 191              	.L7:
 192 002a 38BD     		pop	{r3, r4, r5, pc}
 193              		.cfi_endproc
 194              	.LFE9:
 195              		.size	chIQResetI, .-chIQResetI
 196 002c AFF30080 		.section	.text.chIQPutI,"ax",%progbits
 197              		.align	2
 198              		.p2align 4,,15
 199              		.global	chIQPutI
 200              		.thumb
 201              		.thumb_func
 202              		.type	chIQPutI, %function
 203              	chIQPutI:
 204              	.LFB10:
 205              		.loc 1 140 0
 206              		.cfi_startproc
 207              		@ args = 0, pretend = 0, frame = 0
 208              		@ frame_needed = 0, uses_anonymous_args = 0
 209              	.LVL13:
 210              		.loc 1 144 0
 211 0000 4269     		ldr	r2, [r0, #20]
 212              		.loc 1 140 0
 213 0002 08B5     		push	{r3, lr}
 214              	.LCFI3:
 215              		.cfi_def_cfa_offset 8
 216              		.cfi_offset 14, -4
 217              		.cfi_offset 3, -8
 218              		.loc 1 140 0
 219 0004 0346     		mov	r3, r0
 220              		.loc 1 144 0
 221 0006 8069     		ldr	r0, [r0, #24]
 222              	.LVL14:
 223 0008 8242     		cmp	r2, r0
 224 000a 9868     		ldr	r0, [r3, #8]
 225 000c 1AD0     		beq	.L20
 226              	.L15:
 227              		.loc 1 147 0
 228 000e 0130     		adds	r0, r0, #1
ARM GAS  /tmp/cciWq72G.s 			page 5


 229 0010 9860     		str	r0, [r3, #8]
 230              		.loc 1 148 0
 231 0012 02F8011B 		strb	r1, [r2], #1
 232              		.loc 1 149 0
 233 0016 1969     		ldr	r1, [r3, #16]
 234              	.LVL15:
 235              		.loc 1 148 0
 236 0018 5A61     		str	r2, [r3, #20]
 237              		.loc 1 149 0
 238 001a 8A42     		cmp	r2, r1
 239 001c 0BD2     		bcs	.L16
 240              		.loc 1 152 0
 241 001e 1868     		ldr	r0, [r3, #0]
 242 0020 9842     		cmp	r0, r3
 243 0022 0DD0     		beq	.L19
 244              	.L21:
 245              	.LVL16:
 246              	.LBB18:
 247              	.LBB19:
 248              		.loc 2 62 0
 249 0024 0268     		ldr	r2, [r0, #0]
 250 0026 1A60     		str	r2, [r3, #0]
 251 0028 5360     		str	r3, [r2, #4]
 252              	.LBE19:
 253              	.LBE18:
 254              		.loc 1 153 0
 255 002a FFF7FEFF 		bl	chSchReadyI
 256              	.LVL17:
 257 002e 0023     		movs	r3, #0
 258 0030 4362     		str	r3, [r0, #36]
 259              		.loc 1 155 0
 260 0032 1846     		mov	r0, r3
 261 0034 08BD     		pop	{r3, pc}
 262              	.LVL18:
 263              	.L16:
 264              		.loc 1 152 0
 265 0036 1868     		ldr	r0, [r3, #0]
 266              		.loc 1 150 0
 267 0038 DA68     		ldr	r2, [r3, #12]
 268              		.loc 1 152 0
 269 003a 9842     		cmp	r0, r3
 270              		.loc 1 150 0
 271 003c 5A61     		str	r2, [r3, #20]
 272              		.loc 1 152 0
 273 003e F1D1     		bne	.L21
 274              	.L19:
 275              		.loc 1 155 0
 276 0040 0020     		movs	r0, #0
 277              		.loc 1 156 0
 278 0042 08BD     		pop	{r3, pc}
 279              	.LVL19:
 280              	.L20:
 281              		.loc 1 144 0 discriminator 1
 282 0044 0028     		cmp	r0, #0
 283 0046 E2D0     		beq	.L15
 284              		.loc 1 145 0
 285 0048 6FF00300 		mvn	r0, #3
ARM GAS  /tmp/cciWq72G.s 			page 6


 286 004c 08BD     		pop	{r3, pc}
 287              		.cfi_endproc
 288              	.LFE10:
 289              		.size	chIQPutI, .-chIQPutI
 290 004e 00BF     		.section	.text.chIQGetTimeout,"ax",%progbits
 291              		.align	2
 292              		.p2align 4,,15
 293              		.global	chIQGetTimeout
 294              		.thumb
 295              		.thumb_func
 296              		.type	chIQGetTimeout, %function
 297              	chIQGetTimeout:
 298              	.LFB11:
 299              		.loc 1 178 0
 300              		.cfi_startproc
 301              		@ args = 0, pretend = 0, frame = 0
 302              		@ frame_needed = 0, uses_anonymous_args = 0
 303              	.LVL20:
 304 0000 70B5     		push	{r4, r5, r6, lr}
 305              	.LCFI4:
 306              		.cfi_def_cfa_offset 16
 307              		.cfi_offset 14, -4
 308              		.cfi_offset 6, -8
 309              		.cfi_offset 5, -12
 310              		.cfi_offset 4, -16
 311              	.LBB20:
 312              		.loc 1 181 0
 313 0002 2023     		movs	r3, #32
 314              	.LVL21:
 315              	.LBE20:
 316              		.loc 1 178 0
 317 0004 0446     		mov	r4, r0
 318 0006 0D46     		mov	r5, r1
 319              	.LBB21:
 320              		.loc 1 181 0
 321              	@ 181 "../../os/kernel/src/chqueues.c" 1
 322 0008 83F31188 		msr     BASEPRI, r3
 323              	@ 0 "" 2
 324              	.LVL22:
 325              		.thumb
 326              	.LBE21:
 327              		.loc 1 182 0
 328 000c C369     		ldr	r3, [r0, #28]
 329              	.LVL23:
 330 000e 03B1     		cbz	r3, .L28
 331              		.loc 1 183 0
 332 0010 9847     		blx	r3
 333              	.LVL24:
 334              	.L28:
 335              		.loc 1 185 0 discriminator 1
 336 0012 A668     		ldr	r6, [r4, #8]
 337              	.LBB22:
 338              		.loc 1 187 0 discriminator 1
 339 0014 2046     		mov	r0, r4
 340 0016 2946     		mov	r1, r5
 341              	.LBE22:
 342              		.loc 1 185 0 discriminator 1
ARM GAS  /tmp/cciWq72G.s 			page 7


 343 0018 3EB9     		cbnz	r6, .L30
 344              	.LBB24:
 345              		.loc 1 187 0
 346 001a FFF7FEFF 		bl	qwait
 347              	.LVL25:
 348 001e 0028     		cmp	r0, #0
 349 0020 F7DA     		bge	.L28
 350              	.LBB23:
 351              		.loc 1 188 0
 352 0022 3346     		mov	r3, r6
 353              	.LVL26:
 354              	@ 188 "../../os/kernel/src/chqueues.c" 1
 355 0024 83F31188 		msr     BASEPRI, r3
 356              	@ 0 "" 2
 357              	.LVL27:
 358              		.thumb
 359              	.LBE23:
 360              		.loc 1 189 0
 361 0028 70BD     		pop	{r4, r5, r6, pc}
 362              	.LVL28:
 363              	.L30:
 364              	.LBE24:
 365              		.loc 1 194 0
 366 002a A369     		ldr	r3, [r4, #24]
 367              		.loc 1 195 0
 368 002c 2269     		ldr	r2, [r4, #16]
 369              		.loc 1 193 0
 370 002e 013E     		subs	r6, r6, #1
 371 0030 A660     		str	r6, [r4, #8]
 372              		.loc 1 194 0
 373 0032 13F8010B 		ldrb	r0, [r3], #1	@ zero_extendqisi2
 374              	.LVL29:
 375              		.loc 1 195 0
 376 0036 9342     		cmp	r3, r2
 377              		.loc 1 194 0
 378 0038 A361     		str	r3, [r4, #24]
 379              		.loc 1 196 0
 380 003a 24BF     		itt	cs
 381 003c E368     		ldrcs	r3, [r4, #12]
 382 003e A361     		strcs	r3, [r4, #24]
 383              	.LBB25:
 384              		.loc 1 198 0
 385 0040 0023     		movs	r3, #0
 386              	.LVL30:
 387              	@ 198 "../../os/kernel/src/chqueues.c" 1
 388 0042 83F31188 		msr     BASEPRI, r3
 389              	@ 0 "" 2
 390              	.LVL31:
 391              		.thumb
 392              	.LBE25:
 393              		.loc 1 200 0
 394 0046 70BD     		pop	{r4, r5, r6, pc}
 395              		.cfi_endproc
 396              	.LFE11:
 397              		.size	chIQGetTimeout, .-chIQGetTimeout
 398 0048 AFF30080 		.section	.text.chIQReadTimeout,"ax",%progbits
 398      AFF30080 
ARM GAS  /tmp/cciWq72G.s 			page 8


 399              		.align	2
 400              		.p2align 4,,15
 401              		.global	chIQReadTimeout
 402              		.thumb
 403              		.thumb_func
 404              		.type	chIQReadTimeout, %function
 405              	chIQReadTimeout:
 406              	.LFB12:
 407              		.loc 1 227 0
 408              		.cfi_startproc
 409              		@ args = 0, pretend = 0, frame = 0
 410              		@ frame_needed = 0, uses_anonymous_args = 0
 411              	.LVL32:
 412 0000 2DE9F047 		push	{r4, r5, r6, r7, r8, r9, sl, lr}
 413              	.LCFI5:
 414              		.cfi_def_cfa_offset 32
 415              		.cfi_offset 14, -4
 416              		.cfi_offset 10, -8
 417              		.cfi_offset 9, -12
 418              		.cfi_offset 8, -16
 419              		.cfi_offset 7, -20
 420              		.cfi_offset 6, -24
 421              		.cfi_offset 5, -28
 422              		.cfi_offset 4, -32
 423              		.loc 1 227 0
 424 0004 1D46     		mov	r5, r3
 425 0006 0446     		mov	r4, r0
 426 0008 0E46     		mov	r6, r1
 427 000a 9146     		mov	r9, r2
 428              		.loc 1 228 0
 429 000c D0F81C80 		ldr	r8, [r0, #28]
 430              	.LVL33:
 431              	.LBB26:
 432              		.loc 1 233 0
 433 0010 2023     		movs	r3, #32
 434              	.LVL34:
 435              	@ 233 "../../os/kernel/src/chqueues.c" 1
 436 0012 83F31188 		msr     BASEPRI, r3
 437              	@ 0 "" 2
 438              	.LVL35:
 439              		.loc 1 229 0
 440              		.thumb
 441 0016 0027     		movs	r7, #0
 442              	.LVL36:
 443              	.L37:
 444              	.LBE26:
 445              		.loc 1 235 0
 446 0018 B8F1000F 		cmp	r8, #0
 447 001c 01D0     		beq	.L38
 448              		.loc 1 236 0
 449 001e 2046     		mov	r0, r4
 450              	.LVL37:
 451 0020 C047     		blx	r8
 452              	.LVL38:
 453              	.L38:
 454              		.loc 1 238 0 discriminator 1
 455 0022 D4F808A0 		ldr	sl, [r4, #8]
ARM GAS  /tmp/cciWq72G.s 			page 9


 456              		.loc 1 239 0 discriminator 1
 457 0026 2046     		mov	r0, r4
 458 0028 2946     		mov	r1, r5
 459              		.loc 1 238 0 discriminator 1
 460 002a BAF1000F 		cmp	sl, #0
 461 002e 09D1     		bne	.L40
 462              		.loc 1 239 0
 463 0030 FFF7FEFF 		bl	qwait
 464              	.LVL39:
 465 0034 0028     		cmp	r0, #0
 466 0036 F4D0     		beq	.L38
 467              	.LBB27:
 468              		.loc 1 240 0
 469 0038 5346     		mov	r3, sl
 470              	.LVL40:
 471              	@ 240 "../../os/kernel/src/chqueues.c" 1
 472 003a 83F31188 		msr     BASEPRI, r3
 473              	@ 0 "" 2
 474              	.LVL41:
 475              		.thumb
 476              	.L34:
 477              	.LBE27:
 478              		.loc 1 257 0
 479 003e 3846     		mov	r0, r7
 480 0040 BDE8F087 		pop	{r4, r5, r6, r7, r8, r9, sl, pc}
 481              	.LVL42:
 482              	.L40:
 483              		.loc 1 246 0
 484 0044 A369     		ldr	r3, [r4, #24]
 485              	.LVL43:
 486              		.loc 1 245 0
 487 0046 0AF1FF32 		add	r2, sl, #-1
 488 004a A260     		str	r2, [r4, #8]
 489              		.loc 1 246 0
 490 004c 13F8012B 		ldrb	r2, [r3], #1	@ zero_extendqisi2
 491 0050 F255     		strb	r2, [r6, r7]
 492              		.loc 1 247 0
 493 0052 2269     		ldr	r2, [r4, #16]
 494              		.loc 1 246 0
 495 0054 A361     		str	r3, [r4, #24]
 496              		.loc 1 247 0
 497 0056 9342     		cmp	r3, r2
 498              		.loc 1 248 0
 499 0058 24BF     		itt	cs
 500 005a E368     		ldrcs	r3, [r4, #12]
 501 005c A361     		strcs	r3, [r4, #24]
 502              	.LBB28:
 503              		.loc 1 250 0
 504 005e 0023     		movs	r3, #0
 505              	@ 250 "../../os/kernel/src/chqueues.c" 1
 506 0060 83F31188 		msr     BASEPRI, r3
 507              	@ 0 "" 2
 508              	.LVL44:
 509              		.thumb
 510              	.LBE28:
 511              		.loc 1 251 0
 512 0064 0137     		adds	r7, r7, #1
ARM GAS  /tmp/cciWq72G.s 			page 10


 513              	.LVL45:
 514              		.loc 1 252 0
 515 0066 B945     		cmp	r9, r7
 516 0068 E9D0     		beq	.L34
 517              	.LBB29:
 518              		.loc 1 255 0
 519 006a 2023     		movs	r3, #32
 520              	.LVL46:
 521              	@ 255 "../../os/kernel/src/chqueues.c" 1
 522 006c 83F31188 		msr     BASEPRI, r3
 523              	@ 0 "" 2
 524              	.LVL47:
 525              		.thumb
 526              	.LBE29:
 527              		.loc 1 256 0
 528 0070 D2E7     		b	.L37
 529              		.cfi_endproc
 530              	.LFE12:
 531              		.size	chIQReadTimeout, .-chIQReadTimeout
 532 0072 00BFAFF3 		.section	.text.chOQInit,"ax",%progbits
 532      0080AFF3 
 532      0080AFF3 
 532      0080
 533              		.align	2
 534              		.p2align 4,,15
 535              		.global	chOQInit
 536              		.thumb
 537              		.thumb_func
 538              		.type	chOQInit, %function
 539              	chOQInit:
 540              	.LFB13:
 541              		.loc 1 276 0
 542              		.cfi_startproc
 543              		@ args = 4, pretend = 0, frame = 0
 544              		@ frame_needed = 0, uses_anonymous_args = 0
 545              		@ link register save eliminated.
 546              	.LVL48:
 547 0000 10B4     		push	{r4}
 548              	.LCFI6:
 549              		.cfi_def_cfa_offset 4
 550              		.cfi_offset 4, -4
 551              		.loc 1 282 0
 552 0002 C361     		str	r3, [r0, #28]
 553              		.loc 1 283 0
 554 0004 019B     		ldr	r3, [sp, #4]
 555              	.LVL49:
 556              		.loc 1 278 0
 557 0006 4060     		str	r0, [r0, #4]
 558              		.loc 1 281 0
 559 0008 8C18     		adds	r4, r1, r2
 560              		.loc 1 278 0
 561 000a 0060     		str	r0, [r0, #0]
 562              		.loc 1 279 0
 563 000c 8260     		str	r2, [r0, #8]
 564              		.loc 1 280 0
 565 000e 4161     		str	r1, [r0, #20]
 566 0010 8161     		str	r1, [r0, #24]
ARM GAS  /tmp/cciWq72G.s 			page 11


 567 0012 C160     		str	r1, [r0, #12]
 568              		.loc 1 281 0
 569 0014 0461     		str	r4, [r0, #16]
 570              		.loc 1 283 0
 571 0016 0362     		str	r3, [r0, #32]
 572              		.loc 1 284 0
 573 0018 10BC     		pop	{r4}
 574 001a 7047     		bx	lr
 575              		.cfi_endproc
 576              	.LFE13:
 577              		.size	chOQInit, .-chOQInit
 578 001c AFF30080 		.section	.text.chOQResetI,"ax",%progbits
 579              		.align	2
 580              		.p2align 4,,15
 581              		.global	chOQResetI
 582              		.thumb
 583              		.thumb_func
 584              		.type	chOQResetI, %function
 585              	chOQResetI:
 586              	.LFB14:
 587              		.loc 1 297 0
 588              		.cfi_startproc
 589              		@ args = 0, pretend = 0, frame = 0
 590              		@ frame_needed = 0, uses_anonymous_args = 0
 591              	.LVL50:
 592 0000 38B5     		push	{r3, r4, r5, lr}
 593              	.LCFI7:
 594              		.cfi_def_cfa_offset 16
 595              		.cfi_offset 14, -4
 596              		.cfi_offset 5, -8
 597              		.cfi_offset 4, -12
 598              		.cfi_offset 3, -16
 599              		.loc 1 302 0
 600 0002 0269     		ldr	r2, [r0, #16]
 601              		.loc 1 301 0
 602 0004 C368     		ldr	r3, [r0, #12]
 603              		.loc 1 297 0
 604 0006 0446     		mov	r4, r0
 605              		.loc 1 303 0
 606 0008 0068     		ldr	r0, [r0, #0]
 607              	.LVL51:
 608              		.loc 1 301 0
 609 000a 6361     		str	r3, [r4, #20]
 610              		.loc 1 302 0
 611 000c D21A     		subs	r2, r2, r3
 612              		.loc 1 303 0
 613 000e A042     		cmp	r0, r4
 614              		.loc 1 301 0
 615 0010 A361     		str	r3, [r4, #24]
 616              		.loc 1 302 0
 617 0012 A260     		str	r2, [r4, #8]
 618              		.loc 1 303 0
 619 0014 0AD0     		beq	.L42
 620              		.loc 1 304 0
 621 0016 6FF00105 		mvn	r5, #1
 622              	.L45:
 623              	.LVL52:
ARM GAS  /tmp/cciWq72G.s 			page 12


 624              	.LBB30:
 625              	.LBB31:
 626              		.loc 2 62 0
 627 001a 0368     		ldr	r3, [r0, #0]
 628 001c 2360     		str	r3, [r4, #0]
 629 001e 5C60     		str	r4, [r3, #4]
 630              	.LBE31:
 631              	.LBE30:
 632              		.loc 1 304 0
 633 0020 FFF7FEFF 		bl	chSchReadyI
 634              	.LVL53:
 635 0024 4562     		str	r5, [r0, #36]
 636              		.loc 1 303 0
 637 0026 2068     		ldr	r0, [r4, #0]
 638 0028 8442     		cmp	r4, r0
 639 002a F6D1     		bne	.L45
 640              	.LVL54:
 641              	.L42:
 642 002c 38BD     		pop	{r3, r4, r5, pc}
 643              		.cfi_endproc
 644              	.LFE14:
 645              		.size	chOQResetI, .-chOQResetI
 646 002e 00BF     		.section	.text.chOQPutTimeout,"ax",%progbits
 647              		.align	2
 648              		.p2align 4,,15
 649              		.global	chOQPutTimeout
 650              		.thumb
 651              		.thumb_func
 652              		.type	chOQPutTimeout, %function
 653              	chOQPutTimeout:
 654              	.LFB15:
 655              		.loc 1 329 0
 656              		.cfi_startproc
 657              		@ args = 0, pretend = 0, frame = 0
 658              		@ frame_needed = 0, uses_anonymous_args = 0
 659              	.LVL55:
 660 0000 F8B5     		push	{r3, r4, r5, r6, r7, lr}
 661              	.LCFI8:
 662              		.cfi_def_cfa_offset 24
 663              		.cfi_offset 14, -4
 664              		.cfi_offset 7, -8
 665              		.cfi_offset 6, -12
 666              		.cfi_offset 5, -16
 667              		.cfi_offset 4, -20
 668              		.cfi_offset 3, -24
 669              		.loc 1 329 0
 670 0002 0446     		mov	r4, r0
 671 0004 0D46     		mov	r5, r1
 672 0006 1646     		mov	r6, r2
 673              	.LBB32:
 674              		.loc 1 331 0
 675 0008 2023     		movs	r3, #32
 676              	.LVL56:
 677              	@ 331 "../../os/kernel/src/chqueues.c" 1
 678 000a 83F31188 		msr     BASEPRI, r3
 679              	@ 0 "" 2
 680              	.LVL57:
ARM GAS  /tmp/cciWq72G.s 			page 13


 681              		.thumb
 682              	.L48:
 683              	.LBE32:
 684              		.loc 1 332 0 discriminator 1
 685 000e A768     		ldr	r7, [r4, #8]
 686              	.LBB33:
 687              		.loc 1 335 0 discriminator 1
 688 0010 2046     		mov	r0, r4
 689 0012 3146     		mov	r1, r6
 690              	.LBE33:
 691              		.loc 1 332 0 discriminator 1
 692 0014 3FB9     		cbnz	r7, .L54
 693              	.LBB35:
 694              		.loc 1 335 0
 695 0016 FFF7FEFF 		bl	qwait
 696              	.LVL58:
 697 001a 0028     		cmp	r0, #0
 698 001c F7DA     		bge	.L48
 699              	.LBB34:
 700              		.loc 1 336 0
 701 001e 3B46     		mov	r3, r7
 702              	.LVL59:
 703              	@ 336 "../../os/kernel/src/chqueues.c" 1
 704 0020 83F31188 		msr     BASEPRI, r3
 705              	@ 0 "" 2
 706              	.LVL60:
 707              		.thumb
 708              	.LBE34:
 709              		.loc 1 337 0
 710 0024 F8BD     		pop	{r3, r4, r5, r6, r7, pc}
 711              	.LVL61:
 712              	.L54:
 713              	.LBE35:
 714              		.loc 1 342 0
 715 0026 6369     		ldr	r3, [r4, #20]
 716              	.LVL62:
 717              		.loc 1 341 0
 718 0028 013F     		subs	r7, r7, #1
 719 002a A760     		str	r7, [r4, #8]
 720              		.loc 1 342 0
 721 002c 03F8015B 		strb	r5, [r3], #1
 722              		.loc 1 343 0
 723 0030 2269     		ldr	r2, [r4, #16]
 724              		.loc 1 342 0
 725 0032 6361     		str	r3, [r4, #20]
 726              		.loc 1 343 0
 727 0034 9342     		cmp	r3, r2
 728              		.loc 1 344 0
 729 0036 24BF     		itt	cs
 730 0038 E368     		ldrcs	r3, [r4, #12]
 731 003a 6361     		strcs	r3, [r4, #20]
 732              		.loc 1 346 0
 733 003c E369     		ldr	r3, [r4, #28]
 734 003e 0BB1     		cbz	r3, .L52
 735              		.loc 1 347 0
 736 0040 2046     		mov	r0, r4
 737 0042 9847     		blx	r3
ARM GAS  /tmp/cciWq72G.s 			page 14


 738              	.L52:
 739              	.LBB36:
 740              		.loc 1 349 0
 741 0044 0023     		movs	r3, #0
 742              	.LVL63:
 743              	@ 349 "../../os/kernel/src/chqueues.c" 1
 744 0046 83F31188 		msr     BASEPRI, r3
 745              	@ 0 "" 2
 746              	.LVL64:
 747              		.thumb
 748              	.LBE36:
 749              		.loc 1 350 0
 750 004a 1846     		mov	r0, r3
 751              		.loc 1 351 0
 752 004c F8BD     		pop	{r3, r4, r5, r6, r7, pc}
 753              		.cfi_endproc
 754              	.LFE15:
 755              		.size	chOQPutTimeout, .-chOQPutTimeout
 756              		.section	.text.chOQGetI,"ax",%progbits
 757              		.align	2
 758              		.p2align 4,,15
 759              		.global	chOQGetI
 760              		.thumb
 761              		.thumb_func
 762              		.type	chOQGetI, %function
 763              	chOQGetI:
 764              	.LFB16:
 765              		.loc 1 363 0
 766              		.cfi_startproc
 767              		@ args = 0, pretend = 0, frame = 0
 768              		@ frame_needed = 0, uses_anonymous_args = 0
 769              	.LVL65:
 770              		.loc 1 368 0
 771 0000 4169     		ldr	r1, [r0, #20]
 772 0002 8269     		ldr	r2, [r0, #24]
 773 0004 9142     		cmp	r1, r2
 774              		.loc 1 363 0
 775 0006 10B5     		push	{r4, lr}
 776              	.LCFI9:
 777              		.cfi_def_cfa_offset 8
 778              		.cfi_offset 14, -4
 779              		.cfi_offset 4, -8
 780              		.loc 1 363 0
 781 0008 0346     		mov	r3, r0
 782              		.loc 1 368 0
 783 000a 8168     		ldr	r1, [r0, #8]
 784 000c 16D0     		beq	.L63
 785              	.L58:
 786              		.loc 1 371 0
 787 000e 0131     		adds	r1, r1, #1
 788 0010 9960     		str	r1, [r3, #8]
 789              		.loc 1 372 0
 790 0012 12F8014B 		ldrb	r4, [r2], #1	@ zero_extendqisi2
 791              	.LVL66:
 792              		.loc 1 373 0
 793 0016 1969     		ldr	r1, [r3, #16]
 794              		.loc 1 372 0
ARM GAS  /tmp/cciWq72G.s 			page 15


 795 0018 9A61     		str	r2, [r3, #24]
 796              		.loc 1 373 0
 797 001a 8A42     		cmp	r2, r1
 798 001c 0BD2     		bcs	.L60
 799              	.L61:
 800              		.loc 1 376 0
 801 001e 1868     		ldr	r0, [r3, #0]
 802              	.LVL67:
 803 0020 9842     		cmp	r0, r3
 804 0022 06D0     		beq	.L59
 805              	.LVL68:
 806              	.LBB37:
 807              	.LBB38:
 808              		.loc 2 62 0
 809 0024 0268     		ldr	r2, [r0, #0]
 810 0026 1A60     		str	r2, [r3, #0]
 811 0028 5360     		str	r3, [r2, #4]
 812              	.LBE38:
 813              	.LBE37:
 814              		.loc 1 377 0
 815 002a FFF7FEFF 		bl	chSchReadyI
 816              	.LVL69:
 817 002e 0023     		movs	r3, #0
 818 0030 4362     		str	r3, [r0, #36]
 819              	.L59:
 820              		.loc 1 379 0
 821 0032 2046     		mov	r0, r4
 822 0034 10BD     		pop	{r4, pc}
 823              	.LVL70:
 824              	.L60:
 825              		.loc 1 374 0
 826 0036 DA68     		ldr	r2, [r3, #12]
 827 0038 9A61     		str	r2, [r3, #24]
 828 003a F0E7     		b	.L61
 829              	.LVL71:
 830              	.L63:
 831              		.loc 1 368 0 discriminator 1
 832 003c 0029     		cmp	r1, #0
 833 003e E6D0     		beq	.L58
 834              		.loc 1 369 0
 835 0040 6FF00200 		mvn	r0, #2
 836              	.LVL72:
 837              		.loc 1 380 0
 838 0044 10BD     		pop	{r4, pc}
 839              		.cfi_endproc
 840              	.LFE16:
 841              		.size	chOQGetI, .-chOQGetI
 842 0046 00BFAFF3 		.section	.text.chOQWriteTimeout,"ax",%progbits
 842      0080AFF3 
 842      0080
 843              		.align	2
 844              		.p2align 4,,15
 845              		.global	chOQWriteTimeout
 846              		.thumb
 847              		.thumb_func
 848              		.type	chOQWriteTimeout, %function
 849              	chOQWriteTimeout:
ARM GAS  /tmp/cciWq72G.s 			page 16


 850              	.LFB17:
 851              		.loc 1 407 0
 852              		.cfi_startproc
 853              		@ args = 0, pretend = 0, frame = 0
 854              		@ frame_needed = 0, uses_anonymous_args = 0
 855              	.LVL73:
 856 0000 2DE9F047 		push	{r4, r5, r6, r7, r8, r9, sl, lr}
 857              	.LCFI10:
 858              		.cfi_def_cfa_offset 32
 859              		.cfi_offset 14, -4
 860              		.cfi_offset 10, -8
 861              		.cfi_offset 9, -12
 862              		.cfi_offset 8, -16
 863              		.cfi_offset 7, -20
 864              		.cfi_offset 6, -24
 865              		.cfi_offset 5, -28
 866              		.cfi_offset 4, -32
 867              		.loc 1 407 0
 868 0004 1E46     		mov	r6, r3
 869 0006 0446     		mov	r4, r0
 870 0008 0D46     		mov	r5, r1
 871 000a 1746     		mov	r7, r2
 872              		.loc 1 408 0
 873 000c D0F81C90 		ldr	r9, [r0, #28]
 874              	.LVL74:
 875              	.LBB39:
 876              		.loc 1 413 0
 877 0010 2023     		movs	r3, #32
 878              	.LVL75:
 879              	@ 413 "../../os/kernel/src/chqueues.c" 1
 880 0012 83F31188 		msr     BASEPRI, r3
 881              	@ 0 "" 2
 882              	.LVL76:
 883              		.loc 1 409 0
 884              		.thumb
 885 0016 4FF00008 		mov	r8, #0
 886              	.LVL77:
 887              	.L73:
 888              	.LBE39:
 889              		.loc 1 415 0 discriminator 1
 890 001a D4F808A0 		ldr	sl, [r4, #8]
 891              		.loc 1 427 0 discriminator 1
 892 001e 2046     		mov	r0, r4
 893              		.loc 1 421 0 discriminator 1
 894 0020 0AF1FF33 		add	r3, sl, #-1
 895              	.LVL78:
 896              		.loc 1 415 0 discriminator 1
 897 0024 BAF1000F 		cmp	sl, #0
 898 0028 21D0     		beq	.L68
 899              	.L74:
 900              		.loc 1 421 0
 901 002a A360     		str	r3, [r4, #8]
 902              		.loc 1 422 0
 903 002c 2A78     		ldrb	r2, [r5, #0]	@ zero_extendqisi2
 904 002e 6369     		ldr	r3, [r4, #20]
 905 0030 03F8012B 		strb	r2, [r3], #1
 906              		.loc 1 423 0
ARM GAS  /tmp/cciWq72G.s 			page 17


 907 0034 2269     		ldr	r2, [r4, #16]
 908              		.loc 1 422 0
 909 0036 6361     		str	r3, [r4, #20]
 910              	.LVL79:
 911              		.loc 1 423 0
 912 0038 9342     		cmp	r3, r2
 913              		.loc 1 424 0
 914 003a 24BF     		itt	cs
 915 003c E368     		ldrcs	r3, [r4, #12]
 916 003e 6361     		strcs	r3, [r4, #20]
 917              		.loc 1 426 0
 918 0040 B9F1000F 		cmp	r9, #0
 919 0044 00D0     		beq	.L70
 920              		.loc 1 427 0
 921 0046 C847     		blx	r9
 922              	.L70:
 923              	.LBB40:
 924              		.loc 1 429 0
 925 0048 0023     		movs	r3, #0
 926              	.LVL80:
 927              	@ 429 "../../os/kernel/src/chqueues.c" 1
 928 004a 83F31188 		msr     BASEPRI, r3
 929              	@ 0 "" 2
 930              	.LVL81:
 931              		.thumb
 932              	.LBE40:
 933              		.loc 1 431 0
 934 004e 013F     		subs	r7, r7, #1
 935              	.LVL82:
 936              		.loc 1 430 0
 937 0050 08F10108 		add	r8, r8, #1
 938              	.LVL83:
 939              		.loc 1 431 0
 940 0054 14D0     		beq	.L67
 941              		.loc 1 422 0
 942 0056 0135     		adds	r5, r5, #1
 943              	.LVL84:
 944              	.LBB41:
 945              		.loc 1 433 0
 946 0058 2023     		movs	r3, #32
 947              	.LVL85:
 948              	@ 433 "../../os/kernel/src/chqueues.c" 1
 949 005a 83F31188 		msr     BASEPRI, r3
 950              	@ 0 "" 2
 951              	.LVL86:
 952              		.thumb
 953              	.LBE41:
 954              		.loc 1 415 0
 955 005e D4F808A0 		ldr	sl, [r4, #8]
 956              		.loc 1 427 0
 957 0062 2046     		mov	r0, r4
 958              		.loc 1 421 0
 959 0064 0AF1FF33 		add	r3, sl, #-1
 960              	.LVL87:
 961              		.loc 1 415 0
 962 0068 BAF1000F 		cmp	sl, #0
 963 006c DDD1     		bne	.L74
ARM GAS  /tmp/cciWq72G.s 			page 18


 964              	.L68:
 965              		.loc 1 416 0
 966 006e 2046     		mov	r0, r4
 967 0070 3146     		mov	r1, r6
 968 0072 FFF7FEFF 		bl	qwait
 969 0076 0028     		cmp	r0, #0
 970 0078 CFD0     		beq	.L73
 971              	.LBB42:
 972              		.loc 1 417 0
 973 007a 5346     		mov	r3, sl
 974              	.LVL88:
 975              	@ 417 "../../os/kernel/src/chqueues.c" 1
 976 007c 83F31188 		msr     BASEPRI, r3
 977              	@ 0 "" 2
 978              	.LVL89:
 979              		.thumb
 980              	.L67:
 981              	.LBE42:
 982              		.loc 1 435 0
 983 0080 4046     		mov	r0, r8
 984 0082 BDE8F087 		pop	{r4, r5, r6, r7, r8, r9, sl, pc}
 985              		.cfi_endproc
 986              	.LFE17:
 987              		.size	chOQWriteTimeout, .-chOQWriteTimeout
 988 0086 00BFAFF3 		.text
 988      0080AFF3 
 988      0080
 989              	.Letext0:
 990              		.file 3 "/opt/paparazzi/arm-multilib/lib/gcc/arm-none-eabi/4.6.2/include/stddef.h"
 991              		.file 4 "/opt/paparazzi/arm-multilib/lib/gcc/arm-none-eabi/4.6.2/../../../../arm-none-eabi/include
 992              		.file 5 "../../os/ports/GCC/ARMCMx/chtypes.h"
 993              		.file 6 "../../os/kernel/include/chlists.h"
 994              		.file 7 "../../os/kernel/include/chthreads.h"
 995              		.file 8 "../../os/ports/GCC/ARMCMx/chcore_v7m.h"
 996              		.file 9 "../../os/kernel/include/chschd.h"
 997              		.file 10 "../../os/kernel/include/chmtx.h"
 998              		.file 11 "../../os/kernel/include/chqueues.h"