ARM GAS  /tmp/cc8X0ZJd.s 			page 1


   1              		.syntax unified
   2              		.cpu cortex-m4
   3              		.fpu softvfp
   4              		.eabi_attribute 20, 1
   5              		.eabi_attribute 21, 1
   6              		.eabi_attribute 23, 3
   7              		.eabi_attribute 24, 1
   8              		.eabi_attribute 25, 1
   9              		.eabi_attribute 26, 1
  10              		.eabi_attribute 30, 2
  11              		.eabi_attribute 18, 4
  12              		.thumb
  13              		.file	"chsem.c"
  14              		.text
  15              	.Ltext0:
  16              		.cfi_sections	.debug_frame
  17              		.section	.text.chSemInit,"ax",%progbits
  18              		.align	2
  19              		.p2align 4,,15
  20              		.global	chSemInit
  21              		.thumb
  22              		.thumb_func
  23              		.type	chSemInit, %function
  24              	chSemInit:
  25              	.LFB7:
  26              		.file 1 "../../os/kernel/src/chsem.c"
  27              		.loc 1 86 0
  28              		.cfi_startproc
  29              		@ args = 0, pretend = 0, frame = 0
  30              		@ frame_needed = 0, uses_anonymous_args = 0
  31              		@ link register save eliminated.
  32              	.LVL0:
  33              		.loc 1 90 0
  34 0000 4060     		str	r0, [r0, #4]
  35 0002 0060     		str	r0, [r0, #0]
  36              		.loc 1 91 0
  37 0004 8160     		str	r1, [r0, #8]
  38              		.loc 1 92 0
  39 0006 7047     		bx	lr
  40              		.cfi_endproc
  41              	.LFE7:
  42              		.size	chSemInit, .-chSemInit
  43 0008 AFF30080 		.section	.text.chSemResetI,"ax",%progbits
  43      AFF30080 
  44              		.align	2
  45              		.p2align 4,,15
  46              		.global	chSemResetI
  47              		.thumb
  48              		.thumb_func
  49              		.type	chSemResetI, %function
  50              	chSemResetI:
  51              	.LFB9:
  52              		.loc 1 136 0
  53              		.cfi_startproc
  54              		@ args = 0, pretend = 0, frame = 0
  55              		@ frame_needed = 0, uses_anonymous_args = 0
  56              	.LVL1:
ARM GAS  /tmp/cc8X0ZJd.s 			page 2


  57 0000 70B5     		push	{r4, r5, r6, lr}
  58              	.LCFI0:
  59              		.cfi_def_cfa_offset 16
  60              		.cfi_offset 14, -4
  61              		.cfi_offset 6, -8
  62              		.cfi_offset 5, -12
  63              		.cfi_offset 4, -16
  64              		.loc 1 146 0
  65 0002 8568     		ldr	r5, [r0, #8]
  66              	.LVL2:
  67              		.loc 1 147 0
  68 0004 8160     		str	r1, [r0, #8]
  69              		.loc 1 148 0
  70 0006 0135     		adds	r5, r5, #1
  71              	.LVL3:
  72 0008 002D     		cmp	r5, #0
  73              		.loc 1 136 0
  74 000a 0446     		mov	r4, r0
  75              		.loc 1 148 0
  76 000c 0BDC     		bgt	.L2
  77              		.loc 1 149 0
  78 000e 6FF00106 		mvn	r6, #1
  79              	.LVL4:
  80              	.L5:
  81              	.LBB24:
  82              	.LBB25:
  83              		.file 2 "../../os/kernel/include/chinline.h"
  84              		.loc 2 67 0
  85 0012 6068     		ldr	r0, [r4, #4]
  86              	.LVL5:
  87              		.loc 2 69 0
  88 0014 4368     		ldr	r3, [r0, #4]
  89 0016 6360     		str	r3, [r4, #4]
  90 0018 1C60     		str	r4, [r3, #0]
  91              	.LBE25:
  92              	.LBE24:
  93              		.loc 1 149 0
  94 001a FFF7FEFF 		bl	chSchReadyI
  95              	.LVL6:
  96              		.loc 1 148 0
  97 001e 0135     		adds	r5, r5, #1
  98              	.LVL7:
  99 0020 012D     		cmp	r5, #1
 100              		.loc 1 149 0
 101 0022 4662     		str	r6, [r0, #36]
 102              	.LVL8:
 103              		.loc 1 148 0
 104 0024 F5D1     		bne	.L5
 105              	.LVL9:
 106              	.L2:
 107 0026 70BD     		pop	{r4, r5, r6, pc}
 108              		.cfi_endproc
 109              	.LFE9:
 110              		.size	chSemResetI, .-chSemResetI
 111 0028 AFF30080 		.section	.text.chSemReset,"ax",%progbits
 111      AFF30080 
 112              		.align	2
ARM GAS  /tmp/cc8X0ZJd.s 			page 3


 113              		.p2align 4,,15
 114              		.global	chSemReset
 115              		.thumb
 116              		.thumb_func
 117              		.type	chSemReset, %function
 118              	chSemReset:
 119              	.LFB8:
 120              		.loc 1 109 0
 121              		.cfi_startproc
 122              		@ args = 0, pretend = 0, frame = 0
 123              		@ frame_needed = 0, uses_anonymous_args = 0
 124              	.LVL10:
 125 0000 08B5     		push	{r3, lr}
 126              	.LCFI1:
 127              		.cfi_def_cfa_offset 8
 128              		.cfi_offset 14, -4
 129              		.cfi_offset 3, -8
 130              	.LBB26:
 131              		.loc 1 111 0
 132 0002 2023     		movs	r3, #32
 133              	.LVL11:
 134              	@ 111 "../../os/kernel/src/chsem.c" 1
 135 0004 83F31188 		msr     BASEPRI, r3
 136              	@ 0 "" 2
 137              	.LVL12:
 138              		.thumb
 139              	.LBE26:
 140              		.loc 1 112 0
 141 0008 FFF7FEFF 		bl	chSemResetI
 142              	.LVL13:
 143              		.loc 1 113 0
 144 000c FFF7FEFF 		bl	chSchRescheduleS
 145              	.LBB27:
 146              		.loc 1 114 0
 147 0010 0023     		movs	r3, #0
 148              	.LVL14:
 149              	@ 114 "../../os/kernel/src/chsem.c" 1
 150 0012 83F31188 		msr     BASEPRI, r3
 151              	@ 0 "" 2
 152              	.LVL15:
 153              		.thumb
 154              	.LBE27:
 155              		.loc 1 115 0
 156 0016 08BD     		pop	{r3, pc}
 157              		.cfi_endproc
 158              	.LFE8:
 159              		.size	chSemReset, .-chSemReset
 160 0018 AFF30080 		.section	.text.chSemWaitS,"ax",%progbits
 160      AFF30080 
 161              		.align	2
 162              		.p2align 4,,15
 163              		.global	chSemWaitS
 164              		.thumb
 165              		.thumb_func
 166              		.type	chSemWaitS, %function
 167              	chSemWaitS:
 168              	.LFB11:
ARM GAS  /tmp/cc8X0ZJd.s 			page 4


 169              		.loc 1 185 0
 170              		.cfi_startproc
 171              		@ args = 0, pretend = 0, frame = 0
 172              		@ frame_needed = 0, uses_anonymous_args = 0
 173              	.LVL16:
 174              		.loc 1 194 0
 175 0000 8268     		ldr	r2, [r0, #8]
 176 0002 013A     		subs	r2, r2, #1
 177 0004 002A     		cmp	r2, #0
 178              		.loc 1 185 0
 179 0006 10B5     		push	{r4, lr}
 180              	.LCFI2:
 181              		.cfi_def_cfa_offset 8
 182              		.cfi_offset 14, -4
 183              		.cfi_offset 4, -8
 184              		.loc 1 185 0
 185 0008 0346     		mov	r3, r0
 186              		.loc 1 194 0
 187 000a 8260     		str	r2, [r0, #8]
 188 000c 01DB     		blt	.L12
 189              		.loc 1 200 0
 190 000e 0020     		movs	r0, #0
 191              	.LVL17:
 192              		.loc 1 201 0
 193 0010 10BD     		pop	{r4, pc}
 194              	.L12:
 195              		.loc 1 195 0
 196 0012 074C     		ldr	r4, .L13
 197 0014 A269     		ldr	r2, [r4, #24]
 198 0016 5062     		str	r0, [r2, #36]
 199              	.LVL18:
 200              	.LBB28:
 201              	.LBB29:
 202              		.loc 2 55 0
 203 0018 4168     		ldr	r1, [r0, #4]
 204              		.loc 2 54 0
 205 001a 1060     		str	r0, [r2, #0]
 206              		.loc 2 55 0
 207 001c 5160     		str	r1, [r2, #4]
 208              	.LBE29:
 209              	.LBE28:
 210              		.loc 1 197 0
 211 001e 0320     		movs	r0, #3
 212              	.LBB31:
 213              	.LBB30:
 214              		.loc 2 56 0
 215 0020 5A60     		str	r2, [r3, #4]
 216 0022 0A60     		str	r2, [r1, #0]
 217              	.LBE30:
 218              	.LBE31:
 219              		.loc 1 197 0
 220 0024 FFF7FEFF 		bl	chSchGoSleepS
 221              	.LVL19:
 222              		.loc 1 198 0
 223 0028 A369     		ldr	r3, [r4, #24]
 224 002a 586A     		ldr	r0, [r3, #36]
 225 002c 10BD     		pop	{r4, pc}
ARM GAS  /tmp/cc8X0ZJd.s 			page 5


 226              	.L14:
 227 002e 00BF     		.align	2
 228              	.L13:
 229 0030 00000000 		.word	rlist
 230              		.cfi_endproc
 231              	.LFE11:
 232              		.size	chSemWaitS, .-chSemWaitS
 233 0034 AFF30080 		.section	.text.chSemWait,"ax",%progbits
 233      AFF30080 
 233      AFF30080 
 234              		.align	2
 235              		.p2align 4,,15
 236              		.global	chSemWait
 237              		.thumb
 238              		.thumb_func
 239              		.type	chSemWait, %function
 240              	chSemWait:
 241              	.LFB10:
 242              		.loc 1 164 0
 243              		.cfi_startproc
 244              		@ args = 0, pretend = 0, frame = 0
 245              		@ frame_needed = 0, uses_anonymous_args = 0
 246              	.LVL20:
 247 0000 08B5     		push	{r3, lr}
 248              	.LCFI3:
 249              		.cfi_def_cfa_offset 8
 250              		.cfi_offset 14, -4
 251              		.cfi_offset 3, -8
 252              	.LBB32:
 253              		.loc 1 167 0
 254 0002 2023     		movs	r3, #32
 255              	.LVL21:
 256              	@ 167 "../../os/kernel/src/chsem.c" 1
 257 0004 83F31188 		msr     BASEPRI, r3
 258              	@ 0 "" 2
 259              	.LVL22:
 260              		.thumb
 261              	.LBE32:
 262              		.loc 1 168 0
 263 0008 FFF7FEFF 		bl	chSemWaitS
 264              	.LVL23:
 265              	.LBB33:
 266              		.loc 1 169 0
 267 000c 0023     		movs	r3, #0
 268              	.LVL24:
 269              	@ 169 "../../os/kernel/src/chsem.c" 1
 270 000e 83F31188 		msr     BASEPRI, r3
 271              	@ 0 "" 2
 272              	.LVL25:
 273              		.thumb
 274              	.LBE33:
 275              		.loc 1 171 0
 276 0012 08BD     		pop	{r3, pc}
 277              		.cfi_endproc
 278              	.LFE10:
 279              		.size	chSemWait, .-chSemWait
 280 0014 AFF30080 		.section	.text.chSemWaitTimeoutS,"ax",%progbits
ARM GAS  /tmp/cc8X0ZJd.s 			page 6


 280      AFF30080 
 280      AFF30080 
 281              		.align	2
 282              		.p2align 4,,15
 283              		.global	chSemWaitTimeoutS
 284              		.thumb
 285              		.thumb_func
 286              		.type	chSemWaitTimeoutS, %function
 287              	chSemWaitTimeoutS:
 288              	.LFB13:
 289              		.loc 1 250 0
 290              		.cfi_startproc
 291              		@ args = 0, pretend = 0, frame = 0
 292              		@ frame_needed = 0, uses_anonymous_args = 0
 293              		@ link register save eliminated.
 294              	.LVL26:
 295 0000 0346     		mov	r3, r0
 296              		.loc 1 259 0
 297 0002 8068     		ldr	r0, [r0, #8]
 298              	.LVL27:
 299 0004 421E     		subs	r2, r0, #1
 300 0006 002A     		cmp	r2, #0
 301              		.loc 1 250 0
 302 0008 10B4     		push	{r4}
 303              	.LCFI4:
 304              		.cfi_def_cfa_offset 4
 305              		.cfi_offset 4, -4
 306              		.loc 1 250 0
 307 000a 0C46     		mov	r4, r1
 308              		.loc 1 259 0
 309 000c 9A60     		str	r2, [r3, #8]
 310 000e 02DB     		blt	.L20
 311              		.loc 1 268 0
 312 0010 0020     		movs	r0, #0
 313              	.L17:
 314              		.loc 1 269 0
 315 0012 10BC     		pop	{r4}
 316 0014 7047     		bx	lr
 317              	.L20:
 318              		.loc 1 260 0
 319 0016 59B1     		cbz	r1, .L21
 320              		.loc 1 264 0
 321 0018 074A     		ldr	r2, .L22
 322 001a 9269     		ldr	r2, [r2, #24]
 323 001c 5362     		str	r3, [r2, #36]
 324              	.LVL28:
 325              	.LBB34:
 326              	.LBB35:
 327              		.loc 2 55 0
 328 001e 5C68     		ldr	r4, [r3, #4]
 329              	.LBE35:
 330              	.LBE34:
 331              		.loc 1 266 0
 332 0020 0320     		movs	r0, #3
 333              	.LBB37:
 334              	.LBB36:
 335              		.loc 2 55 0
ARM GAS  /tmp/cc8X0ZJd.s 			page 7


 336 0022 82E81800 		stmia	r2, {r3, r4}
 337              		.loc 2 56 0
 338 0026 5A60     		str	r2, [r3, #4]
 339 0028 2260     		str	r2, [r4, #0]
 340              	.LBE36:
 341              	.LBE37:
 342              		.loc 1 269 0
 343 002a 10BC     		pop	{r4}
 344              		.loc 1 266 0
 345 002c FFF7FEBF 		b	chSchGoSleepTimeoutS
 346              	.LVL29:
 347              	.L21:
 348              		.loc 1 261 0
 349 0030 9860     		str	r0, [r3, #8]
 350              		.loc 1 262 0
 351 0032 4FF0FF30 		mov	r0, #-1
 352 0036 ECE7     		b	.L17
 353              	.L23:
 354              		.align	2
 355              	.L22:
 356 0038 00000000 		.word	rlist
 357              		.cfi_endproc
 358              	.LFE13:
 359              		.size	chSemWaitTimeoutS, .-chSemWaitTimeoutS
 360 003c AFF30080 		.section	.text.chSemWaitTimeout,"ax",%progbits
 361              		.align	2
 362              		.p2align 4,,15
 363              		.global	chSemWaitTimeout
 364              		.thumb
 365              		.thumb_func
 366              		.type	chSemWaitTimeout, %function
 367              	chSemWaitTimeout:
 368              	.LFB12:
 369              		.loc 1 222 0
 370              		.cfi_startproc
 371              		@ args = 0, pretend = 0, frame = 0
 372              		@ frame_needed = 0, uses_anonymous_args = 0
 373              	.LVL30:
 374 0000 08B5     		push	{r3, lr}
 375              	.LCFI5:
 376              		.cfi_def_cfa_offset 8
 377              		.cfi_offset 14, -4
 378              		.cfi_offset 3, -8
 379              	.LBB38:
 380              		.loc 1 225 0
 381 0002 2023     		movs	r3, #32
 382              	.LVL31:
 383              	@ 225 "../../os/kernel/src/chsem.c" 1
 384 0004 83F31188 		msr     BASEPRI, r3
 385              	@ 0 "" 2
 386              	.LVL32:
 387              		.thumb
 388              	.LBE38:
 389              		.loc 1 226 0
 390 0008 FFF7FEFF 		bl	chSemWaitTimeoutS
 391              	.LVL33:
 392              	.LBB39:
ARM GAS  /tmp/cc8X0ZJd.s 			page 8


 393              		.loc 1 227 0
 394 000c 0023     		movs	r3, #0
 395              	.LVL34:
 396              	@ 227 "../../os/kernel/src/chsem.c" 1
 397 000e 83F31188 		msr     BASEPRI, r3
 398              	@ 0 "" 2
 399              	.LVL35:
 400              		.thumb
 401              	.LBE39:
 402              		.loc 1 229 0
 403 0012 08BD     		pop	{r3, pc}
 404              		.cfi_endproc
 405              	.LFE12:
 406              		.size	chSemWaitTimeout, .-chSemWaitTimeout
 407 0014 AFF30080 		.section	.text.chSemSignal,"ax",%progbits
 407      AFF30080 
 407      AFF30080 
 408              		.align	2
 409              		.p2align 4,,15
 410              		.global	chSemSignal
 411              		.thumb
 412              		.thumb_func
 413              		.type	chSemSignal, %function
 414              	chSemSignal:
 415              	.LFB14:
 416              		.loc 1 278 0
 417              		.cfi_startproc
 418              		@ args = 0, pretend = 0, frame = 0
 419              		@ frame_needed = 0, uses_anonymous_args = 0
 420              	.LVL36:
 421 0000 08B5     		push	{r3, lr}
 422              	.LCFI6:
 423              		.cfi_def_cfa_offset 8
 424              		.cfi_offset 14, -4
 425              		.cfi_offset 3, -8
 426              		.loc 1 278 0
 427 0002 0246     		mov	r2, r0
 428              	.LBB40:
 429              		.loc 1 286 0
 430 0004 2023     		movs	r3, #32
 431              	.LVL37:
 432              	@ 286 "../../os/kernel/src/chsem.c" 1
 433 0006 83F31188 		msr     BASEPRI, r3
 434              	@ 0 "" 2
 435              	.LVL38:
 436              		.thumb
 437              	.LBE40:
 438              		.loc 1 287 0
 439 000a 8368     		ldr	r3, [r0, #8]
 440              	.LVL39:
 441 000c 0133     		adds	r3, r3, #1
 442 000e 002B     		cmp	r3, #0
 443 0010 8360     		str	r3, [r0, #8]
 444 0012 03DD     		ble	.L27
 445              	.LVL40:
 446              	.L26:
 447              	.LBB41:
ARM GAS  /tmp/cc8X0ZJd.s 			page 9


 448              		.loc 1 289 0
 449 0014 0023     		movs	r3, #0
 450              	.LVL41:
 451              	@ 289 "../../os/kernel/src/chsem.c" 1
 452 0016 83F31188 		msr     BASEPRI, r3
 453              	@ 0 "" 2
 454              	.LVL42:
 455              		.thumb
 456              	.LBE41:
 457              		.loc 1 290 0
 458 001a 08BD     		pop	{r3, pc}
 459              	.LVL43:
 460              	.L27:
 461              	.LBB42:
 462              	.LBB43:
 463              		.loc 2 60 0
 464 001c 0068     		ldr	r0, [r0, #0]
 465              	.LVL44:
 466              		.loc 2 62 0
 467 001e 0368     		ldr	r3, [r0, #0]
 468              	.LBE43:
 469              	.LBE42:
 470              		.loc 1 288 0
 471 0020 0021     		movs	r1, #0
 472              	.LBB45:
 473              	.LBB44:
 474              		.loc 2 62 0
 475 0022 1360     		str	r3, [r2, #0]
 476 0024 5A60     		str	r2, [r3, #4]
 477              	.LBE44:
 478              	.LBE45:
 479              		.loc 1 288 0
 480 0026 FFF7FEFF 		bl	chSchWakeupS
 481              	.LVL45:
 482 002a F3E7     		b	.L26
 483              		.cfi_endproc
 484              	.LFE14:
 485              		.size	chSemSignal, .-chSemSignal
 486 002c AFF30080 		.section	.text.chSemSignalI,"ax",%progbits
 487              		.align	2
 488              		.p2align 4,,15
 489              		.global	chSemSignalI
 490              		.thumb
 491              		.thumb_func
 492              		.type	chSemSignalI, %function
 493              	chSemSignalI:
 494              	.LFB15:
 495              		.loc 1 303 0
 496              		.cfi_startproc
 497              		@ args = 0, pretend = 0, frame = 0
 498              		@ frame_needed = 0, uses_anonymous_args = 0
 499              		@ link register save eliminated.
 500              	.LVL46:
 501              		.loc 1 312 0
 502 0000 8268     		ldr	r2, [r0, #8]
 503 0002 0132     		adds	r2, r2, #1
 504 0004 002A     		cmp	r2, #0
ARM GAS  /tmp/cc8X0ZJd.s 			page 10


 505              		.loc 1 303 0
 506 0006 0346     		mov	r3, r0
 507              		.loc 1 312 0
 508 0008 8260     		str	r2, [r0, #8]
 509 000a 00DD     		ble	.L30
 510 000c 7047     		bx	lr
 511              	.L30:
 512              	.LVL47:
 513              	.LBB46:
 514              	.LBB47:
 515              	.LBB48:
 516              		.loc 2 60 0
 517 000e 0268     		ldr	r2, [r0, #0]
 518              	.LVL48:
 519              		.loc 2 62 0
 520 0010 1168     		ldr	r1, [r2, #0]
 521 0012 0160     		str	r1, [r0, #0]
 522 0014 4B60     		str	r3, [r1, #4]
 523              	.LBE48:
 524              	.LBE47:
 525              		.loc 1 317 0
 526 0016 1046     		mov	r0, r2
 527              	.LVL49:
 528              		.loc 1 316 0
 529 0018 0023     		movs	r3, #0
 530              	.LVL50:
 531 001a 5362     		str	r3, [r2, #36]
 532              	.LBE46:
 533              		.loc 1 319 0
 534              	.LBB49:
 535              		.loc 1 317 0
 536 001c FFF7FEBF 		b	chSchReadyI
 537              	.LVL51:
 538              	.LVL52:
 539              	.LBE49:
 540              		.cfi_endproc
 541              	.LFE15:
 542              		.size	chSemSignalI, .-chSemSignalI
 543              		.section	.text.chSemAddCounterI,"ax",%progbits
 544              		.align	2
 545              		.p2align 4,,15
 546              		.global	chSemAddCounterI
 547              		.thumb
 548              		.thumb_func
 549              		.type	chSemAddCounterI, %function
 550              	chSemAddCounterI:
 551              	.LFB16:
 552              		.loc 1 334 0
 553              		.cfi_startproc
 554              		@ args = 0, pretend = 0, frame = 0
 555              		@ frame_needed = 0, uses_anonymous_args = 0
 556              	.LVL53:
 557 0000 70B5     		push	{r4, r5, r6, lr}
 558              	.LCFI7:
 559              		.cfi_def_cfa_offset 16
 560              		.cfi_offset 14, -4
 561              		.cfi_offset 6, -8
ARM GAS  /tmp/cc8X0ZJd.s 			page 11


 562              		.cfi_offset 5, -12
 563              		.cfi_offset 4, -16
 564              		.loc 1 343 0
 565 0002 0D1E     		subs	r5, r1, #0
 566              		.loc 1 334 0
 567 0004 0446     		mov	r4, r0
 568              		.loc 1 343 0
 569 0006 11DD     		ble	.L31
 570              		.loc 1 345 0
 571 0008 0026     		movs	r6, #0
 572 000a 01E0     		b	.L35
 573              	.LVL54:
 574              	.L33:
 575              		.loc 1 343 0
 576 000c 013D     		subs	r5, r5, #1
 577              	.LVL55:
 578 000e 0DD0     		beq	.L31
 579              	.LVL56:
 580              	.L35:
 581              		.loc 1 344 0
 582 0010 A368     		ldr	r3, [r4, #8]
 583 0012 0133     		adds	r3, r3, #1
 584 0014 002B     		cmp	r3, #0
 585 0016 A360     		str	r3, [r4, #8]
 586 0018 F8DC     		bgt	.L33
 587              	.LVL57:
 588              	.LBB50:
 589              	.LBB51:
 590              		.loc 2 60 0
 591 001a 2068     		ldr	r0, [r4, #0]
 592              	.LVL58:
 593              		.loc 2 62 0
 594 001c 0368     		ldr	r3, [r0, #0]
 595 001e 2360     		str	r3, [r4, #0]
 596 0020 5C60     		str	r4, [r3, #4]
 597              	.LBE51:
 598              	.LBE50:
 599              		.loc 1 345 0
 600 0022 FFF7FEFF 		bl	chSchReadyI
 601              	.LVL59:
 602              		.loc 1 343 0
 603 0026 013D     		subs	r5, r5, #1
 604              		.loc 1 345 0
 605 0028 4662     		str	r6, [r0, #36]
 606              		.loc 1 343 0
 607 002a F1D1     		bne	.L35
 608              	.LVL60:
 609              	.L31:
 610 002c 70BD     		pop	{r4, r5, r6, pc}
 611              		.cfi_endproc
 612              	.LFE16:
 613              		.size	chSemAddCounterI, .-chSemAddCounterI
 614 002e 00BF     		.section	.text.chSemSignalWait,"ax",%progbits
 615              		.align	2
 616              		.p2align 4,,15
 617              		.global	chSemSignalWait
 618              		.thumb
ARM GAS  /tmp/cc8X0ZJd.s 			page 12


 619              		.thumb_func
 620              		.type	chSemSignalWait, %function
 621              	chSemSignalWait:
 622              	.LFB17:
 623              		.loc 1 366 0
 624              		.cfi_startproc
 625              		@ args = 0, pretend = 0, frame = 8
 626              		@ frame_needed = 0, uses_anonymous_args = 0
 627              	.LVL61:
 628 0000 10B5     		push	{r4, lr}
 629              	.LCFI8:
 630              		.cfi_def_cfa_offset 8
 631              		.cfi_offset 14, -4
 632              		.cfi_offset 4, -8
 633 0002 0246     		mov	r2, r0
 634 0004 82B0     		sub	sp, sp, #8
 635              	.LCFI9:
 636              		.cfi_def_cfa_offset 16
 637              	.LBB52:
 638              		.loc 1 379 0
 639 0006 2023     		movs	r3, #32
 640              	.LVL62:
 641              	@ 379 "../../os/kernel/src/chsem.c" 1
 642 0008 83F31188 		msr     BASEPRI, r3
 643              	@ 0 "" 2
 644              	.LVL63:
 645              		.thumb
 646              	.LBE52:
 647              		.loc 1 380 0
 648 000c 8368     		ldr	r3, [r0, #8]
 649              	.LVL64:
 650 000e 0133     		adds	r3, r3, #1
 651 0010 002B     		cmp	r3, #0
 652 0012 8360     		str	r3, [r0, #8]
 653 0014 19DD     		ble	.L41
 654              	.LVL65:
 655              	.L38:
 656              		.loc 1 382 0
 657 0016 8B68     		ldr	r3, [r1, #8]
 658 0018 013B     		subs	r3, r3, #1
 659 001a 002B     		cmp	r3, #0
 660 001c 8B60     		str	r3, [r1, #8]
 661 001e 07DB     		blt	.L42
 662              		.loc 1 390 0
 663 0020 FFF7FEFF 		bl	chSchRescheduleS
 664              	.LVL66:
 665              		.loc 1 391 0
 666 0024 0020     		movs	r0, #0
 667              	.LVL67:
 668              	.L40:
 669              	.LBB53:
 670              		.loc 1 393 0
 671 0026 0023     		movs	r3, #0
 672              	.LVL68:
 673              	@ 393 "../../os/kernel/src/chsem.c" 1
 674 0028 83F31188 		msr     BASEPRI, r3
 675              	@ 0 "" 2
ARM GAS  /tmp/cc8X0ZJd.s 			page 13


 676              	.LVL69:
 677              		.thumb
 678              	.LBE53:
 679              		.loc 1 395 0
 680 002c 02B0     		add	sp, sp, #8
 681 002e 10BD     		pop	{r4, pc}
 682              	.LVL70:
 683              	.L42:
 684              	.LBB54:
 685              		.loc 1 383 0
 686 0030 0B4A     		ldr	r2, .L43
 687              	.LBB55:
 688              	.LBB56:
 689              		.loc 2 55 0
 690 0032 4B68     		ldr	r3, [r1, #4]
 691              	.LBE56:
 692              	.LBE55:
 693              		.loc 1 383 0
 694 0034 9469     		ldr	r4, [r2, #24]
 695              	.LVL71:
 696              		.loc 1 386 0
 697 0036 0320     		movs	r0, #3
 698              	.LBB58:
 699              	.LBB57:
 700              		.loc 2 55 0
 701 0038 84E80A00 		stmia	r4, {r1, r3}
 702              		.loc 2 56 0
 703 003c 4C60     		str	r4, [r1, #4]
 704 003e 1C60     		str	r4, [r3, #0]
 705              	.LBE57:
 706              	.LBE58:
 707              		.loc 1 385 0
 708 0040 6162     		str	r1, [r4, #36]
 709              		.loc 1 386 0
 710 0042 FFF7FEFF 		bl	chSchGoSleepS
 711              	.LVL72:
 712              		.loc 1 387 0
 713 0046 606A     		ldr	r0, [r4, #36]
 714              	.LVL73:
 715 0048 EDE7     		b	.L40
 716              	.LVL74:
 717              	.L41:
 718              	.LBE54:
 719              	.LBB59:
 720              	.LBB60:
 721              		.loc 2 60 0
 722 004a 0068     		ldr	r0, [r0, #0]
 723              	.LVL75:
 724              		.loc 2 62 0
 725 004c 0368     		ldr	r3, [r0, #0]
 726 004e 1360     		str	r3, [r2, #0]
 727 0050 5A60     		str	r2, [r3, #4]
 728              	.LBE60:
 729              	.LBE59:
 730              		.loc 1 381 0
 731 0052 0191     		str	r1, [sp, #4]
 732 0054 FFF7FEFF 		bl	chSchReadyI
ARM GAS  /tmp/cc8X0ZJd.s 			page 14


 733              	.LVL76:
 734 0058 0023     		movs	r3, #0
 735 005a 4362     		str	r3, [r0, #36]
 736 005c 0199     		ldr	r1, [sp, #4]
 737 005e DAE7     		b	.L38
 738              	.L44:
 739              		.align	2
 740              	.L43:
 741 0060 00000000 		.word	rlist
 742              		.cfi_endproc
 743              	.LFE17:
 744              		.size	chSemSignalWait, .-chSemSignalWait
 745 0064 AFF30080 		.text
 745      AFF30080 
 745      AFF30080 
 746              	.Letext0:
 747              		.file 3 "/opt/paparazzi/arm-multilib/lib/gcc/arm-none-eabi/4.6.2/../../../../arm-none-eabi/include
 748              		.file 4 "../../os/ports/GCC/ARMCMx/chtypes.h"
 749              		.file 5 "../../os/kernel/include/chlists.h"
 750              		.file 6 "../../os/kernel/include/chthreads.h"
 751              		.file 7 "../../os/ports/GCC/ARMCMx/chcore_v7m.h"
 752              		.file 8 "../../os/kernel/include/chschd.h"
 753              		.file 9 "../../os/kernel/include/chsem.h"
 754              		.file 10 "../../os/kernel/include/chmtx.h"