ARM GAS  /tmp/cc0J9rLY.s 			page 1


   1              		.syntax unified
   2              		.cpu cortex-m4
   3              		.fpu softvfp
   4              		.eabi_attribute 20, 1
   5              		.eabi_attribute 21, 1
   6              		.eabi_attribute 23, 3
   7              		.eabi_attribute 24, 1
   8              		.eabi_attribute 25, 1
   9              		.eabi_attribute 26, 1
  10              		.eabi_attribute 30, 2
  11              		.eabi_attribute 18, 4
  12              		.thumb
  13              		.file	"chthreads.c"
  14              		.text
  15              	.Ltext0:
  16              		.cfi_sections	.debug_frame
  17              		.section	.text._thread_init,"ax",%progbits
  18              		.align	2
  19              		.p2align 4,,15
  20              		.global	_thread_init
  21              		.thumb
  22              		.thumb_func
  23              		.type	_thread_init, %function
  24              	_thread_init:
  25              	.LFB7:
  26              		.file 1 "../../os/kernel/src/chthreads.c"
  27              		.loc 1 76 0
  28              		.cfi_startproc
  29              		@ args = 0, pretend = 0, frame = 0
  30              		@ frame_needed = 0, uses_anonymous_args = 0
  31              		@ link register save eliminated.
  32              	.LVL0:
  33 0000 F0B4     		push	{r4, r5, r6, r7}
  34              	.LCFI0:
  35              		.cfi_def_cfa_offset 16
  36              		.cfi_offset 7, -4
  37              		.cfi_offset 6, -8
  38              		.cfi_offset 5, -12
  39              		.cfi_offset 4, -16
  40              		.loc 1 99 0
  41 0002 40F20004 		movw	r4, #:lower16:rlist
  42 0006 C0F20004 		movt	r4, #:upper16:rlist
  43              		.loc 1 80 0
  44 000a 0022     		movs	r2, #0
  45              		.loc 1 99 0
  46 000c 6569     		ldr	r5, [r4, #20]
  47              		.loc 1 85 0
  48 000e 0164     		str	r1, [r0, #64]
  49              		.loc 1 99 0
  50 0010 0461     		str	r4, [r0, #16]
  51              		.loc 1 105 0
  52 0012 00F12C06 		add	r6, r0, #44
  53              		.loc 1 78 0
  54 0016 8160     		str	r1, [r0, #8]
  55              		.loc 1 102 0
  56 0018 00F12807 		add	r7, r0, #40
  57              		.loc 1 99 0
ARM GAS  /tmp/cc0J9rLY.s 			page 2


  58 001c 4561     		str	r5, [r0, #20]
  59              		.loc 1 79 0
  60 001e 4FF0020C 		mov	ip, #2
  61              		.loc 1 99 0
  62 0022 6061     		str	r0, [r4, #20]
  63              		.loc 1 95 0
  64 0024 0121     		movs	r1, #1
  65              	.LVL1:
  66              		.loc 1 82 0
  67 0026 1424     		movs	r4, #20
  68              		.loc 1 79 0
  69 0028 80F81CC0 		strb	ip, [r0, #28]
  70              		.loc 1 80 0
  71 002c 4277     		strb	r2, [r0, #29]
  72              		.loc 1 82 0
  73 002e C477     		strb	r4, [r0, #31]
  74              		.loc 1 86 0
  75 0030 C263     		str	r2, [r0, #60]
  76              		.loc 1 89 0
  77 0032 8263     		str	r2, [r0, #56]
  78              		.loc 1 92 0
  79 0034 0262     		str	r2, [r0, #32]
  80              		.loc 1 95 0
  81 0036 8177     		strb	r1, [r0, #30]
  82              		.loc 1 98 0
  83 0038 8261     		str	r2, [r0, #24]
  84              		.loc 1 99 0
  85 003a 2861     		str	r0, [r5, #16]
  86              		.loc 1 102 0
  87 003c 8762     		str	r7, [r0, #40]
  88              		.loc 1 105 0
  89 003e 0663     		str	r6, [r0, #48]
  90 0040 C662     		str	r6, [r0, #44]
  91              		.loc 1 114 0
  92 0042 F0BC     		pop	{r4, r5, r6, r7}
  93 0044 7047     		bx	lr
  94              		.cfi_endproc
  95              	.LFE7:
  96              		.size	_thread_init, .-_thread_init
  97 0046 00BFAFF3 		.section	.text.chThdCreateI,"ax",%progbits
  97      0080AFF3 
  97      0080
  98              		.align	2
  99              		.p2align 4,,15
 100              		.global	chThdCreateI
 101              		.thumb
 102              		.thumb_func
 103              		.type	chThdCreateI, %function
 104              	chThdCreateI:
 105              	.LFB8:
 106              		.loc 1 158 0
 107              		.cfi_startproc
 108              		@ args = 4, pretend = 0, frame = 0
 109              		@ frame_needed = 0, uses_anonymous_args = 0
 110              		@ link register save eliminated.
 111              	.LVL2:
 112 0000 2DE9F003 		push	{r4, r5, r6, r7, r8, r9}
ARM GAS  /tmp/cc0J9rLY.s 			page 3


 113              	.LCFI1:
 114              		.cfi_def_cfa_offset 24
 115              		.cfi_offset 9, -4
 116              		.cfi_offset 8, -8
 117              		.cfi_offset 7, -12
 118              		.cfi_offset 6, -16
 119              		.cfi_offset 5, -20
 120              		.cfi_offset 4, -24
 121              	.LBB10:
 122              	.LBB11:
 123              		.loc 1 99 0
 124 0004 40F20005 		movw	r5, #:lower16:rlist
 125 0008 C0F20005 		movt	r5, #:upper16:rlist
 126              	.LBE11:
 127              	.LBE10:
 128              		.loc 1 167 0
 129 000c A1F1240C 		sub	ip, r1, #36
 130 0010 00EB0C07 		add	r7, r0, ip
 131              	.LBB16:
 132              	.LBB12:
 133              		.loc 1 99 0
 134 0014 6969     		ldr	r1, [r5, #20]
 135              	.LVL3:
 136              	.LBE12:
 137              	.LBE16:
 138              		.loc 1 167 0
 139 0016 C760     		str	r7, [r0, #12]
 140 0018 40F80C30 		str	r3, [r0, ip]
 141 001c 069B     		ldr	r3, [sp, #24]
 142              	.LVL4:
 143 001e 7B60     		str	r3, [r7, #4]
 144 0020 40F20003 		movw	r3, #:lower16:_port_thread_start
 145 0024 C0F20003 		movt	r3, #:upper16:_port_thread_start
 146 0028 3B62     		str	r3, [r7, #32]
 147              	.LBB17:
 148              	.LBB13:
 149              		.loc 1 79 0
 150 002a 0223     		movs	r3, #2
 151 002c 0377     		strb	r3, [r0, #28]
 152              		.loc 1 82 0
 153 002e 1423     		movs	r3, #20
 154              		.loc 1 80 0
 155 0030 0026     		movs	r6, #0
 156              	.LBE13:
 157              	.LBE17:
 158              		.loc 1 158 0
 159 0032 9046     		mov	r8, r2
 160              	.LBB18:
 161              	.LBB14:
 162              		.loc 1 102 0
 163 0034 00F12809 		add	r9, r0, #40
 164              		.loc 1 105 0
 165 0038 00F12C02 		add	r2, r0, #44
 166              	.LVL5:
 167              		.loc 1 82 0
 168 003c C377     		strb	r3, [r0, #31]
 169              		.loc 1 95 0
ARM GAS  /tmp/cc0J9rLY.s 			page 4


 170 003e 0123     		movs	r3, #1
 171              		.loc 1 99 0
 172 0040 0561     		str	r5, [r0, #16]
 173              		.loc 1 78 0
 174 0042 C0F80880 		str	r8, [r0, #8]
 175              		.loc 1 99 0
 176 0046 4161     		str	r1, [r0, #20]
 177              	.LBE14:
 178              	.LBE18:
 179              		.loc 1 158 0
 180 0048 0446     		mov	r4, r0
 181              	.LVL6:
 182              	.LBB19:
 183              	.LBB15:
 184              		.loc 1 99 0
 185 004a 6861     		str	r0, [r5, #20]
 186              		.loc 1 80 0
 187 004c 4677     		strb	r6, [r0, #29]
 188              		.loc 1 85 0
 189 004e C0F84080 		str	r8, [r0, #64]
 190              		.loc 1 86 0
 191 0052 C663     		str	r6, [r0, #60]
 192              		.loc 1 89 0
 193 0054 8663     		str	r6, [r0, #56]
 194              		.loc 1 92 0
 195 0056 0662     		str	r6, [r0, #32]
 196              		.loc 1 95 0
 197 0058 8377     		strb	r3, [r0, #30]
 198              		.loc 1 98 0
 199 005a 8661     		str	r6, [r0, #24]
 200              		.loc 1 99 0
 201 005c 0861     		str	r0, [r1, #16]
 202              		.loc 1 102 0
 203 005e C0F82890 		str	r9, [r0, #40]
 204              		.loc 1 105 0
 205 0062 0263     		str	r2, [r0, #48]
 206 0064 C262     		str	r2, [r0, #44]
 207              	.LBE15:
 208              	.LBE19:
 209              		.loc 1 169 0
 210 0066 BDE8F003 		pop	{r4, r5, r6, r7, r8, r9}
 211 006a 7047     		bx	lr
 212              		.cfi_endproc
 213              	.LFE8:
 214              		.size	chThdCreateI, .-chThdCreateI
 215 006c AFF30080 		.section	.text.chThdCreateStatic,"ax",%progbits
 216              		.align	2
 217              		.p2align 4,,15
 218              		.global	chThdCreateStatic
 219              		.thumb
 220              		.thumb_func
 221              		.type	chThdCreateStatic, %function
 222              	chThdCreateStatic:
 223              	.LFB9:
 224              		.loc 1 188 0
 225              		.cfi_startproc
 226              		@ args = 4, pretend = 0, frame = 0
ARM GAS  /tmp/cc0J9rLY.s 			page 5


 227              		@ frame_needed = 0, uses_anonymous_args = 0
 228              	.LVL7:
 229 0000 10B5     		push	{r4, lr}
 230              	.LCFI2:
 231              		.cfi_def_cfa_offset 8
 232              		.cfi_offset 14, -4
 233              		.cfi_offset 4, -8
 234 0002 1C46     		mov	r4, r3
 235 0004 82B0     		sub	sp, sp, #8
 236              	.LCFI3:
 237              		.cfi_def_cfa_offset 16
 238              	.LBB20:
 239              		.loc 1 199 0
 240 0006 2023     		movs	r3, #32
 241              	.LVL8:
 242              	@ 199 "../../os/kernel/src/chthreads.c" 1
 243 0008 83F31188 		msr     BASEPRI, r3
 244              	@ 0 "" 2
 245              	.LVL9:
 246              		.thumb
 247              	.LBE20:
 248              		.loc 1 200 0
 249 000c 2346     		mov	r3, r4
 250              	.LVL10:
 251 000e 049C     		ldr	r4, [sp, #16]
 252              	.LVL11:
 253 0010 0094     		str	r4, [sp, #0]
 254 0012 FFF7FEFF 		bl	chThdCreateI
 255              	.LVL12:
 256 0016 0021     		movs	r1, #0
 257 0018 0446     		mov	r4, r0
 258              	.LVL13:
 259 001a FFF7FEFF 		bl	chSchWakeupS
 260              	.LVL14:
 261              	.LBB21:
 262              		.loc 1 201 0
 263 001e 0023     		movs	r3, #0
 264              	.LVL15:
 265              	@ 201 "../../os/kernel/src/chthreads.c" 1
 266 0020 83F31188 		msr     BASEPRI, r3
 267              	@ 0 "" 2
 268              	.LVL16:
 269              		.thumb
 270              	.LBE21:
 271              		.loc 1 203 0
 272 0024 2046     		mov	r0, r4
 273 0026 02B0     		add	sp, sp, #8
 274 0028 10BD     		pop	{r4, pc}
 275              		.cfi_endproc
 276              	.LFE9:
 277              		.size	chThdCreateStatic, .-chThdCreateStatic
 278 002a 00BFAFF3 		.section	.text.chThdSetPriority,"ax",%progbits
 278      0080
 279              		.align	2
 280              		.p2align 4,,15
 281              		.global	chThdSetPriority
 282              		.thumb
ARM GAS  /tmp/cc0J9rLY.s 			page 6


 283              		.thumb_func
 284              		.type	chThdSetPriority, %function
 285              	chThdSetPriority:
 286              	.LFB10:
 287              		.loc 1 217 0
 288              		.cfi_startproc
 289              		@ args = 0, pretend = 0, frame = 0
 290              		@ frame_needed = 0, uses_anonymous_args = 0
 291              	.LVL17:
 292 0000 10B5     		push	{r4, lr}
 293              	.LCFI4:
 294              		.cfi_def_cfa_offset 8
 295              		.cfi_offset 14, -4
 296              		.cfi_offset 4, -8
 297              	.LBB22:
 298              		.loc 1 222 0
 299 0002 2023     		movs	r3, #32
 300              	.LVL18:
 301              	@ 222 "../../os/kernel/src/chthreads.c" 1
 302 0004 83F31188 		msr     BASEPRI, r3
 303              	@ 0 "" 2
 304              	.LVL19:
 305              		.thumb
 306              	.LBE22:
 307              		.loc 1 224 0
 308 0008 084B     		ldr	r3, .L8
 309              	.LVL20:
 310 000a 9B69     		ldr	r3, [r3, #24]
 311 000c 1C6C     		ldr	r4, [r3, #64]
 312              	.LVL21:
 313              		.loc 1 225 0
 314 000e 9A68     		ldr	r2, [r3, #8]
 315 0010 9442     		cmp	r4, r2
 316 0012 01D0     		beq	.L5
 317              		.loc 1 225 0 is_stmt 0 discriminator 1
 318 0014 8242     		cmp	r2, r0
 319 0016 00D2     		bcs	.L6
 320              	.L5:
 321              		.loc 1 226 0 is_stmt 1
 322 0018 9860     		str	r0, [r3, #8]
 323              	.L6:
 324              		.loc 1 227 0
 325 001a 1864     		str	r0, [r3, #64]
 326              		.loc 1 232 0
 327 001c FFF7FEFF 		bl	chSchRescheduleS
 328              	.LVL22:
 329              	.LBB23:
 330              		.loc 1 233 0
 331 0020 0023     		movs	r3, #0
 332              	.LVL23:
 333              	@ 233 "../../os/kernel/src/chthreads.c" 1
 334 0022 83F31188 		msr     BASEPRI, r3
 335              	@ 0 "" 2
 336              	.LVL24:
 337              		.thumb
 338              	.LBE23:
 339              		.loc 1 235 0
ARM GAS  /tmp/cc0J9rLY.s 			page 7


 340 0026 2046     		mov	r0, r4
 341 0028 10BD     		pop	{r4, pc}
 342              	.L9:
 343 002a 00BF     		.align	2
 344              	.L8:
 345 002c 00000000 		.word	rlist
 346              		.cfi_endproc
 347              	.LFE10:
 348              		.size	chThdSetPriority, .-chThdSetPriority
 349              		.section	.text.chThdResume,"ax",%progbits
 350              		.align	2
 351              		.p2align 4,,15
 352              		.global	chThdResume
 353              		.thumb
 354              		.thumb_func
 355              		.type	chThdResume, %function
 356              	chThdResume:
 357              	.LFB11:
 358              		.loc 1 250 0
 359              		.cfi_startproc
 360              		@ args = 0, pretend = 0, frame = 0
 361              		@ frame_needed = 0, uses_anonymous_args = 0
 362              	.LVL25:
 363 0000 10B5     		push	{r4, lr}
 364              	.LCFI5:
 365              		.cfi_def_cfa_offset 8
 366              		.cfi_offset 14, -4
 367              		.cfi_offset 4, -8
 368              	.LBB24:
 369              		.loc 1 252 0
 370 0002 2023     		movs	r3, #32
 371              	.LVL26:
 372              	.LBE24:
 373              		.loc 1 250 0
 374 0004 0446     		mov	r4, r0
 375              	.LBB25:
 376              		.loc 1 252 0
 377              	@ 252 "../../os/kernel/src/chthreads.c" 1
 378 0006 83F31188 		msr     BASEPRI, r3
 379              	@ 0 "" 2
 380              	.LVL27:
 381              		.thumb
 382              	.LBE25:
 383              		.loc 1 256 0
 384 000a 0021     		movs	r1, #0
 385 000c FFF7FEFF 		bl	chSchWakeupS
 386              	.LVL28:
 387              	.LBB26:
 388              		.loc 1 257 0
 389 0010 0023     		movs	r3, #0
 390              	.LVL29:
 391              	@ 257 "../../os/kernel/src/chthreads.c" 1
 392 0012 83F31188 		msr     BASEPRI, r3
 393              	@ 0 "" 2
 394              	.LVL30:
 395              		.thumb
 396              	.LBE26:
ARM GAS  /tmp/cc0J9rLY.s 			page 8


 397              		.loc 1 259 0
 398 0016 2046     		mov	r0, r4
 399 0018 10BD     		pop	{r4, pc}
 400              		.cfi_endproc
 401              	.LFE11:
 402              		.size	chThdResume, .-chThdResume
 403 001a 00BFAFF3 		.section	.text.chThdTerminate,"ax",%progbits
 403      0080
 404              		.align	2
 405              		.p2align 4,,15
 406              		.global	chThdTerminate
 407              		.thumb
 408              		.thumb_func
 409              		.type	chThdTerminate, %function
 410              	chThdTerminate:
 411              	.LFB12:
 412              		.loc 1 273 0
 413              		.cfi_startproc
 414              		@ args = 0, pretend = 0, frame = 0
 415              		@ frame_needed = 0, uses_anonymous_args = 0
 416              		@ link register save eliminated.
 417              	.LVL31:
 418              	.LBB27:
 419              		.loc 1 275 0
 420 0000 2023     		movs	r3, #32
 421              	.LVL32:
 422              	@ 275 "../../os/kernel/src/chthreads.c" 1
 423 0002 83F31188 		msr     BASEPRI, r3
 424              	@ 0 "" 2
 425              	.LVL33:
 426              		.thumb
 427              	.LBE27:
 428              		.loc 1 276 0
 429 0006 437F     		ldrb	r3, [r0, #29]	@ zero_extendqisi2
 430              	.LVL34:
 431 0008 43F00403 		orr	r3, r3, #4
 432 000c 4377     		strb	r3, [r0, #29]
 433              	.LBB28:
 434              		.loc 1 277 0
 435 000e 0023     		movs	r3, #0
 436              	.LVL35:
 437              	@ 277 "../../os/kernel/src/chthreads.c" 1
 438 0010 83F31188 		msr     BASEPRI, r3
 439              	@ 0 "" 2
 440              	.LVL36:
 441              		.thumb
 442              	.LBE28:
 443              		.loc 1 278 0
 444 0014 7047     		bx	lr
 445              		.cfi_endproc
 446              	.LFE12:
 447              		.size	chThdTerminate, .-chThdTerminate
 448 0016 00BFAFF3 		.section	.text.chThdSleep,"ax",%progbits
 448      0080AFF3 
 448      0080
 449              		.align	2
 450              		.p2align 4,,15
ARM GAS  /tmp/cc0J9rLY.s 			page 9


 451              		.global	chThdSleep
 452              		.thumb
 453              		.thumb_func
 454              		.type	chThdSleep, %function
 455              	chThdSleep:
 456              	.LFB13:
 457              		.loc 1 292 0
 458              		.cfi_startproc
 459              		@ args = 0, pretend = 0, frame = 0
 460              		@ frame_needed = 0, uses_anonymous_args = 0
 461              	.LVL37:
 462 0000 08B5     		push	{r3, lr}
 463              	.LCFI6:
 464              		.cfi_def_cfa_offset 8
 465              		.cfi_offset 14, -4
 466              		.cfi_offset 3, -8
 467              		.loc 1 292 0
 468 0002 0146     		mov	r1, r0
 469              	.LBB29:
 470              		.loc 1 296 0
 471 0004 2023     		movs	r3, #32
 472              	.LVL38:
 473              	@ 296 "../../os/kernel/src/chthreads.c" 1
 474 0006 83F31188 		msr     BASEPRI, r3
 475              	@ 0 "" 2
 476              	.LVL39:
 477              		.thumb
 478              	.LBE29:
 479              		.loc 1 297 0
 480 000a 0620     		movs	r0, #6
 481              	.LVL40:
 482 000c FFF7FEFF 		bl	chSchGoSleepTimeoutS
 483              	.LVL41:
 484              	.LBB30:
 485              		.loc 1 298 0
 486 0010 0023     		movs	r3, #0
 487              	.LVL42:
 488              	@ 298 "../../os/kernel/src/chthreads.c" 1
 489 0012 83F31188 		msr     BASEPRI, r3
 490              	@ 0 "" 2
 491              	.LVL43:
 492              		.thumb
 493              	.LBE30:
 494              		.loc 1 299 0
 495 0016 08BD     		pop	{r3, pc}
 496              		.cfi_endproc
 497              	.LFE13:
 498              		.size	chThdSleep, .-chThdSleep
 499 0018 AFF30080 		.section	.text.chThdSleepUntil,"ax",%progbits
 499      AFF30080 
 500              		.align	2
 501              		.p2align 4,,15
 502              		.global	chThdSleepUntil
 503              		.thumb
 504              		.thumb_func
 505              		.type	chThdSleepUntil, %function
 506              	chThdSleepUntil:
ARM GAS  /tmp/cc0J9rLY.s 			page 10


 507              	.LFB14:
 508              		.loc 1 309 0
 509              		.cfi_startproc
 510              		@ args = 0, pretend = 0, frame = 0
 511              		@ frame_needed = 0, uses_anonymous_args = 0
 512              	.LVL44:
 513 0000 08B5     		push	{r3, lr}
 514              	.LCFI7:
 515              		.cfi_def_cfa_offset 8
 516              		.cfi_offset 14, -4
 517              		.cfi_offset 3, -8
 518              	.LBB31:
 519              		.loc 1 311 0
 520 0002 2023     		movs	r3, #32
 521              	.LVL45:
 522              	@ 311 "../../os/kernel/src/chthreads.c" 1
 523 0004 83F31188 		msr     BASEPRI, r3
 524              	@ 0 "" 2
 525              	.LVL46:
 526              		.thumb
 527              	.LBE31:
 528              		.loc 1 312 0
 529 0008 054B     		ldr	r3, .L15
 530              	.LVL47:
 531 000a D968     		ldr	r1, [r3, #12]
 532              	.LVL48:
 533 000c 411A     		subs	r1, r0, r1
 534              	.LVL49:
 535 000e 02D0     		beq	.L14
 536              		.loc 1 313 0
 537 0010 0620     		movs	r0, #6
 538 0012 FFF7FEFF 		bl	chSchGoSleepTimeoutS
 539              	.LVL50:
 540              	.L14:
 541              	.LBB32:
 542              		.loc 1 314 0
 543 0016 0023     		movs	r3, #0
 544              	.LVL51:
 545              	@ 314 "../../os/kernel/src/chthreads.c" 1
 546 0018 83F31188 		msr     BASEPRI, r3
 547              	@ 0 "" 2
 548              	.LVL52:
 549              		.thumb
 550              	.LBE32:
 551              		.loc 1 315 0
 552 001c 08BD     		pop	{r3, pc}
 553              	.L16:
 554 001e 00BF     		.align	2
 555              	.L15:
 556 0020 00000000 		.word	vtlist
 557              		.cfi_endproc
 558              	.LFE14:
 559              		.size	chThdSleepUntil, .-chThdSleepUntil
 560 0024 AFF30080 		.section	.text.chThdYield,"ax",%progbits
 560      AFF30080 
 560      AFF30080 
 561              		.align	2
ARM GAS  /tmp/cc0J9rLY.s 			page 11


 562              		.p2align 4,,15
 563              		.global	chThdYield
 564              		.thumb
 565              		.thumb_func
 566              		.type	chThdYield, %function
 567              	chThdYield:
 568              	.LFB15:
 569              		.loc 1 324 0
 570              		.cfi_startproc
 571              		@ args = 0, pretend = 0, frame = 0
 572              		@ frame_needed = 0, uses_anonymous_args = 0
 573 0000 08B5     		push	{r3, lr}
 574              	.LCFI8:
 575              		.cfi_def_cfa_offset 8
 576              		.cfi_offset 14, -4
 577              		.cfi_offset 3, -8
 578              	.LBB33:
 579              		.loc 1 326 0
 580 0002 2023     		movs	r3, #32
 581              	.LVL53:
 582              	@ 326 "../../os/kernel/src/chthreads.c" 1
 583 0004 83F31188 		msr     BASEPRI, r3
 584              	@ 0 "" 2
 585              	.LVL54:
 586              		.thumb
 587              	.LBE33:
 588              		.loc 1 327 0
 589 0008 064B     		ldr	r3, .L19
 590              	.LVL55:
 591 000a 1A68     		ldr	r2, [r3, #0]
 592 000c 9B69     		ldr	r3, [r3, #24]
 593 000e 9268     		ldr	r2, [r2, #8]
 594 0010 9B68     		ldr	r3, [r3, #8]
 595 0012 9A42     		cmp	r2, r3
 596 0014 01D3     		bcc	.L18
 597              		.loc 1 327 0 is_stmt 0 discriminator 1
 598 0016 FFF7FEFF 		bl	chSchDoRescheduleBehind
 599              	.L18:
 600              	.LBB34:
 601              		.loc 1 328 0 is_stmt 1
 602 001a 0023     		movs	r3, #0
 603              	.LVL56:
 604              	@ 328 "../../os/kernel/src/chthreads.c" 1
 605 001c 83F31188 		msr     BASEPRI, r3
 606              	@ 0 "" 2
 607              	.LVL57:
 608              		.thumb
 609              	.LBE34:
 610              		.loc 1 329 0
 611 0020 08BD     		pop	{r3, pc}
 612              	.L20:
 613 0022 00BF     		.align	2
 614              	.L19:
 615 0024 00000000 		.word	rlist
 616              		.cfi_endproc
 617              	.LFE15:
 618              		.size	chThdYield, .-chThdYield
ARM GAS  /tmp/cc0J9rLY.s 			page 12


 619 0028 AFF30080 		.section	.text.chThdExitS,"ax",%progbits
 619      AFF30080 
 620              		.align	2
 621              		.p2align 4,,15
 622              		.global	chThdExitS
 623              		.thumb
 624              		.thumb_func
 625              		.type	chThdExitS, %function
 626              	chThdExitS:
 627              	.LFB17:
 628              		.loc 1 366 0
 629              		.cfi_startproc
 630              		@ args = 0, pretend = 0, frame = 0
 631              		@ frame_needed = 0, uses_anonymous_args = 0
 632              	.LVL58:
 633 0000 38B5     		push	{r3, r4, r5, lr}
 634              	.LCFI9:
 635              		.cfi_def_cfa_offset 16
 636              		.cfi_offset 14, -4
 637              		.cfi_offset 5, -8
 638              		.cfi_offset 4, -12
 639              		.cfi_offset 3, -16
 640              		.loc 1 367 0
 641 0002 0E4B     		ldr	r3, .L27
 642 0004 9C69     		ldr	r4, [r3, #24]
 643              	.LVL59:
 644              		.loc 1 374 0
 645 0006 2546     		mov	r5, r4
 646              		.loc 1 369 0
 647 0008 6062     		str	r0, [r4, #36]
 648              		.loc 1 374 0
 649 000a 55F8280F 		ldr	r0, [r5, #40]!
 650              	.LVL60:
 651 000e A842     		cmp	r0, r5
 652 0010 06D0     		beq	.L22
 653              	.LVL61:
 654              	.L25:
 655              	.LBB35:
 656              	.LBB36:
 657              		.file 2 "../../os/kernel/include/chinline.h"
 658              		.loc 2 89 0
 659 0012 0368     		ldr	r3, [r0, #0]
 660 0014 A362     		str	r3, [r4, #40]
 661              	.LBE36:
 662              	.LBE35:
 663              		.loc 1 375 0
 664 0016 FFF7FEFF 		bl	chSchReadyI
 665              	.LVL62:
 666              		.loc 1 374 0
 667 001a A06A     		ldr	r0, [r4, #40]
 668 001c A842     		cmp	r0, r5
 669 001e F8D1     		bne	.L25
 670              	.LVL63:
 671              	.L22:
 672              		.loc 1 380 0
 673 0020 637F     		ldrb	r3, [r4, #29]	@ zero_extendqisi2
 674 0022 9B07     		lsls	r3, r3, #30
ARM GAS  /tmp/cc0J9rLY.s 			page 13


 675              		.loc 1 381 0
 676 0024 01BF     		itttt	eq
 677 0026 2269     		ldreq	r2, [r4, #16]
 678 0028 6369     		ldreq	r3, [r4, #20]
 679 002a 1A61     		streq	r2, [r3, #16]
 680 002c 2269     		ldreq	r2, [r4, #16]
 681 002e 08BF     		it	eq
 682 0030 5361     		streq	r3, [r2, #20]
 683              		.loc 1 383 0
 684 0032 0E20     		movs	r0, #14
 685              		.loc 1 386 0
 686 0034 BDE83840 		pop	{r3, r4, r5, lr}
 687              		.loc 1 383 0
 688 0038 FFF7FEBF 		b	chSchGoSleepS
 689              	.L28:
 690              		.align	2
 691              	.L27:
 692 003c 00000000 		.word	rlist
 693              		.cfi_endproc
 694              	.LFE17:
 695              		.size	chThdExitS, .-chThdExitS
 696              		.section	.text.chThdExit,"ax",%progbits
 697              		.align	2
 698              		.p2align 4,,15
 699              		.global	chThdExit
 700              		.thumb
 701              		.thumb_func
 702              		.type	chThdExit, %function
 703              	chThdExit:
 704              	.LFB16:
 705              		.loc 1 345 0
 706              		.cfi_startproc
 707              		@ args = 0, pretend = 0, frame = 0
 708              		@ frame_needed = 0, uses_anonymous_args = 0
 709              		@ link register save eliminated.
 710              	.LVL64:
 711              	.LBB37:
 712              		.loc 1 347 0
 713 0000 2023     		movs	r3, #32
 714              	.LVL65:
 715              	@ 347 "../../os/kernel/src/chthreads.c" 1
 716 0002 83F31188 		msr     BASEPRI, r3
 717              	@ 0 "" 2
 718              	.LVL66:
 719              		.thumb
 720              	.LBE37:
 721              		.loc 1 350 0
 722              		.loc 1 348 0
 723 0006 FFF7FEBF 		b	chThdExitS
 724              	.LVL67:
 725              	.LVL68:
 726              		.cfi_endproc
 727              	.LFE16:
 728              		.size	chThdExit, .-chThdExit
 729 000a 00BFAFF3 		.section	.text.chThdWait,"ax",%progbits
 729      0080
 730              		.align	2
ARM GAS  /tmp/cc0J9rLY.s 			page 14


 731              		.p2align 4,,15
 732              		.global	chThdWait
 733              		.thumb
 734              		.thumb_func
 735              		.type	chThdWait, %function
 736              	chThdWait:
 737              	.LFB18:
 738              		.loc 1 420 0
 739              		.cfi_startproc
 740              		@ args = 0, pretend = 0, frame = 0
 741              		@ frame_needed = 0, uses_anonymous_args = 0
 742              	.LVL69:
 743 0000 38B5     		push	{r3, r4, r5, lr}
 744              	.LCFI10:
 745              		.cfi_def_cfa_offset 16
 746              		.cfi_offset 14, -4
 747              		.cfi_offset 5, -8
 748              		.cfi_offset 4, -12
 749              		.cfi_offset 3, -16
 750              		.loc 1 420 0
 751 0002 0446     		mov	r4, r0
 752              	.LBB38:
 753              		.loc 1 425 0
 754 0004 2023     		movs	r3, #32
 755              	.LVL70:
 756              	@ 425 "../../os/kernel/src/chthreads.c" 1
 757 0006 83F31188 		msr     BASEPRI, r3
 758              	@ 0 "" 2
 759              	.LVL71:
 760              		.thumb
 761              	.LBE38:
 762              		.loc 1 430 0
 763 000a 037F     		ldrb	r3, [r0, #28]	@ zero_extendqisi2
 764              	.LVL72:
 765 000c 0E2B     		cmp	r3, #14
 766 000e 07D0     		beq	.L31
 767              		.loc 1 431 0
 768 0010 084B     		ldr	r3, .L32
 769              	.LBB39:
 770              	.LBB40:
 771              		.loc 2 82 0
 772 0012 826A     		ldr	r2, [r0, #40]
 773              	.LBE40:
 774              	.LBE39:
 775              		.loc 1 431 0
 776 0014 9B69     		ldr	r3, [r3, #24]
 777              	.LVL73:
 778              		.loc 1 432 0
 779 0016 0720     		movs	r0, #7
 780              	.LVL74:
 781              	.LBB42:
 782              	.LBB41:
 783              		.loc 2 82 0
 784 0018 1A60     		str	r2, [r3, #0]
 785              		.loc 2 83 0
 786 001a A362     		str	r3, [r4, #40]
 787              	.LBE41:
ARM GAS  /tmp/cc0J9rLY.s 			page 15


 788              	.LBE42:
 789              		.loc 1 432 0
 790 001c FFF7FEFF 		bl	chSchGoSleepS
 791              	.LVL75:
 792              	.L31:
 793              		.loc 1 434 0
 794 0020 656A     		ldr	r5, [r4, #36]
 795              	.LVL76:
 796              	.LBB43:
 797              		.loc 1 435 0
 798 0022 0023     		movs	r3, #0
 799              	.LVL77:
 800              	@ 435 "../../os/kernel/src/chthreads.c" 1
 801 0024 83F31188 		msr     BASEPRI, r3
 802              	@ 0 "" 2
 803              	.LVL78:
 804              		.thumb
 805              	.LBE43:
 806              		.loc 1 437 0
 807 0028 2046     		mov	r0, r4
 808 002a FFF7FEFF 		bl	chThdRelease
 809              	.LVL79:
 810              		.loc 1 440 0
 811 002e 2846     		mov	r0, r5
 812 0030 38BD     		pop	{r3, r4, r5, pc}
 813              	.L33:
 814 0032 00BF     		.align	2
 815              	.L32:
 816 0034 00000000 		.word	rlist
 817              		.cfi_endproc
 818              	.LFE18:
 819              		.size	chThdWait, .-chThdWait
 820 0038 AFF30080 		.text
 820      AFF30080 
 821              	.Letext0:
 822              		.file 3 "/opt/paparazzi/arm-multilib/lib/gcc/arm-none-eabi/4.6.2/include/stddef.h"
 823              		.file 4 "/opt/paparazzi/arm-multilib/lib/gcc/arm-none-eabi/4.6.2/../../../../arm-none-eabi/include
 824              		.file 5 "../../os/ports/GCC/ARMCMx/chtypes.h"
 825              		.file 6 "../../os/kernel/include/chlists.h"
 826              		.file 7 "../../os/kernel/include/chthreads.h"
 827              		.file 8 "../../os/ports/GCC/ARMCMx/chcore_v7m.h"
 828              		.file 9 "../../os/kernel/include/chvt.h"
 829              		.file 10 "../../os/kernel/include/chschd.h"
 830              		.file 11 "../../os/kernel/include/chmtx.h"