ARM GAS  /tmp/ccNdefsJ.s 			page 1


   1              		.syntax unified
   2              		.cpu cortex-m4
   3              		.fpu softvfp
   4              		.eabi_attribute 20, 1
   5              		.eabi_attribute 21, 1
   6              		.eabi_attribute 23, 3
   7              		.eabi_attribute 24, 1
   8              		.eabi_attribute 25, 1
   9              		.eabi_attribute 26, 1
  10              		.eabi_attribute 30, 2
  11              		.eabi_attribute 18, 4
  12              		.thumb
  13              		.file	"hal.c"
  14              		.text
  15              	.Ltext0:
  16              		.cfi_sections	.debug_frame
  17              		.section	.text.halInit,"ax",%progbits
  18              		.align	2
  19              		.p2align 4,,15
  20              		.global	halInit
  21              		.thumb
  22              		.thumb_func
  23              		.type	halInit, %function
  24              	halInit:
  25              	.LFB118:
  26              		.file 1 "../../os/hal/src/hal.c"
  27              		.loc 1 68 0
  28              		.cfi_startproc
  29              		@ args = 0, pretend = 0, frame = 0
  30              		@ frame_needed = 0, uses_anonymous_args = 0
  31 0000 08B5     		push	{r3, lr}
  32              	.LCFI0:
  33              		.cfi_def_cfa_offset 8
  34              		.cfi_offset 14, -4
  35              		.cfi_offset 3, -8
  36              		.loc 1 70 0
  37 0002 FFF7FEFF 		bl	hal_lld_init
  38              		.loc 1 76 0
  39 0006 40F20000 		movw	r0, #:lower16:pal_default_config
  40 000a C0F20000 		movt	r0, #:upper16:pal_default_config
  41 000e FFF7FEFF 		bl	_pal_lld_init
  42              		.loc 1 79 0
  43 0012 FFF7FEFF 		bl	adcInit
  44              		.loc 1 100 0
  45 0016 FFF7FEFF 		bl	pwmInit
  46              		.loc 1 103 0
  47 001a FFF7FEFF 		bl	sdInit
  48              		.loc 1 109 0
  49 001e FFF7FEFF 		bl	spiInit
  50              		.loc 1 128 0
  51 0022 BDE80840 		pop	{r3, lr}
  52              		.loc 1 127 0
  53 0026 FFF7FEBF 		b	boardInit
  54              		.cfi_endproc
  55              	.LFE118:
  56              		.size	halInit, .-halInit
  57 002a 00BFAFF3 		.section	.text.halIsCounterWithin,"ax",%progbits
ARM GAS  /tmp/ccNdefsJ.s 			page 2


  57      0080
  58              		.align	2
  59              		.p2align 4,,15
  60              		.global	halIsCounterWithin
  61              		.thumb
  62              		.thumb_func
  63              		.type	halIsCounterWithin, %function
  64              	halIsCounterWithin:
  65              	.LFB119:
  66              		.loc 1 174 0
  67              		.cfi_startproc
  68              		@ args = 0, pretend = 0, frame = 0
  69              		@ frame_needed = 0, uses_anonymous_args = 0
  70              		@ link register save eliminated.
  71              	.LVL0:
  72              		.loc 1 175 0
  73 0000 4FF48053 		mov	r3, #4096
  74 0004 CEF20003 		movt	r3, 57344
  75              		.loc 1 177 0
  76 0008 8142     		cmp	r1, r0
  77              		.loc 1 174 0
  78 000a 0246     		mov	r2, r0
  79              		.loc 1 175 0
  80 000c 5B68     		ldr	r3, [r3, #4]
  81              	.LVL1:
  82              		.loc 1 177 0
  83 000e 09D8     		bhi	.L6
  84              		.loc 1 178 0 discriminator 2
  85 0010 8342     		cmp	r3, r0
  86 0012 34BF     		ite	cc
  87 0014 0022     		movcc	r2, #0
  88 0016 0122     		movcs	r2, #1
  89              		.loc 1 177 0 discriminator 2
  90 0018 8B42     		cmp	r3, r1
  91 001a 2CBF     		ite	cs
  92 001c 1046     		movcs	r0, r2
  93 001e 42F00100 		orrcc	r0, r2, #1
  94              	.LVL2:
  95              		.loc 1 179 0 discriminator 2
  96 0022 7047     		bx	lr
  97              	.LVL3:
  98              	.L6:
  99              		.loc 1 177 0 discriminator 1
 100 0024 8B42     		cmp	r3, r1
 101 0026 2CBF     		ite	cs
 102 0028 0020     		movcs	r0, #0
 103              	.LVL4:
 104 002a 0120     		movcc	r0, #1
 105 002c 9342     		cmp	r3, r2
 106 002e 38BF     		it	cc
 107 0030 0020     		movcc	r0, #0
 108 0032 7047     		bx	lr
 109              		.cfi_endproc
 110              	.LFE119:
 111              		.size	halIsCounterWithin, .-halIsCounterWithin
 112 0034 AFF30080 		.section	.text.halPolledDelay,"ax",%progbits
 112      AFF30080 
ARM GAS  /tmp/ccNdefsJ.s 			page 3


 112      AFF30080 
 113              		.align	2
 114              		.p2align 4,,15
 115              		.global	halPolledDelay
 116              		.thumb
 117              		.thumb_func
 118              		.type	halPolledDelay, %function
 119              	halPolledDelay:
 120              	.LFB120:
 121              		.loc 1 193 0
 122              		.cfi_startproc
 123              		@ args = 0, pretend = 0, frame = 0
 124              		@ frame_needed = 0, uses_anonymous_args = 0
 125              		@ link register save eliminated.
 126              	.LVL5:
 127              		.loc 1 194 0
 128 0000 4FF48053 		mov	r3, #4096
 129 0004 CEF20003 		movt	r3, 57344
 130              		.loc 1 193 0
 131 0008 10B4     		push	{r4}
 132              	.LCFI1:
 133              		.cfi_def_cfa_offset 4
 134              		.cfi_offset 4, -4
 135              	.LBB4:
 136              	.LBB5:
 137              		.loc 1 175 0
 138 000a 1A46     		mov	r2, r3
 139              	.LBE5:
 140              	.LBE4:
 141              		.loc 1 194 0
 142 000c 5B68     		ldr	r3, [r3, #4]
 143              	.LVL6:
 144              		.loc 1 195 0
 145 000e C018     		adds	r0, r0, r3
 146              	.LVL7:
 147              	.L10:
 148              	.LBB8:
 149              	.LBB6:
 150              		.loc 1 177 0 discriminator 1
 151 0010 8342     		cmp	r3, r0
 152              		.loc 1 175 0 discriminator 1
 153 0012 5168     		ldr	r1, [r2, #4]
 154              	.LVL8:
 155              		.loc 1 177 0 discriminator 1
 156 0014 0AD2     		bcs	.L8
 157              		.loc 1 177 0 is_stmt 0
 158 0016 8842     		cmp	r0, r1
 159 0018 94BF     		ite	ls
 160 001a 0024     		movls	r4, #0
 161 001c 0124     		movhi	r4, #1
 162 001e 8B42     		cmp	r3, r1
 163 0020 88BF     		it	hi
 164 0022 0024     		movhi	r4, #0
 165              	.LBE6:
 166              	.LBE8:
 167              		.loc 1 196 0 is_stmt 1
 168 0024 002C     		cmp	r4, #0
ARM GAS  /tmp/ccNdefsJ.s 			page 4


 169 0026 F3D1     		bne	.L10
 170              	.L12:
 171              		.loc 1 198 0
 172 0028 10BC     		pop	{r4}
 173 002a 7047     		bx	lr
 174              	.L8:
 175              	.LBB9:
 176              	.LBB7:
 177              		.loc 1 178 0
 178 002c 8B42     		cmp	r3, r1
 179 002e 8CBF     		ite	hi
 180 0030 0024     		movhi	r4, #0
 181 0032 0124     		movls	r4, #1
 182              		.loc 1 177 0
 183 0034 8842     		cmp	r0, r1
 184 0036 88BF     		it	hi
 185 0038 44F00104 		orrhi	r4, r4, #1
 186              	.LBE7:
 187              	.LBE9:
 188              		.loc 1 196 0
 189 003c 002C     		cmp	r4, #0
 190 003e E7D1     		bne	.L10
 191 0040 F2E7     		b	.L12
 192              		.cfi_endproc
 193              	.LFE120:
 194              		.size	halPolledDelay, .-halPolledDelay
 195 0042 00BFAFF3 		.text
 195      0080AFF3 
 195      0080AFF3 
 195      0080
 196              	.Letext0:
 197              		.file 2 "/opt/paparazzi/arm-multilib/lib/gcc/arm-none-eabi/4.6.2/../../../../arm-none-eabi/include
 198              		.file 3 "../../os/ports/GCC/ARMCMx/chtypes.h"
 199              		.file 4 "../../os/ports/common/ARMCMx/nvic.h"
 200              		.file 5 "../../os/hal/platforms/STM32F4xx/hal_lld.h"
 201              		.file 6 "../../os/hal/platforms/STM32/GPIOv2/pal_lld.h"
 202              		.file 7 "../../os/ports/common/ARMCMx/CMSIS/include/core_cm4.h"