ARM GAS  /tmp/ccCBHMtR.s 			page 1


   1              		.syntax unified
   2              		.cpu cortex-m4
   3              		.fpu softvfp
   4              		.eabi_attribute 20, 1
   5              		.eabi_attribute 21, 1
   6              		.eabi_attribute 23, 3
   7              		.eabi_attribute 24, 1
   8              		.eabi_attribute 25, 1
   9              		.eabi_attribute 26, 1
  10              		.eabi_attribute 30, 2
  11              		.eabi_attribute 18, 4
  12              		.thumb
  13              		.file	"main.c"
  14              		.text
  15              	.Ltext0:
  16              		.cfi_sections	.debug_frame
  17              		.section	.text.Thread1,"ax",%progbits
  18              		.align	2
  19              		.p2align 4,,15
  20              		.thumb
  21              		.thumb_func
  22              		.type	Thread1, %function
  23              	Thread1:
  24              	.LFB121:
  25              		.file 1 "main.c"
  26              		.loc 1 154 0
  27              		.cfi_startproc
  28              		@ args = 0, pretend = 0, frame = 0
  29              		@ frame_needed = 0, uses_anonymous_args = 0
  30              	.LVL0:
  31              		.loc 1 157 0
  32 0000 0B4B     		ldr	r3, .L4
  33 0002 0C4A     		ldr	r2, .L4+4
  34 0004 9B69     		ldr	r3, [r3, #24]
  35              		.loc 1 154 0
  36 0006 70B5     		push	{r4, r5, r6, lr}
  37              	.LCFI0:
  38              		.cfi_def_cfa_offset 16
  39              		.cfi_offset 14, -4
  40              		.cfi_offset 6, -8
  41              		.cfi_offset 5, -12
  42              		.cfi_offset 4, -16
  43              		.loc 1 159 0
  44 0008 4FF44064 		mov	r4, #3072
  45 000c 4FF40055 		mov	r5, #8192
  46              		.loc 1 157 0
  47 0010 9A61     		str	r2, [r3, #24]
  48              		.loc 1 159 0
  49 0012 C4F20204 		movt	r4, 16386
  50 0016 2E46     		mov	r6, r5	@ movhi
  51              	.LVL1:
  52              	.L2:
  53              		.loc 1 159 0 is_stmt 0 discriminator 1
  54 0018 2683     		strh	r6, [r4, #24]	@ movhi
  55              		.loc 1 160 0 is_stmt 1 discriminator 1
  56 001a 4FF4FA70 		mov	r0, #500
  57 001e FFF7FEFF 		bl	chThdSleep
ARM GAS  /tmp/ccCBHMtR.s 			page 2


  58              		.loc 1 161 0 discriminator 1
  59 0022 6583     		strh	r5, [r4, #26]	@ movhi
  60              		.loc 1 162 0 discriminator 1
  61 0024 4FF4FA70 		mov	r0, #500
  62 0028 FFF7FEFF 		bl	chThdSleep
  63 002c F4E7     		b	.L2
  64              	.L5:
  65 002e 00BF     		.align	2
  66              	.L4:
  67 0030 00000000 		.word	rlist
  68 0034 00000000 		.word	.LC0
  69              		.cfi_endproc
  70              	.LFE121:
  71              		.size	Thread1, .-Thread1
  72 0038 AFF30080 		.section	.text.pwmpcb,"ax",%progbits
  72      AFF30080 
  73              		.align	2
  74              		.p2align 4,,15
  75              		.thumb
  76              		.thumb_func
  77              		.type	pwmpcb, %function
  78              	pwmpcb:
  79              	.LFB118:
  80              		.loc 1 94 0
  81              		.cfi_startproc
  82              		@ args = 0, pretend = 0, frame = 0
  83              		@ frame_needed = 0, uses_anonymous_args = 0
  84              	.LVL2:
  85 0000 08B5     		push	{r3, lr}
  86              	.LCFI1:
  87              		.cfi_def_cfa_offset 8
  88              		.cfi_offset 14, -4
  89              		.cfi_offset 3, -8
  90              	.LBB5:
  91              		.loc 1 101 0
  92 0002 2023     		movs	r3, #32
  93              	.LVL3:
  94              	@ 101 "main.c" 1
  95 0004 83F31188 		msr     BASEPRI, r3
  96              	@ 0 "" 2
  97              	.LVL4:
  98              		.thumb
  99              	.LBE5:
 100              		.loc 1 102 0
 101 0008 40F20000 		movw	r0, #:lower16:ADCD1
 102              	.LVL5:
 103 000c 40F20001 		movw	r1, #:lower16:.LANCHOR0
 104 0010 40F20002 		movw	r2, #:lower16:.LANCHOR1
 105 0014 0423     		movs	r3, #4
 106              	.LVL6:
 107 0016 C0F20000 		movt	r0, #:upper16:ADCD1
 108 001a C0F20001 		movt	r1, #:upper16:.LANCHOR0
 109 001e C0F20002 		movt	r2, #:upper16:.LANCHOR1
 110 0022 FFF7FEFF 		bl	adcStartConversionI
 111              	.LBB6:
 112              		.loc 1 103 0
 113 0026 0023     		movs	r3, #0
ARM GAS  /tmp/ccCBHMtR.s 			page 3


 114              	.LVL7:
 115              	@ 103 "main.c" 1
 116 0028 83F31188 		msr     BASEPRI, r3
 117              	@ 0 "" 2
 118              	.LVL8:
 119              		.thumb
 120              	.LBE6:
 121              		.loc 1 104 0
 122 002c 08BD     		pop	{r3, pc}
 123              		.cfi_endproc
 124              	.LFE118:
 125              		.size	pwmpcb, .-pwmpcb
 126 002e 00BF     		.section	.text.spicb,"ax",%progbits
 127              		.align	2
 128              		.p2align 4,,15
 129              		.thumb
 130              		.thumb_func
 131              		.type	spicb, %function
 132              	spicb:
 133              	.LFB120:
 134              		.loc 1 141 0
 135              		.cfi_startproc
 136              		@ args = 0, pretend = 0, frame = 0
 137              		@ frame_needed = 0, uses_anonymous_args = 0
 138              	.LVL9:
 139 0000 08B5     		push	{r3, lr}
 140              	.LCFI2:
 141              		.cfi_def_cfa_offset 8
 142              		.cfi_offset 14, -4
 143              		.cfi_offset 3, -8
 144              	.LBB7:
 145              		.loc 1 144 0
 146 0002 2023     		movs	r3, #32
 147              	.LVL10:
 148              	@ 144 "main.c" 1
 149 0004 83F31188 		msr     BASEPRI, r3
 150              	@ 0 "" 2
 151              	.LVL11:
 152              		.thumb
 153              	.LBE7:
 154              		.loc 1 145 0
 155 0008 FFF7FEFF 		bl	spi_lld_unselect
 156              	.LVL12:
 157              	.LBB8:
 158              		.loc 1 146 0
 159 000c 0023     		movs	r3, #0
 160              	.LVL13:
 161              	@ 146 "main.c" 1
 162 000e 83F31188 		msr     BASEPRI, r3
 163              	@ 0 "" 2
 164              	.LVL14:
 165              		.thumb
 166              	.LBE8:
 167              		.loc 1 147 0
 168 0012 08BD     		pop	{r3, pc}
 169              		.cfi_endproc
 170              	.LFE120:
ARM GAS  /tmp/ccCBHMtR.s 			page 4


 171              		.size	spicb, .-spicb
 172 0014 AFF30080 		.section	.text.adccb,"ax",%progbits
 172      AFF30080 
 172      AFF30080 
 173              		.align	2
 174              		.p2align 4,,15
 175              		.thumb
 176              		.thumb_func
 177              		.type	adccb, %function
 178              	adccb:
 179              	.LFB119:
 180              		.loc 1 111 0
 181              		.cfi_startproc
 182              		@ args = 0, pretend = 0, frame = 0
 183              		@ frame_needed = 0, uses_anonymous_args = 0
 184              	.LVL15:
 185 0000 F8B5     		push	{r3, r4, r5, r6, r7, lr}
 186              	.LCFI3:
 187              		.cfi_def_cfa_offset 24
 188              		.cfi_offset 14, -4
 189              		.cfi_offset 7, -8
 190              		.cfi_offset 6, -12
 191              		.cfi_offset 5, -16
 192              		.cfi_offset 4, -20
 193              		.cfi_offset 3, -24
 194              		.loc 1 116 0
 195 0002 0378     		ldrb	r3, [r0, #0]	@ zero_extendqisi2
 196 0004 042B     		cmp	r3, #4
 197 0006 00D0     		beq	.L10
 198 0008 F8BD     		pop	{r3, r4, r5, r6, r7, pc}
 199              	.L10:
 200              	.LBB14:
 201              	.LBB15:
 202              	.LBB16:
 203              		.loc 1 120 0
 204 000a 1C4C     		ldr	r4, .L11
 205 000c B4F800E0 		ldrh	lr, [r4, #0]
 206 0010 A288     		ldrh	r2, [r4, #4]
 207              	.LVL16:
 208              		.loc 1 121 0
 209 0012 6788     		ldrh	r7, [r4, #2]
 210 0014 E588     		ldrh	r5, [r4, #6]
 211              		.loc 1 120 0
 212 0016 2689     		ldrh	r6, [r4, #8]
 213              		.loc 1 121 0
 214 0018 6089     		ldrh	r0, [r4, #10]
 215              	.LVL17:
 216 001a E389     		ldrh	r3, [r4, #14]
 217              		.loc 1 120 0
 218 001c A189     		ldrh	r1, [r4, #12]
 219              	.LVL18:
 220 001e 7244     		add	r2, lr, r2
 221              		.loc 1 121 0
 222 0020 7D19     		adds	r5, r7, r5
 223              		.loc 1 120 0
 224 0022 9219     		adds	r2, r2, r6
 225              		.loc 1 121 0
ARM GAS  /tmp/ccCBHMtR.s 			page 5


 226 0024 2D18     		adds	r5, r5, r0
 227              		.loc 1 120 0
 228 0026 5218     		adds	r2, r2, r1
 229              		.loc 1 121 0
 230 0028 ED18     		adds	r5, r5, r3
 231              		.loc 1 120 0
 232 002a C2F38F02 		ubfx	r2, r2, #2, #16
 233              	.LVL19:
 234              		.loc 1 121 0
 235 002e C5F38F05 		ubfx	r5, r5, #2, #16
 236              	.LVL20:
 237              	.LBB17:
 238              		.loc 1 123 0
 239 0032 2023     		movs	r3, #32
 240              	.LVL21:
 241              	@ 123 "main.c" 1
 242 0034 83F31188 		msr     BASEPRI, r3
 243              	@ 0 "" 2
 244              	.LVL22:
 245              		.thumb
 246              	.LBE17:
 247              		.loc 1 127 0
 248 0038 114E     		ldr	r6, .L11+4
 249              		.loc 1 131 0
 250 003a 124F     		ldr	r7, .L11+8
 251              		.loc 1 127 0
 252 003c 3389     		ldrh	r3, [r6, #8]
 253              	.LVL23:
 254 003e 03FB02F2 		mul	r2, r3, r2
 255              	.LVL24:
 256 0042 3046     		mov	r0, r6
 257 0044 0021     		movs	r1, #0
 258 0046 C2F30F32 		ubfx	r2, r2, #12, #16
 259 004a FFF7FEFF 		bl	pwm_lld_enable_channel
 260              		.loc 1 128 0
 261 004e 3389     		ldrh	r3, [r6, #8]
 262 0050 03FB05F5 		mul	r5, r3, r5
 263              	.LVL25:
 264 0054 C5F30F32 		ubfx	r2, r5, #12, #16
 265 0058 0321     		movs	r1, #3
 266 005a 3046     		mov	r0, r6
 267 005c FFF7FEFF 		bl	pwm_lld_enable_channel
 268              		.loc 1 131 0
 269 0060 3846     		mov	r0, r7
 270 0062 FFF7FEFF 		bl	spi_lld_select
 271              		.loc 1 132 0
 272 0066 0323     		movs	r3, #3
 273 0068 3B70     		strb	r3, [r7, #0]
 274 006a 3846     		mov	r0, r7
 275 006c 0821     		movs	r1, #8
 276 006e 2246     		mov	r2, r4
 277 0070 FFF7FEFF 		bl	spi_lld_send
 278              	.LBB18:
 279              		.loc 1 134 0
 280 0074 0023     		movs	r3, #0
 281              	.LVL26:
 282              	@ 134 "main.c" 1
ARM GAS  /tmp/ccCBHMtR.s 			page 6


 283 0076 83F31188 		msr     BASEPRI, r3
 284              	@ 0 "" 2
 285              	.LVL27:
 286              		.thumb
 287 007a F8BD     		pop	{r3, r4, r5, r6, r7, pc}
 288              	.L12:
 289              		.align	2
 290              	.L11:
 291 007c 00000000 		.word	.LANCHOR1
 292 0080 00000000 		.word	PWMD4
 293 0084 00000000 		.word	SPID2
 294              	.LBE18:
 295              	.LBE16:
 296              	.LBE15:
 297              	.LBE14:
 298              		.cfi_endproc
 299              	.LFE119:
 300              		.size	adccb, .-adccb
 301 0088 AFF30080 		.section	.text.startup.main,"ax",%progbits
 301      AFF30080 
 302              		.align	2
 303              		.p2align 4,,15
 304              		.global	main
 305              		.thumb
 306              		.thumb_func
 307              		.type	main, %function
 308              	main:
 309              	.LFB122:
 310              		.loc 1 169 0
 311              		.cfi_startproc
 312              		@ args = 0, pretend = 0, frame = 0
 313              		@ frame_needed = 0, uses_anonymous_args = 0
 314 0000 30B5     		push	{r4, r5, lr}
 315              	.LCFI4:
 316              		.cfi_def_cfa_offset 12
 317              		.cfi_offset 14, -4
 318              		.cfi_offset 5, -8
 319              		.cfi_offset 4, -12
 320              		.loc 1 186 0
 321 0002 0024     		movs	r4, #0
 322              		.loc 1 169 0
 323 0004 83B0     		sub	sp, sp, #12
 324              	.LCFI5:
 325              		.cfi_def_cfa_offset 24
 326              		.loc 1 178 0
 327 0006 FFF7FEFF 		bl	halInit
 328              		.loc 1 186 0
 329 000a C4F20204 		movt	r4, 16386
 330              		.loc 1 179 0
 331 000e FFF7FEFF 		bl	chSysInit
 332              		.loc 1 185 0
 333 0012 0021     		movs	r1, #0
 334 0014 3B48     		ldr	r0, .L18
 335 0016 FFF7FEFF 		bl	sdStart
 336              		.loc 1 186 0
 337 001a 0421     		movs	r1, #4
 338 001c 40F28232 		movw	r2, #898
ARM GAS  /tmp/ccCBHMtR.s 			page 7


 339 0020 2046     		mov	r0, r4
 340 0022 FFF7FEFF 		bl	_pal_lld_setgroupmode
 341              		.loc 1 187 0
 342 0026 0821     		movs	r1, #8
 343 0028 40F28232 		movw	r2, #898
 344 002c 2046     		mov	r0, r4
 345 002e FFF7FEFF 		bl	_pal_lld_setgroupmode
 346              		.loc 1 194 0
 347 0032 2369     		ldr	r3, [r4, #16]
 348 0034 DA07     		lsls	r2, r3, #31
 349 0036 61D4     		bmi	.L17
 350              	.L14:
 351              		.loc 1 205 0
 352 0038 4FF48064 		mov	r4, #1024
 353 003c C4F20204 		movt	r4, 16386
 354 0040 4FF48055 		mov	r5, #4096
 355              		.loc 1 204 0
 356 0044 3048     		ldr	r0, .L18+4
 357 0046 3149     		ldr	r1, .L18+8
 358 0048 FFF7FEFF 		bl	spiStart
 359              		.loc 1 206 0
 360 004c 2046     		mov	r0, r4
 361 004e 2946     		mov	r1, r5
 362 0050 1922     		movs	r2, #25
 363              		.loc 1 205 0
 364 0052 2583     		strh	r5, [r4, #24]	@ movhi
 365              		.loc 1 206 0
 366 0054 FFF7FEFF 		bl	_pal_lld_setgroupmode
 367              		.loc 1 208 0
 368 0058 2046     		mov	r0, r4
 369 005a 4FF40051 		mov	r1, #8192
 370 005e 40F29A22 		movw	r2, #666
 371 0062 FFF7FEFF 		bl	_pal_lld_setgroupmode
 372              		.loc 1 210 0
 373 0066 2046     		mov	r0, r4
 374 0068 4FF48041 		mov	r1, #16384
 375 006c 40F28222 		movw	r2, #642
 376 0070 FFF7FEFF 		bl	_pal_lld_setgroupmode
 377              		.loc 1 211 0
 378 0074 40F29A22 		movw	r2, #666
 379 0078 2046     		mov	r0, r4
 380 007a 4FF40041 		mov	r1, #32768
 381 007e FFF7FEFF 		bl	_pal_lld_setgroupmode
 382              		.loc 1 218 0
 383 0082 2348     		ldr	r0, .L18+12
 384 0084 0021     		movs	r1, #0
 385 0086 FFF7FEFF 		bl	adcStart
 386              		.loc 1 219 0
 387 008a FFF7FEFF 		bl	adcSTM32EnableTSVREFE
 388              		.loc 1 220 0
 389 008e 4FF40060 		mov	r0, #2048
 390 0092 0322     		movs	r2, #3
 391 0094 C4F20200 		movt	r0, 16386
 392 0098 0221     		movs	r1, #2
 393 009a FFF7FEFF 		bl	_pal_lld_setgroupmode
 394              		.loc 1 225 0
 395 009e 1D48     		ldr	r0, .L18+16
ARM GAS  /tmp/ccCBHMtR.s 			page 8


 396 00a0 1D49     		ldr	r1, .L18+20
 397 00a2 FFF7FEFF 		bl	pwmStart
 398              		.loc 1 226 0
 399 00a6 4FF44060 		mov	r0, #3072
 400 00aa C4F20200 		movt	r0, 16386
 401 00ae 2946     		mov	r1, r5
 402 00b0 4FF48172 		mov	r2, #258
 403 00b4 FFF7FEFF 		bl	_pal_lld_setgroupmode
 404              		.loc 1 227 0
 405 00b8 4FF44060 		mov	r0, #3072
 406 00bc C4F20200 		movt	r0, 16386
 407 00c0 4FF40041 		mov	r1, #32768
 408 00c4 4FF48172 		mov	r2, #258
 409 00c8 FFF7FEFF 		bl	_pal_lld_setgroupmode
 410              		.loc 1 232 0
 411 00cc 0022     		movs	r2, #0
 412 00ce 0092     		str	r2, [sp, #0]
 413 00d0 1248     		ldr	r0, .L18+24
 414 00d2 134B     		ldr	r3, .L18+28
 415 00d4 4FF49871 		mov	r1, #304
 416 00d8 4022     		movs	r2, #64
 417              		.loc 1 241 0
 418 00da 0024     		movs	r4, #0
 419              		.loc 1 232 0
 420 00dc FFF7FEFF 		bl	chThdCreateStatic
 421              		.loc 1 241 0
 422 00e0 C4F20204 		movt	r4, 16386
 423 00e4 03E0     		b	.L16
 424              	.L15:
 425              		.loc 1 243 0
 426 00e6 40F22620 		movw	r0, #550
 427 00ea FFF7FEFF 		bl	chThdSleep
 428              	.L16:
 429              		.loc 1 241 0
 430 00ee 2369     		ldr	r3, [r4, #16]
 431 00f0 DB07     		lsls	r3, r3, #31
 432 00f2 F8D5     		bpl	.L15
 433              		.loc 1 242 0
 434 00f4 0348     		ldr	r0, .L18
 435 00f6 FFF7FEFF 		bl	TestThread
 436 00fa F4E7     		b	.L15
 437              	.L17:
 438              		.loc 1 195 0
 439 00fc 0148     		ldr	r0, .L18
 440 00fe FFF7FEFF 		bl	TestThread
 441 0102 99E7     		b	.L14
 442              	.L19:
 443              		.align	2
 444              	.L18:
 445 0104 00000000 		.word	SD2
 446 0108 00000000 		.word	SPID2
 447 010c 00000000 		.word	.LANCHOR2
 448 0110 00000000 		.word	ADCD1
 449 0114 00000000 		.word	PWMD4
 450 0118 00000000 		.word	.LANCHOR3
 451 011c 00000000 		.word	.LANCHOR4
 452 0120 00000000 		.word	Thread1
ARM GAS  /tmp/ccCBHMtR.s 			page 9


 453              		.cfi_endproc
 454              	.LFE122:
 455              		.size	main, .-main
 456 0124 AFF30080 		.section	.bss.waThread1,"aw",%nobits
 456      AFF30080 
 456      AFF30080 
 457              		.align	3
 458              		.set	.LANCHOR4,. + 0
 459              		.type	waThread1, %object
 460              		.size	waThread1, 304
 461              	waThread1:
 462 0000 00000000 		.space	304
 462      00000000 
 462      00000000 
 462      00000000 
 462      00000000 
 463              		.section	.data.pwmcfg,"aw",%progbits
 464              		.align	2
 465              		.set	.LANCHOR3,. + 0
 466              		.type	pwmcfg, %object
 467              		.size	pwmcfg, 52
 468              	pwmcfg:
 469 0000 10270000 		.word	10000
 470 0004 1027     		.short	10000
 471 0006 0000     		.space	2
 472 0008 00000000 		.word	pwmpcb
 473 000c 01000000 		.word	1
 474 0010 00000000 		.word	0
 475 0014 00000000 		.word	0
 476 0018 00000000 		.word	0
 477 001c 00000000 		.word	0
 478 0020 00000000 		.word	0
 479 0024 01000000 		.word	1
 480 0028 00000000 		.word	0
 481 002c 00000000 		.word	0
 482 0030 00000000 		.word	0
 483              		.section	.rodata.spi2cfg,"a",%progbits
 484              		.align	2
 485              		.set	.LANCHOR2,. + 0
 486              		.type	spi2cfg, %object
 487              		.size	spi2cfg, 12
 488              	spi2cfg:
 489 0000 00000000 		.word	spicb
 490 0004 00040240 		.word	1073873920
 491 0008 0C00     		.short	12
 492 000a 0008     		.short	2048
 493              		.section	.rodata.str1.4,"aMS",%progbits,1
 494              		.align	2
 495              	.LC0:
 496 0000 626C696E 		.ascii	"blinker\000"
 496      6B657200 
 497              		.section	.rodata.adcgrpcfg,"a",%progbits
 498              		.align	2
 499              		.set	.LANCHOR0,. + 0
 500              		.type	adcgrpcfg, %object
 501              		.size	adcgrpcfg, 40
 502              	adcgrpcfg:
ARM GAS  /tmp/ccCBHMtR.s 			page 10


 503 0000 00       		.byte	0
 504 0001 00       		.space	1
 505 0002 0200     		.short	2
 506 0004 00000000 		.word	adccb
 507 0008 00000000 		.word	0
 508 000c 00000000 		.word	0
 509 0010 00000040 		.word	1073741824
 510 0014 18001800 		.word	1572888
 511 0018 00000000 		.word	0
 512 001c 00001000 		.word	1048576
 513 0020 00000000 		.word	0
 514 0024 70010000 		.word	368
 515              		.section	.bss.samples,"aw",%nobits
 516              		.align	2
 517              		.set	.LANCHOR1,. + 0
 518              		.type	samples, %object
 519              		.size	samples, 16
 520              	samples:
 521 0000 00000000 		.space	16
 521      00000000 
 521      00000000 
 521      00000000 
 522              		.text
 523              	.Letext0:
 524              		.file 2 "/opt/paparazzi/arm-multilib/lib/gcc/arm-none-eabi/4.6.2/include/stddef.h"
 525              		.file 3 "/opt/paparazzi/arm-multilib/lib/gcc/arm-none-eabi/4.6.2/../../../../arm-none-eabi/include
 526              		.file 4 "../../os/ports/GCC/ARMCMx/chtypes.h"
 527              		.file 5 "../../os/kernel/include/chlists.h"
 528              		.file 6 "../../os/kernel/include/chthreads.h"
 529              		.file 7 "../../os/ports/GCC/ARMCMx/chcore_v7m.h"
 530              		.file 8 "../../os/kernel/include/chschd.h"
 531              		.file 9 "../../os/kernel/include/chmtx.h"
 532              		.file 10 "../../os/kernel/include/chevents.h"
 533              		.file 11 "../../os/kernel/include/chqueues.h"
 534              		.file 12 "../../os/hal/platforms/STM32F4xx/stm32f4xx.h"
 535              		.file 13 "../../os/hal/platforms/STM32F4xx/stm32_dma.h"
 536              		.file 14 "../../os/hal/platforms/STM32/GPIOv2/pal_lld.h"
 537              		.file 15 "../../os/hal/include/adc.h"
 538              		.file 16 "../../os/hal/platforms/STM32F4xx/adc_lld.h"
 539              		.file 17 "../../os/hal/include/pwm.h"
 540              		.file 18 "../../os/hal/platforms/STM32/TIMv1/pwm_lld.h"
 541              		.file 19 "../../os/hal/platforms/STM32/TIMv1/stm32_tim.h"
 542              		.file 20 "../../os/hal/include/serial.h"
 543              		.file 21 "../../os/hal/include/spi.h"
 544              		.file 22 "../../os/hal/platforms/STM32/SPIv1/spi_lld.h"
 545              		.file 23 "../../os/ports/common/ARMCMx/CMSIS/include/core_cm4.h"
 546              		.file 24 "../../os/hal/platforms/STM32/USARTv1/serial_lld.h"