ARM GAS  /tmp/ccyVh4Qd.s 			page 1


   1              		.syntax unified
   2              		.cpu cortex-m4
   3              		.fpu softvfp
   4              		.eabi_attribute 20, 1
   5              		.eabi_attribute 21, 1
   6              		.eabi_attribute 23, 3
   7              		.eabi_attribute 24, 1
   8              		.eabi_attribute 25, 1
   9              		.eabi_attribute 26, 1
  10              		.eabi_attribute 30, 2
  11              		.eabi_attribute 18, 4
  12              		.thumb
  13              		.file	"pal.c"
  14              		.text
  15              	.Ltext0:
  16              		.cfi_sections	.debug_frame
  17              		.section	.text.palReadBus,"ax",%progbits
  18              		.align	2
  19              		.p2align 4,,15
  20              		.global	palReadBus
  21              		.thumb
  22              		.thumb_func
  23              		.type	palReadBus, %function
  24              	palReadBus:
  25              	.LFB118:
  26              		.file 1 "../../os/hal/src/pal.c"
  27              		.loc 1 77 0
  28              		.cfi_startproc
  29              		@ args = 0, pretend = 0, frame = 0
  30              		@ frame_needed = 0, uses_anonymous_args = 0
  31              		@ link register save eliminated.
  32              	.LVL0:
  33              		.loc 1 82 0
  34 0000 0368     		ldr	r3, [r0, #0]
  35 0002 8268     		ldr	r2, [r0, #8]
  36 0004 1969     		ldr	r1, [r3, #16]
  37 0006 4368     		ldr	r3, [r0, #4]
  38 0008 31FA02F0 		lsrs	r0, r1, r2
  39              	.LVL1:
  40              		.loc 1 83 0
  41 000c 1840     		ands	r0, r0, r3
  42 000e 7047     		bx	lr
  43              		.cfi_endproc
  44              	.LFE118:
  45              		.size	palReadBus, .-palReadBus
  46              		.section	.text.palWriteBus,"ax",%progbits
  47              		.align	2
  48              		.p2align 4,,15
  49              		.global	palWriteBus
  50              		.thumb
  51              		.thumb_func
  52              		.type	palWriteBus, %function
  53              	palWriteBus:
  54              	.LFB119:
  55              		.loc 1 103 0
  56              		.cfi_startproc
  57              		@ args = 0, pretend = 0, frame = 0
ARM GAS  /tmp/ccyVh4Qd.s 			page 2


  58              		@ frame_needed = 0, uses_anonymous_args = 0
  59              		@ link register save eliminated.
  60              	.LVL2:
  61              		.loc 1 108 0
  62 0000 0DC8     		ldmia	r0, {r0, r2, r3}
  63              	.LVL3:
  64              		.loc 1 103 0
  65 0002 30B4     		push	{r4, r5}
  66              	.LCFI0:
  67              		.cfi_def_cfa_offset 8
  68              		.cfi_offset 5, -4
  69              		.cfi_offset 4, -8
  70              		.loc 1 108 0
  71 0004 22EA0105 		bic	r5, r2, r1
  72 0008 03F11004 		add	r4, r3, #16
  73 000c 0A40     		ands	r2, r2, r1
  74 000e 15FA04F4 		lsls	r4, r5, r4
  75 0012 12FA03F3 		lsls	r3, r2, r3
  76 0016 2343     		orrs	r3, r3, r4
  77 0018 8361     		str	r3, [r0, #24]
  78              		.loc 1 109 0
  79 001a 30BC     		pop	{r4, r5}
  80 001c 7047     		bx	lr
  81              		.cfi_endproc
  82              	.LFE119:
  83              		.size	palWriteBus, .-palWriteBus
  84 001e 00BF     		.section	.text.palSetBusMode,"ax",%progbits
  85              		.align	2
  86              		.p2align 4,,15
  87              		.global	palSetBusMode
  88              		.thumb
  89              		.thumb_func
  90              		.type	palSetBusMode, %function
  91              	palSetBusMode:
  92              	.LFB120:
  93              		.loc 1 127 0
  94              		.cfi_startproc
  95              		@ args = 0, pretend = 0, frame = 0
  96              		@ frame_needed = 0, uses_anonymous_args = 0
  97              		@ link register save eliminated.
  98              	.LVL4:
  99              		.loc 1 127 0
 100 0000 0A46     		mov	r2, r1
 101              		.loc 1 132 0
 102 0002 0BC8     		ldmia	r0, {r0, r1, r3}
 103              	.LVL5:
 104 0004 9940     		lsls	r1, r1, r3
 105              		.loc 1 133 0
 106              		.loc 1 132 0
 107 0006 FFF7FEBF 		b	_pal_lld_setgroupmode
 108              	.LVL6:
 109              		.cfi_endproc
 110              	.LFE120:
 111              		.size	palSetBusMode, .-palSetBusMode
 112 000a 00BFAFF3 		.text
 112      0080
 113              	.Letext0:
ARM GAS  /tmp/ccyVh4Qd.s 			page 3


 114              		.file 2 "/opt/paparazzi/arm-multilib/lib/gcc/arm-none-eabi/4.6.2/../../../../arm-none-eabi/include
 115              		.file 3 "../../os/hal/platforms/STM32/GPIOv2/pal_lld.h"
 116              		.file 4 "../../os/hal/include/pal.h"
 117              		.file 5 "../../os/ports/common/ARMCMx/CMSIS/include/core_cm4.h"