ARM GAS  /tmp/cciCgEqb.s 			page 1


   1              		.syntax unified
   2              		.cpu cortex-m4
   3              		.fpu softvfp
   4              		.eabi_attribute 20, 1
   5              		.eabi_attribute 21, 1
   6              		.eabi_attribute 23, 3
   7              		.eabi_attribute 24, 1
   8              		.eabi_attribute 25, 1
   9              		.eabi_attribute 26, 1
  10              		.eabi_attribute 30, 2
  11              		.eabi_attribute 18, 4
  12              		.thumb
  13              		.file	"pal_lld.c"
  14              		.text
  15              	.Ltext0:
  16              		.cfi_sections	.debug_frame
  17              		.section	.text._pal_lld_init,"ax",%progbits
  18              		.align	2
  19              		.p2align 4,,15
  20              		.global	_pal_lld_init
  21              		.thumb
  22              		.thumb_func
  23              		.type	_pal_lld_init, %function
  24              	_pal_lld_init:
  25              	.LFB119:
  26              		.file 1 "../../os/hal/platforms/STM32/GPIOv2/pal_lld.c"
  27              		.loc 1 104 0
  28              		.cfi_startproc
  29              		@ args = 0, pretend = 0, frame = 0
  30              		@ frame_needed = 0, uses_anonymous_args = 0
  31              		@ link register save eliminated.
  32              	.LVL0:
  33              		.loc 1 117 0
  34 0000 4FF46053 		mov	r3, #14336
  35 0004 C4F20203 		movt	r3, 16386
  36 0008 1A6B     		ldr	r2, [r3, #48]
  37 000a 6FEA5222 		mvn	r2, r2, lsr #9
  38 000e 6FEA4222 		mvn	r2, r2, lsl #9
  39 0012 1A63     		str	r2, [r3, #48]
  40              		.loc 1 118 0
  41 0014 1A6D     		ldr	r2, [r3, #80]
  42 0016 6FEA5222 		mvn	r2, r2, lsr #9
  43 001a 6FEA4222 		mvn	r2, r2, lsl #9
  44 001e 1A65     		str	r2, [r3, #80]
  45              	.LVL1:
  46              	.LBB20:
  47              	.LBB21:
  48              		.loc 1 79 0
  49 0020 0023     		movs	r3, #0
  50 0022 4168     		ldr	r1, [r0, #4]
  51 0024 C4F20203 		movt	r3, 16386
  52              	.LBE21:
  53              	.LBE20:
  54              	.LBB23:
  55              	.LBB24:
  56 0028 4FF48062 		mov	r2, #1024
  57              	.LBE24:
ARM GAS  /tmp/cciCgEqb.s 			page 2


  58              	.LBE23:
  59              	.LBB27:
  60              	.LBB22:
  61 002c 5960     		str	r1, [r3, #4]
  62              		.loc 1 80 0
  63 002e 8168     		ldr	r1, [r0, #8]
  64 0030 9960     		str	r1, [r3, #8]
  65              		.loc 1 81 0
  66 0032 C168     		ldr	r1, [r0, #12]
  67 0034 D960     		str	r1, [r3, #12]
  68              		.loc 1 82 0
  69 0036 0169     		ldr	r1, [r0, #16]
  70 0038 5961     		str	r1, [r3, #20]
  71              		.loc 1 83 0
  72 003a 4169     		ldr	r1, [r0, #20]
  73 003c 1962     		str	r1, [r3, #32]
  74              		.loc 1 84 0
  75 003e 8169     		ldr	r1, [r0, #24]
  76 0040 5962     		str	r1, [r3, #36]
  77              		.loc 1 85 0
  78 0042 0168     		ldr	r1, [r0, #0]
  79 0044 1960     		str	r1, [r3, #0]
  80              	.LVL2:
  81              	.LBE22:
  82              	.LBE27:
  83              	.LBB28:
  84              	.LBB25:
  85              		.loc 1 79 0
  86 0046 016A     		ldr	r1, [r0, #32]
  87 0048 C4F20202 		movt	r2, 16386
  88              	.LBE25:
  89              	.LBE28:
  90              	.LBB29:
  91              	.LBB30:
  92 004c 4FF40063 		mov	r3, #2048
  93              	.LBE30:
  94              	.LBE29:
  95              	.LBB33:
  96              	.LBB26:
  97 0050 5160     		str	r1, [r2, #4]
  98              		.loc 1 80 0
  99 0052 416A     		ldr	r1, [r0, #36]
 100 0054 9160     		str	r1, [r2, #8]
 101              		.loc 1 81 0
 102 0056 816A     		ldr	r1, [r0, #40]
 103 0058 D160     		str	r1, [r2, #12]
 104              		.loc 1 82 0
 105 005a C16A     		ldr	r1, [r0, #44]
 106 005c 5161     		str	r1, [r2, #20]
 107              		.loc 1 83 0
 108 005e 016B     		ldr	r1, [r0, #48]
 109 0060 1162     		str	r1, [r2, #32]
 110              		.loc 1 84 0
 111 0062 416B     		ldr	r1, [r0, #52]
 112 0064 5162     		str	r1, [r2, #36]
 113              		.loc 1 85 0
 114 0066 C169     		ldr	r1, [r0, #28]
ARM GAS  /tmp/cciCgEqb.s 			page 3


 115 0068 1160     		str	r1, [r2, #0]
 116              	.LVL3:
 117              	.LBE26:
 118              	.LBE33:
 119              	.LBB34:
 120              	.LBB31:
 121              		.loc 1 79 0
 122 006a C4F20203 		movt	r3, 16386
 123 006e C26B     		ldr	r2, [r0, #60]
 124 0070 5A60     		str	r2, [r3, #4]
 125              		.loc 1 80 0
 126 0072 026C     		ldr	r2, [r0, #64]
 127 0074 9A60     		str	r2, [r3, #8]
 128              		.loc 1 81 0
 129 0076 426C     		ldr	r2, [r0, #68]
 130 0078 DA60     		str	r2, [r3, #12]
 131              		.loc 1 82 0
 132 007a 826C     		ldr	r2, [r0, #72]
 133 007c 5A61     		str	r2, [r3, #20]
 134              		.loc 1 83 0
 135 007e C26C     		ldr	r2, [r0, #76]
 136 0080 1A62     		str	r2, [r3, #32]
 137              		.loc 1 84 0
 138 0082 026D     		ldr	r2, [r0, #80]
 139 0084 5A62     		str	r2, [r3, #36]
 140              		.loc 1 85 0
 141 0086 816B     		ldr	r1, [r0, #56]
 142              	.LBE31:
 143              	.LBE34:
 144              	.LBB35:
 145              	.LBB36:
 146              		.loc 1 79 0
 147 0088 4FF44062 		mov	r2, #3072
 148              	.LBE36:
 149              	.LBE35:
 150              	.LBB39:
 151              	.LBB32:
 152              		.loc 1 85 0
 153 008c 1960     		str	r1, [r3, #0]
 154              	.LVL4:
 155              	.LBE32:
 156              	.LBE39:
 157              	.LBB40:
 158              	.LBB37:
 159              		.loc 1 79 0
 160 008e 816D     		ldr	r1, [r0, #88]
 161 0090 C4F20202 		movt	r2, 16386
 162              	.LBE37:
 163              	.LBE40:
 164              	.LBB41:
 165              	.LBB42:
 166 0094 4FF48053 		mov	r3, #4096
 167              	.LBE42:
 168              	.LBE41:
 169              	.LBB45:
 170              	.LBB38:
 171 0098 5160     		str	r1, [r2, #4]
ARM GAS  /tmp/cciCgEqb.s 			page 4


 172              		.loc 1 80 0
 173 009a C16D     		ldr	r1, [r0, #92]
 174 009c 9160     		str	r1, [r2, #8]
 175              		.loc 1 81 0
 176 009e 016E     		ldr	r1, [r0, #96]
 177 00a0 D160     		str	r1, [r2, #12]
 178              		.loc 1 82 0
 179 00a2 416E     		ldr	r1, [r0, #100]
 180 00a4 5161     		str	r1, [r2, #20]
 181              		.loc 1 83 0
 182 00a6 816E     		ldr	r1, [r0, #104]
 183 00a8 1162     		str	r1, [r2, #32]
 184              		.loc 1 84 0
 185 00aa C16E     		ldr	r1, [r0, #108]
 186 00ac 5162     		str	r1, [r2, #36]
 187              		.loc 1 85 0
 188 00ae 416D     		ldr	r1, [r0, #84]
 189 00b0 1160     		str	r1, [r2, #0]
 190              	.LVL5:
 191              	.LBE38:
 192              	.LBE45:
 193              	.LBB46:
 194              	.LBB43:
 195              		.loc 1 79 0
 196 00b2 C4F20203 		movt	r3, 16386
 197 00b6 426F     		ldr	r2, [r0, #116]
 198 00b8 5A60     		str	r2, [r3, #4]
 199              		.loc 1 80 0
 200 00ba 826F     		ldr	r2, [r0, #120]
 201 00bc 9A60     		str	r2, [r3, #8]
 202              		.loc 1 81 0
 203 00be C26F     		ldr	r2, [r0, #124]
 204 00c0 DA60     		str	r2, [r3, #12]
 205              		.loc 1 82 0
 206 00c2 D0F88020 		ldr	r2, [r0, #128]
 207 00c6 5A61     		str	r2, [r3, #20]
 208              		.loc 1 83 0
 209 00c8 D0F88420 		ldr	r2, [r0, #132]
 210 00cc 1A62     		str	r2, [r3, #32]
 211              		.loc 1 84 0
 212 00ce D0F88820 		ldr	r2, [r0, #136]
 213 00d2 5A62     		str	r2, [r3, #36]
 214              		.loc 1 85 0
 215 00d4 016F     		ldr	r1, [r0, #112]
 216              	.LBE43:
 217              	.LBE46:
 218              	.LBB47:
 219              	.LBB48:
 220              		.loc 1 79 0
 221 00d6 4FF4A052 		mov	r2, #5120
 222              	.LBE48:
 223              	.LBE47:
 224              	.LBB51:
 225              	.LBB44:
 226              		.loc 1 85 0
 227 00da 1960     		str	r1, [r3, #0]
 228              	.LVL6:
ARM GAS  /tmp/cciCgEqb.s 			page 5


 229              	.LBE44:
 230              	.LBE51:
 231              	.LBB52:
 232              	.LBB49:
 233              		.loc 1 79 0
 234 00dc D0F89010 		ldr	r1, [r0, #144]
 235 00e0 C4F20202 		movt	r2, 16386
 236              	.LBE49:
 237              	.LBE52:
 238              	.LBB53:
 239              	.LBB54:
 240 00e4 4FF4C053 		mov	r3, #6144
 241              	.LBE54:
 242              	.LBE53:
 243              	.LBB58:
 244              	.LBB50:
 245 00e8 5160     		str	r1, [r2, #4]
 246              		.loc 1 80 0
 247 00ea D0F89410 		ldr	r1, [r0, #148]
 248 00ee 9160     		str	r1, [r2, #8]
 249              		.loc 1 81 0
 250 00f0 D0F89810 		ldr	r1, [r0, #152]
 251 00f4 D160     		str	r1, [r2, #12]
 252              		.loc 1 82 0
 253 00f6 D0F89C10 		ldr	r1, [r0, #156]
 254 00fa 5161     		str	r1, [r2, #20]
 255              		.loc 1 83 0
 256 00fc D0F8A010 		ldr	r1, [r0, #160]
 257 0100 1162     		str	r1, [r2, #32]
 258              		.loc 1 84 0
 259 0102 D0F8A410 		ldr	r1, [r0, #164]
 260 0106 5162     		str	r1, [r2, #36]
 261              		.loc 1 85 0
 262 0108 D0F88C10 		ldr	r1, [r0, #140]
 263 010c 1160     		str	r1, [r2, #0]
 264              	.LVL7:
 265              	.LBE50:
 266              	.LBE58:
 267              	.LBB59:
 268              	.LBB55:
 269              		.loc 1 79 0
 270 010e D0F8AC10 		ldr	r1, [r0, #172]
 271 0112 C4F20203 		movt	r3, 16386
 272              	.LBE55:
 273              	.LBE59:
 274              	.LBB60:
 275              	.LBB61:
 276 0116 4FF4E052 		mov	r2, #7168
 277              	.LBE61:
 278              	.LBE60:
 279              	.LBB65:
 280              	.LBB56:
 281 011a 5960     		str	r1, [r3, #4]
 282              		.loc 1 80 0
 283 011c D0F8B010 		ldr	r1, [r0, #176]
 284 0120 9960     		str	r1, [r3, #8]
 285              		.loc 1 81 0
ARM GAS  /tmp/cciCgEqb.s 			page 6


 286 0122 D0F8B410 		ldr	r1, [r0, #180]
 287 0126 D960     		str	r1, [r3, #12]
 288              		.loc 1 82 0
 289 0128 D0F8B810 		ldr	r1, [r0, #184]
 290 012c 5961     		str	r1, [r3, #20]
 291              		.loc 1 83 0
 292 012e D0F8BC10 		ldr	r1, [r0, #188]
 293 0132 1962     		str	r1, [r3, #32]
 294              		.loc 1 84 0
 295 0134 D0F8C010 		ldr	r1, [r0, #192]
 296 0138 5962     		str	r1, [r3, #36]
 297              		.loc 1 85 0
 298 013a D0F8A810 		ldr	r1, [r0, #168]
 299              	.LBE56:
 300              	.LBE65:
 301              	.LBB66:
 302              	.LBB62:
 303              		.loc 1 79 0
 304 013e C4F20202 		movt	r2, 16386
 305              	.LBE62:
 306              	.LBE66:
 307              	.LBB67:
 308              	.LBB57:
 309              		.loc 1 85 0
 310 0142 1960     		str	r1, [r3, #0]
 311              	.LVL8:
 312              	.LBE57:
 313              	.LBE67:
 314              	.LBB68:
 315              	.LBB63:
 316              		.loc 1 79 0
 317 0144 D0F8C830 		ldr	r3, [r0, #200]
 318 0148 5360     		str	r3, [r2, #4]
 319              		.loc 1 80 0
 320 014a D0F8CC30 		ldr	r3, [r0, #204]
 321 014e 9360     		str	r3, [r2, #8]
 322              		.loc 1 81 0
 323 0150 D0F8D030 		ldr	r3, [r0, #208]
 324 0154 D360     		str	r3, [r2, #12]
 325              		.loc 1 82 0
 326 0156 D0F8D430 		ldr	r3, [r0, #212]
 327 015a 5361     		str	r3, [r2, #20]
 328              		.loc 1 83 0
 329 015c D0F8D830 		ldr	r3, [r0, #216]
 330 0160 1362     		str	r3, [r2, #32]
 331              		.loc 1 84 0
 332 0162 D0F8DC30 		ldr	r3, [r0, #220]
 333 0166 5362     		str	r3, [r2, #36]
 334              		.loc 1 85 0
 335 0168 D0F8C410 		ldr	r1, [r0, #196]
 336              	.LBE63:
 337              	.LBE68:
 338              	.LBB69:
 339              	.LBB70:
 340              		.loc 1 79 0
 341 016c 4FF40053 		mov	r3, #8192
 342              	.LBE70:
ARM GAS  /tmp/cciCgEqb.s 			page 7


 343              	.LBE69:
 344              	.LBB72:
 345              	.LBB64:
 346              		.loc 1 85 0
 347 0170 1160     		str	r1, [r2, #0]
 348              	.LVL9:
 349              	.LBE64:
 350              	.LBE72:
 351              	.LBB73:
 352              	.LBB71:
 353              		.loc 1 79 0
 354 0172 D0F8E420 		ldr	r2, [r0, #228]
 355 0176 C4F20203 		movt	r3, 16386
 356 017a 5A60     		str	r2, [r3, #4]
 357              		.loc 1 80 0
 358 017c D0F8E820 		ldr	r2, [r0, #232]
 359 0180 9A60     		str	r2, [r3, #8]
 360              		.loc 1 81 0
 361 0182 D0F8EC20 		ldr	r2, [r0, #236]
 362 0186 DA60     		str	r2, [r3, #12]
 363              		.loc 1 82 0
 364 0188 D0F8F020 		ldr	r2, [r0, #240]
 365 018c 5A61     		str	r2, [r3, #20]
 366              		.loc 1 83 0
 367 018e D0F8F420 		ldr	r2, [r0, #244]
 368 0192 1A62     		str	r2, [r3, #32]
 369              		.loc 1 84 0
 370 0194 D0F8F820 		ldr	r2, [r0, #248]
 371 0198 5A62     		str	r2, [r3, #36]
 372              		.loc 1 85 0
 373 019a D0F8E020 		ldr	r2, [r0, #224]
 374 019e 1A60     		str	r2, [r3, #0]
 375              	.LBE71:
 376              	.LBE73:
 377              		.loc 1 143 0
 378 01a0 7047     		bx	lr
 379              		.cfi_endproc
 380              	.LFE119:
 381              		.size	_pal_lld_init, .-_pal_lld_init
 382 01a2 00BFAFF3 		.section	.text._pal_lld_setgroupmode,"ax",%progbits
 382      0080AFF3 
 382      0080AFF3 
 382      0080
 383              		.align	2
 384              		.p2align 4,,15
 385              		.global	_pal_lld_setgroupmode
 386              		.thumb
 387              		.thumb_func
 388              		.type	_pal_lld_setgroupmode, %function
 389              	_pal_lld_setgroupmode:
 390              	.LFB120:
 391              		.loc 1 161 0
 392              		.cfi_startproc
 393              		@ args = 0, pretend = 0, frame = 0
 394              		@ frame_needed = 0, uses_anonymous_args = 0
 395              		@ link register save eliminated.
 396              	.LVL10:
ARM GAS  /tmp/cciCgEqb.s 			page 8


 397 0000 2DE9F00F 		push	{r4, r5, r6, r7, r8, r9, sl, fp}
 398              	.LCFI0:
 399              		.cfi_def_cfa_offset 32
 400              		.cfi_offset 11, -4
 401              		.cfi_offset 10, -8
 402              		.cfi_offset 9, -12
 403              		.cfi_offset 8, -16
 404              		.cfi_offset 7, -20
 405              		.cfi_offset 6, -24
 406              		.cfi_offset 5, -28
 407              		.cfi_offset 4, -32
 408              		.loc 1 163 0
 409 0004 02F00307 		and	r7, r2, #3
 410              	.LVL11:
 411              		.loc 1 164 0
 412 0008 C2F38006 		ubfx	r6, r2, #2, #1
 413              	.LVL12:
 414              		.loc 1 165 0
 415 000c C2F3C105 		ubfx	r5, r2, #3, #2
 416              	.LVL13:
 417              		.loc 1 166 0
 418 0010 C2F34114 		ubfx	r4, r2, #5, #2
 419              	.LVL14:
 420              		.loc 1 167 0
 421 0014 C2F3C312 		ubfx	r2, r2, #7, #4
 422              	.LVL15:
 423              		.loc 1 168 0
 424 0018 0023     		movs	r3, #0
 425              	.LBB74:
 426              		.loc 1 174 0
 427 001a 4FF00F09 		mov	r9, #15
 428              		.loc 1 179 0
 429 001e 4FF0010B 		mov	fp, #1
 430              		.loc 1 181 0
 431 0022 9246     		mov	sl, r2
 432 0024 04E0     		b	.L7
 433              	.LVL16:
 434              	.L9:
 435              	.LBE74:
 436              		.loc 1 189 0
 437 0026 7600     		lsls	r6, r6, #1
 438              	.LVL17:
 439              		.loc 1 190 0
 440 0028 AD00     		lsls	r5, r5, #2
 441              	.LVL18:
 442              		.loc 1 191 0
 443 002a A400     		lsls	r4, r4, #2
 444              	.LVL19:
 445              		.loc 1 192 0
 446 002c BF00     		lsls	r7, r7, #2
 447              	.LVL20:
 448              		.loc 1 193 0
 449 002e 0133     		adds	r3, r3, #1
 450              	.LVL21:
 451              	.L7:
 452              	.LBB75:
 453              		.loc 1 173 0
ARM GAS  /tmp/cciCgEqb.s 			page 9


 454 0030 03F0070C 		and	ip, r3, #7
 455 0034 4FEA8C0C 		lsl	ip, ip, #2
 456              	.LBE75:
 457              		.loc 1 170 0
 458 0038 11F0010F 		tst	r1, #1
 459              	.LBB76:
 460              		.loc 1 173 0
 461 003c 0AFA0CF2 		lsl	r2, sl, ip
 462              		.loc 1 174 0
 463 0040 09FA0CFC 		lsl	ip, r9, ip
 464              	.LBE76:
 465              		.loc 1 170 0
 466 0044 33D0     		beq	.L3
 467              	.LVL22:
 468              	.LBB77:
 469              		.loc 1 175 0
 470 0046 072B     		cmp	r3, #7
 471              		.loc 1 176 0
 472 0048 95BF     		itete	ls
 473 004a D0F82080 		ldrls	r8, [r0, #32]
 474              		.loc 1 178 0
 475 004e D0F82480 		ldrhi	r8, [r0, #36]
 476              		.loc 1 176 0
 477 0052 28EA0C0C 		bicls	ip, r8, ip
 478              	.LVL23:
 479              		.loc 1 178 0
 480 0056 28EA0C0C 		bichi	ip, r8, ip
 481              		.loc 1 176 0
 482 005a 95BF     		itete	ls
 483 005c 4CEA0202 		orrls	r2, ip, r2
 484              	.LVL24:
 485              		.loc 1 178 0
 486 0060 4CEA0202 		orrhi	r2, ip, r2
 487              		.loc 1 176 0
 488 0064 0262     		strls	r2, [r0, #32]
 489              		.loc 1 178 0
 490 0066 4262     		strhi	r2, [r0, #36]
 491              		.loc 1 180 0
 492 0068 4268     		ldr	r2, [r0, #4]
 493              		.loc 1 179 0
 494 006a 0BFA03FC 		lsl	ip, fp, r3
 495              		.loc 1 180 0
 496 006e 22EA0C02 		bic	r2, r2, ip
 497 0072 3243     		orrs	r2, r2, r6
 498 0074 4260     		str	r2, [r0, #4]
 499              	.LVL25:
 500              		.loc 1 181 0
 501 0076 4FF00308 		mov	r8, #3
 502              		.loc 1 159 0
 503 007a 5A00     		lsls	r2, r3, #1
 504              		.loc 1 182 0
 505 007c D0F808C0 		ldr	ip, [r0, #8]
 506              		.loc 1 181 0
 507 0080 08FA02F2 		lsl	r2, r8, r2
 508              		.loc 1 182 0
 509 0084 D243     		mvns	r2, r2
 510 0086 02EA0C0C 		and	ip, r2, ip
ARM GAS  /tmp/cciCgEqb.s 			page 10


 511 008a 4CEA050C 		orr	ip, ip, r5
 512 008e C0F808C0 		str	ip, [r0, #8]
 513              		.loc 1 183 0
 514 0092 D0F80CC0 		ldr	ip, [r0, #12]
 515 0096 02EA0C0C 		and	ip, r2, ip
 516 009a 4CEA040C 		orr	ip, ip, r4
 517 009e C0F80CC0 		str	ip, [r0, #12]
 518              		.loc 1 184 0
 519 00a2 D0F800C0 		ldr	ip, [r0, #0]
 520 00a6 02EA0C02 		and	r2, r2, ip
 521 00aa 3A43     		orrs	r2, r2, r7
 522 00ac 0260     		str	r2, [r0, #0]
 523              	.LVL26:
 524              	.L3:
 525              	.LBE77:
 526              		.loc 1 187 0
 527 00ae 4908     		lsrs	r1, r1, #1
 528              	.LVL27:
 529 00b0 B9D1     		bne	.L9
 530              		.loc 1 195 0
 531 00b2 BDE8F00F 		pop	{r4, r5, r6, r7, r8, r9, sl, fp}
 532 00b6 7047     		bx	lr
 533              		.cfi_endproc
 534              	.LFE120:
 535              		.size	_pal_lld_setgroupmode, .-_pal_lld_setgroupmode
 536 00b8 AFF30080 		.text
 536      AFF30080 
 537              	.Letext0:
 538              		.file 2 "/opt/paparazzi/arm-multilib/lib/gcc/arm-none-eabi/4.6.2/../../../../arm-none-eabi/include
 539              		.file 3 "../../os/hal/platforms/STM32F4xx/stm32f4xx.h"
 540              		.file 4 "../../os/hal/platforms/STM32/GPIOv2/pal_lld.h"
 541              		.file 5 "../../os/ports/common/ARMCMx/CMSIS/include/core_cm4.h"