ARM GAS  /tmp/cc8zXf3z.s 			page 1


   1              		.syntax unified
   2              		.cpu cortex-m4
   3              		.fpu softvfp
   4              		.eabi_attribute 20, 1
   5              		.eabi_attribute 21, 1
   6              		.eabi_attribute 23, 3
   7              		.eabi_attribute 24, 1
   8              		.eabi_attribute 25, 1
   9              		.eabi_attribute 26, 1
  10              		.eabi_attribute 30, 2
  11              		.eabi_attribute 18, 4
  12              		.thumb
  13              		.file	"pwm_lld.c"
  14              		.text
  15              	.Ltext0:
  16              		.cfi_sections	.debug_frame
  17              		.section	.text.VectorB8,"ax",%progbits
  18              		.align	2
  19              		.p2align 4,,15
  20              		.global	VectorB8
  21              		.thumb
  22              		.thumb_func
  23              		.type	VectorB8, %function
  24              	VectorB8:
  25              	.LFB119:
  26              		.file 1 "../../os/hal/platforms/STM32/TIMv1/pwm_lld.c"
  27              		.loc 1 235 0
  28              		.cfi_startproc
  29              		@ args = 0, pretend = 0, frame = 0
  30              		@ frame_needed = 0, uses_anonymous_args = 0
  31              	.LVL0:
  32 0000 38B5     		push	{r3, r4, r5, lr}
  33              	.LCFI0:
  34              		.cfi_def_cfa_offset 16
  35              		.cfi_offset 14, -4
  36              		.cfi_offset 5, -8
  37              		.cfi_offset 4, -12
  38              		.cfi_offset 3, -16
  39              	.LBB4:
  40              	.LBB5:
  41              		.loc 1 115 0
  42 0002 174D     		ldr	r5, .L12
  43 0004 2B69     		ldr	r3, [r5, #16]
  44 0006 1C69     		ldr	r4, [r3, #16]
  45              	.LVL1:
  46              		.loc 1 116 0
  47 0008 DA68     		ldr	r2, [r3, #12]
  48 000a 1440     		ands	r4, r4, r2
  49              	.LVL2:
  50 000c E4B2     		uxtb	r4, r4
  51              		.loc 1 117 0
  52 000e E243     		mvns	r2, r4
  53 0010 1A61     		str	r2, [r3, #16]
  54              		.loc 1 118 0
  55 0012 A307     		lsls	r3, r4, #30
  56 0014 1ED4     		bmi	.L8
  57              	.L2:
ARM GAS  /tmp/cc8zXf3z.s 			page 2


  58              		.loc 1 120 0
  59 0016 6007     		lsls	r0, r4, #29
  60 0018 17D4     		bmi	.L9
  61              	.L3:
  62              		.loc 1 122 0
  63 001a 2107     		lsls	r1, r4, #28
  64 001c 10D4     		bmi	.L10
  65              	.L4:
  66              		.loc 1 124 0
  67 001e E206     		lsls	r2, r4, #27
  68 0020 09D4     		bmi	.L11
  69              	.L5:
  70              		.loc 1 126 0
  71 0022 E307     		lsls	r3, r4, #31
  72 0024 03D5     		bpl	.L6
  73              		.loc 1 127 0
  74 0026 6B68     		ldr	r3, [r5, #4]
  75 0028 0D48     		ldr	r0, .L12
  76 002a 9B68     		ldr	r3, [r3, #8]
  77 002c 9847     		blx	r3
  78              	.L6:
  79              	.LBE5:
  80              	.LBE4:
  81              		.loc 1 242 0
  82 002e BDE83840 		pop	{r3, r4, r5, lr}
  83              		.loc 1 241 0
  84 0032 FFF7FEBF 		b	_port_irq_epilogue
  85              	.L11:
  86              	.LBB7:
  87              	.LBB6:
  88              		.loc 1 125 0
  89 0036 6B68     		ldr	r3, [r5, #4]
  90 0038 0948     		ldr	r0, .L12
  91 003a 9B6A     		ldr	r3, [r3, #40]
  92 003c 9847     		blx	r3
  93 003e F0E7     		b	.L5
  94              	.L10:
  95              		.loc 1 123 0
  96 0040 6B68     		ldr	r3, [r5, #4]
  97 0042 0748     		ldr	r0, .L12
  98 0044 1B6A     		ldr	r3, [r3, #32]
  99 0046 9847     		blx	r3
 100 0048 E9E7     		b	.L4
 101              	.L9:
 102              		.loc 1 121 0
 103 004a 6B68     		ldr	r3, [r5, #4]
 104 004c 0448     		ldr	r0, .L12
 105 004e 9B69     		ldr	r3, [r3, #24]
 106 0050 9847     		blx	r3
 107 0052 E2E7     		b	.L3
 108              	.L8:
 109              		.loc 1 119 0
 110 0054 6B68     		ldr	r3, [r5, #4]
 111 0056 2846     		mov	r0, r5
 112 0058 1B69     		ldr	r3, [r3, #16]
 113 005a 9847     		blx	r3
 114 005c DBE7     		b	.L2
ARM GAS  /tmp/cc8zXf3z.s 			page 3


 115              	.L13:
 116 005e 00BF     		.align	2
 117              	.L12:
 118 0060 00000000 		.word	.LANCHOR0
 119              	.LBE6:
 120              	.LBE7:
 121              		.cfi_endproc
 122              	.LFE119:
 123              		.size	VectorB8, .-VectorB8
 124 0064 AFF30080 		.section	.text.pwm_lld_init,"ax",%progbits
 124      AFF30080 
 124      AFF30080 
 125              		.align	2
 126              		.p2align 4,,15
 127              		.global	pwm_lld_init
 128              		.thumb
 129              		.thumb_func
 130              		.type	pwm_lld_init, %function
 131              	pwm_lld_init:
 132              	.LFB120:
 133              		.loc 1 345 0
 134              		.cfi_startproc
 135              		@ args = 0, pretend = 0, frame = 0
 136              		@ frame_needed = 0, uses_anonymous_args = 0
 137 0000 10B5     		push	{r4, lr}
 138              	.LCFI1:
 139              		.cfi_def_cfa_offset 8
 140              		.cfi_offset 14, -4
 141              		.cfi_offset 4, -8
 142              		.loc 1 367 0
 143 0002 40F20004 		movw	r4, #:lower16:.LANCHOR0
 144 0006 C0F20004 		movt	r4, #:upper16:.LANCHOR0
 145 000a 2046     		mov	r0, r4
 146 000c FFF7FEFF 		bl	pwmObjectInit
 147              		.loc 1 368 0
 148 0010 4FF40063 		mov	r3, #2048
 149 0014 C4F20003 		movt	r3, 16384
 150 0018 2361     		str	r3, [r4, #16]
 151              		.loc 1 388 0
 152 001a 10BD     		pop	{r4, pc}
 153              		.cfi_endproc
 154              	.LFE120:
 155              		.size	pwm_lld_init, .-pwm_lld_init
 156 001c AFF30080 		.section	.text.pwm_lld_start,"ax",%progbits
 157              		.align	2
 158              		.p2align 4,,15
 159              		.global	pwm_lld_start
 160              		.thumb
 161              		.thumb_func
 162              		.type	pwm_lld_start, %function
 163              	pwm_lld_start:
 164              	.LFB121:
 165              		.loc 1 399 0
 166              		.cfi_startproc
 167              		@ args = 0, pretend = 0, frame = 0
 168              		@ frame_needed = 0, uses_anonymous_args = 0
 169              	.LVL3:
ARM GAS  /tmp/cc8zXf3z.s 			page 4


 170              		.loc 1 403 0
 171 0000 0378     		ldrb	r3, [r0, #0]	@ zero_extendqisi2
 172 0002 012B     		cmp	r3, #1
 173              		.loc 1 399 0
 174 0004 70B5     		push	{r4, r5, r6, lr}
 175              	.LCFI2:
 176              		.cfi_def_cfa_offset 16
 177              		.cfi_offset 14, -4
 178              		.cfi_offset 6, -8
 179              		.cfi_offset 5, -12
 180              		.cfi_offset 4, -16
 181              		.loc 1 399 0
 182 0006 0446     		mov	r4, r0
 183              		.loc 1 403 0
 184 0008 65D0     		beq	.L33
 185              		.loc 1 484 0
 186 000a 4268     		ldr	r2, [r0, #4]
 187              		.loc 1 483 0
 188 000c 0369     		ldr	r3, [r0, #16]
 189              		.loc 1 484 0
 190 000e 106B     		ldr	r0, [r2, #48]
 191              	.LVL4:
 192              		.loc 1 483 0
 193 0010 0021     		movs	r1, #0
 194              		.loc 1 484 0
 195 0012 20F0FF00 		bic	r0, r0, #255
 196              		.loc 1 483 0
 197 0016 1960     		str	r1, [r3, #0]
 198              		.loc 1 484 0
 199 0018 D860     		str	r0, [r3, #12]
 200              		.loc 1 486 0
 201 001a 1961     		str	r1, [r3, #16]
 202              		.loc 1 487 0
 203 001c 5963     		str	r1, [r3, #52]
 204              		.loc 1 488 0
 205 001e 9963     		str	r1, [r3, #56]
 206              		.loc 1 489 0
 207 0020 D963     		str	r1, [r3, #60]
 208              		.loc 1 490 0
 209 0022 1964     		str	r1, [r3, #64]
 210              		.loc 1 491 0
 211 0024 5962     		str	r1, [r3, #36]
 212              	.L18:
 213              	.LVL5:
 214              		.loc 1 495 0
 215 0026 E668     		ldr	r6, [r4, #12]
 216 0028 1568     		ldr	r5, [r2, #0]
 217              		.loc 1 500 0
 218 002a 2489     		ldrh	r4, [r4, #8]
 219              	.LVL6:
 220              		.loc 1 505 0
 221 002c D168     		ldr	r1, [r2, #12]
 222              		.loc 1 501 0
 223 002e D06A     		ldr	r0, [r2, #44]
 224              		.loc 1 495 0
 225 0030 B6FBF5F5 		udiv	r5, r6, r5
 226 0034 013D     		subs	r5, r5, #1
ARM GAS  /tmp/cc8zXf3z.s 			page 5


 227              		.loc 1 500 0
 228 0036 013C     		subs	r4, r4, #1
 229              		.loc 1 505 0
 230 0038 01F00F01 		and	r1, r1, #15
 231              		.loc 1 499 0
 232 003c ADB2     		uxth	r5, r5
 233              		.loc 1 500 0
 234 003e A4B2     		uxth	r4, r4
 235              		.loc 1 505 0
 236 0040 0129     		cmp	r1, #1
 237              		.loc 1 499 0
 238 0042 9D62     		str	r5, [r3, #40]
 239              		.loc 1 500 0
 240 0044 DC62     		str	r4, [r3, #44]
 241              		.loc 1 501 0
 242 0046 5860     		str	r0, [r3, #4]
 243              	.LVL7:
 244              		.loc 1 505 0
 245 0048 03D0     		beq	.L19
 246              		.loc 1 504 0
 247 004a 0229     		cmp	r1, #2
 248 004c 0CBF     		ite	eq
 249 004e 0321     		moveq	r1, #3
 250 0050 0021     		movne	r1, #0
 251              	.L19:
 252              	.LVL8:
 253              		.loc 1 513 0
 254 0052 5069     		ldr	r0, [r2, #20]
 255 0054 00F00F00 		and	r0, r0, #15
 256 0058 0128     		cmp	r0, #1
 257 005a 21D0     		beq	.L23
 258 005c 0228     		cmp	r0, #2
 259 005e 1DD0     		beq	.L34
 260              		.loc 1 521 0
 261 0060 D069     		ldr	r0, [r2, #28]
 262 0062 00F00F00 		and	r0, r0, #15
 263 0066 0128     		cmp	r0, #1
 264 0068 21D0     		beq	.L26
 265              	.LVL9:
 266              	.L37:
 267 006a 0228     		cmp	r0, #2
 268 006c 2ED0     		beq	.L35
 269              	.LVL10:
 270              		.loc 1 529 0
 271 006e 506A     		ldr	r0, [r2, #36]
 272 0070 00F00F00 		and	r0, r0, #15
 273 0074 0128     		cmp	r0, #1
 274 0076 21D0     		beq	.L29
 275              	.LVL11:
 276              	.L38:
 277 0078 0228     		cmp	r0, #2
 278 007a 22D0     		beq	.L36
 279              	.L28:
 280              	.LVL12:
 281              		.loc 1 574 0
 282 007c 1962     		str	r1, [r3, #32]
 283              		.loc 1 575 0
ARM GAS  /tmp/cc8zXf3z.s 			page 6


 284 007e 0121     		movs	r1, #1
 285              	.LVL13:
 286 0080 5961     		str	r1, [r3, #20]
 287              		.loc 1 576 0
 288 0082 D968     		ldr	r1, [r3, #12]
 289 0084 9268     		ldr	r2, [r2, #8]
 290              	.LVL14:
 291 0086 002A     		cmp	r2, #0
 292 0088 0CBF     		ite	eq
 293 008a 0A46     		moveq	r2, r1
 294 008c 41F00102 		orrne	r2, r1, #1
 295 0090 DA60     		str	r2, [r3, #12]
 296              		.loc 1 577 0
 297 0092 0022     		movs	r2, #0
 298 0094 1A61     		str	r2, [r3, #16]
 299              		.loc 1 586 0
 300 0096 8522     		movs	r2, #133
 301 0098 1A60     		str	r2, [r3, #0]
 302              		.loc 1 588 0
 303 009a 70BD     		pop	{r4, r5, r6, pc}
 304              	.LVL15:
 305              	.L34:
 306              		.loc 1 515 0
 307 009c 41F02001 		orr	r1, r1, #32
 308              	.LVL16:
 309              	.L23:
 310              		.loc 1 521 0
 311 00a0 D069     		ldr	r0, [r2, #28]
 312 00a2 00F00F00 		and	r0, r0, #15
 313 00a6 0128     		cmp	r0, #1
 314              		.loc 1 517 0
 315 00a8 41F01001 		orr	r1, r1, #16
 316              	.LVL17:
 317              		.loc 1 521 0
 318 00ac DDD1     		bne	.L37
 319              	.LVL18:
 320              	.L26:
 321              		.loc 1 525 0
 322 00ae 41F48071 		orr	r1, r1, #256
 323              	.LVL19:
 324              	.L39:
 325              		.loc 1 529 0
 326 00b2 506A     		ldr	r0, [r2, #36]
 327 00b4 00F00F00 		and	r0, r0, #15
 328 00b8 0128     		cmp	r0, #1
 329 00ba DDD1     		bne	.L38
 330              	.LVL20:
 331              	.L29:
 332              		.loc 1 533 0
 333 00bc 41F48051 		orr	r1, r1, #4096
 334              	.LVL21:
 335 00c0 DCE7     		b	.L28
 336              	.LVL22:
 337              	.L36:
 338              		.loc 1 531 0
 339 00c2 41F40051 		orr	r1, r1, #8192
 340              	.LVL23:
ARM GAS  /tmp/cc8zXf3z.s 			page 7


 341              		.loc 1 533 0
 342 00c6 41F48051 		orr	r1, r1, #4096
 343              	.LVL24:
 344 00ca D7E7     		b	.L28
 345              	.LVL25:
 346              	.L35:
 347              		.loc 1 523 0
 348 00cc 41F40071 		orr	r1, r1, #512
 349              	.LVL26:
 350              		.loc 1 525 0
 351 00d0 41F48071 		orr	r1, r1, #256
 352              	.LVL27:
 353 00d4 EDE7     		b	.L39
 354              	.LVL28:
 355              	.L33:
 356              		.loc 1 435 0
 357 00d6 124B     		ldr	r3, .L41
 358 00d8 9842     		cmp	r0, r3
 359 00da 08D0     		beq	.L40
 360              	.LVL29:
 361              	.L17:
 362              		.loc 1 476 0
 363 00dc 2369     		ldr	r3, [r4, #16]
 364              		.loc 1 478 0
 365 00de 6268     		ldr	r2, [r4, #4]
 366              		.loc 1 476 0
 367 00e0 46F66801 		movw	r1, #26728
 368 00e4 C0F20111 		movt	r1, 257
 369 00e8 9961     		str	r1, [r3, #24]
 370              		.loc 1 478 0
 371 00ea D961     		str	r1, [r3, #28]
 372 00ec 9BE7     		b	.L18
 373              	.L40:
 374              		.loc 1 436 0
 375 00ee 4FF46053 		mov	r3, #14336
 376 00f2 C4F20203 		movt	r3, 16386
 377              		.loc 1 438 0
 378 00f6 1E20     		movs	r0, #30
 379              		.loc 1 436 0
 380 00f8 1A6C     		ldr	r2, [r3, #64]
 381 00fa 42F00402 		orr	r2, r2, #4
 382 00fe 1A64     		str	r2, [r3, #64]
 383              		.loc 1 437 0
 384 0100 1A6A     		ldr	r2, [r3, #32]
 385 0102 42F00402 		orr	r2, r2, #4
 386 0106 1A62     		str	r2, [r3, #32]
 387 0108 0022     		movs	r2, #0
 388 010a 1A62     		str	r2, [r3, #32]
 389              		.loc 1 438 0
 390 010c 7021     		movs	r1, #112
 391 010e FFF7FEFF 		bl	nvicEnableVector
 392              		.loc 1 440 0
 393 0112 4FF43D43 		mov	r3, #48384
 394 0116 C0F20153 		movt	r3, 1281
 395 011a E360     		str	r3, [r4, #12]
 396 011c DEE7     		b	.L17
 397              	.L42:
ARM GAS  /tmp/cc8zXf3z.s 			page 8


 398 011e 00BF     		.align	2
 399              	.L41:
 400 0120 00000000 		.word	.LANCHOR0
 401              		.cfi_endproc
 402              	.LFE121:
 403              		.size	pwm_lld_start, .-pwm_lld_start
 404 0124 AFF30080 		.section	.text.pwm_lld_stop,"ax",%progbits
 404      AFF30080 
 404      AFF30080 
 405              		.align	2
 406              		.p2align 4,,15
 407              		.global	pwm_lld_stop
 408              		.thumb
 409              		.thumb_func
 410              		.type	pwm_lld_stop, %function
 411              	pwm_lld_stop:
 412              	.LFB122:
 413              		.loc 1 597 0
 414              		.cfi_startproc
 415              		@ args = 0, pretend = 0, frame = 0
 416              		@ frame_needed = 0, uses_anonymous_args = 0
 417              	.LVL30:
 418 0000 08B5     		push	{r3, lr}
 419              	.LCFI3:
 420              		.cfi_def_cfa_offset 8
 421              		.cfi_offset 14, -4
 422              		.cfi_offset 3, -8
 423              		.loc 1 600 0
 424 0002 0378     		ldrb	r3, [r0, #0]	@ zero_extendqisi2
 425 0004 022B     		cmp	r3, #2
 426 0006 00D0     		beq	.L45
 427              	.LVL31:
 428              	.L43:
 429 0008 08BD     		pop	{r3, pc}
 430              	.LVL32:
 431              	.L45:
 432              		.loc 1 601 0
 433 000a 0369     		ldr	r3, [r0, #16]
 434 000c 0022     		movs	r2, #0
 435 000e 1A60     		str	r2, [r3, #0]
 436              		.loc 1 602 0
 437 0010 DA60     		str	r2, [r3, #12]
 438              		.loc 1 603 0
 439 0012 1A61     		str	r2, [r3, #16]
 440              		.loc 1 628 0
 441 0014 074B     		ldr	r3, .L46
 442 0016 9842     		cmp	r0, r3
 443 0018 F6D1     		bne	.L43
 444              		.loc 1 629 0
 445 001a 1E20     		movs	r0, #30
 446              	.LVL33:
 447 001c FFF7FEFF 		bl	nvicDisableVector
 448              		.loc 1 630 0
 449 0020 4FF46053 		mov	r3, #14336
 450 0024 C4F20203 		movt	r3, 16386
 451 0028 1A6C     		ldr	r2, [r3, #64]
 452 002a 22F00402 		bic	r2, r2, #4
ARM GAS  /tmp/cc8zXf3z.s 			page 9


 453 002e 1A64     		str	r2, [r3, #64]
 454 0030 EAE7     		b	.L43
 455              	.L47:
 456 0032 00BF     		.align	2
 457              	.L46:
 458 0034 00000000 		.word	.LANCHOR0
 459              		.cfi_endproc
 460              	.LFE122:
 461              		.size	pwm_lld_stop, .-pwm_lld_stop
 462 0038 AFF30080 		.section	.text.pwm_lld_enable_channel,"ax",%progbits
 462      AFF30080 
 463              		.align	2
 464              		.p2align 4,,15
 465              		.global	pwm_lld_enable_channel
 466              		.thumb
 467              		.thumb_func
 468              		.type	pwm_lld_enable_channel, %function
 469              	pwm_lld_enable_channel:
 470              	.LFB123:
 471              		.loc 1 669 0
 472              		.cfi_startproc
 473              		@ args = 0, pretend = 0, frame = 0
 474              		@ frame_needed = 0, uses_anonymous_args = 0
 475              		@ link register save eliminated.
 476              	.LVL34:
 477 0000 10B4     		push	{r4}
 478              	.LCFI4:
 479              		.cfi_def_cfa_offset 4
 480              		.cfi_offset 4, -4
 481              		.loc 1 674 0
 482 0002 4468     		ldr	r4, [r0, #4]
 483              		.loc 1 671 0
 484 0004 0369     		ldr	r3, [r0, #16]
 485              		.loc 1 674 0
 486 0006 04EBC100 		add	r0, r4, r1, lsl #3
 487              	.LVL35:
 488              		.loc 1 671 0
 489 000a 01F10C04 		add	r4, r1, #12
 490 000e 03EB8404 		add	r4, r3, r4, lsl #2
 491              		.loc 1 674 0
 492 0012 0069     		ldr	r0, [r0, #16]
 493              		.loc 1 671 0
 494 0014 6260     		str	r2, [r4, #4]
 495              		.loc 1 674 0
 496 0016 48B1     		cbz	r0, .L48
 497              	.LBB8:
 498              		.loc 1 678 0
 499 0018 0220     		movs	r0, #2
 500              		.loc 1 675 0
 501 001a DA68     		ldr	r2, [r3, #12]
 502              	.LVL36:
 503              		.loc 1 678 0
 504 001c 10FA01F1 		lsls	r1, r0, r1
 505              	.LVL37:
 506 0020 1142     		tst	r1, r2
 507 0022 03D1     		bne	.L48
 508              		.loc 1 679 0
ARM GAS  /tmp/cc8zXf3z.s 			page 10


 509 0024 0A43     		orrs	r2, r2, r1
 510              	.LVL38:
 511              		.loc 1 680 0
 512 0026 C943     		mvns	r1, r1
 513              		.loc 1 679 0
 514 0028 DA60     		str	r2, [r3, #12]
 515              		.loc 1 680 0
 516 002a 1961     		str	r1, [r3, #16]
 517              	.L48:
 518              	.LBE8:
 519              		.loc 1 683 0
 520 002c 10BC     		pop	{r4}
 521 002e 7047     		bx	lr
 522              		.cfi_endproc
 523              	.LFE123:
 524              		.size	pwm_lld_enable_channel, .-pwm_lld_enable_channel
 525              		.section	.text.pwm_lld_disable_channel,"ax",%progbits
 526              		.align	2
 527              		.p2align 4,,15
 528              		.global	pwm_lld_disable_channel
 529              		.thumb
 530              		.thumb_func
 531              		.type	pwm_lld_disable_channel, %function
 532              	pwm_lld_disable_channel:
 533              	.LFB124:
 534              		.loc 1 697 0
 535              		.cfi_startproc
 536              		@ args = 0, pretend = 0, frame = 0
 537              		@ frame_needed = 0, uses_anonymous_args = 0
 538              		@ link register save eliminated.
 539              	.LVL39:
 540              		.loc 1 699 0
 541 0000 0369     		ldr	r3, [r0, #16]
 542 0002 01F10C02 		add	r2, r1, #12
 543 0006 03EB8202 		add	r2, r3, r2, lsl #2
 544 000a 0020     		movs	r0, #0
 545              	.LVL40:
 546 000c 5060     		str	r0, [r2, #4]
 547              		.loc 1 700 0
 548 000e DA68     		ldr	r2, [r3, #12]
 549 0010 0220     		movs	r0, #2
 550 0012 10FA01F1 		lsls	r1, r0, r1
 551              	.LVL41:
 552 0016 22EA0101 		bic	r1, r2, r1
 553 001a D960     		str	r1, [r3, #12]
 554              		.loc 1 701 0
 555 001c 7047     		bx	lr
 556              		.cfi_endproc
 557              	.LFE124:
 558              		.size	pwm_lld_disable_channel, .-pwm_lld_disable_channel
 559              		.global	PWMD4
 560 001e 00BF     		.section	.bss.PWMD4,"aw",%nobits
 561              		.align	2
 562              		.set	.LANCHOR0,. + 0
 563              		.type	PWMD4, %object
 564              		.size	PWMD4, 20
 565              	PWMD4:
ARM GAS  /tmp/cc8zXf3z.s 			page 11


 566 0000 00000000 		.space	20
 566      00000000 
 566      00000000 
 566      00000000 
 566      00000000 
 567              		.text
 568              	.Letext0:
 569              		.file 2 "/opt/paparazzi/arm-multilib/lib/gcc/arm-none-eabi/4.6.2/../../../../arm-none-eabi/include
 570              		.file 3 "../../os/hal/platforms/STM32F4xx/stm32f4xx.h"
 571              		.file 4 "../../os/hal/include/pwm.h"
 572              		.file 5 "../../os/hal/platforms/STM32/TIMv1/pwm_lld.h"
 573              		.file 6 "../../os/hal/platforms/STM32/TIMv1/stm32_tim.h"
 574              		.file 7 "../../os/ports/common/ARMCMx/CMSIS/include/core_cm4.h"