ARM GAS  /tmp/cc2xeQSl.s 			page 1


   1              		.syntax unified
   2              		.cpu cortex-m4
   3              		.fpu softvfp
   4              		.eabi_attribute 20, 1
   5              		.eabi_attribute 21, 1
   6              		.eabi_attribute 23, 3
   7              		.eabi_attribute 24, 1
   8              		.eabi_attribute 25, 1
   9              		.eabi_attribute 26, 1
  10              		.eabi_attribute 30, 2
  11              		.eabi_attribute 18, 4
  12              		.thumb
  13              		.file	"spi_lld.c"
  14              		.text
  15              	.Ltext0:
  16              		.cfi_sections	.debug_frame
  17              		.section	.text.spi_lld_serve_tx_interrupt,"ax",%progbits
  18              		.align	2
  19              		.p2align 4,,15
  20              		.thumb
  21              		.thumb_func
  22              		.type	spi_lld_serve_tx_interrupt, %function
  23              	spi_lld_serve_tx_interrupt:
  24              	.LFB119:
  25              		.file 1 "../../os/hal/platforms/STM32/SPIv1/spi_lld.c"
  26              		.loc 1 120 0
  27              		.cfi_startproc
  28              		@ args = 0, pretend = 0, frame = 0
  29              		@ frame_needed = 0, uses_anonymous_args = 0
  30              		@ link register save eliminated.
  31              	.LVL0:
  32              		.loc 1 125 0
  33 0000 11F00C0F 		tst	r1, #12
  34 0004 00D1     		bne	.L4
  35 0006 7047     		bx	lr
  36              	.L4:
  37              		.loc 1 132 0
  38              		.loc 1 126 0
  39 0008 FFF7FEBF 		b	port_halt
  40              	.LVL1:
  41              	.LVL2:
  42              		.cfi_endproc
  43              	.LFE119:
  44              		.size	spi_lld_serve_tx_interrupt, .-spi_lld_serve_tx_interrupt
  45 000c AFF30080 		.section	.text.spi_lld_serve_rx_interrupt,"ax",%progbits
  46              		.align	2
  47              		.p2align 4,,15
  48              		.thumb
  49              		.thumb_func
  50              		.type	spi_lld_serve_rx_interrupt, %function
  51              	spi_lld_serve_rx_interrupt:
  52              	.LFB118:
  53              		.loc 1 94 0
  54              		.cfi_startproc
  55              		@ args = 0, pretend = 0, frame = 0
  56              		@ frame_needed = 0, uses_anonymous_args = 0
  57              	.LVL3:
ARM GAS  /tmp/cc2xeQSl.s 			page 2


  58              		.loc 1 98 0
  59 0000 11F00C0F 		tst	r1, #12
  60              		.loc 1 94 0
  61 0004 38B5     		push	{r3, r4, r5, lr}
  62              	.LCFI0:
  63              		.cfi_def_cfa_offset 16
  64              		.cfi_offset 14, -4
  65              		.cfi_offset 5, -8
  66              		.cfi_offset 4, -12
  67              		.cfi_offset 3, -16
  68              		.loc 1 94 0
  69 0006 0446     		mov	r4, r0
  70              		.loc 1 98 0
  71 0008 37D1     		bne	.L14
  72              	.LVL4:
  73              	.L6:
  74              		.loc 1 106 0
  75 000a 606A     		ldr	r0, [r4, #36]
  76 000c 0268     		ldr	r2, [r0, #0]
  77 000e 1368     		ldr	r3, [r2, #0]
  78 0010 23F01F03 		bic	r3, r3, #31
  79 0014 1360     		str	r3, [r2, #0]
  80              	.L7:
  81              		.loc 1 106 0 is_stmt 0 discriminator 1
  82 0016 1368     		ldr	r3, [r2, #0]
  83 0018 D907     		lsls	r1, r3, #31
  84 001a FCD4     		bmi	.L7
  85              		.loc 1 106 0 discriminator 2
  86 001c 057A     		ldrb	r5, [r0, #8]	@ zero_extendqisi2
  87              		.loc 1 107 0 is_stmt 1 discriminator 2
  88 001e 216A     		ldr	r1, [r4, #32]
  89              		.loc 1 106 0 discriminator 2
  90 0020 4368     		ldr	r3, [r0, #4]
  91              		.loc 1 107 0 discriminator 2
  92 0022 0A68     		ldr	r2, [r1, #0]
  93              		.loc 1 106 0 discriminator 2
  94 0024 3D20     		movs	r0, #61
  95 0026 A840     		lsls	r0, r0, r5
  96 0028 1860     		str	r0, [r3, #0]
  97              		.loc 1 107 0 discriminator 2
  98 002a 1368     		ldr	r3, [r2, #0]
  99 002c 23F01F03 		bic	r3, r3, #31
 100 0030 1360     		str	r3, [r2, #0]
 101              	.L8:
 102              		.loc 1 107 0 is_stmt 0 discriminator 1
 103 0032 1368     		ldr	r3, [r2, #0]
 104 0034 DB07     		lsls	r3, r3, #31
 105 0036 FCD4     		bmi	.L8
 106              		.loc 1 111 0 is_stmt 1 discriminator 2
 107 0038 6368     		ldr	r3, [r4, #4]
 108              		.loc 1 107 0 discriminator 2
 109 003a 087A     		ldrb	r0, [r1, #8]	@ zero_extendqisi2
 110 003c 4A68     		ldr	r2, [r1, #4]
 111              		.loc 1 111 0 discriminator 2
 112 003e 1B68     		ldr	r3, [r3, #0]
 113              		.loc 1 107 0 discriminator 2
 114 0040 3D21     		movs	r1, #61
ARM GAS  /tmp/cc2xeQSl.s 			page 3


 115 0042 8140     		lsls	r1, r1, r0
 116 0044 1160     		str	r1, [r2, #0]
 117              		.loc 1 111 0 discriminator 2
 118 0046 ABB1     		cbz	r3, .L9
 119              		.loc 1 111 0 is_stmt 0 discriminator 1
 120 0048 0422     		movs	r2, #4
 121 004a 2270     		strb	r2, [r4, #0]
 122 004c 2046     		mov	r0, r4
 123 004e 9847     		blx	r3
 124 0050 2378     		ldrb	r3, [r4, #0]	@ zero_extendqisi2
 125 0052 042B     		cmp	r3, #4
 126 0054 0ED0     		beq	.L9
 127              	.L10:
 128              	.LBB2:
 129              		.loc 1 111 0 discriminator 4
 130 0056 2023     		movs	r3, #32
 131              	.LVL5:
 132              	@ 111 "../../os/hal/platforms/STM32/SPIv1/spi_lld.c" 1
 133 0058 83F31188 		msr     BASEPRI, r3
 134              	@ 0 "" 2
 135              	.LVL6:
 136              		.thumb
 137              	.LBE2:
 138 005c A368     		ldr	r3, [r4, #8]
 139              	.LVL7:
 140 005e 2BB1     		cbz	r3, .L11
 141              	.LVL8:
 142              	.LBB3:
 143              		.loc 1 111 0 discriminator 5
 144 0060 0022     		movs	r2, #0
 145 0062 A260     		str	r2, [r4, #8]
 146 0064 1846     		mov	r0, r3
 147 0066 5A62     		str	r2, [r3, #36]
 148 0068 FFF7FEFF 		bl	chSchReadyI
 149              	.LVL9:
 150              	.L11:
 151              	.LBE3:
 152              	.LBB4:
 153              		.loc 1 111 0 discriminator 6
 154 006c 0023     		movs	r3, #0
 155              	.LVL10:
 156              	@ 111 "../../os/hal/platforms/STM32/SPIv1/spi_lld.c" 1
 157 006e 83F31188 		msr     BASEPRI, r3
 158              	@ 0 "" 2
 159              	.LVL11:
 160              		.thumb
 161              	.LBE4:
 162              		.loc 1 112 0 is_stmt 1 discriminator 6
 163 0072 38BD     		pop	{r3, r4, r5, pc}
 164              	.LVL12:
 165              	.L9:
 166              		.loc 1 111 0 discriminator 2
 167 0074 0223     		movs	r3, #2
 168 0076 2370     		strb	r3, [r4, #0]
 169 0078 EDE7     		b	.L10
 170              	.LVL13:
 171              	.L14:
ARM GAS  /tmp/cc2xeQSl.s 			page 4


 172              		.loc 1 99 0
 173 007a FFF7FEFF 		bl	port_halt
 174              	.LVL14:
 175 007e C4E7     		b	.L6
 176              		.cfi_endproc
 177              	.LFE118:
 178              		.size	spi_lld_serve_rx_interrupt, .-spi_lld_serve_rx_interrupt
 179              		.section	.text.spi_lld_init,"ax",%progbits
 180              		.align	2
 181              		.p2align 4,,15
 182              		.global	spi_lld_init
 183              		.thumb
 184              		.thumb_func
 185              		.type	spi_lld_init, %function
 186              	spi_lld_init:
 187              	.LFB120:
 188              		.loc 1 147 0
 189              		.cfi_startproc
 190              		@ args = 0, pretend = 0, frame = 0
 191              		@ frame_needed = 0, uses_anonymous_args = 0
 192 0000 38B5     		push	{r3, r4, r5, lr}
 193              	.LCFI1:
 194              		.cfi_def_cfa_offset 16
 195              		.cfi_offset 14, -4
 196              		.cfi_offset 5, -8
 197              		.cfi_offset 4, -12
 198              		.cfi_offset 3, -16
 199              		.loc 1 149 0
 200 0002 40F20003 		movw	r3, #:lower16:.LANCHOR0
 201 0006 C0F20003 		movt	r3, #:upper16:.LANCHOR0
 202              		.loc 1 170 0
 203 000a 40F20004 		movw	r4, #:lower16:.LANCHOR1
 204 000e C0F20004 		movt	r4, #:upper16:.LANCHOR1
 205              		.loc 1 149 0
 206 0012 4FF6FF72 		movw	r2, #65535
 207 0016 1A80     		strh	r2, [r3, #0]	@ movhi
 208              		.loc 1 170 0
 209 0018 2046     		mov	r0, r4
 210 001a FFF7FEFF 		bl	spiObjectInit
 211              		.loc 1 172 0
 212 001e 0949     		ldr	r1, .L16
 213              		.loc 1 171 0
 214 0020 4FF46050 		mov	r0, #14336
 215              		.loc 1 174 0
 216 0024 1622     		movs	r2, #22
 217              		.loc 1 180 0
 218 0026 4623     		movs	r3, #70
 219              		.loc 1 171 0
 220 0028 C4F20000 		movt	r0, 16384
 221              		.loc 1 173 0
 222 002c 01F10C05 		add	r5, r1, #12
 223              		.loc 1 174 0
 224 0030 C0F20102 		movt	r2, 1
 225              		.loc 1 180 0
 226 0034 C0F20103 		movt	r3, 1
 227              		.loc 1 171 0
 228 0038 E061     		str	r0, [r4, #28]
ARM GAS  /tmp/cc2xeQSl.s 			page 5


 229              		.loc 1 172 0
 230 003a 2162     		str	r1, [r4, #32]
 231              		.loc 1 173 0
 232 003c 6562     		str	r5, [r4, #36]
 233              		.loc 1 174 0
 234 003e A262     		str	r2, [r4, #40]
 235              		.loc 1 180 0
 236 0040 E362     		str	r3, [r4, #44]
 237              		.loc 1 204 0
 238 0042 38BD     		pop	{r3, r4, r5, pc}
 239              	.L17:
 240              		.align	2
 241              	.L16:
 242 0044 24000000 		.word	_stm32_dma_streams+36
 243              		.cfi_endproc
 244              	.LFE120:
 245              		.size	spi_lld_init, .-spi_lld_init
 246 0048 AFF30080 		.section	.text.spi_lld_start,"ax",%progbits
 246      AFF30080 
 247              		.align	2
 248              		.p2align 4,,15
 249              		.global	spi_lld_start
 250              		.thumb
 251              		.thumb_func
 252              		.type	spi_lld_start, %function
 253              	spi_lld_start:
 254              	.LFB121:
 255              		.loc 1 213 0
 256              		.cfi_startproc
 257              		@ args = 0, pretend = 0, frame = 0
 258              		@ frame_needed = 0, uses_anonymous_args = 0
 259              	.LVL15:
 260              		.loc 1 216 0
 261 0000 0378     		ldrb	r3, [r0, #0]	@ zero_extendqisi2
 262 0002 012B     		cmp	r3, #1
 263              		.loc 1 213 0
 264 0004 10B5     		push	{r4, lr}
 265              	.LCFI2:
 266              		.cfi_def_cfa_offset 8
 267              		.cfi_offset 14, -4
 268              		.cfi_offset 4, -8
 269 0006 18BF     		it	ne
 270 0008 C369     		ldrne	r3, [r0, #28]
 271              		.loc 1 213 0
 272 000a 0446     		mov	r4, r0
 273              		.loc 1 216 0
 274 000c 1ED0     		beq	.L26
 275              	.LVL16:
 276              	.L19:
 277              		.loc 1 272 0
 278 000e 6268     		ldr	r2, [r4, #4]
 279              		.loc 1 277 0
 280 0010 E16A     		ldr	r1, [r4, #44]
 281              		.loc 1 272 0
 282 0012 5289     		ldrh	r2, [r2, #10]
 283              		.loc 1 275 0
 284 0014 A06A     		ldr	r0, [r4, #40]
ARM GAS  /tmp/cc2xeQSl.s 			page 6


 285              		.loc 1 272 0
 286 0016 12F4006F 		tst	r2, #2048
 287              		.loc 1 277 0
 288 001a 21F4F041 		bic	r1, r1, #30720
 289              		.loc 1 284 0
 290 001e 18BF     		it	ne
 291 0020 41F42051 		orrne	r1, r1, #10240
 292              		.loc 1 275 0
 293 0024 20F4F040 		bic	r0, r0, #30720
 294              		.loc 1 283 0
 295 0028 E162     		str	r1, [r4, #44]
 296              		.loc 1 282 0
 297 002a 18BF     		it	ne
 298 002c 40F42050 		orrne	r0, r0, #10240
 299              		.loc 1 288 0
 300 0030 42F44172 		orr	r2, r2, #772
 301              		.loc 1 287 0
 302 0034 0021     		movs	r1, #0
 303              		.loc 1 281 0
 304 0036 A062     		str	r0, [r4, #40]
 305              		.loc 1 287 0
 306 0038 1980     		strh	r1, [r3, #0]	@ movhi
 307              		.loc 1 288 0
 308 003a 1A80     		strh	r2, [r3, #0]	@ movhi
 309              		.loc 1 290 0
 310 003c 0722     		movs	r2, #7
 311 003e 9A80     		strh	r2, [r3, #4]	@ movhi
 312              		.loc 1 291 0
 313 0040 1A88     		ldrh	r2, [r3, #0]
 314 0042 92B2     		uxth	r2, r2
 315 0044 42F04002 		orr	r2, r2, #64
 316 0048 1A80     		strh	r2, [r3, #0]	@ movhi
 317              		.loc 1 292 0
 318 004a 10BD     		pop	{r4, pc}
 319              	.L26:
 320              		.loc 1 234 0
 321 004c 104B     		ldr	r3, .L28
 322 004e 9842     		cmp	r0, r3
 323 0050 09D0     		beq	.L27
 324              	.L20:
 325              		.loc 1 267 0
 326 0052 216A     		ldr	r1, [r4, #32]
 327              		.loc 1 268 0
 328 0054 626A     		ldr	r2, [r4, #36]
 329              		.loc 1 267 0
 330 0056 E369     		ldr	r3, [r4, #28]
 331 0058 0868     		ldr	r0, [r1, #0]
 332              		.loc 1 268 0
 333 005a 1168     		ldr	r1, [r2, #0]
 334              		.loc 1 267 0
 335 005c 03F10C02 		add	r2, r3, #12
 336 0060 8260     		str	r2, [r0, #8]
 337              		.loc 1 268 0
 338 0062 8A60     		str	r2, [r1, #8]
 339 0064 D3E7     		b	.L19
 340              	.L27:
 341              	.LBB5:
ARM GAS  /tmp/cc2xeQSl.s 			page 7


 342              		.loc 1 236 0
 343 0066 0A21     		movs	r1, #10
 344 0068 0A4A     		ldr	r2, .L28+4
 345 006a 006A     		ldr	r0, [r0, #32]
 346 006c 2346     		mov	r3, r4
 347 006e FFF7FEFF 		bl	dmaStreamAllocate
 348              		.loc 1 241 0
 349 0072 094A     		ldr	r2, .L28+8
 350 0074 606A     		ldr	r0, [r4, #36]
 351 0076 2346     		mov	r3, r4
 352 0078 0A21     		movs	r1, #10
 353 007a FFF7FEFF 		bl	dmaStreamAllocate
 354              		.loc 1 246 0
 355 007e 4FF46053 		mov	r3, #14336
 356 0082 C4F20203 		movt	r3, 16386
 357 0086 1A6C     		ldr	r2, [r3, #64]
 358 0088 42F48042 		orr	r2, r2, #16384
 359 008c 1A64     		str	r2, [r3, #64]
 360 008e E0E7     		b	.L20
 361              	.L29:
 362              		.align	2
 363              	.L28:
 364 0090 00000000 		.word	.LANCHOR1
 365 0094 00000000 		.word	spi_lld_serve_rx_interrupt
 366 0098 00000000 		.word	spi_lld_serve_tx_interrupt
 367              	.LBE5:
 368              		.cfi_endproc
 369              	.LFE121:
 370              		.size	spi_lld_start, .-spi_lld_start
 371 009c AFF30080 		.section	.text.spi_lld_stop,"ax",%progbits
 372              		.align	2
 373              		.p2align 4,,15
 374              		.global	spi_lld_stop
 375              		.thumb
 376              		.thumb_func
 377              		.type	spi_lld_stop, %function
 378              	spi_lld_stop:
 379              	.LFB122:
 380              		.loc 1 301 0
 381              		.cfi_startproc
 382              		@ args = 0, pretend = 0, frame = 0
 383              		@ frame_needed = 0, uses_anonymous_args = 0
 384              	.LVL17:
 385              		.loc 1 304 0
 386 0000 0378     		ldrb	r3, [r0, #0]	@ zero_extendqisi2
 387 0002 022B     		cmp	r3, #2
 388              		.loc 1 301 0
 389 0004 10B5     		push	{r4, lr}
 390              	.LCFI3:
 391              		.cfi_def_cfa_offset 8
 392              		.cfi_offset 14, -4
 393              		.cfi_offset 4, -8
 394              		.loc 1 301 0
 395 0006 0446     		mov	r4, r0
 396              		.loc 1 304 0
 397 0008 00D0     		beq	.L32
 398 000a 10BD     		pop	{r4, pc}
ARM GAS  /tmp/cc2xeQSl.s 			page 8


 399              	.L32:
 400              		.loc 1 307 0
 401 000c C369     		ldr	r3, [r0, #28]
 402              		.loc 1 309 0
 403 000e 006A     		ldr	r0, [r0, #32]
 404              	.LVL18:
 405              		.loc 1 307 0
 406 0010 0022     		movs	r2, #0
 407 0012 1A80     		strh	r2, [r3, #0]	@ movhi
 408              		.loc 1 308 0
 409 0014 9A80     		strh	r2, [r3, #4]	@ movhi
 410              		.loc 1 309 0
 411 0016 FFF7FEFF 		bl	dmaStreamRelease
 412              		.loc 1 310 0
 413 001a 606A     		ldr	r0, [r4, #36]
 414 001c FFF7FEFF 		bl	dmaStreamRelease
 415              		.loc 1 317 0
 416 0020 064B     		ldr	r3, .L33
 417 0022 9C42     		cmp	r4, r3
 418              		.loc 1 318 0
 419 0024 01BF     		itttt	eq
 420 0026 4FF46053 		moveq	r3, #14336
 421 002a C4F20203 		movteq	r3, 16386
 422 002e 1A6C     		ldreq	r2, [r3, #64]
 423 0030 22F48042 		biceq	r2, r2, #16384
 424 0034 08BF     		it	eq
 425 0036 1A64     		streq	r2, [r3, #64]
 426 0038 10BD     		pop	{r4, pc}
 427              	.L34:
 428 003a 00BF     		.align	2
 429              	.L33:
 430 003c 00000000 		.word	.LANCHOR1
 431              		.cfi_endproc
 432              	.LFE122:
 433              		.size	spi_lld_stop, .-spi_lld_stop
 434              		.section	.text.spi_lld_select,"ax",%progbits
 435              		.align	2
 436              		.p2align 4,,15
 437              		.global	spi_lld_select
 438              		.thumb
 439              		.thumb_func
 440              		.type	spi_lld_select, %function
 441              	spi_lld_select:
 442              	.LFB123:
 443              		.loc 1 334 0
 444              		.cfi_startproc
 445              		@ args = 0, pretend = 0, frame = 0
 446              		@ frame_needed = 0, uses_anonymous_args = 0
 447              		@ link register save eliminated.
 448              	.LVL19:
 449              		.loc 1 336 0
 450 0000 4368     		ldr	r3, [r0, #4]
 451 0002 1A89     		ldrh	r2, [r3, #8]
 452 0004 5B68     		ldr	r3, [r3, #4]
 453 0006 0121     		movs	r1, #1
 454 0008 11FA02F2 		lsls	r2, r1, r2
 455 000c 92B2     		uxth	r2, r2
ARM GAS  /tmp/cc2xeQSl.s 			page 9


 456 000e 5A83     		strh	r2, [r3, #26]	@ movhi
 457              		.loc 1 337 0
 458 0010 7047     		bx	lr
 459              		.cfi_endproc
 460              	.LFE123:
 461              		.size	spi_lld_select, .-spi_lld_select
 462 0012 00BFAFF3 		.section	.text.spi_lld_unselect,"ax",%progbits
 462      0080AFF3 
 462      0080AFF3 
 462      0080
 463              		.align	2
 464              		.p2align 4,,15
 465              		.global	spi_lld_unselect
 466              		.thumb
 467              		.thumb_func
 468              		.type	spi_lld_unselect, %function
 469              	spi_lld_unselect:
 470              	.LFB124:
 471              		.loc 1 347 0
 472              		.cfi_startproc
 473              		@ args = 0, pretend = 0, frame = 0
 474              		@ frame_needed = 0, uses_anonymous_args = 0
 475              		@ link register save eliminated.
 476              	.LVL20:
 477              		.loc 1 349 0
 478 0000 4368     		ldr	r3, [r0, #4]
 479 0002 1A89     		ldrh	r2, [r3, #8]
 480 0004 5B68     		ldr	r3, [r3, #4]
 481 0006 0121     		movs	r1, #1
 482 0008 11FA02F2 		lsls	r2, r1, r2
 483 000c 92B2     		uxth	r2, r2
 484 000e 1A83     		strh	r2, [r3, #24]	@ movhi
 485              		.loc 1 350 0
 486 0010 7047     		bx	lr
 487              		.cfi_endproc
 488              	.LFE124:
 489              		.size	spi_lld_unselect, .-spi_lld_unselect
 490 0012 00BFAFF3 		.section	.text.spi_lld_ignore,"ax",%progbits
 490      0080AFF3 
 490      0080AFF3 
 490      0080
 491              		.align	2
 492              		.p2align 4,,15
 493              		.global	spi_lld_ignore
 494              		.thumb
 495              		.thumb_func
 496              		.type	spi_lld_ignore, %function
 497              	spi_lld_ignore:
 498              	.LFB125:
 499              		.loc 1 363 0
 500              		.cfi_startproc
 501              		@ args = 0, pretend = 0, frame = 0
 502              		@ frame_needed = 0, uses_anonymous_args = 0
 503              		@ link register save eliminated.
 504              	.LVL21:
 505              		.loc 1 365 0
 506 0000 026A     		ldr	r2, [r0, #32]
ARM GAS  /tmp/cc2xeQSl.s 			page 10


 507              		.loc 1 369 0
 508 0002 436A     		ldr	r3, [r0, #36]
 509              		.loc 1 365 0
 510 0004 1268     		ldr	r2, [r2, #0]
 511              		.loc 1 369 0
 512 0006 1B68     		ldr	r3, [r3, #0]
 513              		.loc 1 363 0
 514 0008 70B4     		push	{r4, r5, r6}
 515              	.LCFI4:
 516              		.cfi_def_cfa_offset 12
 517              		.cfi_offset 6, -4
 518              		.cfi_offset 5, -8
 519              		.cfi_offset 4, -12
 520              		.loc 1 367 0
 521 000a 866A     		ldr	r6, [r0, #40]
 522              		.loc 1 371 0
 523 000c C56A     		ldr	r5, [r0, #44]
 524              		.loc 1 365 0
 525 000e 40F20004 		movw	r4, #:lower16:.LANCHOR2
 526              		.loc 1 369 0
 527 0012 40F20000 		movw	r0, #:lower16:.LANCHOR0
 528              	.LVL22:
 529              		.loc 1 365 0
 530 0016 C0F20004 		movt	r4, #:upper16:.LANCHOR2
 531              		.loc 1 369 0
 532 001a C0F20000 		movt	r0, #:upper16:.LANCHOR0
 533              		.loc 1 365 0
 534 001e D460     		str	r4, [r2, #12]
 535              		.loc 1 366 0
 536 0020 5160     		str	r1, [r2, #4]
 537              		.loc 1 367 0
 538 0022 1660     		str	r6, [r2, #0]
 539              		.loc 1 369 0
 540 0024 D860     		str	r0, [r3, #12]
 541              		.loc 1 370 0
 542 0026 5960     		str	r1, [r3, #4]
 543              		.loc 1 371 0
 544 0028 1D60     		str	r5, [r3, #0]
 545              		.loc 1 373 0
 546 002a 1168     		ldr	r1, [r2, #0]
 547              	.LVL23:
 548 002c 41F00101 		orr	r1, r1, #1
 549 0030 1160     		str	r1, [r2, #0]
 550              		.loc 1 374 0
 551 0032 1A68     		ldr	r2, [r3, #0]
 552              	.LVL24:
 553 0034 42F00102 		orr	r2, r2, #1
 554 0038 1A60     		str	r2, [r3, #0]
 555              		.loc 1 375 0
 556 003a 70BC     		pop	{r4, r5, r6}
 557 003c 7047     		bx	lr
 558              		.cfi_endproc
 559              	.LFE125:
 560              		.size	spi_lld_ignore, .-spi_lld_ignore
 561 003e 00BF     		.section	.text.spi_lld_exchange,"ax",%progbits
 562              		.align	2
 563              		.p2align 4,,15
ARM GAS  /tmp/cc2xeQSl.s 			page 11


 564              		.global	spi_lld_exchange
 565              		.thumb
 566              		.thumb_func
 567              		.type	spi_lld_exchange, %function
 568              	spi_lld_exchange:
 569              	.LFB126:
 570              		.loc 1 393 0
 571              		.cfi_startproc
 572              		@ args = 0, pretend = 0, frame = 0
 573              		@ frame_needed = 0, uses_anonymous_args = 0
 574              		@ link register save eliminated.
 575              	.LVL25:
 576 0000 F0B4     		push	{r4, r5, r6, r7}
 577              	.LCFI5:
 578              		.cfi_def_cfa_offset 16
 579              		.cfi_offset 7, -4
 580              		.cfi_offset 6, -8
 581              		.cfi_offset 5, -12
 582              		.cfi_offset 4, -16
 583              		.loc 1 395 0
 584 0002 046A     		ldr	r4, [r0, #32]
 585              		.loc 1 399 0
 586 0004 476A     		ldr	r7, [r0, #36]
 587              		.loc 1 397 0
 588 0006 866A     		ldr	r6, [r0, #40]
 589              		.loc 1 401 0
 590 0008 C56A     		ldr	r5, [r0, #44]
 591              		.loc 1 395 0
 592 000a 2468     		ldr	r4, [r4, #0]
 593              		.loc 1 399 0
 594 000c 3868     		ldr	r0, [r7, #0]
 595              	.LVL26:
 596              		.loc 1 395 0
 597 000e E360     		str	r3, [r4, #12]
 598              		.loc 1 397 0
 599 0010 46F48066 		orr	r6, r6, #1024
 600              		.loc 1 401 0
 601 0014 45F48065 		orr	r5, r5, #1024
 602              		.loc 1 396 0
 603 0018 6160     		str	r1, [r4, #4]
 604              		.loc 1 397 0
 605 001a 2660     		str	r6, [r4, #0]
 606              		.loc 1 399 0
 607 001c C260     		str	r2, [r0, #12]
 608              		.loc 1 400 0
 609 001e 4160     		str	r1, [r0, #4]
 610              		.loc 1 401 0
 611 0020 0560     		str	r5, [r0, #0]
 612              		.loc 1 403 0
 613 0022 2368     		ldr	r3, [r4, #0]
 614              	.LVL27:
 615 0024 43F00103 		orr	r3, r3, #1
 616 0028 2360     		str	r3, [r4, #0]
 617              		.loc 1 404 0
 618 002a 0368     		ldr	r3, [r0, #0]
 619 002c 43F00103 		orr	r3, r3, #1
 620 0030 0360     		str	r3, [r0, #0]
ARM GAS  /tmp/cc2xeQSl.s 			page 12


 621              		.loc 1 405 0
 622 0032 F0BC     		pop	{r4, r5, r6, r7}
 623 0034 7047     		bx	lr
 624              		.cfi_endproc
 625              	.LFE126:
 626              		.size	spi_lld_exchange, .-spi_lld_exchange
 627 0036 00BFAFF3 		.section	.text.spi_lld_send,"ax",%progbits
 627      0080AFF3 
 627      0080
 628              		.align	2
 629              		.p2align 4,,15
 630              		.global	spi_lld_send
 631              		.thumb
 632              		.thumb_func
 633              		.type	spi_lld_send, %function
 634              	spi_lld_send:
 635              	.LFB127:
 636              		.loc 1 420 0
 637              		.cfi_startproc
 638              		@ args = 0, pretend = 0, frame = 0
 639              		@ frame_needed = 0, uses_anonymous_args = 0
 640              		@ link register save eliminated.
 641              	.LVL28:
 642 0000 70B4     		push	{r4, r5, r6}
 643              	.LCFI6:
 644              		.cfi_def_cfa_offset 12
 645              		.cfi_offset 6, -4
 646              		.cfi_offset 5, -8
 647              		.cfi_offset 4, -12
 648              		.loc 1 426 0
 649 0002 436A     		ldr	r3, [r0, #36]
 650              		.loc 1 422 0
 651 0004 046A     		ldr	r4, [r0, #32]
 652              		.loc 1 428 0
 653 0006 C66A     		ldr	r6, [r0, #44]
 654              		.loc 1 422 0
 655 0008 2468     		ldr	r4, [r4, #0]
 656              		.loc 1 426 0
 657 000a 1B68     		ldr	r3, [r3, #0]
 658              		.loc 1 424 0
 659 000c 806A     		ldr	r0, [r0, #40]
 660              	.LVL29:
 661              		.loc 1 422 0
 662 000e 40F20005 		movw	r5, #:lower16:.LANCHOR2
 663 0012 C0F20005 		movt	r5, #:upper16:.LANCHOR2
 664              		.loc 1 428 0
 665 0016 46F48066 		orr	r6, r6, #1024
 666              		.loc 1 422 0
 667 001a E560     		str	r5, [r4, #12]
 668              		.loc 1 423 0
 669 001c 6160     		str	r1, [r4, #4]
 670              		.loc 1 424 0
 671 001e 2060     		str	r0, [r4, #0]
 672              		.loc 1 426 0
 673 0020 DA60     		str	r2, [r3, #12]
 674              		.loc 1 427 0
 675 0022 5960     		str	r1, [r3, #4]
ARM GAS  /tmp/cc2xeQSl.s 			page 13


 676              		.loc 1 428 0
 677 0024 1E60     		str	r6, [r3, #0]
 678              		.loc 1 430 0
 679 0026 2268     		ldr	r2, [r4, #0]
 680              	.LVL30:
 681 0028 42F00102 		orr	r2, r2, #1
 682 002c 2260     		str	r2, [r4, #0]
 683              		.loc 1 431 0
 684 002e 1A68     		ldr	r2, [r3, #0]
 685 0030 42F00102 		orr	r2, r2, #1
 686 0034 1A60     		str	r2, [r3, #0]
 687              		.loc 1 432 0
 688 0036 70BC     		pop	{r4, r5, r6}
 689 0038 7047     		bx	lr
 690              		.cfi_endproc
 691              	.LFE127:
 692              		.size	spi_lld_send, .-spi_lld_send
 693 003a 00BFAFF3 		.section	.text.spi_lld_receive,"ax",%progbits
 693      0080
 694              		.align	2
 695              		.p2align 4,,15
 696              		.global	spi_lld_receive
 697              		.thumb
 698              		.thumb_func
 699              		.type	spi_lld_receive, %function
 700              	spi_lld_receive:
 701              	.LFB128:
 702              		.loc 1 447 0
 703              		.cfi_startproc
 704              		@ args = 0, pretend = 0, frame = 0
 705              		@ frame_needed = 0, uses_anonymous_args = 0
 706              		@ link register save eliminated.
 707              	.LVL31:
 708 0000 70B4     		push	{r4, r5, r6}
 709              	.LCFI7:
 710              		.cfi_def_cfa_offset 12
 711              		.cfi_offset 6, -4
 712              		.cfi_offset 5, -8
 713              		.cfi_offset 4, -12
 714              		.loc 1 453 0
 715 0002 436A     		ldr	r3, [r0, #36]
 716              		.loc 1 449 0
 717 0004 046A     		ldr	r4, [r0, #32]
 718              		.loc 1 451 0
 719 0006 866A     		ldr	r6, [r0, #40]
 720              		.loc 1 449 0
 721 0008 2468     		ldr	r4, [r4, #0]
 722              		.loc 1 453 0
 723 000a 1B68     		ldr	r3, [r3, #0]
 724              		.loc 1 455 0
 725 000c C06A     		ldr	r0, [r0, #44]
 726              	.LVL32:
 727              		.loc 1 449 0
 728 000e E260     		str	r2, [r4, #12]
 729              		.loc 1 453 0
 730 0010 40F20005 		movw	r5, #:lower16:.LANCHOR0
 731              		.loc 1 451 0
ARM GAS  /tmp/cc2xeQSl.s 			page 14


 732 0014 46F48066 		orr	r6, r6, #1024
 733              		.loc 1 453 0
 734 0018 C0F20005 		movt	r5, #:upper16:.LANCHOR0
 735              		.loc 1 450 0
 736 001c 6160     		str	r1, [r4, #4]
 737              		.loc 1 451 0
 738 001e 2660     		str	r6, [r4, #0]
 739              		.loc 1 453 0
 740 0020 DD60     		str	r5, [r3, #12]
 741              		.loc 1 454 0
 742 0022 5960     		str	r1, [r3, #4]
 743              		.loc 1 455 0
 744 0024 1860     		str	r0, [r3, #0]
 745              		.loc 1 457 0
 746 0026 2268     		ldr	r2, [r4, #0]
 747              	.LVL33:
 748 0028 42F00102 		orr	r2, r2, #1
 749 002c 2260     		str	r2, [r4, #0]
 750              		.loc 1 458 0
 751 002e 1A68     		ldr	r2, [r3, #0]
 752 0030 42F00102 		orr	r2, r2, #1
 753 0034 1A60     		str	r2, [r3, #0]
 754              		.loc 1 459 0
 755 0036 70BC     		pop	{r4, r5, r6}
 756 0038 7047     		bx	lr
 757              		.cfi_endproc
 758              	.LFE128:
 759              		.size	spi_lld_receive, .-spi_lld_receive
 760 003a 00BFAFF3 		.section	.text.spi_lld_polled_exchange,"ax",%progbits
 760      0080
 761              		.align	2
 762              		.p2align 4,,15
 763              		.global	spi_lld_polled_exchange
 764              		.thumb
 765              		.thumb_func
 766              		.type	spi_lld_polled_exchange, %function
 767              	spi_lld_polled_exchange:
 768              	.LFB129:
 769              		.loc 1 473 0
 770              		.cfi_startproc
 771              		@ args = 0, pretend = 0, frame = 0
 772              		@ frame_needed = 0, uses_anonymous_args = 0
 773              		@ link register save eliminated.
 774              	.LVL34:
 775              		.loc 1 475 0
 776 0000 C369     		ldr	r3, [r0, #28]
 777 0002 9981     		strh	r1, [r3, #12]	@ movhi
 778              	.L42:
 779              		.loc 1 476 0 discriminator 1
 780 0004 1A89     		ldrh	r2, [r3, #8]
 781 0006 D207     		lsls	r2, r2, #31
 782 0008 FCD5     		bpl	.L42
 783              		.loc 1 478 0
 784 000a 9889     		ldrh	r0, [r3, #12]
 785              	.LVL35:
 786              		.loc 1 479 0
 787 000c 80B2     		uxth	r0, r0
ARM GAS  /tmp/cc2xeQSl.s 			page 15


 788 000e 7047     		bx	lr
 789              		.cfi_endproc
 790              	.LFE129:
 791              		.size	spi_lld_polled_exchange, .-spi_lld_polled_exchange
 792              		.global	SPID2
 793              		.section	.bss.dummytx,"aw",%nobits
 794              		.align	1
 795              		.set	.LANCHOR0,. + 0
 796              		.type	dummytx, %object
 797              		.size	dummytx, 2
 798              	dummytx:
 799 0000 0000     		.space	2
 800              		.section	.bss.SPID2,"aw",%nobits
 801              		.align	2
 802              		.set	.LANCHOR1,. + 0
 803              		.type	SPID2, %object
 804              		.size	SPID2, 48
 805              	SPID2:
 806 0000 00000000 		.space	48
 806      00000000 
 806      00000000 
 806      00000000 
 806      00000000 
 807              		.section	.bss.dummyrx,"aw",%nobits
 808              		.align	1
 809              		.set	.LANCHOR2,. + 0
 810              		.type	dummyrx, %object
 811              		.size	dummyrx, 2
 812              	dummyrx:
 813 0000 0000     		.space	2
 814              		.text
 815              	.Letext0:
 816              		.file 2 "/opt/paparazzi/arm-multilib/lib/gcc/arm-none-eabi/4.6.2/include/stddef.h"
 817              		.file 3 "/opt/paparazzi/arm-multilib/lib/gcc/arm-none-eabi/4.6.2/../../../../arm-none-eabi/include
 818              		.file 4 "../../os/ports/GCC/ARMCMx/chtypes.h"
 819              		.file 5 "../../os/kernel/include/chlists.h"
 820              		.file 6 "../../os/kernel/include/chthreads.h"
 821              		.file 7 "../../os/ports/GCC/ARMCMx/chcore_v7m.h"
 822              		.file 8 "../../os/kernel/include/chmtx.h"
 823              		.file 9 "../../os/hal/platforms/STM32F4xx/stm32f4xx.h"
 824              		.file 10 "../../os/hal/platforms/STM32F4xx/stm32_dma.h"
 825              		.file 11 "../../os/hal/platforms/STM32/GPIOv2/pal_lld.h"
 826              		.file 12 "../../os/hal/include/spi.h"
 827              		.file 13 "../../os/hal/platforms/STM32/SPIv1/spi_lld.h"
 828              		.file 14 "../../os/ports/common/ARMCMx/CMSIS/include/core_cm4.h"