ARM GAS  /tmp/ccIMeq3I.s 			page 1


   1              		.syntax unified
   2              		.cpu cortex-m4
   3              		.fpu softvfp
   4              		.eabi_attribute 20, 1
   5              		.eabi_attribute 21, 1
   6              		.eabi_attribute 23, 3
   7              		.eabi_attribute 24, 1
   8              		.eabi_attribute 25, 1
   9              		.eabi_attribute 26, 1
  10              		.eabi_attribute 30, 2
  11              		.eabi_attribute 18, 4
  12              		.thumb
  13              		.file	"stm32_dma.c"
  14              		.text
  15              	.Ltext0:
  16              		.cfi_sections	.debug_frame
  17              		.section	.text.Vector6C,"ax",%progbits
  18              		.align	2
  19              		.p2align 4,,15
  20              		.global	Vector6C
  21              		.thumb
  22              		.thumb_func
  23              		.type	Vector6C, %function
  24              	Vector6C:
  25              	.LFB118:
  26              		.file 1 "../../os/hal/platforms/STM32F4xx/stm32_dma.c"
  27              		.loc 1 128 0
  28              		.cfi_startproc
  29              		@ args = 0, pretend = 0, frame = 0
  30              		@ frame_needed = 0, uses_anonymous_args = 0
  31              		.loc 1 135 0
  32 0000 0848     		ldr	r0, .L4
  33              		.loc 1 133 0
  34 0002 4FF4C042 		mov	r2, #24576
  35 0006 C4F20202 		movt	r2, 16386
  36              		.loc 1 135 0
  37 000a 0368     		ldr	r3, [r0, #0]
  38              		.loc 1 133 0
  39 000c 1168     		ldr	r1, [r2, #0]
  40              	.LVL0:
  41              		.loc 1 128 0
  42 000e 10B5     		push	{r4, lr}
  43              	.LCFI0:
  44              		.cfi_def_cfa_offset 8
  45              		.cfi_offset 14, -4
  46              		.cfi_offset 4, -8
  47              		.loc 1 134 0
  48 0010 3D24     		movs	r4, #61
  49 0012 9460     		str	r4, [r2, #8]
  50              		.loc 1 135 0
  51 0014 13B1     		cbz	r3, .L2
  52              		.loc 1 136 0
  53 0016 4068     		ldr	r0, [r0, #4]
  54 0018 2140     		ands	r1, r1, r4
  55              	.LVL1:
  56 001a 9847     		blx	r3
  57              	.LVL2:
ARM GAS  /tmp/ccIMeq3I.s 			page 2


  58              	.L2:
  59              		.loc 1 139 0
  60 001c BDE81040 		pop	{r4, lr}
  61              		.loc 1 138 0
  62 0020 FFF7FEBF 		b	_port_irq_epilogue
  63              	.L5:
  64              		.align	2
  65              	.L4:
  66 0024 00000000 		.word	.LANCHOR0
  67              		.cfi_endproc
  68              	.LFE118:
  69              		.size	Vector6C, .-Vector6C
  70 0028 AFF30080 		.section	.text.Vector70,"ax",%progbits
  70      AFF30080 
  71              		.align	2
  72              		.p2align 4,,15
  73              		.global	Vector70
  74              		.thumb
  75              		.thumb_func
  76              		.type	Vector70, %function
  77              	Vector70:
  78              	.LFB119:
  79              		.loc 1 146 0
  80              		.cfi_startproc
  81              		@ args = 0, pretend = 0, frame = 0
  82              		@ frame_needed = 0, uses_anonymous_args = 0
  83              		.loc 1 153 0
  84 0000 0A48     		ldr	r0, .L8
  85              		.loc 1 151 0
  86 0002 4FF4C042 		mov	r2, #24576
  87 0006 C4F20202 		movt	r2, 16386
  88              		.loc 1 153 0
  89 000a 8368     		ldr	r3, [r0, #8]
  90              		.loc 1 151 0
  91 000c 1168     		ldr	r1, [r2, #0]
  92              	.LVL3:
  93              		.loc 1 146 0
  94 000e 10B5     		push	{r4, lr}
  95              	.LCFI1:
  96              		.cfi_def_cfa_offset 8
  97              		.cfi_offset 14, -4
  98              		.cfi_offset 4, -8
  99              		.loc 1 152 0
 100 0010 4FF47464 		mov	r4, #3904
 101 0014 9460     		str	r4, [r2, #8]
 102              		.loc 1 153 0
 103 0016 23B1     		cbz	r3, .L7
 104              		.loc 1 151 0
 105 0018 8909     		lsrs	r1, r1, #6
 106              	.LVL4:
 107              		.loc 1 154 0
 108 001a C068     		ldr	r0, [r0, #12]
 109 001c 01F03D01 		and	r1, r1, #61
 110              	.LVL5:
 111 0020 9847     		blx	r3
 112              	.L7:
 113              		.loc 1 157 0
ARM GAS  /tmp/ccIMeq3I.s 			page 3


 114 0022 BDE81040 		pop	{r4, lr}
 115              		.loc 1 156 0
 116 0026 FFF7FEBF 		b	_port_irq_epilogue
 117              	.L9:
 118 002a 00BF     		.align	2
 119              	.L8:
 120 002c 00000000 		.word	.LANCHOR0
 121              		.cfi_endproc
 122              	.LFE119:
 123              		.size	Vector70, .-Vector70
 124              		.section	.text.Vector74,"ax",%progbits
 125              		.align	2
 126              		.p2align 4,,15
 127              		.global	Vector74
 128              		.thumb
 129              		.thumb_func
 130              		.type	Vector74, %function
 131              	Vector74:
 132              	.LFB120:
 133              		.loc 1 164 0
 134              		.cfi_startproc
 135              		@ args = 0, pretend = 0, frame = 0
 136              		@ frame_needed = 0, uses_anonymous_args = 0
 137              		.loc 1 171 0
 138 0000 0A48     		ldr	r0, .L12
 139              		.loc 1 169 0
 140 0002 4FF4C042 		mov	r2, #24576
 141 0006 C4F20202 		movt	r2, 16386
 142              		.loc 1 171 0
 143 000a 0369     		ldr	r3, [r0, #16]
 144              		.loc 1 169 0
 145 000c 1168     		ldr	r1, [r2, #0]
 146              	.LVL6:
 147              		.loc 1 164 0
 148 000e 10B5     		push	{r4, lr}
 149              	.LCFI2:
 150              		.cfi_def_cfa_offset 8
 151              		.cfi_offset 14, -4
 152              		.cfi_offset 4, -8
 153              		.loc 1 170 0
 154 0010 4FF47414 		mov	r4, #3997696
 155 0014 9460     		str	r4, [r2, #8]
 156              		.loc 1 171 0
 157 0016 23B1     		cbz	r3, .L11
 158              		.loc 1 169 0
 159 0018 090C     		lsrs	r1, r1, #16
 160              	.LVL7:
 161              		.loc 1 172 0
 162 001a 4069     		ldr	r0, [r0, #20]
 163 001c 01F03D01 		and	r1, r1, #61
 164              	.LVL8:
 165 0020 9847     		blx	r3
 166              	.L11:
 167              		.loc 1 175 0
 168 0022 BDE81040 		pop	{r4, lr}
 169              		.loc 1 174 0
 170 0026 FFF7FEBF 		b	_port_irq_epilogue
ARM GAS  /tmp/ccIMeq3I.s 			page 4


 171              	.L13:
 172 002a 00BF     		.align	2
 173              	.L12:
 174 002c 00000000 		.word	.LANCHOR0
 175              		.cfi_endproc
 176              	.LFE120:
 177              		.size	Vector74, .-Vector74
 178              		.section	.text.Vector78,"ax",%progbits
 179              		.align	2
 180              		.p2align 4,,15
 181              		.global	Vector78
 182              		.thumb
 183              		.thumb_func
 184              		.type	Vector78, %function
 185              	Vector78:
 186              	.LFB121:
 187              		.loc 1 182 0
 188              		.cfi_startproc
 189              		@ args = 0, pretend = 0, frame = 0
 190              		@ frame_needed = 0, uses_anonymous_args = 0
 191              		.loc 1 189 0
 192 0000 0A48     		ldr	r0, .L16
 193              		.loc 1 187 0
 194 0002 4FF4C042 		mov	r2, #24576
 195 0006 C4F20202 		movt	r2, 16386
 196              		.loc 1 189 0
 197 000a 8369     		ldr	r3, [r0, #24]
 198              		.loc 1 187 0
 199 000c 1168     		ldr	r1, [r2, #0]
 200              	.LVL9:
 201              		.loc 1 182 0
 202 000e 10B5     		push	{r4, lr}
 203              	.LCFI3:
 204              		.cfi_def_cfa_offset 8
 205              		.cfi_offset 14, -4
 206              		.cfi_offset 4, -8
 207              		.loc 1 188 0
 208 0010 4FF07464 		mov	r4, #255852544
 209 0014 9460     		str	r4, [r2, #8]
 210              		.loc 1 189 0
 211 0016 23B1     		cbz	r3, .L15
 212              		.loc 1 187 0
 213 0018 890D     		lsrs	r1, r1, #22
 214              	.LVL10:
 215              		.loc 1 190 0
 216 001a C069     		ldr	r0, [r0, #28]
 217 001c 01F03D01 		and	r1, r1, #61
 218              	.LVL11:
 219 0020 9847     		blx	r3
 220              	.L15:
 221              		.loc 1 193 0
 222 0022 BDE81040 		pop	{r4, lr}
 223              		.loc 1 192 0
 224 0026 FFF7FEBF 		b	_port_irq_epilogue
 225              	.L17:
 226 002a 00BF     		.align	2
 227              	.L16:
ARM GAS  /tmp/ccIMeq3I.s 			page 5


 228 002c 00000000 		.word	.LANCHOR0
 229              		.cfi_endproc
 230              	.LFE121:
 231              		.size	Vector78, .-Vector78
 232              		.section	.text.Vector7C,"ax",%progbits
 233              		.align	2
 234              		.p2align 4,,15
 235              		.global	Vector7C
 236              		.thumb
 237              		.thumb_func
 238              		.type	Vector7C, %function
 239              	Vector7C:
 240              	.LFB122:
 241              		.loc 1 200 0
 242              		.cfi_startproc
 243              		@ args = 0, pretend = 0, frame = 0
 244              		@ frame_needed = 0, uses_anonymous_args = 0
 245              		.loc 1 207 0
 246 0000 0848     		ldr	r0, .L20
 247              		.loc 1 205 0
 248 0002 4FF4C042 		mov	r2, #24576
 249 0006 C4F20202 		movt	r2, 16386
 250              		.loc 1 207 0
 251 000a 036A     		ldr	r3, [r0, #32]
 252              		.loc 1 205 0
 253 000c 5168     		ldr	r1, [r2, #4]
 254              	.LVL12:
 255              		.loc 1 200 0
 256 000e 10B5     		push	{r4, lr}
 257              	.LCFI4:
 258              		.cfi_def_cfa_offset 8
 259              		.cfi_offset 14, -4
 260              		.cfi_offset 4, -8
 261              		.loc 1 206 0
 262 0010 3D24     		movs	r4, #61
 263 0012 D460     		str	r4, [r2, #12]
 264              		.loc 1 207 0
 265 0014 13B1     		cbz	r3, .L19
 266              		.loc 1 208 0
 267 0016 406A     		ldr	r0, [r0, #36]
 268 0018 2140     		ands	r1, r1, r4
 269              	.LVL13:
 270 001a 9847     		blx	r3
 271              	.LVL14:
 272              	.L19:
 273              		.loc 1 211 0
 274 001c BDE81040 		pop	{r4, lr}
 275              		.loc 1 210 0
 276 0020 FFF7FEBF 		b	_port_irq_epilogue
 277              	.L21:
 278              		.align	2
 279              	.L20:
 280 0024 00000000 		.word	.LANCHOR0
 281              		.cfi_endproc
 282              	.LFE122:
 283              		.size	Vector7C, .-Vector7C
 284 0028 AFF30080 		.section	.text.Vector80,"ax",%progbits
ARM GAS  /tmp/ccIMeq3I.s 			page 6


 284      AFF30080 
 285              		.align	2
 286              		.p2align 4,,15
 287              		.global	Vector80
 288              		.thumb
 289              		.thumb_func
 290              		.type	Vector80, %function
 291              	Vector80:
 292              	.LFB123:
 293              		.loc 1 218 0
 294              		.cfi_startproc
 295              		@ args = 0, pretend = 0, frame = 0
 296              		@ frame_needed = 0, uses_anonymous_args = 0
 297              		.loc 1 225 0
 298 0000 0A48     		ldr	r0, .L24
 299              		.loc 1 223 0
 300 0002 4FF4C042 		mov	r2, #24576
 301 0006 C4F20202 		movt	r2, 16386
 302              		.loc 1 225 0
 303 000a 836A     		ldr	r3, [r0, #40]
 304              		.loc 1 223 0
 305 000c 5168     		ldr	r1, [r2, #4]
 306              	.LVL15:
 307              		.loc 1 218 0
 308 000e 10B5     		push	{r4, lr}
 309              	.LCFI5:
 310              		.cfi_def_cfa_offset 8
 311              		.cfi_offset 14, -4
 312              		.cfi_offset 4, -8
 313              		.loc 1 224 0
 314 0010 4FF47464 		mov	r4, #3904
 315 0014 D460     		str	r4, [r2, #12]
 316              		.loc 1 225 0
 317 0016 23B1     		cbz	r3, .L23
 318              		.loc 1 223 0
 319 0018 8909     		lsrs	r1, r1, #6
 320              	.LVL16:
 321              		.loc 1 226 0
 322 001a C06A     		ldr	r0, [r0, #44]
 323 001c 01F03D01 		and	r1, r1, #61
 324              	.LVL17:
 325 0020 9847     		blx	r3
 326              	.L23:
 327              		.loc 1 229 0
 328 0022 BDE81040 		pop	{r4, lr}
 329              		.loc 1 228 0
 330 0026 FFF7FEBF 		b	_port_irq_epilogue
 331              	.L25:
 332 002a 00BF     		.align	2
 333              	.L24:
 334 002c 00000000 		.word	.LANCHOR0
 335              		.cfi_endproc
 336              	.LFE123:
 337              		.size	Vector80, .-Vector80
 338              		.section	.text.Vector84,"ax",%progbits
 339              		.align	2
 340              		.p2align 4,,15
ARM GAS  /tmp/ccIMeq3I.s 			page 7


 341              		.global	Vector84
 342              		.thumb
 343              		.thumb_func
 344              		.type	Vector84, %function
 345              	Vector84:
 346              	.LFB124:
 347              		.loc 1 236 0
 348              		.cfi_startproc
 349              		@ args = 0, pretend = 0, frame = 0
 350              		@ frame_needed = 0, uses_anonymous_args = 0
 351              		.loc 1 243 0
 352 0000 0A48     		ldr	r0, .L28
 353              		.loc 1 241 0
 354 0002 4FF4C042 		mov	r2, #24576
 355 0006 C4F20202 		movt	r2, 16386
 356              		.loc 1 243 0
 357 000a 036B     		ldr	r3, [r0, #48]
 358              		.loc 1 241 0
 359 000c 5168     		ldr	r1, [r2, #4]
 360              	.LVL18:
 361              		.loc 1 236 0
 362 000e 10B5     		push	{r4, lr}
 363              	.LCFI6:
 364              		.cfi_def_cfa_offset 8
 365              		.cfi_offset 14, -4
 366              		.cfi_offset 4, -8
 367              		.loc 1 242 0
 368 0010 4FF47414 		mov	r4, #3997696
 369 0014 D460     		str	r4, [r2, #12]
 370              		.loc 1 243 0
 371 0016 23B1     		cbz	r3, .L27
 372              		.loc 1 241 0
 373 0018 090C     		lsrs	r1, r1, #16
 374              	.LVL19:
 375              		.loc 1 244 0
 376 001a 406B     		ldr	r0, [r0, #52]
 377 001c 01F03D01 		and	r1, r1, #61
 378              	.LVL20:
 379 0020 9847     		blx	r3
 380              	.L27:
 381              		.loc 1 247 0
 382 0022 BDE81040 		pop	{r4, lr}
 383              		.loc 1 246 0
 384 0026 FFF7FEBF 		b	_port_irq_epilogue
 385              	.L29:
 386 002a 00BF     		.align	2
 387              	.L28:
 388 002c 00000000 		.word	.LANCHOR0
 389              		.cfi_endproc
 390              	.LFE124:
 391              		.size	Vector84, .-Vector84
 392              		.section	.text.VectorFC,"ax",%progbits
 393              		.align	2
 394              		.p2align 4,,15
 395              		.global	VectorFC
 396              		.thumb
 397              		.thumb_func
ARM GAS  /tmp/ccIMeq3I.s 			page 8


 398              		.type	VectorFC, %function
 399              	VectorFC:
 400              	.LFB125:
 401              		.loc 1 254 0
 402              		.cfi_startproc
 403              		@ args = 0, pretend = 0, frame = 0
 404              		@ frame_needed = 0, uses_anonymous_args = 0
 405              		.loc 1 261 0
 406 0000 0A48     		ldr	r0, .L32
 407              		.loc 1 259 0
 408 0002 4FF4C042 		mov	r2, #24576
 409 0006 C4F20202 		movt	r2, 16386
 410              		.loc 1 261 0
 411 000a 836B     		ldr	r3, [r0, #56]
 412              		.loc 1 259 0
 413 000c 5168     		ldr	r1, [r2, #4]
 414              	.LVL21:
 415              		.loc 1 254 0
 416 000e 10B5     		push	{r4, lr}
 417              	.LCFI7:
 418              		.cfi_def_cfa_offset 8
 419              		.cfi_offset 14, -4
 420              		.cfi_offset 4, -8
 421              		.loc 1 260 0
 422 0010 4FF07464 		mov	r4, #255852544
 423 0014 D460     		str	r4, [r2, #12]
 424              		.loc 1 261 0
 425 0016 23B1     		cbz	r3, .L31
 426              		.loc 1 259 0
 427 0018 890D     		lsrs	r1, r1, #22
 428              	.LVL22:
 429              		.loc 1 262 0
 430 001a C06B     		ldr	r0, [r0, #60]
 431 001c 01F03D01 		and	r1, r1, #61
 432              	.LVL23:
 433 0020 9847     		blx	r3
 434              	.L31:
 435              		.loc 1 265 0
 436 0022 BDE81040 		pop	{r4, lr}
 437              		.loc 1 264 0
 438 0026 FFF7FEBF 		b	_port_irq_epilogue
 439              	.L33:
 440 002a 00BF     		.align	2
 441              	.L32:
 442 002c 00000000 		.word	.LANCHOR0
 443              		.cfi_endproc
 444              	.LFE125:
 445              		.size	VectorFC, .-VectorFC
 446              		.section	.text.Vector120,"ax",%progbits
 447              		.align	2
 448              		.p2align 4,,15
 449              		.global	Vector120
 450              		.thumb
 451              		.thumb_func
 452              		.type	Vector120, %function
 453              	Vector120:
 454              	.LFB126:
ARM GAS  /tmp/ccIMeq3I.s 			page 9


 455              		.loc 1 272 0
 456              		.cfi_startproc
 457              		@ args = 0, pretend = 0, frame = 0
 458              		@ frame_needed = 0, uses_anonymous_args = 0
 459              		.loc 1 279 0
 460 0000 0848     		ldr	r0, .L36
 461              		.loc 1 277 0
 462 0002 4FF4C842 		mov	r2, #25600
 463 0006 C4F20202 		movt	r2, 16386
 464              		.loc 1 279 0
 465 000a 036C     		ldr	r3, [r0, #64]
 466              		.loc 1 277 0
 467 000c 1168     		ldr	r1, [r2, #0]
 468              	.LVL24:
 469              		.loc 1 272 0
 470 000e 10B5     		push	{r4, lr}
 471              	.LCFI8:
 472              		.cfi_def_cfa_offset 8
 473              		.cfi_offset 14, -4
 474              		.cfi_offset 4, -8
 475              		.loc 1 278 0
 476 0010 3D24     		movs	r4, #61
 477 0012 9460     		str	r4, [r2, #8]
 478              		.loc 1 279 0
 479 0014 13B1     		cbz	r3, .L35
 480              		.loc 1 280 0
 481 0016 406C     		ldr	r0, [r0, #68]
 482 0018 2140     		ands	r1, r1, r4
 483              	.LVL25:
 484 001a 9847     		blx	r3
 485              	.LVL26:
 486              	.L35:
 487              		.loc 1 283 0
 488 001c BDE81040 		pop	{r4, lr}
 489              		.loc 1 282 0
 490 0020 FFF7FEBF 		b	_port_irq_epilogue
 491              	.L37:
 492              		.align	2
 493              	.L36:
 494 0024 00000000 		.word	.LANCHOR0
 495              		.cfi_endproc
 496              	.LFE126:
 497              		.size	Vector120, .-Vector120
 498 0028 AFF30080 		.section	.text.Vector124,"ax",%progbits
 498      AFF30080 
 499              		.align	2
 500              		.p2align 4,,15
 501              		.global	Vector124
 502              		.thumb
 503              		.thumb_func
 504              		.type	Vector124, %function
 505              	Vector124:
 506              	.LFB127:
 507              		.loc 1 290 0
 508              		.cfi_startproc
 509              		@ args = 0, pretend = 0, frame = 0
 510              		@ frame_needed = 0, uses_anonymous_args = 0
ARM GAS  /tmp/ccIMeq3I.s 			page 10


 511              		.loc 1 297 0
 512 0000 0A48     		ldr	r0, .L40
 513              		.loc 1 295 0
 514 0002 4FF4C842 		mov	r2, #25600
 515 0006 C4F20202 		movt	r2, 16386
 516              		.loc 1 297 0
 517 000a 836C     		ldr	r3, [r0, #72]
 518              		.loc 1 295 0
 519 000c 1168     		ldr	r1, [r2, #0]
 520              	.LVL27:
 521              		.loc 1 290 0
 522 000e 10B5     		push	{r4, lr}
 523              	.LCFI9:
 524              		.cfi_def_cfa_offset 8
 525              		.cfi_offset 14, -4
 526              		.cfi_offset 4, -8
 527              		.loc 1 296 0
 528 0010 4FF47464 		mov	r4, #3904
 529 0014 9460     		str	r4, [r2, #8]
 530              		.loc 1 297 0
 531 0016 23B1     		cbz	r3, .L39
 532              		.loc 1 295 0
 533 0018 8909     		lsrs	r1, r1, #6
 534              	.LVL28:
 535              		.loc 1 298 0
 536 001a C06C     		ldr	r0, [r0, #76]
 537 001c 01F03D01 		and	r1, r1, #61
 538              	.LVL29:
 539 0020 9847     		blx	r3
 540              	.L39:
 541              		.loc 1 301 0
 542 0022 BDE81040 		pop	{r4, lr}
 543              		.loc 1 300 0
 544 0026 FFF7FEBF 		b	_port_irq_epilogue
 545              	.L41:
 546 002a 00BF     		.align	2
 547              	.L40:
 548 002c 00000000 		.word	.LANCHOR0
 549              		.cfi_endproc
 550              	.LFE127:
 551              		.size	Vector124, .-Vector124
 552              		.section	.text.Vector128,"ax",%progbits
 553              		.align	2
 554              		.p2align 4,,15
 555              		.global	Vector128
 556              		.thumb
 557              		.thumb_func
 558              		.type	Vector128, %function
 559              	Vector128:
 560              	.LFB128:
 561              		.loc 1 308 0
 562              		.cfi_startproc
 563              		@ args = 0, pretend = 0, frame = 0
 564              		@ frame_needed = 0, uses_anonymous_args = 0
 565              		.loc 1 315 0
 566 0000 0A48     		ldr	r0, .L44
 567              		.loc 1 313 0
ARM GAS  /tmp/ccIMeq3I.s 			page 11


 568 0002 4FF4C842 		mov	r2, #25600
 569 0006 C4F20202 		movt	r2, 16386
 570              		.loc 1 315 0
 571 000a 036D     		ldr	r3, [r0, #80]
 572              		.loc 1 313 0
 573 000c 1168     		ldr	r1, [r2, #0]
 574              	.LVL30:
 575              		.loc 1 308 0
 576 000e 10B5     		push	{r4, lr}
 577              	.LCFI10:
 578              		.cfi_def_cfa_offset 8
 579              		.cfi_offset 14, -4
 580              		.cfi_offset 4, -8
 581              		.loc 1 314 0
 582 0010 4FF47414 		mov	r4, #3997696
 583 0014 9460     		str	r4, [r2, #8]
 584              		.loc 1 315 0
 585 0016 23B1     		cbz	r3, .L43
 586              		.loc 1 313 0
 587 0018 090C     		lsrs	r1, r1, #16
 588              	.LVL31:
 589              		.loc 1 316 0
 590 001a 406D     		ldr	r0, [r0, #84]
 591 001c 01F03D01 		and	r1, r1, #61
 592              	.LVL32:
 593 0020 9847     		blx	r3
 594              	.L43:
 595              		.loc 1 319 0
 596 0022 BDE81040 		pop	{r4, lr}
 597              		.loc 1 318 0
 598 0026 FFF7FEBF 		b	_port_irq_epilogue
 599              	.L45:
 600 002a 00BF     		.align	2
 601              	.L44:
 602 002c 00000000 		.word	.LANCHOR0
 603              		.cfi_endproc
 604              	.LFE128:
 605              		.size	Vector128, .-Vector128
 606              		.section	.text.Vector12C,"ax",%progbits
 607              		.align	2
 608              		.p2align 4,,15
 609              		.global	Vector12C
 610              		.thumb
 611              		.thumb_func
 612              		.type	Vector12C, %function
 613              	Vector12C:
 614              	.LFB129:
 615              		.loc 1 326 0
 616              		.cfi_startproc
 617              		@ args = 0, pretend = 0, frame = 0
 618              		@ frame_needed = 0, uses_anonymous_args = 0
 619              		.loc 1 333 0
 620 0000 0A48     		ldr	r0, .L48
 621              		.loc 1 331 0
 622 0002 4FF4C842 		mov	r2, #25600
 623 0006 C4F20202 		movt	r2, 16386
 624              		.loc 1 333 0
ARM GAS  /tmp/ccIMeq3I.s 			page 12


 625 000a 836D     		ldr	r3, [r0, #88]
 626              		.loc 1 331 0
 627 000c 1168     		ldr	r1, [r2, #0]
 628              	.LVL33:
 629              		.loc 1 326 0
 630 000e 10B5     		push	{r4, lr}
 631              	.LCFI11:
 632              		.cfi_def_cfa_offset 8
 633              		.cfi_offset 14, -4
 634              		.cfi_offset 4, -8
 635              		.loc 1 332 0
 636 0010 4FF07464 		mov	r4, #255852544
 637 0014 9460     		str	r4, [r2, #8]
 638              		.loc 1 333 0
 639 0016 23B1     		cbz	r3, .L47
 640              		.loc 1 331 0
 641 0018 890D     		lsrs	r1, r1, #22
 642              	.LVL34:
 643              		.loc 1 334 0
 644 001a C06D     		ldr	r0, [r0, #92]
 645 001c 01F03D01 		and	r1, r1, #61
 646              	.LVL35:
 647 0020 9847     		blx	r3
 648              	.L47:
 649              		.loc 1 337 0
 650 0022 BDE81040 		pop	{r4, lr}
 651              		.loc 1 336 0
 652 0026 FFF7FEBF 		b	_port_irq_epilogue
 653              	.L49:
 654 002a 00BF     		.align	2
 655              	.L48:
 656 002c 00000000 		.word	.LANCHOR0
 657              		.cfi_endproc
 658              	.LFE129:
 659              		.size	Vector12C, .-Vector12C
 660              		.section	.text.Vector130,"ax",%progbits
 661              		.align	2
 662              		.p2align 4,,15
 663              		.global	Vector130
 664              		.thumb
 665              		.thumb_func
 666              		.type	Vector130, %function
 667              	Vector130:
 668              	.LFB130:
 669              		.loc 1 344 0
 670              		.cfi_startproc
 671              		@ args = 0, pretend = 0, frame = 0
 672              		@ frame_needed = 0, uses_anonymous_args = 0
 673              		.loc 1 351 0
 674 0000 0848     		ldr	r0, .L52
 675              		.loc 1 349 0
 676 0002 4FF4C842 		mov	r2, #25600
 677 0006 C4F20202 		movt	r2, 16386
 678              		.loc 1 351 0
 679 000a 036E     		ldr	r3, [r0, #96]
 680              		.loc 1 349 0
 681 000c 5168     		ldr	r1, [r2, #4]
ARM GAS  /tmp/ccIMeq3I.s 			page 13


 682              	.LVL36:
 683              		.loc 1 344 0
 684 000e 10B5     		push	{r4, lr}
 685              	.LCFI12:
 686              		.cfi_def_cfa_offset 8
 687              		.cfi_offset 14, -4
 688              		.cfi_offset 4, -8
 689              		.loc 1 350 0
 690 0010 3D24     		movs	r4, #61
 691 0012 D460     		str	r4, [r2, #12]
 692              		.loc 1 351 0
 693 0014 13B1     		cbz	r3, .L51
 694              		.loc 1 352 0
 695 0016 406E     		ldr	r0, [r0, #100]
 696 0018 2140     		ands	r1, r1, r4
 697              	.LVL37:
 698 001a 9847     		blx	r3
 699              	.LVL38:
 700              	.L51:
 701              		.loc 1 355 0
 702 001c BDE81040 		pop	{r4, lr}
 703              		.loc 1 354 0
 704 0020 FFF7FEBF 		b	_port_irq_epilogue
 705              	.L53:
 706              		.align	2
 707              	.L52:
 708 0024 00000000 		.word	.LANCHOR0
 709              		.cfi_endproc
 710              	.LFE130:
 711              		.size	Vector130, .-Vector130
 712 0028 AFF30080 		.section	.text.Vector150,"ax",%progbits
 712      AFF30080 
 713              		.align	2
 714              		.p2align 4,,15
 715              		.global	Vector150
 716              		.thumb
 717              		.thumb_func
 718              		.type	Vector150, %function
 719              	Vector150:
 720              	.LFB131:
 721              		.loc 1 362 0
 722              		.cfi_startproc
 723              		@ args = 0, pretend = 0, frame = 0
 724              		@ frame_needed = 0, uses_anonymous_args = 0
 725              		.loc 1 369 0
 726 0000 0A48     		ldr	r0, .L56
 727              		.loc 1 367 0
 728 0002 4FF4C842 		mov	r2, #25600
 729 0006 C4F20202 		movt	r2, 16386
 730              		.loc 1 369 0
 731 000a 836E     		ldr	r3, [r0, #104]
 732              		.loc 1 367 0
 733 000c 5168     		ldr	r1, [r2, #4]
 734              	.LVL39:
 735              		.loc 1 362 0
 736 000e 10B5     		push	{r4, lr}
 737              	.LCFI13:
ARM GAS  /tmp/ccIMeq3I.s 			page 14


 738              		.cfi_def_cfa_offset 8
 739              		.cfi_offset 14, -4
 740              		.cfi_offset 4, -8
 741              		.loc 1 368 0
 742 0010 4FF47464 		mov	r4, #3904
 743 0014 D460     		str	r4, [r2, #12]
 744              		.loc 1 369 0
 745 0016 23B1     		cbz	r3, .L55
 746              		.loc 1 367 0
 747 0018 8909     		lsrs	r1, r1, #6
 748              	.LVL40:
 749              		.loc 1 370 0
 750 001a C06E     		ldr	r0, [r0, #108]
 751 001c 01F03D01 		and	r1, r1, #61
 752              	.LVL41:
 753 0020 9847     		blx	r3
 754              	.L55:
 755              		.loc 1 373 0
 756 0022 BDE81040 		pop	{r4, lr}
 757              		.loc 1 372 0
 758 0026 FFF7FEBF 		b	_port_irq_epilogue
 759              	.L57:
 760 002a 00BF     		.align	2
 761              	.L56:
 762 002c 00000000 		.word	.LANCHOR0
 763              		.cfi_endproc
 764              	.LFE131:
 765              		.size	Vector150, .-Vector150
 766              		.section	.text.Vector154,"ax",%progbits
 767              		.align	2
 768              		.p2align 4,,15
 769              		.global	Vector154
 770              		.thumb
 771              		.thumb_func
 772              		.type	Vector154, %function
 773              	Vector154:
 774              	.LFB132:
 775              		.loc 1 380 0
 776              		.cfi_startproc
 777              		@ args = 0, pretend = 0, frame = 0
 778              		@ frame_needed = 0, uses_anonymous_args = 0
 779              		.loc 1 387 0
 780 0000 0A48     		ldr	r0, .L60
 781              		.loc 1 385 0
 782 0002 4FF4C842 		mov	r2, #25600
 783 0006 C4F20202 		movt	r2, 16386
 784              		.loc 1 387 0
 785 000a 036F     		ldr	r3, [r0, #112]
 786              		.loc 1 385 0
 787 000c 5168     		ldr	r1, [r2, #4]
 788              	.LVL42:
 789              		.loc 1 380 0
 790 000e 10B5     		push	{r4, lr}
 791              	.LCFI14:
 792              		.cfi_def_cfa_offset 8
 793              		.cfi_offset 14, -4
 794              		.cfi_offset 4, -8
ARM GAS  /tmp/ccIMeq3I.s 			page 15


 795              		.loc 1 386 0
 796 0010 4FF47414 		mov	r4, #3997696
 797 0014 D460     		str	r4, [r2, #12]
 798              		.loc 1 387 0
 799 0016 23B1     		cbz	r3, .L59
 800              		.loc 1 385 0
 801 0018 090C     		lsrs	r1, r1, #16
 802              	.LVL43:
 803              		.loc 1 388 0
 804 001a 406F     		ldr	r0, [r0, #116]
 805 001c 01F03D01 		and	r1, r1, #61
 806              	.LVL44:
 807 0020 9847     		blx	r3
 808              	.L59:
 809              		.loc 1 391 0
 810 0022 BDE81040 		pop	{r4, lr}
 811              		.loc 1 390 0
 812 0026 FFF7FEBF 		b	_port_irq_epilogue
 813              	.L61:
 814 002a 00BF     		.align	2
 815              	.L60:
 816 002c 00000000 		.word	.LANCHOR0
 817              		.cfi_endproc
 818              	.LFE132:
 819              		.size	Vector154, .-Vector154
 820              		.section	.text.Vector158,"ax",%progbits
 821              		.align	2
 822              		.p2align 4,,15
 823              		.global	Vector158
 824              		.thumb
 825              		.thumb_func
 826              		.type	Vector158, %function
 827              	Vector158:
 828              	.LFB133:
 829              		.loc 1 398 0
 830              		.cfi_startproc
 831              		@ args = 0, pretend = 0, frame = 0
 832              		@ frame_needed = 0, uses_anonymous_args = 0
 833              		.loc 1 405 0
 834 0000 0A48     		ldr	r0, .L64
 835              		.loc 1 403 0
 836 0002 4FF4C842 		mov	r2, #25600
 837 0006 C4F20202 		movt	r2, 16386
 838              		.loc 1 405 0
 839 000a 836F     		ldr	r3, [r0, #120]
 840              		.loc 1 403 0
 841 000c 5168     		ldr	r1, [r2, #4]
 842              	.LVL45:
 843              		.loc 1 398 0
 844 000e 10B5     		push	{r4, lr}
 845              	.LCFI15:
 846              		.cfi_def_cfa_offset 8
 847              		.cfi_offset 14, -4
 848              		.cfi_offset 4, -8
 849              		.loc 1 404 0
 850 0010 4FF07464 		mov	r4, #255852544
 851 0014 D460     		str	r4, [r2, #12]
ARM GAS  /tmp/ccIMeq3I.s 			page 16


 852              		.loc 1 405 0
 853 0016 23B1     		cbz	r3, .L63
 854              		.loc 1 403 0
 855 0018 890D     		lsrs	r1, r1, #22
 856              	.LVL46:
 857              		.loc 1 406 0
 858 001a C06F     		ldr	r0, [r0, #124]
 859 001c 01F03D01 		and	r1, r1, #61
 860              	.LVL47:
 861 0020 9847     		blx	r3
 862              	.L63:
 863              		.loc 1 409 0
 864 0022 BDE81040 		pop	{r4, lr}
 865              		.loc 1 408 0
 866 0026 FFF7FEBF 		b	_port_irq_epilogue
 867              	.L65:
 868 002a 00BF     		.align	2
 869              	.L64:
 870 002c 00000000 		.word	.LANCHOR0
 871              		.cfi_endproc
 872              	.LFE133:
 873              		.size	Vector158, .-Vector158
 874              		.section	.text.dmaInit,"ax",%progbits
 875              		.align	2
 876              		.p2align 4,,15
 877              		.global	dmaInit
 878              		.thumb
 879              		.thumb_func
 880              		.type	dmaInit, %function
 881              	dmaInit:
 882              	.LFB134:
 883              		.loc 1 420 0
 884              		.cfi_startproc
 885              		@ args = 0, pretend = 0, frame = 0
 886              		@ frame_needed = 0, uses_anonymous_args = 0
 887              		@ link register save eliminated.
 888              		.loc 1 423 0
 889 0000 0F4B     		ldr	r3, .L69
 890              		.loc 1 420 0
 891 0002 30B4     		push	{r4, r5}
 892              	.LCFI16:
 893              		.cfi_def_cfa_offset 8
 894              		.cfi_offset 5, -4
 895              		.cfi_offset 4, -8
 896              		.loc 1 423 0
 897 0004 0022     		movs	r2, #0
 898 0006 0F4D     		ldr	r5, .L69+4
 899 0008 0F4C     		ldr	r4, .L69+8
 900 000a 1A60     		str	r2, [r3, #0]
 901              	.LVL48:
 902              		.loc 1 425 0
 903 000c 1146     		mov	r1, r2
 904              		.loc 1 423 0
 905 000e 1346     		mov	r3, r2
 906              	.LVL49:
 907              	.L67:
 908              		.loc 1 425 0 discriminator 2
ARM GAS  /tmp/ccIMeq3I.s 			page 17


 909 0010 E858     		ldr	r0, [r5, r3]
 910              		.loc 1 426 0 discriminator 2
 911 0012 0C33     		adds	r3, r3, #12
 912              		.loc 1 425 0 discriminator 2
 913 0014 0160     		str	r1, [r0, #0]
 914              		.loc 1 426 0 discriminator 2
 915 0016 A150     		str	r1, [r4, r2]
 916 0018 0832     		adds	r2, r2, #8
 917              		.loc 1 424 0 discriminator 2
 918 001a C02B     		cmp	r3, #192
 919 001c F8D1     		bne	.L67
 920              		.loc 1 428 0
 921 001e 4FF4C041 		mov	r1, #24576
 922              		.loc 1 430 0
 923 0022 4FF4C842 		mov	r2, #25600
 924              		.loc 1 428 0
 925 0026 C4F20201 		movt	r1, 16386
 926              		.loc 1 430 0
 927 002a C4F20202 		movt	r2, 16386
 928              		.loc 1 428 0
 929 002e 4FF0FF33 		mov	r3, #-1
 930 0032 8B60     		str	r3, [r1, #8]
 931              		.loc 1 429 0
 932 0034 CB60     		str	r3, [r1, #12]
 933              		.loc 1 430 0
 934 0036 9360     		str	r3, [r2, #8]
 935              		.loc 1 431 0
 936 0038 D360     		str	r3, [r2, #12]
 937              		.loc 1 432 0
 938 003a 30BC     		pop	{r4, r5}
 939 003c 7047     		bx	lr
 940              	.L70:
 941 003e 00BF     		.align	2
 942              	.L69:
 943 0040 00000000 		.word	.LANCHOR1
 944 0044 00000000 		.word	.LANCHOR2
 945 0048 00000000 		.word	.LANCHOR0
 946              		.cfi_endproc
 947              	.LFE134:
 948              		.size	dmaInit, .-dmaInit
 949 004c AFF30080 		.section	.text.dmaStreamAllocate,"ax",%progbits
 950              		.align	2
 951              		.p2align 4,,15
 952              		.global	dmaStreamAllocate
 953              		.thumb
 954              		.thumb_func
 955              		.type	dmaStreamAllocate, %function
 956              	dmaStreamAllocate:
 957              	.LFB135:
 958              		.loc 1 461 0
 959              		.cfi_startproc
 960              		@ args = 0, pretend = 0, frame = 0
 961              		@ frame_needed = 0, uses_anonymous_args = 0
 962              	.LVL50:
 963 0000 2DE9F041 		push	{r4, r5, r6, r7, r8, lr}
 964              	.LCFI17:
 965              		.cfi_def_cfa_offset 24
ARM GAS  /tmp/ccIMeq3I.s 			page 18


 966              		.cfi_offset 14, -4
 967              		.cfi_offset 8, -8
 968              		.cfi_offset 7, -12
 969              		.cfi_offset 6, -16
 970              		.cfi_offset 5, -20
 971              		.cfi_offset 4, -24
 972              		.loc 1 466 0
 973 0004 254D     		ldr	r5, .L79
 974 0006 447A     		ldrb	r4, [r0, #9]	@ zero_extendqisi2
 975 0008 2E68     		ldr	r6, [r5, #0]
 976 000a 4FF0010C 		mov	ip, #1
 977 000e 0CFA04F7 		lsl	r7, ip, r4
 978 0012 3742     		tst	r7, r6
 979 0014 3BD1     		bne	.L76
 980              		.loc 1 470 0
 981 0016 DFF888C0 		ldr	ip, .L79+4
 982              		.loc 1 472 0
 983 001a 3E43     		orrs	r6, r6, r7
 984              		.loc 1 471 0
 985 001c 0CEBC408 		add	r8, ip, r4, lsl #3
 986              		.loc 1 475 0
 987 0020 16F0FF0F 		tst	r6, #255
 988              		.loc 1 471 0
 989 0024 C8F80430 		str	r3, [r8, #4]
 990              		.loc 1 476 0
 991 0028 1CBF     		itt	ne
 992 002a 4FF46053 		movne	r3, #14336
 993              	.LVL51:
 994 002e C4F20203 		movtne	r3, 16386
 995              		.loc 1 472 0
 996 0032 2E60     		str	r6, [r5, #0]
 997              		.loc 1 470 0
 998 0034 4CF83420 		str	r2, [ip, r4, lsl #3]
 999              		.loc 1 476 0
 1000 0038 1EBF     		ittt	ne
 1001 003a 1C6B     		ldrne	r4, [r3, #48]
 1002 003c 44F40014 		orrne	r4, r4, #2097152
 1003 0040 1C63     		strne	r4, [r3, #48]
 1004              		.loc 1 477 0
 1005 0042 16F47F4F 		tst	r6, #65280
 1006              		.loc 1 478 0
 1007 0046 1FBF     		itttt	ne
 1008 0048 4FF46053 		movne	r3, #14336
 1009 004c C4F20203 		movtne	r3, 16386
 1010 0050 1C6B     		ldrne	r4, [r3, #48]
 1011 0052 44F48004 		orrne	r4, r4, #4194304
 1012 0056 18BF     		it	ne
 1013 0058 1C63     		strne	r4, [r3, #48]
 1014              		.loc 1 481 0
 1015 005a 0368     		ldr	r3, [r0, #0]
 1016 005c 1C68     		ldr	r4, [r3, #0]
 1017 005e 24F01F04 		bic	r4, r4, #31
 1018 0062 1C60     		str	r4, [r3, #0]
 1019              	.L75:
 1020              		.loc 1 481 0 is_stmt 0 discriminator 1
 1021 0064 1C68     		ldr	r4, [r3, #0]
 1022 0066 14F00104 		ands	r4, r4, #1
ARM GAS  /tmp/ccIMeq3I.s 			page 19


 1023 006a FBD1     		bne	.L75
 1024              		.loc 1 481 0 discriminator 2
 1025 006c 067A     		ldrb	r6, [r0, #8]	@ zero_extendqisi2
 1026 006e 4568     		ldr	r5, [r0, #4]
 1027 0070 3D27     		movs	r7, #61
 1028 0072 17FA06F6 		lsls	r6, r7, r6
 1029 0076 2E60     		str	r6, [r5, #0]
 1030              		.loc 1 483 0 is_stmt 1 discriminator 2
 1031 0078 2125     		movs	r5, #33
 1032              		.loc 1 482 0 discriminator 2
 1033 007a 1C60     		str	r4, [r3, #0]
 1034              		.loc 1 483 0 discriminator 2
 1035 007c 5D61     		str	r5, [r3, #20]
 1036              		.loc 1 486 0 discriminator 2
 1037 007e 4AB1     		cbz	r2, .L77
 1038              		.loc 1 487 0
 1039 0080 807A     		ldrb	r0, [r0, #10]	@ zero_extendqisi2
 1040              	.LVL52:
 1041 0082 0901     		lsls	r1, r1, #4
 1042              	.LVL53:
 1043 0084 FFF7FEFF 		bl	nvicEnableVector
 1044              	.LVL54:
 1045              		.loc 1 489 0
 1046 0088 2046     		mov	r0, r4
 1047 008a BDE8F081 		pop	{r4, r5, r6, r7, r8, pc}
 1048              	.LVL55:
 1049              	.L76:
 1050              		.loc 1 467 0
 1051 008e 6046     		mov	r0, ip
 1052              	.LVL56:
 1053 0090 BDE8F081 		pop	{r4, r5, r6, r7, r8, pc}
 1054              	.LVL57:
 1055              	.L77:
 1056              		.loc 1 489 0
 1057 0094 1046     		mov	r0, r2
 1058              	.LVL58:
 1059              		.loc 1 490 0
 1060 0096 BDE8F081 		pop	{r4, r5, r6, r7, r8, pc}
 1061              	.L80:
 1062 009a 00BF     		.align	2
 1063              	.L79:
 1064 009c 00000000 		.word	.LANCHOR1
 1065 00a0 00000000 		.word	.LANCHOR0
 1066              		.cfi_endproc
 1067              	.LFE135:
 1068              		.size	dmaStreamAllocate, .-dmaStreamAllocate
 1069 00a4 AFF30080 		.section	.text.dmaStreamRelease,"ax",%progbits
 1069      AFF30080 
 1069      AFF30080 
 1070              		.align	2
 1071              		.p2align 4,,15
 1072              		.global	dmaStreamRelease
 1073              		.thumb
 1074              		.thumb_func
 1075              		.type	dmaStreamRelease, %function
 1076              	dmaStreamRelease:
 1077              	.LFB136:
ARM GAS  /tmp/ccIMeq3I.s 			page 20


 1078              		.loc 1 505 0
 1079              		.cfi_startproc
 1080              		@ args = 0, pretend = 0, frame = 0
 1081              		@ frame_needed = 0, uses_anonymous_args = 0
 1082              	.LVL59:
 1083 0000 10B5     		push	{r4, lr}
 1084              	.LCFI18:
 1085              		.cfi_def_cfa_offset 8
 1086              		.cfi_offset 14, -4
 1087              		.cfi_offset 4, -8
 1088              		.loc 1 505 0
 1089 0002 0446     		mov	r4, r0
 1090              		.loc 1 514 0
 1091 0004 807A     		ldrb	r0, [r0, #10]	@ zero_extendqisi2
 1092              	.LVL60:
 1093 0006 FFF7FEFF 		bl	nvicDisableVector
 1094              		.loc 1 517 0
 1095 000a 114A     		ldr	r2, .L84
 1096 000c 637A     		ldrb	r3, [r4, #9]	@ zero_extendqisi2
 1097 000e 1168     		ldr	r1, [r2, #0]
 1098 0010 0120     		movs	r0, #1
 1099 0012 10FA03F3 		lsls	r3, r0, r3
 1100 0016 21EA0303 		bic	r3, r1, r3
 1101              		.loc 1 520 0
 1102 001a 13F0FF0F 		tst	r3, #255
 1103              		.loc 1 517 0
 1104 001e 1360     		str	r3, [r2, #0]
 1105              		.loc 1 521 0
 1106 0020 01BF     		itttt	eq
 1107 0022 4FF46052 		moveq	r2, #14336
 1108 0026 C4F20202 		movteq	r2, 16386
 1109 002a 116B     		ldreq	r1, [r2, #48]
 1110 002c 21F40011 		biceq	r1, r1, #2097152
 1111 0030 08BF     		it	eq
 1112 0032 1163     		streq	r1, [r2, #48]
 1113              		.loc 1 522 0
 1114 0034 13F47F4F 		tst	r3, #65280
 1115              		.loc 1 523 0
 1116 0038 01BF     		itttt	eq
 1117 003a 4FF46053 		moveq	r3, #14336
 1118 003e C4F20203 		movteq	r3, 16386
 1119 0042 1A6B     		ldreq	r2, [r3, #48]
 1120 0044 22F48002 		biceq	r2, r2, #4194304
 1121 0048 08BF     		it	eq
 1122 004a 1A63     		streq	r2, [r3, #48]
 1123 004c 10BD     		pop	{r4, pc}
 1124              	.L85:
 1125 004e 00BF     		.align	2
 1126              	.L84:
 1127 0050 00000000 		.word	.LANCHOR1
 1128              		.cfi_endproc
 1129              	.LFE136:
 1130              		.size	dmaStreamRelease, .-dmaStreamRelease
 1131              		.global	_stm32_dma_streams
 1132 0054 AFF30080 		.section	.bss.dma_isr_redir,"aw",%nobits
 1132      AFF30080 
 1132      AFF30080 
ARM GAS  /tmp/ccIMeq3I.s 			page 21


 1133              		.align	2
 1134              		.set	.LANCHOR0,. + 0
 1135              		.type	dma_isr_redir, %object
 1136              		.size	dma_isr_redir, 128
 1137              	dma_isr_redir:
 1138 0000 00000000 		.space	128
 1138      00000000 
 1138      00000000 
 1138      00000000 
 1138      00000000 
 1139              		.section	.rodata._stm32_dma_streams,"a",%progbits
 1140              		.align	2
 1141              		.set	.LANCHOR2,. + 0
 1142              		.type	_stm32_dma_streams, %object
 1143              		.size	_stm32_dma_streams, 192
 1144              	_stm32_dma_streams:
 1145 0000 10600240 		.word	1073897488
 1146 0004 08600240 		.word	1073897480
 1147 0008 00       		.byte	0
 1148 0009 00       		.byte	0
 1149 000a 0B       		.byte	11
 1150 000b 00       		.space	1
 1151 000c 28600240 		.word	1073897512
 1152 0010 08600240 		.word	1073897480
 1153 0014 06       		.byte	6
 1154 0015 01       		.byte	1
 1155 0016 0C       		.byte	12
 1156 0017 00       		.space	1
 1157 0018 40600240 		.word	1073897536
 1158 001c 08600240 		.word	1073897480
 1159 0020 10       		.byte	16
 1160 0021 02       		.byte	2
 1161 0022 0D       		.byte	13
 1162 0023 00       		.space	1
 1163 0024 58600240 		.word	1073897560
 1164 0028 08600240 		.word	1073897480
 1165 002c 16       		.byte	22
 1166 002d 03       		.byte	3
 1167 002e 0E       		.byte	14
 1168 002f 00       		.space	1
 1169 0030 70600240 		.word	1073897584
 1170 0034 0C600240 		.word	1073897484
 1171 0038 00       		.byte	0
 1172 0039 04       		.byte	4
 1173 003a 0F       		.byte	15
 1174 003b 00       		.space	1
 1175 003c 88600240 		.word	1073897608
 1176 0040 0C600240 		.word	1073897484
 1177 0044 06       		.byte	6
 1178 0045 05       		.byte	5
 1179 0046 10       		.byte	16
 1180 0047 00       		.space	1
 1181 0048 A0600240 		.word	1073897632
 1182 004c 0C600240 		.word	1073897484
 1183 0050 10       		.byte	16
 1184 0051 06       		.byte	6
 1185 0052 11       		.byte	17
ARM GAS  /tmp/ccIMeq3I.s 			page 22


 1186 0053 00       		.space	1
 1187 0054 B8600240 		.word	1073897656
 1188 0058 0C600240 		.word	1073897484
 1189 005c 16       		.byte	22
 1190 005d 07       		.byte	7
 1191 005e 2F       		.byte	47
 1192 005f 00       		.space	1
 1193 0060 10640240 		.word	1073898512
 1194 0064 08640240 		.word	1073898504
 1195 0068 00       		.byte	0
 1196 0069 08       		.byte	8
 1197 006a 38       		.byte	56
 1198 006b 00       		.space	1
 1199 006c 28640240 		.word	1073898536
 1200 0070 08640240 		.word	1073898504
 1201 0074 06       		.byte	6
 1202 0075 09       		.byte	9
 1203 0076 39       		.byte	57
 1204 0077 00       		.space	1
 1205 0078 40640240 		.word	1073898560
 1206 007c 08640240 		.word	1073898504
 1207 0080 10       		.byte	16
 1208 0081 0A       		.byte	10
 1209 0082 3A       		.byte	58
 1210 0083 00       		.space	1
 1211 0084 58640240 		.word	1073898584
 1212 0088 08640240 		.word	1073898504
 1213 008c 16       		.byte	22
 1214 008d 0B       		.byte	11
 1215 008e 3B       		.byte	59
 1216 008f 00       		.space	1
 1217 0090 70640240 		.word	1073898608
 1218 0094 0C640240 		.word	1073898508
 1219 0098 00       		.byte	0
 1220 0099 0C       		.byte	12
 1221 009a 3C       		.byte	60
 1222 009b 00       		.space	1
 1223 009c 88640240 		.word	1073898632
 1224 00a0 0C640240 		.word	1073898508
 1225 00a4 06       		.byte	6
 1226 00a5 0D       		.byte	13
 1227 00a6 44       		.byte	68
 1228 00a7 00       		.space	1
 1229 00a8 A0640240 		.word	1073898656
 1230 00ac 0C640240 		.word	1073898508
 1231 00b0 10       		.byte	16
 1232 00b1 0E       		.byte	14
 1233 00b2 45       		.byte	69
 1234 00b3 00       		.space	1
 1235 00b4 B8640240 		.word	1073898680
 1236 00b8 0C640240 		.word	1073898508
 1237 00bc 16       		.byte	22
 1238 00bd 0F       		.byte	15
 1239 00be 46       		.byte	70
 1240 00bf 00       		.space	1
 1241              		.section	.bss.dma_streams_mask,"aw",%nobits
 1242              		.align	2
ARM GAS  /tmp/ccIMeq3I.s 			page 23


 1243              		.set	.LANCHOR1,. + 0
 1244              		.type	dma_streams_mask, %object
 1245              		.size	dma_streams_mask, 4
 1246              	dma_streams_mask:
 1247 0000 00000000 		.space	4
 1248              		.text
 1249              	.Letext0:
 1250              		.file 2 "/opt/paparazzi/arm-multilib/lib/gcc/arm-none-eabi/4.6.2/../../../../arm-none-eabi/include
 1251              		.file 3 "../../os/ports/GCC/ARMCMx/chtypes.h"
 1252              		.file 4 "../../os/hal/platforms/STM32F4xx/stm32f4xx.h"
 1253              		.file 5 "../../os/hal/platforms/STM32F4xx/stm32_dma.h"
 1254              		.file 6 "../../os/ports/common/ARMCMx/CMSIS/include/core_cm4.h"