ARM GAS  /tmp/ccIMeq3I.s 			page 1


   1              		.syntax unified
   2              		.cpu cortex-m4
   3              		.fpu softvfp
   4              		.eabi_attribute 20, 1
   5              		.eabi_attribute 21, 1
   6              		.eabi_attribute 23, 3
   7              		.eabi_attribute 24, 1
   8              		.eabi_attribute 25, 1
   9              		.eabi_attribute 26, 1
  10              		.eabi_attribute 30, 2
  11              		.eabi_attribute 18, 4
  12              		.thumb
  13              		.file	"stm32_dma.c"
  14              		.text
  15              	.Ltext0:
  16              		.cfi_sections	.debug_frame
  17              		.section	.text.Vector6C,"ax",%progbits
  18              		.align	2
  19              		.p2align 4,,15
  20              		.global	Vector6C
  21              		.thumb
  22              		.thumb_func
  23              		.type	Vector6C, %function
  24              	Vector6C:
  25              	.LFB118:
  26              		.file 1 "../../os/hal/platforms/STM32F4xx/stm32_dma.c"
  27              		.loc 1 128 0
  28              		.cfi_startproc
  29              		@ args = 0, pretend = 0, frame = 0
  30              		@ frame_needed = 0, uses_anonymous_args = 0
  31              		.loc 1 135 0
  32 0000 0848     		ldr	r0, .L4
  33              		.loc 1 133 0
  34 0002 4FF4C042 		mov	r2, #24576
  35 0006 C4F20202 		movt	r2, 16386
  36              		.loc 1 135 0
  37 000a 0368     		ldr	r3, [r0, #0]
  38              		.loc 1 133 0
  39 000c 1168     		ldr	r1, [r2, #0]
  40              	.LVL0:
  41              		.loc 1 128 0
  42 000e 10B5     		push	{r4, lr}
  43              	.LCFI0:
  44              		.cfi_def_cfa_offset 8
  45              		.cfi_offset 14, -4
  46              		.cfi_offset 4, -8
  47              		.loc 1 134 0
  48 0010 3D24     		movs	r4, #61
  49 0012 9460     		str	r4, [r2, #8]
  50              		.loc 1 135 0
  51 0014 13B1     		cbz	r3, .L2
  52              		.loc 1 136 0
  53 0016 4068     		ldr	r0, [r0, #4]
  54 0018 2140     		ands	r1, r1, r4
  55              	.LVL1:
  56 001a 9847     		blx	r3
  57              	.LVL2:
ARM GAS  /tmp/ccIMeq3I.s 			page 2


  58              	.L2:
  59              		.loc 1 139 0
  60 001c BDE81040 		pop	{r4, lr}
  61              		.loc 1 138 0
  62 0020 FFF7FEBF 		b	_port_irq_epilogue
  63              	.L5:
  64              		.align	2
  65              	.L4:
  66 0024 00000000 		.word	.LANCHOR0
  67              		.cfi_endproc
  68              	.LFE118:
  69              		.size	Vector6C, .-Vector6C
  70 0028 AFF30080 		.section	.text.Vector70,"ax",%progbits
  70      AFF30080 
  71              		.align	2
  72              		.p2align 4,,15
  73              		.global	Vector70
  74              		.thumb
  75              		.thumb_func
  76              		.type	Vector70, %function
  77              	Vector70:
  78              	.LFB119:
  79              		.loc 1 146 0
  80              		.cfi_startproc
  81              		@ args = 0, pretend = 0, frame = 0
  82              		@ frame_needed = 0, uses_anonymous_args = 0
  83              		.loc 1 153 0
  84 0000 0A48     		ldr	r0, .L8
  85              		.loc 1 151 0
  86 0002 4FF4C042 		mov	r2, #24576
  87 0006 C4F20202 		movt	r2, 16386
  88              		.loc 1 153 0
  89 000a 8368     		ldr	r3, [r0, #8]
  90              		.loc 1 151 0
  91 000c 1168     		ldr	r1, [r2, #0]
  92              	.LVL3:
  93              		.loc 1 146 0
  94 000e 10B5     		push	{r4, lr}
  95              	.LCFI1:
  96              		.cfi_def_cfa_offset 8
  97              		.cfi_offset 14, -4
  98              		.cfi_offset 4, -8
  99              		.loc 1 152 0
 100 0010 4FF47464 		mov	r4, #3904
 101 0014 9460     		str	r4, [r2, #8]
 102              		.loc 1 153 0
 103 0016 23B1     		cbz	r3, .L7
 104              		.loc 1 151 0
 105 0018 8909     		lsrs	r1, r1, #6
 106              	.LVL4:
 107              		.loc 1 154 0
 108 001a C068     		ldr	r0, [r0, #12]
 109 001c 01F03D01 		and	r1, r1, #61
 110              	.LVL5:
 111 0020 9847     		blx	r3
 112              	.L7:
 113              		.loc 1 157 0
ARM GAS  /tmp/ccIMeq3I.s 			page 3


 114 0022 BDE81040 		pop	{r4, lr}
 115              		.loc 1 156 0
 116 0026 FFF7FEBF 		b	_port_irq_epilogue
 117              	.L9:
 118 002a 00BF     		.align	2
 119              	.L8:
 120 002c 00000000 		.word	.LANCHOR0
 121              		.cfi_endproc
 122              	.LFE119:
 123              		.size	Vector70, .-Vector70
 124              		.section	.text.Vector74,"ax",%progbits
 125              		.align	2
 126              		.p2align 4,,15
 127              		.global	Vector74
 128              		.thumb
 129              		.thumb_func
 130              		.type	Vector74, %function
 131              	Vector74:
 132              	.LFB120:
 133              		.loc 1 164 0
 134              		.cfi_startproc
 135              		@ args = 0, pretend = 0, frame = 0
 136              		@ frame_needed = 0, uses_anonymous_args = 0
 137              		.loc 1 171 0
 138 0000 0A48     		ldr	r0, .L12
 139              		.loc 1 169 0
 140 0002 4FF4C042 		mov	r2, #24576
 141 0006 C4F20202 		movt	r2, 16386
 142              		.loc 1 171 0
 143 000a 0369     		ldr	r3, [r0, #16]
 144              		.loc 1 169 0
 145 000c 1168     		ldr	r1, [r2, #0]
 146              	.LVL6:
 147              		.loc 1 164 0
 148 000e 10B5     		push	{r4, lr}
 149              	.LCFI2:
 150              		.cfi_def_cfa_offset 8
 151              		.cfi_offset 14, -4
 152              		.cfi_offset 4, -8
 153              		.loc 1 170 0
 154 0010 4FF47414 		mov	r4, #3997696
 155 0014 9460     		str	r4, [r2, #8]
 156              		.loc 1 171 0
 157 0016 23B1     		cbz	r3, .L11
 158              		.loc 1 169 0
 159 0018 090C     		lsrs	r1, r1, #16
 160              	.LVL7:
 161              		.loc 1 172 0
 162 001a 4069     		ldr	r0, [r0, #20]
 163 001c 01F03D01 		and	r1, r1, #61
 164              	.LVL8:
 165 0020 9847     		blx	r3
 166              	.L11:
 167              		.loc 1 175 0
 168 0022 BDE81040 		pop	{r4, lr}
 169              		.loc 1 174 0
 170 0026 FFF7FEBF 		b	_port_irq_epilogue
ARM GAS  /tmp/ccIMeq3I.s 			page 4


 171              	.L13:
 172 002a 00BF     		.align	2
 173              	.L12:
 174 002c 00000000 		.word	.LANCHOR0
 175              		.cfi_endproc
 176              	.LFE120:
 177              		.size	Vector74, .-Vector74
 178              		.section	.text.Vector78,"ax",%progbits
 179              		.align	2
 180              		.p2align 4,,15
 181              		.global	Vector78
 182              		.thumb
 183              		.thumb_func
 184              		.type	Vector78, %function
 185              	Vector78:
 186              	.LFB121:
 187              		.loc 1 182 0
 188              		.cfi_startproc
 189              		@ args = 0, pretend = 0, frame = 0
 190              		@ frame_needed = 0, uses_anonymous_args = 0
 191              		.loc 1 189 0
 192 0000 0A48     		ldr	r0, .L16
 193              		.loc 1 187 0
 194 0002 4FF4C042 		mov	r2, #24576
 195 0006 C4F20202 		movt	r2, 16386
 196              		.loc 1 189 0
 197 000a 8369     		ldr	r3, [r0, #24]
 198              		.loc 1 187 0
 199 000c 1168     		ldr	r1, [r2, #0]
 200              	.LVL9:
 201              		.loc 1 182 0
 202 000e 10B5     		push	{r4, lr}
 203              	.LCFI3:
 204              		.cfi_def_cfa_offset 8
 205              		.cfi_offset 14, -4
 206              		.cfi_offset 4, -8
 207              		.loc 1 188 0
 208 0010 4FF07464 		mov	r4, #255852544
 209 0014 9460     		str	r4, [r2, #8]
 210              		.loc 1 189 0
 211 0016 23B1     		cbz	r3, .L15
 212              		.loc 1 187 0
 213 0018 890D     		lsrs	r1, r1, #22
 214              	.LVL10:
 215              		.loc 1 190 0
 216 001a C069     		ldr	r0, [r0, #28]
 217 001c 01F03D01 		and	r1, r1, #61
 218              	.LVL11:
 219 0020 9847     		blx	r3
 220              	.L15:
 221              		.loc 1 193 0
 222 0022 BDE81040 		pop	{r4, lr}
 223              		.loc 1 192 0
 224 0026 FFF7FEBF 		b	_port_irq_epilogue
 225              	.L17:
 226 002a 00BF     		.align	2
 227              	.L16:
ARM GAS  /tmp/ccIMeq3I.s 			page 5


 228 002c 00000000 		.word	.LANCHOR0
 229              		.cfi_endproc
 230              	.LFE121:
 231              		.size	Vector78, .-Vector78
 232              		.section	.text.Vector7C,"ax",%progbits
 233              		.align	2
 234              		.p2align 4,,15
 235              		.global	Vector7C
 236              		.thumb
 237              		.thumb_func
 238              		.type	Vector7C, %function
 239              	Vector7C:
 240              	.LFB122:
 241              		.loc 1 200 0
 242              		.cfi_startproc
 243              		@ args = 0, pretend = 0, frame = 0
 244              		@ frame_needed = 0, uses_anonymous_args = 0
 245              		.loc 1 207 0
 246 0000 0848     		ldr	r0, .L20
 247              		.loc 1 205 0
 248 0002 4FF4C042 		mov	r2, #24576
 249 0006 C4F20202 		movt	r2, 16386
 250              		.loc 1 207 0
 251 000a 036A     		ldr	r3, [r0, #32]
 252              		.loc 1 205 0
 253 000c 5168     		ldr	r1, [r2, #4]
 254              	.LVL12:
 255              		.loc 1 200 0
 256 000e 10B5     		push	{r4, lr}
 257              	.LCFI4:
 258              		.cfi_def_cfa_offset 8
 259              		.cfi_offset 14, -4
 260              		.cfi_offset 4, -8
 261              		.loc 1 206 0
 262 0010 3D24     		movs	r4, #61
 263 0012 D460     		str	r4, [r2, #12]
 264              		.loc 1 207 0
 265 0014 13B1     		cbz	r3, .L19
 266              		.loc 1 208 0
 267 0016 406A     		ldr	r0, [r0, #36]
 268 0018 2140     		ands	r1, r1, r4
 269              	.LVL13:
 270 001a 9847     		blx	r3
 271              	.LVL14:
 272              	.L19:
 273              		.loc 1 211 0
 274 001c BDE81040 		pop	{r4, lr}
 275              		.loc 1 210 0
 276 0020 FFF7FEBF 		b	_port_irq_epilogue
 277              	.L21:
 278              		.align	2
 279              	.L20:
 280 0024 00000000 		.word	.LANCHOR0
 281              		.cfi_endproc
 282              	.LFE122:
 283              		.size	Vector7C, .-Vector7C
 284 0028 AFF30080 		.section	.text.Vector80,"ax",%progbits
ARM GAS  /tmp/ccIMeq3I.s 			page 6


 284      AFF30080 
 285              		.align	2
 286              		.p2align 4,,15
 287              		.global	Vector80
 288              		.thumb
 289              		.thumb_func
 290              		.type	Vector80, %function
 291              	Vector80:
 292              	.LFB123:
 293              		.loc 1 218 0
 294              		.cfi_startproc
 295              		@ args = 0, pretend = 0, frame = 0
 296              		@ frame_needed = 0, uses_anonymous_args = 0
 297              		.loc 1 225 0
 298 0000 0A48     		ldr	r0, .L24
 299              		.loc 1 223 0
 300 0002 4FF4C042 		mov	r2, #24576
 301 0006 C4F20202 		movt	r2, 16386
 302              		.loc 1 225 0
 303 000a 836A     		ldr	r3, [r0, #40]
 304              		.loc 1 223 0
 305 000c 5168     		ldr	r1, [r2, #4]
 306              	.LVL15:
 307              		.loc 1 218 0
 308 000e 10B5     		push	{r4, lr}
 309              	.LCFI5:
 310              		.cfi_def_cfa_offset 8
 311              		.cfi_offset 14, -4
 312              		.cfi_offset 4, -8
 313              		.loc 1 224 0
 314 0010 4FF47464 		mov	r4, #3904
 315 0014 D460     		str	r4, [r2, #12]
 316              		.loc 1 225 0
 317 0016 23B1     		cbz	r3, .L23
 318              		.loc 1 223 0
 319 0018 8909     		lsrs	r1, r1, #6
 320              	.LVL16:
 321              		.loc 1 226 0
 322 001a C06A     		ldr	r0, [r0, #44]
 323 001c 01F03D01 		and	r1, r1, #61
 324              	.LVL17:
 325 0020 9847     		blx	r3
 326              	.L23:
 327              		.loc 1 229 0
 328 0022 BDE81040 		pop	{r4, lr}
 329              		.loc 1 228 0
 330 0026 FFF7FEBF 		b	_port_irq_epilogue
 331              	.L25:
 332 002a 00BF     		.align	2
 333              	.L24:
 334 002c 00000000 		.word	.LANCHOR0
 335              		.cfi_endproc
 336              	.LFE123:
 337              		.size	Vector80, .-Vector80
 338              		.section	.text.Vector84,"ax",%progbits
 339              		.align	2
 340              		.p2align 4,,15
ARM GAS  /tmp/ccIMeq3I.s 			page 7


 341              		.global	Vector84
 342              		.thumb
 343              		.thumb_func
 344              		.type	Vector84, %function
 345              	Vector84:
 346              	.LFB124:
 347              		.loc 1 236 0
 348              		.cfi_startproc
 349              		@ args = 0, pretend = 0, frame = 0
 350              		@ frame_needed = 0, uses_anonymous_args = 0
 351              		.loc 1 243 0
 352 0000 0A48     		ldr	r0, .L28
 353              		.loc 1 241 0
 354 0002 4FF4C042 		mov	r2, #24576
 355 0006 C4F20202 		movt	r2, 16386
 356              		.loc 1 243 0
 357 000a 036B     		ldr	r3, [r0, #48]
 358              		.loc 1 241 0
 359 000c 5168     		ldr	r1, [r2, #4]
 360              	.LVL18:
 361              		.loc 1 236 0
 362 000e 10B5     		push	{r4, lr}
 363              	.LCFI6:
 364              		.cfi_def_cfa_offset 8
 365              		.cfi_offset 14, -4
 366              		.cfi_offset 4, -8
 367              		.loc 1 242 0
 368 0010 4FF47414 		mov	r4, #3997696
 369 0014 D460     		str	r4, [r2, #12]
 370              		.loc 1 243 0
 371 0016 23B1     		cbz	r3, .L27
 372              		.loc 1 241 0
 373 0018 090C     		lsrs	r1, r1, #16
 374              	.LVL19:
 375              		.loc 1 244 0
 376 001a 406B     		ldr	r0, [r0, #52]
 377 001c 01F03D01 		and	r1, r1, #61
 378              	.LVL20:
 379 0020 9847     		blx	r3
 380              	.L27:
 381              		.loc 1 247 0
 382 0022 BDE81040 		pop	{r4, lr}
 383              		.loc 1 246 0
 384 0026 FFF7FEBF 		b	_port_irq_epilogue
 385              	.L29:
 386 002a 00BF     		.align	2
 387              	.L28:
 388 002c 00000000 		.word	.LANCHOR0
 389              		.cfi_endproc
 390              	.LFE124:
 391              		.size	Vector84, .-Vector84
 392              		.section	.text.VectorFC,"ax",%progbits
 393              		.align	2
 394              		.p2align 4,,15
 395              		.global	VectorFC
 396              		.thumb
 397              		.thumb_func
ARM GAS  /tmp/ccIMeq3I.s 			page 8


 398              		.type	VectorFC, %function
 399              	VectorFC:
 400              	.LFB125:
 401              		.loc 1 254 0
 402              		.cfi_startproc
 403              		@ args = 0, pretend = 0, frame = 0
 404              		@ frame_needed = 0, uses_anonymous_args = 0
 405              		.loc 1 261 0
 406 0000 0A48     		ldr	r0, .L32
 407              		.loc 1 259 0
 408 0002 4FF4C042 		mov	r2, #24576
 409 0006 C4F20202 		movt	r2, 16386
 410              		.loc 1 261 0
 411 000a 836B     		ldr	r3, [r0, #56]
 412              		.loc 1 259 0
 413 000c 5168     		ldr	r1, [r2, #4]
 414              	.LVL21:
 415              		.loc 1 254 0
 416 000e 10B5     		push	{r4, lr}
 417              	.LCFI7:
 418              		.cfi_def_cfa_offset 8
 419              		.cfi_offset 14, -4
 420              		.cfi_offset 4, -8
 421              		.loc 1 260 0
 422 0010 4FF07464 		mov	r4, #255852544
 423 0014 D460     		str	r4, [r2, #12]
 424              		.loc 1 261 0
 425 0016 23B1     		cbz	r3, .L31
 426              		.loc 1 259 0
 427 0018 890D     		lsrs	r1, r1, #22
 428              	.LVL22:
 429              		.loc 1 262 0
 430 001a C06B     		ldr	r0, [r0, #60]
 431 001c 01F03D01 		and	r1, r1, #61
 432              	.LVL23:
 433 0020 9847     		blx	r3
 434              	.L31:
 435              		.loc 1 265 0
 436 0022 BDE81040 		pop	{r4, lr}
 437              		.loc 1 264 0
 438 0026 FFF7FEBF 		b	_port_irq_epilogue
 439              	.L33:
 440 002a 00BF     		.align	2
 441              	.L32:
 442 002c 00000000 		.word	.LANCHOR0
 443              		.cfi_endproc
 444              	.LFE125:
 445              		.size	VectorFC, .-VectorFC
 446              		.section	.text.Vector120,"ax",%progbits
 447              		.align	2
 448              		.p2align 4,,15
 449              		.global	Vector120
 450              		.thumb
 451              		.thumb_func
 452              		.type	Vector120, %function
 453              	Vector120:
 454              	.LFB126:
ARM GAS  /tmp/ccIMeq3I.s 			page 9


 455              		.loc 1 272 0
 456              		.cfi_startproc
 457              		@ args = 0, pretend = 0, frame = 0
 458              		@ frame_needed = 0, uses_anonymous_args = 0
 459              		.loc 1 279 0
 460 0000 0848     		ldr	r0, .L36
 461              		.loc 1 277 0
 462 0002 4FF4C842 		mov	r2, #25600
 463 0006 C4F20202 		movt	r2, 16386
 464              		.loc 1 279 0
 465 000a 036C     		ldr	r3, [r0, #64]
 466              		.loc 1 277 0
 467 000c 1168     		ldr	r1, [r2, #0]
 468              	.LVL24:
 469              		.loc 1 272 0
 470 000e 10B5     		push	{r4, lr}
 471              	.LCFI8:
 472              		.cfi_def_cfa_offset 8
 473              		.cfi_offset 14, -4
 474              		.cfi_offset 4, -8
 475              		.loc 1 278 0
 476 0010 3D24     		movs	r4, #61
 477 0012 9460     		str	r4, [r2, #8]
 478              		.loc 1 279 0
 479 0014 13B1     		cbz	r3, .L35
 480              		.loc 1 280 0
 481 0016 406C     		ldr	r0, [r0, #68]
 482 0018 2140     		ands	r1, r1, r4
 483              	.LVL25:
 484 001a 9847     		blx	r3
 485              	.LVL26:
 486              	.L35:
 487              		.loc 1 283 0
 488 001c BDE81040 		pop	{r4, lr}
 489              		.loc 1 282 0
 490 0020 FFF7FEBF 		b	_port_irq_epilogue
 491              	.L37:
 492              		.align	2
 493              	.L36:
 494 0024 00000000 		.word	.LANCHOR0
 495              		.cfi_endproc
 496              	.LFE126:
 497              		.size	Vector120, .-Vector120
 498 0028 AFF30080 		.section	.text.Vector124,"ax",%progbits
 498      AFF30080 
 499              		.align	2
 500              		.p2align 4,,15
 501              		.global	Vector124
 502              		.thumb
 503              		.thumb_func
 504              		.type	Vector124, %function
 505              	Vector124:
 506              	.LFB127:
 507              		.loc 1 290 0
 508              		.cfi_startproc
 509              		@ args = 0, pretend = 0, frame = 0
 510              		@ frame_needed = 0, uses_anonymous_args = 0
ARM GAS  /tmp/ccIMeq3I.s 			page 10


 511              		.loc 1 297 0
 512 0000 0A48     		ldr	r0, .L40
 513              		.loc 1 295 0
 514 0002 4FF4C842 		mov	r2, #25600
 515 0006 C4F20202 		movt	r2, 16386
 516              		.loc 1 297 0
 517 000a 836C     		ldr	r3, [r0, #72]
 518              		.loc 1 295 0
 519 000c 1168     		ldr	r1, [r2, #0]
 520              	.LVL27:
 521              		.loc 1 290 0
 522 000e 10B5     		push	{r4, lr}
 523              	.LCFI9:
 524              		.cfi_def_cfa_offset 8
 525              		.cfi_offset 14, -4
 526              		.cfi_offset 4, -8
 527              		.loc 1 296 0
 528 0010 4FF47464 		mov	r4, #3904
 529 0014 9460     		str	r4, [r2, #8]
 530              		.loc 1 297 0
 531 0016 23B1     		cbz	r3, .L39
 532              		.loc 1 295 0
 533 0018 8909     		lsrs	r1, r1, #6
 534              	.LVL28:
 535              		.loc 1 298 0
 536 001a C06C     		ldr	r0, [r0, #76]
 537 001c 01F03D01 		and	r1, r1, #61
 538              	.LVL29:
 539 0020 9847     		blx	r3
 540              	.L39:
 541              		.loc 1 301 0
 542 0022 BDE81040 		pop	{r4, lr}
 543              		.loc 1 300 0
 544 0026 FFF7FEBF 		b	_port_irq_epilogue
 545              	.L41:
 546 002a 00BF     		.align	2
 547              	.L40:
 548 002c 00000000 		.word	.LANCHOR0
 549              		.cfi_endproc
 550              	.LFE127:
 551              		.size	Vector124, .-Vector124
 552              		.section	.text.Vector128,"ax",%progbits
 553              		.align	2
 554              		.p2align 4,,15
 555              		.global	Vector128
 556              		.thumb
 557              		.thumb_func
 558              		.type	Vector128, %function
 559              	Vector128:
 560              	.LFB128:
 561              		.loc 1 308 0
 562              		.cfi_startproc
 563              		@ args = 0, pretend = 0, frame = 0
 564              		@ frame_needed = 0, uses_anonymous_args = 0
 565              		.loc 1 315 0
 566 0000 0A48     		ldr	r0, .L44
 567              		.loc 1 313 0
ARM GAS  /tmp/ccIMeq3I.s 			page 11


 568 0002 4FF4C842 		mov	r2, #25600
 569 0006 C4F20202 		movt	r2, 16386
 570              		.loc 1 315 0
 571 000a 036D     		ldr	r3, [r0, #80]
 572              		.loc 1 313 0
 573 000c 1168     		ldr	r1, [r2, #0]
 574              	.LVL30:
 575              		.loc 1 308 0
 576 000e 10B5     		push	{r4, lr}
 577              	.LCFI10:
 578              		.cfi_def_cfa_offset 8
 579              		.cfi_offset 14, -4
 580              		.cfi_offset 4, -8
 581              		.loc 1 314 0
 582 0010 4FF47414 		mov	r4, #3997696
 583 0014 9460     		str	r4, [r2, #8]
 584              		.loc 1 315 0
 585 0016 23B1     		cbz	r3, .L43
 586              		.loc 1 313 0
 587 0018 090C     		lsrs	r1, r1, #16
 588              	.LVL31:
 589              		.loc 1 316 0
 590 001a 406D     		ldr	r0, [r0, #84]
 591 001c 01F03D01 		and	r1, r1, #61
 592              	.LVL32:
 593 0020 9847     		blx	r3
 594              	.L43:
 595              		.loc 1 319 0
 596 0022 BDE81040 		pop	{r4, lr}
 597              		.loc 1 318 0
 598 0026 FFF7FEBF 		b	_port_irq_epilogue
 599              	.L45:
 600 002a 00BF     		.align	2
 601              	.L44:
 602 002c 00000000 		.word	.LANCHOR0
 603              		.cfi_endproc
 604              	.LFE128:
 605              		.size	Vector128, .-Vector128
 606              		.section	.text.Vector12C,"ax",%progbits
 607              		.align	2
 608              		.p2align 4,,15
 609              		.global	Vector12C
 610              		.thumb
 611              		.thumb_func
 612              		.type	Vector12C, %function
 613              	Vector12C:
 614              	.LFB129:
 615              		.loc 1 326 0
 616              		.cfi_startproc
 617              		@ args = 0, pretend = 0, frame = 0
 618              		@ frame_needed = 0, uses_anonymous_args = 0
 619              		.loc 1 333 0
 620 0000 0A48     		ldr	r0, .L48
 621              		.loc 1 331 0
 622 0002 4FF4C842 		mov	r2, #25600
 623 0006 C4F20202 		movt	r2, 16386
 624              		.loc 1 333 0
ARM GAS  /tmp/ccIMeq3I.s 			page 12


 625 000a 836D     		ldr	r3, [r0, #88]
 626              		.loc 1 331 0
 627 000c 1168     		ldr	r1, [r2, #0]
 628              	.LVL33:
 629              		.loc 1 326 0
 630 000e 10B5     		push	{r4, lr}
 631              	.LCFI11:
 632              		.cfi_def_cfa_offset 8
 633              		.cfi_offset 14, -4
 634              		.cfi_offset 4, -8
 635              		.loc 1 332 0
 636 0010 4FF07464 		mov	r4, #255852544
 637 0014 9460     		str	r4, [r2, #8]
 638              		.loc 1 333 0
 639 0016 23B1     		cbz	r3, .L47
 640              		.loc 1 331 0
 641 0018 890D     		lsrs	r1, r1, #22
 642              	.LVL34:
 643              		.loc 1 334 0
 644 001a C06D     		ldr	r0, [r0, #92]
 645 001c 01F03D01 		and	r1, r1, #61
 646              	.LVL35:
 647 0020 9847     		blx	r3
 648              	.L47:
 649              		.loc 1 337 0
 650 0022 BDE81040 		pop	{r4, lr}
 651              		.loc 1 336 0
 652 0026 FFF7FEBF 		b	_port_irq_epilogue
 653              	.L49:
 654 002a 00BF     		.align	2
 655              	.L48:
 656 002c 00000000 		.word	.LANCHOR0
 657              		.cfi_endproc
 658              	.LFE129:
 659              		.size	Vector12C, .-Vector12C
 660              		.section	.text.Vector130,"ax",%progbits
 661              		.align	2
 662              		.p2align 4,,15
 663              		.global	Vector130
 664              		.thumb
 665              		.thumb_func
 666              		.type	Vector130, %function
 667              	Vector130:
 668              	.LFB130:
 669              		.loc 1 344 0
 670              		.cfi_startproc
 671              		@ args = 0, pretend = 0, frame = 0
 672              		@ frame_needed = 0, uses_anonymous_args = 0
 673              		.loc 1 351 0
 674 0000 0848     		ldr	r0, .L52
 675              		.loc 1 349 0
 676 0002 4FF4C842 		mov	r2, #25600
 677 0006 C4F20202 		movt	r2, 16386
 678              		.loc 1 351 0
 679 000a 036E     		ldr	r3, [r0, #96]
 680              		.loc 1 349 0
 681 000c 5168     		ldr	r1, [r2, #4]
ARM GAS  /tmp/ccIMeq3I.s 			page 13


 682              	.LVL36:
 683              		.loc 1 344 0
 684 000e 10B5     		push	{r4, lr}
 685              	.LCFI12:
 686              		.cfi_def_cfa_offset 8
 687              		.cfi_offset 14, -4
 688              		.cfi_offset 4, -8
 689              		.loc 1 350 0
 690 0010 3D24     		movs	r4, #61
 691 0012 D460     		str	r4, [r2, #12]
 692              		.loc 1 351 0
 693 0014 13B1     		cbz	r3, .L51
 694              		.loc 1 352 0
 695 0016 406E     		ldr	r0, [r0, #100]
 696 0018 2140     		ands	r1, r1, r4
 697              	.LVL37:
 698 001a 9847     		blx	r3
 699              	.LVL38:
 700              	.L51:
 701              		.loc 1 355 0
 702 001c BDE81040 		pop	{r4, lr}
 703              		.loc 1 354 0
 704 0020 FFF7FEBF 		b	_port_irq_epilogue
 705              	.L53:
 706              		.align	2
 707              	.L52:
 708 0024 00000000 		.word	.LANCHOR0
 709              		.cfi_endproc
 710              	.LFE130:
 711              		.size	Vector130, .-Vector130
 712 0028 AFF30080 		.section	.text.Vector150,"ax",%progbits
 712      AFF30080 
 713              		.align	2
 714              		.p2align 4,,15
 715              		.global	Vector150
 716              		.thumb
 717              		.thumb_func
 718              		.type	Vector150, %function
 719              	Vector150:
 720              	.LFB131:
 721              		.loc 1 362 0
 722              		.cfi_startproc
 723              		@ args = 0, pretend = 0, frame = 0
 724              		@ frame_needed = 0, uses_anonymous_args = 0
 725              		.loc 1 369 0
 726 0000 0A48     		ldr	r0, .L56
 727              		.loc 1 367 0
 728 0002 4FF4C842 		mov	r2, #25600
 729 0006 C4F20202 		movt	r2, 16386
 730              		.loc 1 369 0
 731 000a 836E     		ldr	r3, [r0, #104]
 732              		.loc 1 367 0
 733 000c 5168     		ldr	r1, [r2, #4]
 734              	.LVL39:
 735              		.loc 1 362 0
 736 000e 10B5     		push	{r4, lr}
 737              	.LCFI13:
ARM GAS  /tmp/ccIMeq3I.s 			page 14


 738              		.cfi_def_cfa_offset 8
 739              		.cfi_offset 14, -4
 740              		.cfi_offset 4, -8
 741              		.loc 1 368 0
 742 0010 4FF47464 		mov	r4, #3904
 743 0014 D460     		str	r4, [r2, #12]
 744              		.loc 1 369 0
 745 0016 23B1     		cbz	r3, .L55
 746              		.loc 1 367 0
 747 0018 8909     		lsrs	r1, r1, #6
 748              	.LVL40:
 749              		.loc 1 370 0
 750 001a C06E     		ldr	r0, [r0, #108]
 751 001c 01F03D01 		and	r1, r1, #61
 752              	.LVL41:
 753 0020 9847     		blx	r3
 754              	.L55:
 755              		.loc 1 373 0
 756 0022 BDE81040 		pop	{r4, lr}
 757              		.loc 1 372 0
 758 0026 FFF7FEBF 		b	_port_irq_epilogue
 759              	.L57:
 760 002a 00BF     		.align	2
 761              	.L56:
 762 002c 00000000 		.word	.LANCHOR0
 763              		.cfi_endproc
 764              	.LFE131:
 765              		.size	Vector150, .-Vector150
 766              		.section	.text.Vector154,"ax",%progbits
 767              		.align	2
 768              		.p2align 4,,15
 769              		.global	Vector154
 770              		.thumb
 771              		.thumb_func
 772              		.type	Vector154, %function
 773              	Vector154:
 774              	.LFB132:
 775              		.loc 1 380 0
 776              		.cfi_startproc
 777              		@ args = 0, pretend = 0, frame = 0
 778              		@ frame_needed = 0, uses_anonymous_args = 0
 779              		.loc 1 387 0
 780 0000 0A48     		ldr	r0, .L60
 781              		.loc 1 385 0
 782 0002 4FF4C842 		mov	r2, #25600
 783 0006 C4F20202 		movt	r2, 16386
 784              		.loc 1 387 0
 785 000a 036F     		ldr	r3, [r0, #112]
 786              		.loc 1 385 0
 787 000c 5168     		ldr	r1, [r2, #4]
 788              	.LVL42:
 789              		.loc 1 380 0
 790 000e 10B5     		push	{r4, lr}
 791              	.LCFI14:
 792              		.cfi_def_cfa_offset 8
 793              		.cfi_offset 14, -4
 794              		.cfi_offset 4, -8
ARM GAS  /tmp/ccIMeq3I.s 			page 15


 795              		.loc 1 386 0
 796 0010 4FF47414 		mov	r4, #3997696
 797 0014 D460     		str	r4, [r2, #12]
 798              		.loc 1 387 0
 799 0016 23B1     		cbz	r3, .L59
 800              		.loc 1 385 0
 801 0018 090C     		lsrs	r1, r1, #16
 802              	.LVL43:
 803              		.loc 1 388 0
 804 001a 406F     		ldr	r0, [r0, #116]
 805 001c 01F03D01 		and	r1, r1, #61
 806              	.LVL44:
 807 0020 9847     		blx	r3
 808              	.L59:
 809              		.loc 1 391 0
 810 0022 BDE81040 		pop	{r4, lr}
 811              		.loc 1 390 0
 812 0026 FFF7FEBF 		b	_port_irq_epilogue
 813              	.L61:
 814 002a 00BF     		.align	2
 815              	.L60:
 816 002c 00000000 		.word	.LANCHOR0
 817              		.cfi_endproc
 818              	.LFE132:
 819              		.size	Vector154, .-Vector154
 820              		.section	.text.Vector158,"ax",%progbits
 821              		.align	2
 822              		.p2align 4,,15
 823              		.global	Vector158
 824              		.thumb
 825              		.thumb_func
 826              		.type	Vector158, %function
 827              	Vector158:
 828              	.LFB133:
 829              		.loc 1 398 0
 830              		.cfi_startproc
 831              		@ args = 0, pretend = 0, frame = 0
 832              		@ frame_needed = 0, uses_anonymous_args = 0
 833              		.loc 1 405 0
 834 0000 0A48     		ldr	r0, .L64
 835              		.loc 1 403 0
 836 0002 4FF4C842 		mov	r2, #25600
 837 0006 C4F20202 		movt	r2, 16386
 838              		.loc 1 405 0
 839 000a 836F     		ldr	r3, [r0, #120]
 840              		.loc 1 403 0
 841 000c 5168     		ldr	r1, [r2, #4]
 842              	.LVL45:
 843              		.loc 1 398 0
 844 000e 10B5     		push	{r4, lr}
 845              	.LCFI15:
 846              		.cfi_def_cfa_offset 8
 847              		.cfi_offset 14, -4
 848              		.cfi_offset 4, -8
 849              		.loc 1 404 0
 850 0010 4FF07464 		mov	r4, #255852544
 851 0014 D460     		str	r4, [r2, #12]
ARM GAS  /tmp/ccIMeq3I.s 			page 16


 852              		.loc 1 405 0
 853 0016 23B1     		cbz	r3, .L63
 854              		.loc 1 403 0
 855 0018 890D     		lsrs	r1, r1, #22
 856              	.LVL46:
 857              		.loc 1 406 0
 858 001a C06F     		ldr	r0, [r0, #124]
 859 001c 01F03D01 		and	r1, r1, #61
 860              	.LVL47:
 861 0020 9847     		blx	r3
 862              	.L63:
 863              		.loc 1 409 0
 864 0022 BDE81040 		pop	{r4, lr}
 865              		.loc 1 408 0
 866 0026 FFF7FEBF 		b	_port_irq_epilogue
 867              	.L65:
 868 002a 00BF     		.align	2
 869              	.L64:
 870 002c 00000000 		.word	.LANCHOR0
 871              		.cfi_endproc
 872              	.LFE133:
 873              		.size	Vector158, .-Vector158
 874              		.section	.text.dmaInit,"ax",%progbits
 875              		.align	2
 876              		.p2align 4,,15
 877              		.global	dmaInit
 878              		.thumb
 879              		.thumb_func
 880              		.type	dmaInit, %function
 881              	dmaInit:
 882              	.LFB134:
 883              		.loc 1 420 0
 884              		.cfi_startproc
 885              		@ args = 0, pretend = 0, frame = 0
 886              		@ frame_needed = 0, uses_anonymous_args = 0
 887              		@ link register save eliminated.
 888              		.loc 1 423 0
 889 0000 0F4B     		ldr	r3, .L69
 890              		.loc 1 420 0
 891 0002 30B4     		push	{r4, r5}
 892              	.LCFI16:
 893              		.cfi_def_cfa_offset 8
 894              		.cfi_offset 5, -4
 895              		.cfi_offset 4, -8
 896              		.loc 1 423 0
 897 0004 0022     		movs	r2, #0
 898 0006 0F4D     		ldr	r5, .L69+4
 899 0008 0F4C     		ldr	r4, .L69+8
 900 000a 1A60     		str	r2, [r3, #0]
 901              	.LVL48:
 902              		.loc 1 425 0
 903 000c 1146     		mov	r1, r2
 904              		.loc 1 423 0
 905 000e 1346     		mov	r3, r2
 906              	.LVL49:
 907              	.L67:
 908              		.loc 1 425 0 discriminator 2
ARM GAS  /tmp/ccIMeq3I.s 			page 17


 909 0010 E858     		ldr	r0, [r5, r3]
 910              		.loc 1 426 0 discriminator 2
 911 0012 0C33     		adds	r3, r3, #12
 912              		.loc 1 425 0 discriminator 2
 913 0014 0160     		str	r1, [r0, #0]
 914              		.loc 1 426 0 discriminator 2
 915 0016 A150     		str	r1, [r4, r2]
 916 0018 0832     		adds	r2, r2, #8
 917              		.loc 1 424 0 discriminator 2
 918 001a C02B     		cmp	r3, #192
 919 001c F8D1     		bne	.L67
 920              		.loc 1 428 0
 921 001e 4FF4C041 		mov	r1, #24576
 922              		.loc 1 430 0
 923 0022 4FF4C842 		mov	r2, #25600
 924              		.loc 1 428 0
 925 0026 C4F20201 		movt	r1, 16386
 926              		.loc 1 430 0
 927 002a C4F20202 		movt	r2, 16386
 928              		.loc 1 428 0
 929 002e 4FF0FF33 		mov	r3, #-1
 930 0032 8B60     		str	r3, [r1, #8]
 931              		.loc 1 429 0
 932 0034 CB60     		str	r3, [r1, #12]
 933              		.loc 1 430 0
 934 0036 9360     		str	r3, [r2, #8]
 935              		.loc 1 431 0
 936 0038 D360     		str	r3, [r2, #12]
 937              		.loc 1 432 0
 938 003a 30BC     		pop	{r4, r5}
 939 003c 7047     		bx	lr
 940              	.L70:
 941 003e 00BF     		.align	2
 942              	.L69:
 943 0040 00000000 		.word	.LANCHOR1
 944 0044 00000000 		.word	.LANCHOR2
 945 0048 00000000 		.word	.LANCHOR0
 946              		.cfi_endproc
 947              	.LFE134:
 948              		.size	dmaInit, .-dmaInit
 949 004c AFF30080 		.section	.text.dmaStreamAllocate,"ax",%progbits
 950              		.align	2
 951              		.p2align 4,,15
 952              		.global	dmaStreamAllocate
 953              		.thumb
 954              		.thumb_func
 955              		.type	dmaStreamAllocate, %function
 956              	dmaStreamAllocate:
 957              	.LFB135:
 958              		.loc 1 461 0
 959              		.cfi_startproc
 960              		@ args = 0, pretend = 0, frame = 0
 961              		@ frame_needed = 0, uses_anonymous_args = 0
 962              	.LVL50:
 963 0000 2DE9F041 		push	{r4, r5, r6, r7, r8, lr}
 964              	.LCFI17:
 965              		.cfi_def_cfa_offset 24
ARM GAS  /tmp/ccIMeq3I.s 			page 18


 966              		.cfi_offset 14, -4
 967              		.cfi_offset 8, -8
 968              		.cfi_offset 7, -12
 969              		.cfi_offset 6, -16
 970              		.cfi_offset 5, -20
 971              		.cfi_offset 4, -24
 972              		.loc 1 466 0
 973 0004 254D     		ldr	r5, .L79
 974 0006 447A     		ldrb	r4, [r0, #9]	@ zero_extendqisi2
 975 0008 2E68     		ldr	r6, [r5, #0]
 976 000a 4FF0010C 		mov	ip, #1
 977 000e 0CFA04F7 		lsl	r7, ip, r4
 978 0012 3742     		tst	r7, r6
 979 0014 3BD1     		bne	.L76
 980              		.loc 1 470 0
 981 0016 DFF888C0 		ldr	ip, .L79+4
 982              		.loc 1 472 0
 983 001a 3E43     		orrs	r6, r6, r7
 984              		.loc 1 471 0
 985 001c 0CEBC408 		add	r8, ip, r4, lsl #3
 986              		.loc 1 475 0
 987 0020 16F0FF0F 		tst	r6, #255
 988              		.loc 1 471 0
 989 0024 C8F80430 		str	r3, [r8, #4]
 990              		.loc 1 476 0
 991 0028 1CBF     		itt	ne
 992 002a 4FF46053 		movne	r3, #14336
 993              	.LVL51:
 994 002e C4F20203 		movtne	r3, 16386
 995              		.loc 1 472 0
 996 0032 2E60     		str	r6, [r5, #0]
 997              		.loc 1 470 0
 998 0034 4CF83420 		str	r2, [ip, r4, lsl #3]
 999              		.loc 1 476 0
 1000 0038 1EBF     		ittt	ne
 1001 003a 1C6B     		ldrne	r4, [r3, #48]
 1002 003c 44F40014 		orrne	r4, r4, #2097152
 1003 0040 1C63     		strne	r4, [r3, #48]
 1004              		.loc 1 477 0
 1005 0042 16F47F4F 		tst	r6, #65280
 1006              		.loc 1 478 0
 1007 0046 1FBF     		itttt	ne
 1008 0048 4FF46053 		movne	r3, #14336
 1009 004c C4F20203 		movtne	r3, 16386
 1010 0050 1C6B     		ldrne	r4, [r3, #48]
 1011 0052 44F48004 		orrne	r4, r4, #4194304
 1012 0056 18BF     		it	ne
 1013 0058 1C63     		strne	r4, [r3, #48]
 1014              		.loc 1 481 0
 1015 005a 0368     		ldr	r3, [r0, #0]
 1016 005c 1C68     		ldr	r4, [r3, #0]
 1017 005e 24F01F04 		bic	r4, r4, #31
 1018 0062 1C60     		str	r4, [r3, #0]
 1019              	.L75:
 1020              		.loc 1 481 0 is_stmt 0 discriminator 1
 1021 0064 1C68     		ldr	r4, [r3, #0]
 1022 0066 14F00104 		ands	r4, r4, #1
ARM GAS  /tmp/ccIMeq3I.s 			page 19


 1023 006a FBD1     		bne	.L75
 1024              		.loc 1 481 0 discriminator 2
 1025 006c 067A     		ldrb	r6, [r0, #8]	@ zero_extendqisi2
 1026 006e 4568     		ldr	r5, [r0, #4]
 1027 0070 3D27     		movs	r7, #61
 1028 0072 17FA06F6 		lsls	r6, r7, r6
 1029 0076 2E60     		str	r6, [r5, #0]
 1030              		.loc 1 483 0 is_stmt 1 discriminator 2
 1031 0078 2125     		movs	r5, #33
 1032              		.loc 1 482 0 discriminator 2
 1033 007a 1C60     		str	r4, [r3, #0]
 1034              		.loc 1 483 0 discriminator 2
 1035 007c 5D61     		str	r5, [r3, #20]
 1036              		.loc 1 486 0 discriminator 2
 1037 007e 4AB1     		cbz	r2, .L77
 1038              		.loc 1 487 0
 1039 0080 807A     		ldrb	r0, [r0, #10]	@ zero_extendqisi2
 1040              	.LVL52:
 1041 0082 0901     		lsls	r1, r1, #4
 1042              	.LVL53:
 1043 0084 FFF7FEFF 		bl	nvicEnableVector
 1044              	.LVL54:
 1045              		.loc 1 489 0
 1046 0088 2046     		mov	r0, r4
 1047 008a BDE8F081 		pop	{r4, r5, r6, r7, r8, pc}
 1048              	.LVL55:
 1049              	.L76:
 1050              		.loc 1 467 0
 1051 008e 6046     		mov	r0, ip
 1052              	.LVL56:
 1053 0090 BDE8F081 		pop	{r4, r5, r6, r7, r8, pc}
 1054              	.LVL57:
 1055              	.L77:
 1056              		.loc 1 489 0
 1057 0094 1046     		mov	r0, r2
 1058              	.LVL58:
 1059              		.loc 1 490 0
 1060 0096 BDE8F081 		pop	{r4, r5, r6, r7, r8, pc}
 1061              	.L80:
 1062 009a 00BF     		.align	2
 1063              	.L79:
 1064 009c 00000000 		.word	.LANCHOR1
 1065 00a0 00000000 		.word	.LANCHOR0
 1066              		.cfi_endproc
 1067              	.LFE135:
 1068              		.size	dmaStreamAllocate, .-dmaStreamAllocate
 1069 00a4 AFF30080 		.section	.text.dmaStreamRelease,"ax",%progbits
 1069      AFF30080 
 1069      AFF30080 
 1070              		.align	2
 1071              		.p2align 4,,15
 1072              		.global	dmaStreamRelease
 1073              		.thumb
 1074              		.thumb_func
 1075              		.type	dmaStreamRelease, %function
 1076              	dmaStreamRelease:
 1077              	.LFB136:
ARM GAS  /tmp/ccIMeq3I.s 			page 20


 1078              		.loc 1 505 0
 1079              		.cfi_startproc
 1080              		@ args = 0, pretend = 0, frame = 0
 1081              		@ frame_needed = 0, uses_anonymous_args = 0
 1082              	.LVL59:
 1083 0000 10B5     		push	{r4, lr}
 1084              	.LCFI18:
 1085              		.cfi_def_cfa_offset 8
 1086              		.cfi_offset 14, -4
 1087              		.cfi_offset 4, -8
 1088              		.loc 1 505 0
 1089 0002 0446     		mov	r4, r0
 1090              		.loc 1 514 0
 1091 0004 807A     		ldrb	r0, [r0, #10]	@ zero_extendqisi2
 1092              	.LVL60:
 1093 0006 FFF7FEFF 		bl	nvicDisableVector
 1094              		.loc 1 517 0
 1095 000a 114A     		ldr	r2, .L84
 1096 000c 637A     		ldrb	r3, [r4, #9]	@ zero_extendqisi2
 1097 000e 1168     		ldr	r1, [r2, #0]
 1098 0010 0120     		movs	r0, #1
 1099 0012 10FA03F3 		lsls	r3, r0, r3
 1100 0016 21EA0303 		bic	r3, r1, r3
 1101              		.loc 1 520 0
 1102 001a 13F0FF0F 		tst	r3, #255
 1103              		.loc 1 517 0
 1104 001e 1360     		str	r3, [r2, #0]
 1105              		.loc 1 521 0
 1106 0020 01BF     		itttt	eq
 1107 0022 4FF46052 		moveq	r2, #14336
 1108 0026 C4F20202 		movteq	r2, 16386
 1109 002a 116B     		ldreq	r1, [r2, #48]
 1110 002c 21F40011 		biceq	r1, r1, #2097152
 1111 0030 08BF     		it	eq
 1112 0032 1163     		streq	r1, [r2, #48]
 1113              		.loc 1 522 0
 1114 0034 13F47F4F 		tst	r3, #65280
 1115              		.loc 1 523 0
 1116 0038 01BF     		itttt	eq
 1117 003a 4FF46053 		moveq	r3, #14336
 1118 003e C4F20203 		movteq	r3, 16386
 1119 0042 1A6B     		ldreq	r2, [r3, #48]
 1120 0044 22F48002 		biceq	r2, r2, #4194304
 1121 0048 08BF     		it	eq
 1122 004a 1A63     		streq	r2, [r3, #48]
 1123 004c 10BD     		pop	{r4, pc}
 1124              	.L85:
 1125 004e 00BF     		.align	2
 1126              	.L84:
 1127 0050 00000000 		.word	.LANCHOR1
 1128              		.cfi_endproc
 1129              	.LFE136:
 1130              		.size	dmaStreamRelease, .-dmaStreamRelease
 1131              		.global	_stm32_dma_streams
 1132 0054 AFF30080 		.section	.bss.dma_isr_redir,"aw",%nobits
 1132      AFF30080 
 1132      AFF30080 
ARM GAS  /tmp/ccIMeq3I.s 			page 21


 1133              		.align	2
 1134              		.set	.LANCHOR0,. + 0
 1135              		.type	dma_isr_redir, %object
 1136              		.size	dma_isr_redir, 128
 1137              	dma_isr_redir:
 1138 0000 00000000 		.space	128
 1138      00000000 
 1138      00000000 
 1138      00000000 
 1138      00000000 
 1139              		.section	.rodata._stm32_dma_streams,"a",%progbits
 1140              		.align	2
 1141              		.set	.LANCHOR2,. + 0
 1142              		.type	_stm32_dma_streams, %object
 1143              		.size	_stm32_dma_streams, 192
 1144              	_stm32_dma_streams:
 1145 0000 10600240 		.word	1073897488
 1146 0004 08600240 		.word	1073897480
 1147 0008 00       		.byte	0
 1148 0009 00       		.byte	0
 1149 000a 0B       		.byte	11
 1150 000b 00       		.space	1
 1151 000c 28600240 		.word	1073897512
 1152 0010 08600240 		.word	1073897480
 1153 0014 06       		.byte	6
 1154 0015 01       		.byte	1
 1155 0016 0C       		.byte	12
 1156 0017 00       		.space	1
 1157 0018 40600240 		.word	1073897536
 1158 001c 08600240 		.word	1073897480
 1159 0020 10       		.byte	16
 1160 0021 02       		.byte	2
 1161 0022 0D       		.byte	13
 1162 0023 00       		.space	1
 1163 0024 58600240 		.word	1073897560
 1164 0028 08600240 		.word	1073897480
 1165 002c 16       		.byte	22
 1166 002d 03       		.byte	3
 1167 002e 0E       		.byte	14
 1168 002f 00       		.space	1
 1169 0030 70600240 		.word	1073897584
 1170 0034 0C600240 		.word	1073897484
 1171 0038 00       		.byte	0
 1172 0039 04       		.byte	4
 1173 003a 0F       		.byte	15
 1174 003b 00       		.space	1
 1175 003c 88600240 		.word	1073897608
 1176 0040 0C600240 		.word	1073897484
 1177 0044 06       		.byte	6
 1178 0045 05       		.byte	5
 1179 0046 10       		.byte	16
 1180 0047 00       		.space	1
 1181 0048 A0600240 		.word	1073897632
 1182 004c 0C600240 		.word	1073897484
 1183 0050 10       		.byte	16
 1184 0051 06       		.byte	6
 1185 0052 11       		.byte	17
ARM GAS  /tmp/ccIMeq3I.s 			page 22


 1186 0053 00       		.space	1
 1187 0054 B8600240 		.word	1073897656
 1188 0058 0C600240 		.word	1073897484
 1189 005c 16       		.byte	22
 1190 005d 07       		.byte	7
 1191 005e 2F       		.byte	47
 1192 005f 00       		.space	1
 1193 0060 10640240 		.word	1073898512
 1194 0064 08640240 		.word	1073898504
 1195 0068 00       		.byte	0
 1196 0069 08       		.byte	8
 1197 006a 38       		.byte	56
 1198 006b 00       		.space	1
 1199 006c 28640240 		.word	1073898536
 1200 0070 08640240 		.word	1073898504
 1201 0074 06       		.byte	6
 1202 0075 09       		.byte	9
 1203 0076 39       		.byte	57
 1204 0077 00       		.space	1
 1205 0078 40640240 		.word	1073898560
 1206 007c 08640240 		.word	1073898504
 1207 0080 10       		.byte	16
 1208 0081 0A       		.byte	10
 1209 0082 3A       		.byte	58
 1210 0083 00       		.space	1
 1211 0084 58640240 		.word	1073898584
 1212 0088 08640240 		.word	1073898504
 1213 008c 16       		.byte	22
 1214 008d 0B       		.byte	11
 1215 008e 3B       		.byte	59
 1216 008f 00       		.space	1
 1217 0090 70640240 		.word	1073898608
 1218 0094 0C640240 		.word	1073898508
 1219 0098 00       		.byte	0
 1220 0099 0C       		.byte	12
 1221 009a 3C       		.byte	60
 1222 009b 00       		.space	1
 1223 009c 88640240 		.word	1073898632
 1224 00a0 0C640240 		.word	1073898508
 1225 00a4 06       		.byte	6
 1226 00a5 0D       		.byte	13
 1227 00a6 44       		.byte	68
 1228 00a7 00       		.space	1
 1229 00a8 A0640240 		.word	1073898656
 1230 00ac 0C640240 		.word	1073898508
 1231 00b0 10       		.byte	16
 1232 00b1 0E       		.byte	14
 1233 00b2 45       		.byte	69
 1234 00b3 00       		.space	1
 1235 00b4 B8640240 		.word	1073898680
 1236 00b8 0C640240 		.word	1073898508
 1237 00bc 16       		.byte	22
 1238 00bd 0F       		.byte	15
 1239 00be 46       		.byte	70
 1240 00bf 00       		.space	1
 1241              		.section	.bss.dma_streams_mask,"aw",%nobits
 1242              		.align	2
ARM GAS  /tmp/ccIMeq3I.s 			page 23


 1243              		.set	.LANCHOR1,. + 0
 1244              		.type	dma_streams_mask, %object
 1245              		.size	dma_streams_mask, 4
 1246              	dma_streams_mask:
 1247 0000 00000000 		.space	4
 1248              		.text
 1249              	.Letext0:
 1250              		.file 2 "/opt/paparazzi/arm-multilib/lib/gcc/arm-none-eabi/4.6.2/../../../../arm-none-eabi/include
 1251              		.file 3 "../../os/ports/GCC/ARMCMx/chtypes.h"
 1252              		.file 4 "../../os/hal/platforms/STM32F4xx/stm32f4xx.h"
 1253              		.file 5 "../../os/hal/platforms/STM32F4xx/stm32_dma.h"
 1254              		.file 6 "../../os/ports/common/ARMCMx/CMSIS/include/core_cm4.h"
 1255              		.section	.debug_info,"",%progbits
 1256              	.Ldebug_info0:
 1257 0000 350A0000 		.4byte	0xa35
 1258 0004 0200     		.2byte	0x2
 1259 0006 00000000 		.4byte	.Ldebug_abbrev0
 1260 000a 04       		.byte	0x4
 1261 000b 01       		.uleb128 0x1
 1262 000c 87070000 		.4byte	.LASF179
 1263 0010 01       		.byte	0x1
 1264 0011 75000000 		.4byte	.LASF180
 1265 0015 C3010000 		.4byte	.LASF181
 1266 0019 00000000 		.4byte	0
 1267 001d 00000000 		.4byte	0
 1268 0021 00000000 		.4byte	.Ldebug_ranges0+0
 1269 0025 00000000 		.4byte	.Ldebug_line0
 1270 0029 02       		.uleb128 0x2
 1271 002a 04       		.byte	0x4
 1272 002b 05       		.byte	0x5
 1273 002c 696E7400 		.ascii	"int\000"
 1274 0030 03       		.uleb128 0x3
 1275 0031 04       		.byte	0x4
 1276 0032 07       		.byte	0x7
 1277 0033 D6020000 		.4byte	.LASF0
 1278 0037 03       		.uleb128 0x3
 1279 0038 01       		.byte	0x1
 1280 0039 06       		.byte	0x6
 1281 003a 7E010000 		.4byte	.LASF1
 1282 003e 04       		.uleb128 0x4
 1283 003f 1C080000 		.4byte	.LASF5
 1284 0043 02       		.byte	0x2
 1285 0044 2A       		.byte	0x2a
 1286 0045 49000000 		.4byte	0x49
 1287 0049 03       		.uleb128 0x3
 1288 004a 01       		.byte	0x1
 1289 004b 08       		.byte	0x8
 1290 004c D0050000 		.4byte	.LASF2
 1291 0050 03       		.uleb128 0x3
 1292 0051 02       		.byte	0x2
 1293 0052 05       		.byte	0x5
 1294 0053 17060000 		.4byte	.LASF3
 1295 0057 03       		.uleb128 0x3
 1296 0058 02       		.byte	0x2
 1297 0059 07       		.byte	0x7
 1298 005a 9B030000 		.4byte	.LASF4
 1299 005e 04       		.uleb128 0x4
ARM GAS  /tmp/ccIMeq3I.s 			page 24


 1300 005f C8050000 		.4byte	.LASF6
 1301 0063 02       		.byte	0x2
 1302 0064 4F       		.byte	0x4f
 1303 0065 69000000 		.4byte	0x69
 1304 0069 03       		.uleb128 0x3
 1305 006a 04       		.byte	0x4
 1306 006b 05       		.byte	0x5
 1307 006c 0C020000 		.4byte	.LASF7
 1308 0070 04       		.uleb128 0x4
 1309 0071 43020000 		.4byte	.LASF8
 1310 0075 02       		.byte	0x2
 1311 0076 50       		.byte	0x50
 1312 0077 7B000000 		.4byte	0x7b
 1313 007b 03       		.uleb128 0x3
 1314 007c 04       		.byte	0x4
 1315 007d 07       		.byte	0x7
 1316 007e 4D030000 		.4byte	.LASF9
 1317 0082 03       		.uleb128 0x3
 1318 0083 08       		.byte	0x8
 1319 0084 05       		.byte	0x5
 1320 0085 70010000 		.4byte	.LASF10
 1321 0089 03       		.uleb128 0x3
 1322 008a 08       		.byte	0x8
 1323 008b 07       		.byte	0x7
 1324 008c E0000000 		.4byte	.LASF11
 1325 0090 04       		.uleb128 0x4
 1326 0091 B5010000 		.4byte	.LASF12
 1327 0095 03       		.byte	0x3
 1328 0096 2B       		.byte	0x2b
 1329 0097 9B000000 		.4byte	0x9b
 1330 009b 03       		.uleb128 0x3
 1331 009c 01       		.byte	0x1
 1332 009d 02       		.byte	0x2
 1333 009e C2050000 		.4byte	.LASF13
 1334 00a2 05       		.uleb128 0x5
 1335 00a3 04       		.byte	0x4
 1336 00a4 06       		.uleb128 0x6
 1337 00a5 70000000 		.4byte	0x70
 1338 00a9 03       		.uleb128 0x3
 1339 00aa 01       		.byte	0x1
 1340 00ab 08       		.byte	0x8
 1341 00ac E8060000 		.4byte	.LASF14
 1342 00b0 07       		.uleb128 0x7
 1343 00b1 6A040000 		.4byte	.LASF182
 1344 00b5 01       		.byte	0x1
 1345 00b6 04       		.byte	0x4
 1346 00b7 8C       		.byte	0x8c
 1347 00b8 EB020000 		.4byte	0x2eb
 1348 00bc 08       		.uleb128 0x8
 1349 00bd 32070000 		.4byte	.LASF15
 1350 00c1 72       		.sleb128 -14
 1351 00c2 08       		.uleb128 0x8
 1352 00c3 1B030000 		.4byte	.LASF16
 1353 00c7 74       		.sleb128 -12
 1354 00c8 08       		.uleb128 0x8
 1355 00c9 07070000 		.4byte	.LASF17
 1356 00cd 75       		.sleb128 -11
ARM GAS  /tmp/ccIMeq3I.s 			page 25


 1357 00ce 08       		.uleb128 0x8
 1358 00cf AD060000 		.4byte	.LASF18
 1359 00d3 76       		.sleb128 -10
 1360 00d4 08       		.uleb128 0x8
 1361 00d5 8F030000 		.4byte	.LASF19
 1362 00d9 7B       		.sleb128 -5
 1363 00da 08       		.uleb128 0x8
 1364 00db A9070000 		.4byte	.LASF20
 1365 00df 7C       		.sleb128 -4
 1366 00e0 08       		.uleb128 0x8
 1367 00e1 7E020000 		.4byte	.LASF21
 1368 00e5 7E       		.sleb128 -2
 1369 00e6 08       		.uleb128 0x8
 1370 00e7 38040000 		.4byte	.LASF22
 1371 00eb 7F       		.sleb128 -1
 1372 00ec 08       		.uleb128 0x8
 1373 00ed 45010000 		.4byte	.LASF23
 1374 00f1 00       		.sleb128 0
 1375 00f2 08       		.uleb128 0x8
 1376 00f3 28000000 		.4byte	.LASF24
 1377 00f7 01       		.sleb128 1
 1378 00f8 08       		.uleb128 0x8
 1379 00f9 66070000 		.4byte	.LASF25
 1380 00fd 02       		.sleb128 2
 1381 00fe 08       		.uleb128 0x8
 1382 00ff 37010000 		.4byte	.LASF26
 1383 0103 03       		.sleb128 3
 1384 0104 08       		.uleb128 0x8
 1385 0105 73060000 		.4byte	.LASF27
 1386 0109 04       		.sleb128 4
 1387 010a 08       		.uleb128 0x8
 1388 010b D4080000 		.4byte	.LASF28
 1389 010f 05       		.sleb128 5
 1390 0110 08       		.uleb128 0x8
 1391 0111 00080000 		.4byte	.LASF29
 1392 0115 06       		.sleb128 6
 1393 0116 08       		.uleb128 0x8
 1394 0117 F8080000 		.4byte	.LASF30
 1395 011b 07       		.sleb128 7
 1396 011c 08       		.uleb128 0x8
 1397 011d 58060000 		.4byte	.LASF31
 1398 0121 08       		.sleb128 8
 1399 0122 08       		.uleb128 0x8
 1400 0123 DE040000 		.4byte	.LASF32
 1401 0127 09       		.sleb128 9
 1402 0128 08       		.uleb128 0x8
 1403 0129 FE050000 		.4byte	.LASF33
 1404 012d 0A       		.sleb128 10
 1405 012e 08       		.uleb128 0x8
 1406 012f 03090000 		.4byte	.LASF34
 1407 0133 0B       		.sleb128 11
 1408 0134 08       		.uleb128 0x8
 1409 0135 FA030000 		.4byte	.LASF35
 1410 0139 0C       		.sleb128 12
 1411 013a 08       		.uleb128 0x8
 1412 013b F3040000 		.4byte	.LASF36
 1413 013f 0D       		.sleb128 13
ARM GAS  /tmp/ccIMeq3I.s 			page 26


 1414 0140 08       		.uleb128 0x8
 1415 0141 ED020000 		.4byte	.LASF37
 1416 0145 0E       		.sleb128 14
 1417 0146 08       		.uleb128 0x8
 1418 0147 B0040000 		.4byte	.LASF38
 1419 014b 0F       		.sleb128 15
 1420 014c 08       		.uleb128 0x8
 1421 014d 1E020000 		.4byte	.LASF39
 1422 0151 10       		.sleb128 16
 1423 0152 08       		.uleb128 0x8
 1424 0153 FF020000 		.4byte	.LASF40
 1425 0157 11       		.sleb128 17
 1426 0158 08       		.uleb128 0x8
 1427 0159 7B080000 		.4byte	.LASF41
 1428 015d 12       		.sleb128 18
 1429 015e 08       		.uleb128 0x8
 1430 015f CB030000 		.4byte	.LASF42
 1431 0163 13       		.sleb128 19
 1432 0164 08       		.uleb128 0x8
 1433 0165 1A000000 		.4byte	.LASF43
 1434 0169 14       		.sleb128 20
 1435 016a 08       		.uleb128 0x8
 1436 016b D2000000 		.4byte	.LASF44
 1437 016f 15       		.sleb128 21
 1438 0170 08       		.uleb128 0x8
 1439 0171 A6080000 		.4byte	.LASF45
 1440 0175 16       		.sleb128 22
 1441 0176 08       		.uleb128 0x8
 1442 0177 56000000 		.4byte	.LASF46
 1443 017b 17       		.sleb128 23
 1444 017c 08       		.uleb128 0x8
 1445 017d DE050000 		.4byte	.LASF47
 1446 0181 18       		.sleb128 24
 1447 0182 08       		.uleb128 0x8
 1448 0183 7E040000 		.4byte	.LASF48
 1449 0187 19       		.sleb128 25
 1450 0188 08       		.uleb128 0x8
 1451 0189 36060000 		.4byte	.LASF49
 1452 018d 1A       		.sleb128 26
 1453 018e 08       		.uleb128 0x8
 1454 018f 45040000 		.4byte	.LASF50
 1455 0193 1B       		.sleb128 27
 1456 0194 08       		.uleb128 0x8
 1457 0195 F6070000 		.4byte	.LASF51
 1458 0199 1C       		.sleb128 28
 1459 019a 08       		.uleb128 0x8
 1460 019b EE080000 		.4byte	.LASF52
 1461 019f 1D       		.sleb128 29
 1462 01a0 08       		.uleb128 0x8
 1463 01a1 2D010000 		.4byte	.LASF53
 1464 01a5 1E       		.sleb128 30
 1465 01a6 08       		.uleb128 0x8
 1466 01a7 A2000000 		.4byte	.LASF54
 1467 01ab 1F       		.sleb128 31
 1468 01ac 08       		.uleb128 0x8
 1469 01ad 6E080000 		.4byte	.LASF55
 1470 01b1 20       		.sleb128 32
ARM GAS  /tmp/ccIMeq3I.s 			page 27


 1471 01b2 08       		.uleb128 0x8
 1472 01b3 A3040000 		.4byte	.LASF56
 1473 01b7 21       		.sleb128 33
 1474 01b8 08       		.uleb128 0x8
 1475 01b9 20010000 		.4byte	.LASF57
 1476 01bd 22       		.sleb128 34
 1477 01be 08       		.uleb128 0x8
 1478 01bf F0030000 		.4byte	.LASF58
 1479 01c3 23       		.sleb128 35
 1480 01c4 08       		.uleb128 0x8
 1481 01c5 E9040000 		.4byte	.LASF59
 1482 01c9 24       		.sleb128 36
 1483 01ca 08       		.uleb128 0x8
 1484 01cb 0B080000 		.4byte	.LASF60
 1485 01cf 25       		.sleb128 37
 1486 01d0 08       		.uleb128 0x8
 1487 01d1 A1060000 		.4byte	.LASF61
 1488 01d5 26       		.sleb128 38
 1489 01d6 08       		.uleb128 0x8
 1490 01d7 DB070000 		.4byte	.LASF62
 1491 01db 27       		.sleb128 39
 1492 01dc 08       		.uleb128 0x8
 1493 01dd E1030000 		.4byte	.LASF63
 1494 01e1 28       		.sleb128 40
 1495 01e2 08       		.uleb128 0x8
 1496 01e3 F7000000 		.4byte	.LASF64
 1497 01e7 29       		.sleb128 41
 1498 01e8 08       		.uleb128 0x8
 1499 01e9 6D020000 		.4byte	.LASF65
 1500 01ed 2A       		.sleb128 42
 1501 01ee 08       		.uleb128 0x8
 1502 01ef 24040000 		.4byte	.LASF66
 1503 01f3 2B       		.sleb128 43
 1504 01f4 08       		.uleb128 0x8
 1505 01f5 8A020000 		.4byte	.LASF67
 1506 01f9 2C       		.sleb128 44
 1507 01fa 08       		.uleb128 0x8
 1508 01fb 52040000 		.4byte	.LASF68
 1509 01ff 2D       		.sleb128 45
 1510 0200 08       		.uleb128 0x8
 1511 0201 63010000 		.4byte	.LASF69
 1512 0205 2E       		.sleb128 46
 1513 0206 08       		.uleb128 0x8
 1514 0207 D6060000 		.4byte	.LASF70
 1515 020b 2F       		.sleb128 47
 1516 020c 08       		.uleb128 0x8
 1517 020d B8050000 		.4byte	.LASF71
 1518 0211 30       		.sleb128 48
 1519 0212 08       		.uleb128 0x8
 1520 0213 4F010000 		.4byte	.LASF72
 1521 0217 31       		.sleb128 49
 1522 0218 08       		.uleb128 0x8
 1523 0219 D4040000 		.4byte	.LASF73
 1524 021d 32       		.sleb128 50
 1525 021e 08       		.uleb128 0x8
 1526 021f 93050000 		.4byte	.LASF74
 1527 0223 33       		.sleb128 51
ARM GAS  /tmp/ccIMeq3I.s 			page 28


 1528 0224 08       		.uleb128 0x8
 1529 0225 62020000 		.4byte	.LASF75
 1530 0229 34       		.sleb128 52
 1531 022a 08       		.uleb128 0x8
 1532 022b 2B060000 		.4byte	.LASF76
 1533 022f 35       		.sleb128 53
 1534 0230 08       		.uleb128 0x8
 1535 0231 4C020000 		.4byte	.LASF77
 1536 0235 36       		.sleb128 54
 1537 0236 08       		.uleb128 0x8
 1538 0237 15070000 		.4byte	.LASF78
 1539 023b 37       		.sleb128 55
 1540 023c 08       		.uleb128 0x8
 1541 023d BB070000 		.4byte	.LASF79
 1542 0241 38       		.sleb128 56
 1543 0242 08       		.uleb128 0x8
 1544 0243 84080000 		.4byte	.LASF80
 1545 0247 39       		.sleb128 57
 1546 0248 08       		.uleb128 0x8
 1547 0249 AE030000 		.4byte	.LASF81
 1548 024d 3A       		.sleb128 58
 1549 024e 08       		.uleb128 0x8
 1550 024f 91040000 		.4byte	.LASF82
 1551 0253 3B       		.sleb128 59
 1552 0254 08       		.uleb128 0x8
 1553 0255 A6050000 		.4byte	.LASF83
 1554 0259 3C       		.sleb128 60
 1555 025a 08       		.uleb128 0x8
 1556 025b 75040000 		.4byte	.LASF84
 1557 025f 3D       		.sleb128 61
 1558 0260 08       		.uleb128 0x8
 1559 0261 35020000 		.4byte	.LASF85
 1560 0265 3E       		.sleb128 62
 1561 0266 08       		.uleb128 0x8
 1562 0267 05050000 		.4byte	.LASF86
 1563 026b 3F       		.sleb128 63
 1564 026c 08       		.uleb128 0x8
 1565 026d 31000000 		.4byte	.LASF87
 1566 0271 C000     		.sleb128 64
 1567 0273 08       		.uleb128 0x8
 1568 0274 8A010000 		.4byte	.LASF88
 1569 0278 C100     		.sleb128 65
 1570 027a 08       		.uleb128 0x8
 1571 027b C6080000 		.4byte	.LASF89
 1572 027f C200     		.sleb128 66
 1573 0281 08       		.uleb128 0x8
 1574 0282 8C060000 		.4byte	.LASF90
 1575 0286 C300     		.sleb128 67
 1576 0288 08       		.uleb128 0x8
 1577 0289 AF000000 		.4byte	.LASF91
 1578 028d C400     		.sleb128 68
 1579 028f 08       		.uleb128 0x8
 1580 0290 44000000 		.4byte	.LASF92
 1581 0294 C500     		.sleb128 69
 1582 0296 08       		.uleb128 0x8
 1583 0297 B0020000 		.4byte	.LASF93
 1584 029b C600     		.sleb128 70
ARM GAS  /tmp/ccIMeq3I.s 			page 29


 1585 029d 08       		.uleb128 0x8
 1586 029e C2040000 		.4byte	.LASF94
 1587 02a2 C700     		.sleb128 71
 1588 02a4 08       		.uleb128 0x8
 1589 02a5 40030000 		.4byte	.LASF95
 1590 02a9 C800     		.sleb128 72
 1591 02ab 08       		.uleb128 0x8
 1592 02ac 63000000 		.4byte	.LASF96
 1593 02b0 C900     		.sleb128 73
 1594 02b2 08       		.uleb128 0x8
 1595 02b3 7B030000 		.4byte	.LASF97
 1596 02b7 CA00     		.sleb128 74
 1597 02b9 08       		.uleb128 0x8
 1598 02ba 1F070000 		.4byte	.LASF98
 1599 02be CB00     		.sleb128 75
 1600 02c0 08       		.uleb128 0x8
 1601 02c1 DD080000 		.4byte	.LASF99
 1602 02c5 CC00     		.sleb128 76
 1603 02c7 08       		.uleb128 0x8
 1604 02c8 2E050000 		.4byte	.LASF100
 1605 02cc CD00     		.sleb128 77
 1606 02ce 08       		.uleb128 0x8
 1607 02cf 2A080000 		.4byte	.LASF101
 1608 02d3 CE00     		.sleb128 78
 1609 02d5 08       		.uleb128 0x8
 1610 02d6 98010000 		.4byte	.LASF102
 1611 02da CF00     		.sleb128 79
 1612 02dc 08       		.uleb128 0x8
 1613 02dd 09060000 		.4byte	.LASF103
 1614 02e1 D000     		.sleb128 80
 1615 02e3 08       		.uleb128 0x8
 1616 02e4 4C080000 		.4byte	.LASF104
 1617 02e8 D100     		.sleb128 81
 1618 02ea 00       		.byte	0
 1619 02eb 09       		.uleb128 0x9
 1620 02ec 70000000 		.4byte	0x70
 1621 02f0 FB020000 		.4byte	0x2fb
 1622 02f4 0A       		.uleb128 0xa
 1623 02f5 30000000 		.4byte	0x30
 1624 02f9 01       		.byte	0x1
 1625 02fa 00       		.byte	0
 1626 02fb 06       		.uleb128 0x6
 1627 02fc 5E000000 		.4byte	0x5e
 1628 0300 0B       		.uleb128 0xb
 1629 0301 18       		.byte	0x18
 1630 0302 04       		.byte	0x4
 1631 0303 D301     		.2byte	0x1d3
 1632 0305 63030000 		.4byte	0x363
 1633 0309 0C       		.uleb128 0xc
 1634 030a 435200   		.ascii	"CR\000"
 1635 030d 04       		.byte	0x4
 1636 030e D501     		.2byte	0x1d5
 1637 0310 A4000000 		.4byte	0xa4
 1638 0314 02       		.byte	0x2
 1639 0315 23       		.byte	0x23
 1640 0316 00       		.uleb128 0
 1641 0317 0D       		.uleb128 0xd
ARM GAS  /tmp/ccIMeq3I.s 			page 30


 1642 0318 46070000 		.4byte	.LASF105
 1643 031c 04       		.byte	0x4
 1644 031d D601     		.2byte	0x1d6
 1645 031f A4000000 		.4byte	0xa4
 1646 0323 02       		.byte	0x2
 1647 0324 23       		.byte	0x23
 1648 0325 04       		.uleb128 0x4
 1649 0326 0C       		.uleb128 0xc
 1650 0327 50415200 		.ascii	"PAR\000"
 1651 032b 04       		.byte	0x4
 1652 032c D701     		.2byte	0x1d7
 1653 032e A4000000 		.4byte	0xa4
 1654 0332 02       		.byte	0x2
 1655 0333 23       		.byte	0x23
 1656 0334 08       		.uleb128 0x8
 1657 0335 0D       		.uleb128 0xd
 1658 0336 3F000000 		.4byte	.LASF106
 1659 033a 04       		.byte	0x4
 1660 033b D801     		.2byte	0x1d8
 1661 033d A4000000 		.4byte	0xa4
 1662 0341 02       		.byte	0x2
 1663 0342 23       		.byte	0x23
 1664 0343 0C       		.uleb128 0xc
 1665 0344 0D       		.uleb128 0xd
 1666 0345 CD070000 		.4byte	.LASF107
 1667 0349 04       		.byte	0x4
 1668 034a D901     		.2byte	0x1d9
 1669 034c A4000000 		.4byte	0xa4
 1670 0350 02       		.byte	0x2
 1671 0351 23       		.byte	0x23
 1672 0352 10       		.uleb128 0x10
 1673 0353 0C       		.uleb128 0xc
 1674 0354 46435200 		.ascii	"FCR\000"
 1675 0358 04       		.byte	0x4
 1676 0359 DA01     		.2byte	0x1da
 1677 035b A4000000 		.4byte	0xa4
 1678 035f 02       		.byte	0x2
 1679 0360 23       		.byte	0x23
 1680 0361 14       		.uleb128 0x14
 1681 0362 00       		.byte	0
 1682 0363 0E       		.uleb128 0xe
 1683 0364 4B070000 		.4byte	.LASF108
 1684 0368 04       		.byte	0x4
 1685 0369 DB01     		.2byte	0x1db
 1686 036b 00030000 		.4byte	0x300
 1687 036f 0B       		.uleb128 0xb
 1688 0370 10       		.byte	0x10
 1689 0371 04       		.byte	0x4
 1690 0372 DD01     		.2byte	0x1dd
 1691 0374 B5030000 		.4byte	0x3b5
 1692 0378 0D       		.uleb128 0xd
 1693 0379 70000000 		.4byte	.LASF109
 1694 037d 04       		.byte	0x4
 1695 037e DF01     		.2byte	0x1df
 1696 0380 A4000000 		.4byte	0xa4
 1697 0384 02       		.byte	0x2
 1698 0385 23       		.byte	0x23
ARM GAS  /tmp/ccIMeq3I.s 			page 31


 1699 0386 00       		.uleb128 0
 1700 0387 0D       		.uleb128 0xd
 1701 0388 15040000 		.4byte	.LASF110
 1702 038c 04       		.byte	0x4
 1703 038d E001     		.2byte	0x1e0
 1704 038f A4000000 		.4byte	0xa4
 1705 0393 02       		.byte	0x2
 1706 0394 23       		.byte	0x23
 1707 0395 04       		.uleb128 0x4
 1708 0396 0D       		.uleb128 0xd
 1709 0397 6F040000 		.4byte	.LASF111
 1710 039b 04       		.byte	0x4
 1711 039c E101     		.2byte	0x1e1
 1712 039e A4000000 		.4byte	0xa4
 1713 03a2 02       		.byte	0x2
 1714 03a3 23       		.byte	0x23
 1715 03a4 08       		.uleb128 0x8
 1716 03a5 0D       		.uleb128 0xd
 1717 03a6 A0080000 		.4byte	.LASF112
 1718 03aa 04       		.byte	0x4
 1719 03ab E201     		.2byte	0x1e2
 1720 03ad A4000000 		.4byte	0xa4
 1721 03b1 02       		.byte	0x2
 1722 03b2 23       		.byte	0x23
 1723 03b3 0C       		.uleb128 0xc
 1724 03b4 00       		.byte	0
 1725 03b5 0E       		.uleb128 0xe
 1726 03b6 CA020000 		.4byte	.LASF113
 1727 03ba 04       		.byte	0x4
 1728 03bb E301     		.2byte	0x1e3
 1729 03bd 6F030000 		.4byte	0x36f
 1730 03c1 0B       		.uleb128 0xb
 1731 03c2 88       		.byte	0x88
 1732 03c3 04       		.byte	0x4
 1733 03c4 DB02     		.2byte	0x2db
 1734 03c6 8E050000 		.4byte	0x58e
 1735 03ca 0C       		.uleb128 0xc
 1736 03cb 435200   		.ascii	"CR\000"
 1737 03ce 04       		.byte	0x4
 1738 03cf DD02     		.2byte	0x2dd
 1739 03d1 A4000000 		.4byte	0xa4
 1740 03d5 02       		.byte	0x2
 1741 03d6 23       		.byte	0x23
 1742 03d7 00       		.uleb128 0
 1743 03d8 0D       		.uleb128 0xd
 1744 03d9 5A020000 		.4byte	.LASF114
 1745 03dd 04       		.byte	0x4
 1746 03de DE02     		.2byte	0x2de
 1747 03e0 A4000000 		.4byte	0xa4
 1748 03e4 02       		.byte	0x2
 1749 03e5 23       		.byte	0x23
 1750 03e6 04       		.uleb128 0x4
 1751 03e7 0D       		.uleb128 0xd
 1752 03e8 55080000 		.4byte	.LASF115
 1753 03ec 04       		.byte	0x4
 1754 03ed DF02     		.2byte	0x2df
 1755 03ef A4000000 		.4byte	0xa4
ARM GAS  /tmp/ccIMeq3I.s 			page 32


 1756 03f3 02       		.byte	0x2
 1757 03f4 23       		.byte	0x23
 1758 03f5 08       		.uleb128 0x8
 1759 03f6 0C       		.uleb128 0xc
 1760 03f7 43495200 		.ascii	"CIR\000"
 1761 03fb 04       		.byte	0x4
 1762 03fc E002     		.2byte	0x2e0
 1763 03fe A4000000 		.4byte	0xa4
 1764 0402 02       		.byte	0x2
 1765 0403 23       		.byte	0x23
 1766 0404 0C       		.uleb128 0xc
 1767 0405 0D       		.uleb128 0xd
 1768 0406 A2010000 		.4byte	.LASF116
 1769 040a 04       		.byte	0x4
 1770 040b E102     		.2byte	0x2e1
 1771 040d A4000000 		.4byte	0xa4
 1772 0411 02       		.byte	0x2
 1773 0412 23       		.byte	0x23
 1774 0413 10       		.uleb128 0x10
 1775 0414 0D       		.uleb128 0xd
 1776 0415 9D020000 		.4byte	.LASF117
 1777 0419 04       		.byte	0x4
 1778 041a E202     		.2byte	0x2e2
 1779 041c A4000000 		.4byte	0xa4
 1780 0420 02       		.byte	0x2
 1781 0421 23       		.byte	0x23
 1782 0422 14       		.uleb128 0x14
 1783 0423 0D       		.uleb128 0xd
 1784 0424 D8030000 		.4byte	.LASF118
 1785 0428 04       		.byte	0x4
 1786 0429 E302     		.2byte	0x2e3
 1787 042b A4000000 		.4byte	0xa4
 1788 042f 02       		.byte	0x2
 1789 0430 23       		.byte	0x23
 1790 0431 18       		.uleb128 0x18
 1791 0432 0D       		.uleb128 0xd
 1792 0433 3A050000 		.4byte	.LASF119
 1793 0437 04       		.byte	0x4
 1794 0438 E402     		.2byte	0x2e4
 1795 043a 70000000 		.4byte	0x70
 1796 043e 02       		.byte	0x2
 1797 043f 23       		.byte	0x23
 1798 0440 1C       		.uleb128 0x1c
 1799 0441 0D       		.uleb128 0xd
 1800 0442 25050000 		.4byte	.LASF120
 1801 0446 04       		.byte	0x4
 1802 0447 E502     		.2byte	0x2e5
 1803 0449 A4000000 		.4byte	0xa4
 1804 044d 02       		.byte	0x2
 1805 044e 23       		.byte	0x23
 1806 044f 20       		.uleb128 0x20
 1807 0450 0D       		.uleb128 0xd
 1808 0451 15020000 		.4byte	.LASF121
 1809 0455 04       		.byte	0x4
 1810 0456 E602     		.2byte	0x2e6
 1811 0458 A4000000 		.4byte	0xa4
 1812 045c 02       		.byte	0x2
ARM GAS  /tmp/ccIMeq3I.s 			page 33


 1813 045d 23       		.byte	0x23
 1814 045e 24       		.uleb128 0x24
 1815 045f 0D       		.uleb128 0xd
 1816 0460 44050000 		.4byte	.LASF122
 1817 0464 04       		.byte	0x4
 1818 0465 E702     		.2byte	0x2e7
 1819 0467 EB020000 		.4byte	0x2eb
 1820 046b 02       		.byte	0x2
 1821 046c 23       		.byte	0x23
 1822 046d 28       		.uleb128 0x28
 1823 046e 0D       		.uleb128 0xd
 1824 046f C2020000 		.4byte	.LASF123
 1825 0473 04       		.byte	0x4
 1826 0474 E802     		.2byte	0x2e8
 1827 0476 A4000000 		.4byte	0xa4
 1828 047a 02       		.byte	0x2
 1829 047b 23       		.byte	0x23
 1830 047c 30       		.uleb128 0x30
 1831 047d 0D       		.uleb128 0xd
 1832 047e 5E070000 		.4byte	.LASF124
 1833 0482 04       		.byte	0x4
 1834 0483 E902     		.2byte	0x2e9
 1835 0485 A4000000 		.4byte	0xa4
 1836 0489 02       		.byte	0x2
 1837 048a 23       		.byte	0x23
 1838 048b 34       		.uleb128 0x34
 1839 048c 0D       		.uleb128 0xd
 1840 048d 6B060000 		.4byte	.LASF125
 1841 0491 04       		.byte	0x4
 1842 0492 EA02     		.2byte	0x2ea
 1843 0494 A4000000 		.4byte	0xa4
 1844 0498 02       		.byte	0x2
 1845 0499 23       		.byte	0x23
 1846 049a 38       		.uleb128 0x38
 1847 049b 0D       		.uleb128 0xd
 1848 049c 4E050000 		.4byte	.LASF126
 1849 04a0 04       		.byte	0x4
 1850 04a1 EB02     		.2byte	0x2eb
 1851 04a3 70000000 		.4byte	0x70
 1852 04a7 02       		.byte	0x2
 1853 04a8 23       		.byte	0x23
 1854 04a9 3C       		.uleb128 0x3c
 1855 04aa 0D       		.uleb128 0xd
 1856 04ab C6060000 		.4byte	.LASF127
 1857 04af 04       		.byte	0x4
 1858 04b0 EC02     		.2byte	0x2ec
 1859 04b2 A4000000 		.4byte	0xa4
 1860 04b6 02       		.byte	0x2
 1861 04b7 23       		.byte	0x23
 1862 04b8 40       		.uleb128 0x40
 1863 04b9 0D       		.uleb128 0xd
 1864 04ba 63060000 		.4byte	.LASF128
 1865 04be 04       		.byte	0x4
 1866 04bf ED02     		.2byte	0x2ed
 1867 04c1 A4000000 		.4byte	0xa4
 1868 04c5 02       		.byte	0x2
 1869 04c6 23       		.byte	0x23
ARM GAS  /tmp/ccIMeq3I.s 			page 34


 1870 04c7 44       		.uleb128 0x44
 1871 04c8 0D       		.uleb128 0xd
 1872 04c9 58050000 		.4byte	.LASF129
 1873 04cd 04       		.byte	0x4
 1874 04ce EE02     		.2byte	0x2ee
 1875 04d0 EB020000 		.4byte	0x2eb
 1876 04d4 02       		.byte	0x2
 1877 04d5 23       		.byte	0x23
 1878 04d6 48       		.uleb128 0x48
 1879 04d7 0D       		.uleb128 0xd
 1880 04d8 59010000 		.4byte	.LASF130
 1881 04dc 04       		.byte	0x4
 1882 04dd EF02     		.2byte	0x2ef
 1883 04df A4000000 		.4byte	0xa4
 1884 04e3 02       		.byte	0x2
 1885 04e4 23       		.byte	0x23
 1886 04e5 50       		.uleb128 0x50
 1887 04e6 0D       		.uleb128 0xd
 1888 04e7 12050000 		.4byte	.LASF131
 1889 04eb 04       		.byte	0x4
 1890 04ec F002     		.2byte	0x2f0
 1891 04ee A4000000 		.4byte	0xa4
 1892 04f2 02       		.byte	0x2
 1893 04f3 23       		.byte	0x23
 1894 04f4 54       		.uleb128 0x54
 1895 04f5 0D       		.uleb128 0xd
 1896 04f6 21060000 		.4byte	.LASF132
 1897 04fa 04       		.byte	0x4
 1898 04fb F102     		.2byte	0x2f1
 1899 04fd A4000000 		.4byte	0xa4
 1900 0501 02       		.byte	0x2
 1901 0502 23       		.byte	0x23
 1902 0503 58       		.uleb128 0x58
 1903 0504 0D       		.uleb128 0xd
 1904 0505 62050000 		.4byte	.LASF133
 1905 0509 04       		.byte	0x4
 1906 050a F202     		.2byte	0x2f2
 1907 050c 70000000 		.4byte	0x70
 1908 0510 02       		.byte	0x2
 1909 0511 23       		.byte	0x23
 1910 0512 5C       		.uleb128 0x5c
 1911 0513 0D       		.uleb128 0xd
 1912 0514 10000000 		.4byte	.LASF134
 1913 0518 04       		.byte	0x4
 1914 0519 F302     		.2byte	0x2f3
 1915 051b A4000000 		.4byte	0xa4
 1916 051f 02       		.byte	0x2
 1917 0520 23       		.byte	0x23
 1918 0521 60       		.uleb128 0x60
 1919 0522 0D       		.uleb128 0xd
 1920 0523 1A040000 		.4byte	.LASF135
 1921 0527 04       		.byte	0x4
 1922 0528 F402     		.2byte	0x2f4
 1923 052a A4000000 		.4byte	0xa4
 1924 052e 02       		.byte	0x2
 1925 052f 23       		.byte	0x23
 1926 0530 64       		.uleb128 0x64
ARM GAS  /tmp/ccIMeq3I.s 			page 35


 1927 0531 0D       		.uleb128 0xd
 1928 0532 6C050000 		.4byte	.LASF136
 1929 0536 04       		.byte	0x4
 1930 0537 F502     		.2byte	0x2f5
 1931 0539 EB020000 		.4byte	0x2eb
 1932 053d 02       		.byte	0x2
 1933 053e 23       		.byte	0x23
 1934 053f 68       		.uleb128 0x68
 1935 0540 0D       		.uleb128 0xd
 1936 0541 17080000 		.4byte	.LASF137
 1937 0545 04       		.byte	0x4
 1938 0546 F602     		.2byte	0x2f6
 1939 0548 A4000000 		.4byte	0xa4
 1940 054c 02       		.byte	0x2
 1941 054d 23       		.byte	0x23
 1942 054e 70       		.uleb128 0x70
 1943 054f 0C       		.uleb128 0xc
 1944 0550 43535200 		.ascii	"CSR\000"
 1945 0554 04       		.byte	0x4
 1946 0555 F702     		.2byte	0x2f7
 1947 0557 A4000000 		.4byte	0xa4
 1948 055b 02       		.byte	0x2
 1949 055c 23       		.byte	0x23
 1950 055d 74       		.uleb128 0x74
 1951 055e 0D       		.uleb128 0xd
 1952 055f 76050000 		.4byte	.LASF138
 1953 0563 04       		.byte	0x4
 1954 0564 F802     		.2byte	0x2f8
 1955 0566 EB020000 		.4byte	0x2eb
 1956 056a 02       		.byte	0x2
 1957 056b 23       		.byte	0x23
 1958 056c 78       		.uleb128 0x78
 1959 056d 0D       		.uleb128 0xd
 1960 056e E7070000 		.4byte	.LASF139
 1961 0572 04       		.byte	0x4
 1962 0573 F902     		.2byte	0x2f9
 1963 0575 A4000000 		.4byte	0xa4
 1964 0579 03       		.byte	0x3
 1965 057a 23       		.byte	0x23
 1966 057b 8001     		.uleb128 0x80
 1967 057d 0D       		.uleb128 0xd
 1968 057e C0030000 		.4byte	.LASF140
 1969 0582 04       		.byte	0x4
 1970 0583 FA02     		.2byte	0x2fa
 1971 0585 A4000000 		.4byte	0xa4
 1972 0589 03       		.byte	0x3
 1973 058a 23       		.byte	0x23
 1974 058b 8401     		.uleb128 0x84
 1975 058d 00       		.byte	0
 1976 058e 0E       		.uleb128 0xe
 1977 058f 5F030000 		.4byte	.LASF141
 1978 0593 04       		.byte	0x4
 1979 0594 FB02     		.2byte	0x2fb
 1980 0596 C1030000 		.4byte	0x3c1
 1981 059a 0F       		.uleb128 0xf
 1982 059b 0C       		.byte	0xc
 1983 059c 05       		.byte	0x5
ARM GAS  /tmp/ccIMeq3I.s 			page 36


 1984 059d DA       		.byte	0xda
 1985 059e E9050000 		.4byte	0x5e9
 1986 05a2 10       		.uleb128 0x10
 1987 05a3 CB000000 		.4byte	.LASF142
 1988 05a7 05       		.byte	0x5
 1989 05a8 DB       		.byte	0xdb
 1990 05a9 E9050000 		.4byte	0x5e9
 1991 05ad 02       		.byte	0x2
 1992 05ae 23       		.byte	0x23
 1993 05af 00       		.uleb128 0
 1994 05b0 10       		.uleb128 0x10
 1995 05b1 7E060000 		.4byte	.LASF143
 1996 05b5 05       		.byte	0x5
 1997 05b6 DC       		.byte	0xdc
 1998 05b7 EF050000 		.4byte	0x5ef
 1999 05bb 02       		.byte	0x2
 2000 05bc 23       		.byte	0x23
 2001 05bd 04       		.uleb128 0x4
 2002 05be 10       		.uleb128 0x10
 2003 05bf 6B030000 		.4byte	.LASF144
 2004 05c3 05       		.byte	0x5
 2005 05c4 DD       		.byte	0xdd
 2006 05c5 3E000000 		.4byte	0x3e
 2007 05c9 02       		.byte	0x2
 2008 05ca 23       		.byte	0x23
 2009 05cb 08       		.uleb128 0x8
 2010 05cc 10       		.uleb128 0x10
 2011 05cd A6020000 		.4byte	.LASF145
 2012 05d1 05       		.byte	0x5
 2013 05d2 DF       		.byte	0xdf
 2014 05d3 3E000000 		.4byte	0x3e
 2015 05d7 02       		.byte	0x2
 2016 05d8 23       		.byte	0x23
 2017 05d9 09       		.uleb128 0x9
 2018 05da 10       		.uleb128 0x10
 2019 05db 06010000 		.4byte	.LASF146
 2020 05df 05       		.byte	0x5
 2021 05e0 E0       		.byte	0xe0
 2022 05e1 3E000000 		.4byte	0x3e
 2023 05e5 02       		.byte	0x2
 2024 05e6 23       		.byte	0x23
 2025 05e7 0A       		.uleb128 0xa
 2026 05e8 00       		.byte	0
 2027 05e9 11       		.uleb128 0x11
 2028 05ea 04       		.byte	0x4
 2029 05eb 63030000 		.4byte	0x363
 2030 05ef 11       		.uleb128 0x11
 2031 05f0 04       		.byte	0x4
 2032 05f1 A4000000 		.4byte	0xa4
 2033 05f5 04       		.uleb128 0x4
 2034 05f6 80050000 		.4byte	.LASF147
 2035 05fa 05       		.byte	0x5
 2036 05fb E1       		.byte	0xe1
 2037 05fc 9A050000 		.4byte	0x59a
 2038 0600 04       		.uleb128 0x4
 2039 0601 31030000 		.4byte	.LASF148
 2040 0605 05       		.byte	0x5
ARM GAS  /tmp/ccIMeq3I.s 			page 37


 2041 0606 EA       		.byte	0xea
 2042 0607 0B060000 		.4byte	0x60b
 2043 060b 11       		.uleb128 0x11
 2044 060c 04       		.byte	0x4
 2045 060d 11060000 		.4byte	0x611
 2046 0611 12       		.uleb128 0x12
 2047 0612 01       		.byte	0x1
 2048 0613 22060000 		.4byte	0x622
 2049 0617 13       		.uleb128 0x13
 2050 0618 A2000000 		.4byte	0xa2
 2051 061c 13       		.uleb128 0x13
 2052 061d 70000000 		.4byte	0x70
 2053 0621 00       		.byte	0
 2054 0622 11       		.uleb128 0x11
 2055 0623 04       		.byte	0x4
 2056 0624 28060000 		.4byte	0x628
 2057 0628 14       		.uleb128 0x14
 2058 0629 F5050000 		.4byte	0x5f5
 2059 062d 0F       		.uleb128 0xf
 2060 062e 08       		.byte	0x8
 2061 062f 01       		.byte	0x1
 2062 0630 64       		.byte	0x64
 2063 0631 52060000 		.4byte	0x652
 2064 0635 10       		.uleb128 0x10
 2065 0636 1C050000 		.4byte	.LASF149
 2066 063a 01       		.byte	0x1
 2067 063b 65       		.byte	0x65
 2068 063c 00060000 		.4byte	0x600
 2069 0640 02       		.byte	0x2
 2070 0641 23       		.byte	0x23
 2071 0642 00       		.uleb128 0
 2072 0643 10       		.uleb128 0x10
 2073 0644 4E060000 		.4byte	.LASF150
 2074 0648 01       		.byte	0x1
 2075 0649 66       		.byte	0x66
 2076 064a A2000000 		.4byte	0xa2
 2077 064e 02       		.byte	0x2
 2078 064f 23       		.byte	0x23
 2079 0650 04       		.uleb128 0x4
 2080 0651 00       		.byte	0
 2081 0652 04       		.uleb128 0x4
 2082 0653 00000000 		.4byte	.LASF151
 2083 0657 01       		.byte	0x1
 2084 0658 67       		.byte	0x67
 2085 0659 2D060000 		.4byte	0x62d
 2086 065d 15       		.uleb128 0x15
 2087 065e 01       		.byte	0x1
 2088 065f 9D050000 		.4byte	.LASF152
 2089 0663 01       		.byte	0x1
 2090 0664 80       		.byte	0x80
 2091 0665 01       		.byte	0x1
 2092 0666 00000000 		.4byte	.LFB118
 2093 066a 28000000 		.4byte	.LFE118
 2094 066e 00000000 		.4byte	.LLST0
 2095 0672 86060000 		.4byte	0x686
 2096 0676 16       		.uleb128 0x16
 2097 0677 24080000 		.4byte	.LASF154
ARM GAS  /tmp/ccIMeq3I.s 			page 38


 2098 067b 01       		.byte	0x1
 2099 067c 81       		.byte	0x81
 2100 067d 70000000 		.4byte	0x70
 2101 0681 20000000 		.4byte	.LLST1
 2102 0685 00       		.byte	0
 2103 0686 15       		.uleb128 0x15
 2104 0687 01       		.byte	0x1
 2105 0688 83060000 		.4byte	.LASF153
 2106 068c 01       		.byte	0x1
 2107 068d 92       		.byte	0x92
 2108 068e 01       		.byte	0x1
 2109 068f 00000000 		.4byte	.LFB119
 2110 0693 30000000 		.4byte	.LFE119
 2111 0697 43000000 		.4byte	.LLST2
 2112 069b AF060000 		.4byte	0x6af
 2113 069f 16       		.uleb128 0x16
 2114 06a0 24080000 		.4byte	.LASF154
 2115 06a4 01       		.byte	0x1
 2116 06a5 93       		.byte	0x93
 2117 06a6 70000000 		.4byte	0x70
 2118 06aa 63000000 		.4byte	.LLST3
 2119 06ae 00       		.byte	0
 2120 06af 15       		.uleb128 0x15
 2121 06b0 01       		.byte	0x1
 2122 06b1 98060000 		.4byte	.LASF155
 2123 06b5 01       		.byte	0x1
 2124 06b6 A4       		.byte	0xa4
 2125 06b7 01       		.byte	0x1
 2126 06b8 00000000 		.4byte	.LFB120
 2127 06bc 30000000 		.4byte	.LFE120
 2128 06c0 8D000000 		.4byte	.LLST4
 2129 06c4 D8060000 		.4byte	0x6d8
 2130 06c8 16       		.uleb128 0x16
 2131 06c9 24080000 		.4byte	.LASF154
 2132 06cd 01       		.byte	0x1
 2133 06ce A5       		.byte	0xa5
 2134 06cf 70000000 		.4byte	0x70
 2135 06d3 AD000000 		.4byte	.LLST5
 2136 06d7 00       		.byte	0
 2137 06d8 15       		.uleb128 0x15
 2138 06d9 01       		.byte	0x1
 2139 06da BD060000 		.4byte	.LASF156
 2140 06de 01       		.byte	0x1
 2141 06df B6       		.byte	0xb6
 2142 06e0 01       		.byte	0x1
 2143 06e1 00000000 		.4byte	.LFB121
 2144 06e5 30000000 		.4byte	.LFE121
 2145 06e9 D7000000 		.4byte	.LLST6
 2146 06ed 01070000 		.4byte	0x701
 2147 06f1 16       		.uleb128 0x16
 2148 06f2 24080000 		.4byte	.LASF154
 2149 06f6 01       		.byte	0x1
 2150 06f7 B7       		.byte	0xb7
 2151 06f8 70000000 		.4byte	0x70
 2152 06fc F7000000 		.4byte	.LLST7
 2153 0700 00       		.byte	0
 2154 0701 15       		.uleb128 0x15
ARM GAS  /tmp/ccIMeq3I.s 			page 39


 2155 0702 01       		.byte	0x1
 2156 0703 FE060000 		.4byte	.LASF157
 2157 0707 01       		.byte	0x1
 2158 0708 C8       		.byte	0xc8
 2159 0709 01       		.byte	0x1
 2160 070a 00000000 		.4byte	.LFB122
 2161 070e 28000000 		.4byte	.LFE122
 2162 0712 21010000 		.4byte	.LLST8
 2163 0716 2A070000 		.4byte	0x72a
 2164 071a 16       		.uleb128 0x16
 2165 071b 24080000 		.4byte	.LASF154
 2166 071f 01       		.byte	0x1
 2167 0720 C9       		.byte	0xc9
 2168 0721 70000000 		.4byte	0x70
 2169 0725 41010000 		.4byte	.LLST9
 2170 0729 00       		.byte	0
 2171 072a 15       		.uleb128 0x15
 2172 072b 01       		.byte	0x1
 2173 072c D2070000 		.4byte	.LASF158
 2174 0730 01       		.byte	0x1
 2175 0731 DA       		.byte	0xda
 2176 0732 01       		.byte	0x1
 2177 0733 00000000 		.4byte	.LFB123
 2178 0737 30000000 		.4byte	.LFE123
 2179 073b 64010000 		.4byte	.LLST10
 2180 073f 53070000 		.4byte	0x753
 2181 0743 16       		.uleb128 0x16
 2182 0744 24080000 		.4byte	.LASF154
 2183 0748 01       		.byte	0x1
 2184 0749 DB       		.byte	0xdb
 2185 074a 70000000 		.4byte	0x70
 2186 074e 84010000 		.4byte	.LLST11
 2187 0752 00       		.byte	0
 2188 0753 15       		.uleb128 0x15
 2189 0754 01       		.byte	0x1
 2190 0755 ED070000 		.4byte	.LASF159
 2191 0759 01       		.byte	0x1
 2192 075a EC       		.byte	0xec
 2193 075b 01       		.byte	0x1
 2194 075c 00000000 		.4byte	.LFB124
 2195 0760 30000000 		.4byte	.LFE124
 2196 0764 AE010000 		.4byte	.LLST12
 2197 0768 7C070000 		.4byte	0x77c
 2198 076c 16       		.uleb128 0x16
 2199 076d 24080000 		.4byte	.LASF154
 2200 0771 01       		.byte	0x1
 2201 0772 ED       		.byte	0xed
 2202 0773 70000000 		.4byte	0x70
 2203 0777 CE010000 		.4byte	.LLST13
 2204 077b 00       		.byte	0
 2205 077c 15       		.uleb128 0x15
 2206 077d 01       		.byte	0x1
 2207 077e 72030000 		.4byte	.LASF160
 2208 0782 01       		.byte	0x1
 2209 0783 FE       		.byte	0xfe
 2210 0784 01       		.byte	0x1
 2211 0785 00000000 		.4byte	.LFB125
ARM GAS  /tmp/ccIMeq3I.s 			page 40


 2212 0789 30000000 		.4byte	.LFE125
 2213 078d F8010000 		.4byte	.LLST14
 2214 0791 A5070000 		.4byte	0x7a5
 2215 0795 16       		.uleb128 0x16
 2216 0796 24080000 		.4byte	.LASF154
 2217 079a 01       		.byte	0x1
 2218 079b FF       		.byte	0xff
 2219 079c 70000000 		.4byte	0x70
 2220 07a0 18020000 		.4byte	.LLST15
 2221 07a4 00       		.byte	0
 2222 07a5 17       		.uleb128 0x17
 2223 07a6 01       		.byte	0x1
 2224 07a7 42080000 		.4byte	.LASF161
 2225 07ab 01       		.byte	0x1
 2226 07ac 1001     		.2byte	0x110
 2227 07ae 01       		.byte	0x1
 2228 07af 00000000 		.4byte	.LFB126
 2229 07b3 28000000 		.4byte	.LFE126
 2230 07b7 42020000 		.4byte	.LLST16
 2231 07bb D0070000 		.4byte	0x7d0
 2232 07bf 18       		.uleb128 0x18
 2233 07c0 24080000 		.4byte	.LASF154
 2234 07c4 01       		.byte	0x1
 2235 07c5 1101     		.2byte	0x111
 2236 07c7 70000000 		.4byte	0x70
 2237 07cb 62020000 		.4byte	.LLST17
 2238 07cf 00       		.byte	0
 2239 07d0 17       		.uleb128 0x17
 2240 07d1 01       		.byte	0x1
 2241 07d2 5A080000 		.4byte	.LASF162
 2242 07d6 01       		.byte	0x1
 2243 07d7 2201     		.2byte	0x122
 2244 07d9 01       		.byte	0x1
 2245 07da 00000000 		.4byte	.LFB127
 2246 07de 30000000 		.4byte	.LFE127
 2247 07e2 85020000 		.4byte	.LLST18
 2248 07e6 FB070000 		.4byte	0x7fb
 2249 07ea 18       		.uleb128 0x18
 2250 07eb 24080000 		.4byte	.LASF154
 2251 07ef 01       		.byte	0x1
 2252 07f0 2301     		.2byte	0x123
 2253 07f2 70000000 		.4byte	0x70
 2254 07f6 A5020000 		.4byte	.LLST19
 2255 07fa 00       		.byte	0
 2256 07fb 17       		.uleb128 0x17
 2257 07fc 01       		.byte	0x1
 2258 07fd 64080000 		.4byte	.LASF163
 2259 0801 01       		.byte	0x1
 2260 0802 3401     		.2byte	0x134
 2261 0804 01       		.byte	0x1
 2262 0805 00000000 		.4byte	.LFB128
 2263 0809 30000000 		.4byte	.LFE128
 2264 080d CF020000 		.4byte	.LLST20
 2265 0811 26080000 		.4byte	0x826
 2266 0815 18       		.uleb128 0x18
 2267 0816 24080000 		.4byte	.LASF154
 2268 081a 01       		.byte	0x1
ARM GAS  /tmp/ccIMeq3I.s 			page 41


 2269 081b 3501     		.2byte	0x135
 2270 081d 70000000 		.4byte	0x70
 2271 0821 EF020000 		.4byte	.LLST21
 2272 0825 00       		.byte	0
 2273 0826 17       		.uleb128 0x17
 2274 0827 01       		.byte	0x1
 2275 0828 96080000 		.4byte	.LASF164
 2276 082c 01       		.byte	0x1
 2277 082d 4601     		.2byte	0x146
 2278 082f 01       		.byte	0x1
 2279 0830 00000000 		.4byte	.LFB129
 2280 0834 30000000 		.4byte	.LFE129
 2281 0838 19030000 		.4byte	.LLST22
 2282 083c 51080000 		.4byte	0x851
 2283 0840 18       		.uleb128 0x18
 2284 0841 24080000 		.4byte	.LASF154
 2285 0845 01       		.byte	0x1
 2286 0846 4701     		.2byte	0x147
 2287 0848 70000000 		.4byte	0x70
 2288 084c 39030000 		.4byte	.LLST23
 2289 0850 00       		.byte	0
 2290 0851 17       		.uleb128 0x17
 2291 0852 01       		.byte	0x1
 2292 0853 C1000000 		.4byte	.LASF165
 2293 0857 01       		.byte	0x1
 2294 0858 5801     		.2byte	0x158
 2295 085a 01       		.byte	0x1
 2296 085b 00000000 		.4byte	.LFB130
 2297 085f 28000000 		.4byte	.LFE130
 2298 0863 63030000 		.4byte	.LLST24
 2299 0867 7C080000 		.4byte	0x87c
 2300 086b 18       		.uleb128 0x18
 2301 086c 24080000 		.4byte	.LASF154
 2302 0870 01       		.byte	0x1
 2303 0871 5901     		.2byte	0x159
 2304 0873 70000000 		.4byte	0x70
 2305 0877 83030000 		.4byte	.LLST25
 2306 087b 00       		.byte	0
 2307 087c 17       		.uleb128 0x17
 2308 087d 01       		.byte	0x1
 2309 087e E3020000 		.4byte	.LASF166
 2310 0882 01       		.byte	0x1
 2311 0883 6A01     		.2byte	0x16a
 2312 0885 01       		.byte	0x1
 2313 0886 00000000 		.4byte	.LFB131
 2314 088a 30000000 		.4byte	.LFE131
 2315 088e A6030000 		.4byte	.LLST26
 2316 0892 A7080000 		.4byte	0x8a7
 2317 0896 18       		.uleb128 0x18
 2318 0897 24080000 		.4byte	.LASF154
 2319 089b 01       		.byte	0x1
 2320 089c 6B01     		.2byte	0x16b
 2321 089e 70000000 		.4byte	0x70
 2322 08a2 C6030000 		.4byte	.LLST27
 2323 08a6 00       		.byte	0
 2324 08a7 17       		.uleb128 0x17
 2325 08a8 01       		.byte	0x1
ARM GAS  /tmp/ccIMeq3I.s 			page 42


 2326 08a9 11030000 		.4byte	.LASF167
 2327 08ad 01       		.byte	0x1
 2328 08ae 7C01     		.2byte	0x17c
 2329 08b0 01       		.byte	0x1
 2330 08b1 00000000 		.4byte	.LFB132
 2331 08b5 30000000 		.4byte	.LFE132
 2332 08b9 F0030000 		.4byte	.LLST28
 2333 08bd D2080000 		.4byte	0x8d2
 2334 08c1 18       		.uleb128 0x18
 2335 08c2 24080000 		.4byte	.LASF154
 2336 08c6 01       		.byte	0x1
 2337 08c7 7D01     		.2byte	0x17d
 2338 08c9 70000000 		.4byte	0x70
 2339 08cd 10040000 		.4byte	.LLST29
 2340 08d1 00       		.byte	0
 2341 08d2 17       		.uleb128 0x17
 2342 08d3 01       		.byte	0x1
 2343 08d4 AB010000 		.4byte	.LASF168
 2344 08d8 01       		.byte	0x1
 2345 08d9 8E01     		.2byte	0x18e
 2346 08db 01       		.byte	0x1
 2347 08dc 00000000 		.4byte	.LFB133
 2348 08e0 30000000 		.4byte	.LFE133
 2349 08e4 3A040000 		.4byte	.LLST30
 2350 08e8 FD080000 		.4byte	0x8fd
 2351 08ec 18       		.uleb128 0x18
 2352 08ed 24080000 		.4byte	.LASF154
 2353 08f1 01       		.byte	0x1
 2354 08f2 8F01     		.2byte	0x18f
 2355 08f4 70000000 		.4byte	0x70
 2356 08f8 5A040000 		.4byte	.LLST31
 2357 08fc 00       		.byte	0
 2358 08fd 17       		.uleb128 0x17
 2359 08fe 01       		.byte	0x1
 2360 08ff CE060000 		.4byte	.LASF169
 2361 0903 01       		.byte	0x1
 2362 0904 A401     		.2byte	0x1a4
 2363 0906 01       		.byte	0x1
 2364 0907 00000000 		.4byte	.LFB134
 2365 090b 4C000000 		.4byte	.LFE134
 2366 090f 84040000 		.4byte	.LLST32
 2367 0913 26090000 		.4byte	0x926
 2368 0917 19       		.uleb128 0x19
 2369 0918 6900     		.ascii	"i\000"
 2370 091a 01       		.byte	0x1
 2371 091b A501     		.2byte	0x1a5
 2372 091d 29000000 		.4byte	0x29
 2373 0921 A4040000 		.4byte	.LLST33
 2374 0925 00       		.byte	0
 2375 0926 1A       		.uleb128 0x1a
 2376 0927 01       		.byte	0x1
 2377 0928 B4080000 		.4byte	.LASF183
 2378 092c 01       		.byte	0x1
 2379 092d CA01     		.2byte	0x1ca
 2380 092f 01       		.byte	0x1
 2381 0930 90000000 		.4byte	0x90
 2382 0934 00000000 		.4byte	.LFB135
ARM GAS  /tmp/ccIMeq3I.s 			page 43


 2383 0938 A4000000 		.4byte	.LFE135
 2384 093c B8040000 		.4byte	.LLST34
 2385 0940 85090000 		.4byte	0x985
 2386 0944 1B       		.uleb128 0x1b
 2387 0945 BC010000 		.4byte	.LASF170
 2388 0949 01       		.byte	0x1
 2389 094a CA01     		.2byte	0x1ca
 2390 094c 22060000 		.4byte	0x622
 2391 0950 D8040000 		.4byte	.LLST35
 2392 0954 1B       		.uleb128 0x1b
 2393 0955 0C040000 		.4byte	.LASF171
 2394 0959 01       		.byte	0x1
 2395 095a CB01     		.2byte	0x1cb
 2396 095c 70000000 		.4byte	0x70
 2397 0960 01050000 		.4byte	.LLST36
 2398 0964 1B       		.uleb128 0x1b
 2399 0965 30020000 		.4byte	.LASF172
 2400 0969 01       		.byte	0x1
 2401 096a CC01     		.2byte	0x1cc
 2402 096c 00060000 		.4byte	0x600
 2403 0970 1F050000 		.4byte	.LLST37
 2404 0974 1B       		.uleb128 0x1b
 2405 0975 CE040000 		.4byte	.LASF173
 2406 0979 01       		.byte	0x1
 2407 097a CD01     		.2byte	0x1cd
 2408 097c A2000000 		.4byte	0xa2
 2409 0980 3D050000 		.4byte	.LLST38
 2410 0984 00       		.byte	0
 2411 0985 17       		.uleb128 0x17
 2412 0986 01       		.byte	0x1
 2413 0987 ED060000 		.4byte	.LASF174
 2414 098b 01       		.byte	0x1
 2415 098c F901     		.2byte	0x1f9
 2416 098e 01       		.byte	0x1
 2417 098f 00000000 		.4byte	.LFB136
 2418 0993 54000000 		.4byte	.LFE136
 2419 0997 73050000 		.4byte	.LLST39
 2420 099b B0090000 		.4byte	0x9b0
 2421 099f 1B       		.uleb128 0x1b
 2422 09a0 BC010000 		.4byte	.LASF170
 2423 09a4 01       		.byte	0x1
 2424 09a5 F901     		.2byte	0x1f9
 2425 09a7 22060000 		.4byte	0x622
 2426 09ab 93050000 		.4byte	.LLST40
 2427 09af 00       		.byte	0
 2428 09b0 1C       		.uleb128 0x1c
 2429 09b1 F1050000 		.4byte	.LASF175
 2430 09b5 06       		.byte	0x6
 2431 09b6 9806     		.2byte	0x698
 2432 09b8 FB020000 		.4byte	0x2fb
 2433 09bc 01       		.byte	0x1
 2434 09bd 01       		.byte	0x1
 2435 09be 09       		.uleb128 0x9
 2436 09bf F5050000 		.4byte	0x5f5
 2437 09c3 CE090000 		.4byte	0x9ce
 2438 09c7 0A       		.uleb128 0xa
 2439 09c8 30000000 		.4byte	0x30
ARM GAS  /tmp/ccIMeq3I.s 			page 44


 2440 09cc 0F       		.byte	0xf
 2441 09cd 00       		.byte	0
 2442 09ce 1C       		.uleb128 0x1c
 2443 09cf 0D010000 		.4byte	.LASF176
 2444 09d3 05       		.byte	0x5
 2445 09d4 BB01     		.2byte	0x1bb
 2446 09d6 DC090000 		.4byte	0x9dc
 2447 09da 01       		.byte	0x1
 2448 09db 01       		.byte	0x1
 2449 09dc 14       		.uleb128 0x14
 2450 09dd BE090000 		.4byte	0x9be
 2451 09e1 1D       		.uleb128 0x1d
 2452 09e2 76070000 		.4byte	.LASF177
 2453 09e6 01       		.byte	0x1
 2454 09e7 6C       		.byte	0x6c
 2455 09e8 70000000 		.4byte	0x70
 2456 09ec 05       		.byte	0x5
 2457 09ed 03       		.byte	0x3
 2458 09ee 00000000 		.4byte	dma_streams_mask
 2459 09f2 09       		.uleb128 0x9
 2460 09f3 52060000 		.4byte	0x652
 2461 09f7 020A0000 		.4byte	0xa02
 2462 09fb 0A       		.uleb128 0xa
 2463 09fc 30000000 		.4byte	0x30
 2464 0a00 0F       		.byte	0xf
 2465 0a01 00       		.byte	0
 2466 0a02 1D       		.uleb128 0x1d
 2467 0a03 34080000 		.4byte	.LASF178
 2468 0a07 01       		.byte	0x1
 2469 0a08 71       		.byte	0x71
 2470 0a09 F2090000 		.4byte	0x9f2
 2471 0a0d 05       		.byte	0x5
 2472 0a0e 03       		.byte	0x3
 2473 0a0f 00000000 		.4byte	dma_isr_redir
 2474 0a13 1C       		.uleb128 0x1c
 2475 0a14 F1050000 		.4byte	.LASF175
 2476 0a18 06       		.byte	0x6
 2477 0a19 9806     		.2byte	0x698
 2478 0a1b FB020000 		.4byte	0x2fb
 2479 0a1f 01       		.byte	0x1
 2480 0a20 01       		.byte	0x1
 2481 0a21 1E       		.uleb128 0x1e
 2482 0a22 0D010000 		.4byte	.LASF176
 2483 0a26 01       		.byte	0x1
 2484 0a27 4A       		.byte	0x4a
 2485 0a28 330A0000 		.4byte	0xa33
 2486 0a2c 01       		.byte	0x1
 2487 0a2d 05       		.byte	0x5
 2488 0a2e 03       		.byte	0x3
 2489 0a2f 00000000 		.4byte	_stm32_dma_streams
 2490 0a33 14       		.uleb128 0x14
 2491 0a34 BE090000 		.4byte	0x9be
 2492 0a38 00       		.byte	0
 2493              		.section	.debug_abbrev,"",%progbits
 2494              	.Ldebug_abbrev0:
 2495 0000 01       		.uleb128 0x1
 2496 0001 11       		.uleb128 0x11
ARM GAS  /tmp/ccIMeq3I.s 			page 45


 2497 0002 01       		.byte	0x1
 2498 0003 25       		.uleb128 0x25
 2499 0004 0E       		.uleb128 0xe
 2500 0005 13       		.uleb128 0x13
 2501 0006 0B       		.uleb128 0xb
 2502 0007 03       		.uleb128 0x3
 2503 0008 0E       		.uleb128 0xe
 2504 0009 1B       		.uleb128 0x1b
 2505 000a 0E       		.uleb128 0xe
 2506 000b 11       		.uleb128 0x11
 2507 000c 01       		.uleb128 0x1
 2508 000d 52       		.uleb128 0x52
 2509 000e 01       		.uleb128 0x1
 2510 000f 55       		.uleb128 0x55
 2511 0010 06       		.uleb128 0x6
 2512 0011 10       		.uleb128 0x10
 2513 0012 06       		.uleb128 0x6
 2514 0013 00       		.byte	0
 2515 0014 00       		.byte	0
 2516 0015 02       		.uleb128 0x2
 2517 0016 24       		.uleb128 0x24
 2518 0017 00       		.byte	0
 2519 0018 0B       		.uleb128 0xb
 2520 0019 0B       		.uleb128 0xb
 2521 001a 3E       		.uleb128 0x3e
 2522 001b 0B       		.uleb128 0xb
 2523 001c 03       		.uleb128 0x3
 2524 001d 08       		.uleb128 0x8
 2525 001e 00       		.byte	0
 2526 001f 00       		.byte	0
 2527 0020 03       		.uleb128 0x3
 2528 0021 24       		.uleb128 0x24
 2529 0022 00       		.byte	0
 2530 0023 0B       		.uleb128 0xb
 2531 0024 0B       		.uleb128 0xb
 2532 0025 3E       		.uleb128 0x3e
 2533 0026 0B       		.uleb128 0xb
 2534 0027 03       		.uleb128 0x3
 2535 0028 0E       		.uleb128 0xe
 2536 0029 00       		.byte	0
 2537 002a 00       		.byte	0
 2538 002b 04       		.uleb128 0x4
 2539 002c 16       		.uleb128 0x16
 2540 002d 00       		.byte	0
 2541 002e 03       		.uleb128 0x3
 2542 002f 0E       		.uleb128 0xe
 2543 0030 3A       		.uleb128 0x3a
 2544 0031 0B       		.uleb128 0xb
 2545 0032 3B       		.uleb128 0x3b
 2546 0033 0B       		.uleb128 0xb
 2547 0034 49       		.uleb128 0x49
 2548 0035 13       		.uleb128 0x13
 2549 0036 00       		.byte	0
 2550 0037 00       		.byte	0
 2551 0038 05       		.uleb128 0x5
 2552 0039 0F       		.uleb128 0xf
 2553 003a 00       		.byte	0
ARM GAS  /tmp/ccIMeq3I.s 			page 46


 2554 003b 0B       		.uleb128 0xb
 2555 003c 0B       		.uleb128 0xb
 2556 003d 00       		.byte	0
 2557 003e 00       		.byte	0
 2558 003f 06       		.uleb128 0x6
 2559 0040 35       		.uleb128 0x35
 2560 0041 00       		.byte	0
 2561 0042 49       		.uleb128 0x49
 2562 0043 13       		.uleb128 0x13
 2563 0044 00       		.byte	0
 2564 0045 00       		.byte	0
 2565 0046 07       		.uleb128 0x7
 2566 0047 04       		.uleb128 0x4
 2567 0048 01       		.byte	0x1
 2568 0049 03       		.uleb128 0x3
 2569 004a 0E       		.uleb128 0xe
 2570 004b 0B       		.uleb128 0xb
 2571 004c 0B       		.uleb128 0xb
 2572 004d 3A       		.uleb128 0x3a
 2573 004e 0B       		.uleb128 0xb
 2574 004f 3B       		.uleb128 0x3b
 2575 0050 0B       		.uleb128 0xb
 2576 0051 01       		.uleb128 0x1
 2577 0052 13       		.uleb128 0x13
 2578 0053 00       		.byte	0
 2579 0054 00       		.byte	0
 2580 0055 08       		.uleb128 0x8
 2581 0056 28       		.uleb128 0x28
 2582 0057 00       		.byte	0
 2583 0058 03       		.uleb128 0x3
 2584 0059 0E       		.uleb128 0xe
 2585 005a 1C       		.uleb128 0x1c
 2586 005b 0D       		.uleb128 0xd
 2587 005c 00       		.byte	0
 2588 005d 00       		.byte	0
 2589 005e 09       		.uleb128 0x9
 2590 005f 01       		.uleb128 0x1
 2591 0060 01       		.byte	0x1
 2592 0061 49       		.uleb128 0x49
 2593 0062 13       		.uleb128 0x13
 2594 0063 01       		.uleb128 0x1
 2595 0064 13       		.uleb128 0x13
 2596 0065 00       		.byte	0
 2597 0066 00       		.byte	0
 2598 0067 0A       		.uleb128 0xa
 2599 0068 21       		.uleb128 0x21
 2600 0069 00       		.byte	0
 2601 006a 49       		.uleb128 0x49
 2602 006b 13       		.uleb128 0x13
 2603 006c 2F       		.uleb128 0x2f
 2604 006d 0B       		.uleb128 0xb
 2605 006e 00       		.byte	0
 2606 006f 00       		.byte	0
 2607 0070 0B       		.uleb128 0xb
 2608 0071 13       		.uleb128 0x13
 2609 0072 01       		.byte	0x1
 2610 0073 0B       		.uleb128 0xb
ARM GAS  /tmp/ccIMeq3I.s 			page 47


 2611 0074 0B       		.uleb128 0xb
 2612 0075 3A       		.uleb128 0x3a
 2613 0076 0B       		.uleb128 0xb
 2614 0077 3B       		.uleb128 0x3b
 2615 0078 05       		.uleb128 0x5
 2616 0079 01       		.uleb128 0x1
 2617 007a 13       		.uleb128 0x13
 2618 007b 00       		.byte	0
 2619 007c 00       		.byte	0
 2620 007d 0C       		.uleb128 0xc
 2621 007e 0D       		.uleb128 0xd
 2622 007f 00       		.byte	0
 2623 0080 03       		.uleb128 0x3
 2624 0081 08       		.uleb128 0x8
 2625 0082 3A       		.uleb128 0x3a
 2626 0083 0B       		.uleb128 0xb
 2627 0084 3B       		.uleb128 0x3b
 2628 0085 05       		.uleb128 0x5
 2629 0086 49       		.uleb128 0x49
 2630 0087 13       		.uleb128 0x13
 2631 0088 38       		.uleb128 0x38
 2632 0089 0A       		.uleb128 0xa
 2633 008a 00       		.byte	0
 2634 008b 00       		.byte	0
 2635 008c 0D       		.uleb128 0xd
 2636 008d 0D       		.uleb128 0xd
 2637 008e 00       		.byte	0
 2638 008f 03       		.uleb128 0x3
 2639 0090 0E       		.uleb128 0xe
 2640 0091 3A       		.uleb128 0x3a
 2641 0092 0B       		.uleb128 0xb
 2642 0093 3B       		.uleb128 0x3b
 2643 0094 05       		.uleb128 0x5
 2644 0095 49       		.uleb128 0x49
 2645 0096 13       		.uleb128 0x13
 2646 0097 38       		.uleb128 0x38
 2647 0098 0A       		.uleb128 0xa
 2648 0099 00       		.byte	0
 2649 009a 00       		.byte	0
 2650 009b 0E       		.uleb128 0xe
 2651 009c 16       		.uleb128 0x16
 2652 009d 00       		.byte	0
 2653 009e 03       		.uleb128 0x3
 2654 009f 0E       		.uleb128 0xe
 2655 00a0 3A       		.uleb128 0x3a
 2656 00a1 0B       		.uleb128 0xb
 2657 00a2 3B       		.uleb128 0x3b
 2658 00a3 05       		.uleb128 0x5
 2659 00a4 49       		.uleb128 0x49
 2660 00a5 13       		.uleb128 0x13
 2661 00a6 00       		.byte	0
 2662 00a7 00       		.byte	0
 2663 00a8 0F       		.uleb128 0xf
 2664 00a9 13       		.uleb128 0x13
 2665 00aa 01       		.byte	0x1
 2666 00ab 0B       		.uleb128 0xb
 2667 00ac 0B       		.uleb128 0xb
ARM GAS  /tmp/ccIMeq3I.s 			page 48


 2668 00ad 3A       		.uleb128 0x3a
 2669 00ae 0B       		.uleb128 0xb
 2670 00af 3B       		.uleb128 0x3b
 2671 00b0 0B       		.uleb128 0xb
 2672 00b1 01       		.uleb128 0x1
 2673 00b2 13       		.uleb128 0x13
 2674 00b3 00       		.byte	0
 2675 00b4 00       		.byte	0
 2676 00b5 10       		.uleb128 0x10
 2677 00b6 0D       		.uleb128 0xd
 2678 00b7 00       		.byte	0
 2679 00b8 03       		.uleb128 0x3
 2680 00b9 0E       		.uleb128 0xe
 2681 00ba 3A       		.uleb128 0x3a
 2682 00bb 0B       		.uleb128 0xb
 2683 00bc 3B       		.uleb128 0x3b
 2684 00bd 0B       		.uleb128 0xb
 2685 00be 49       		.uleb128 0x49
 2686 00bf 13       		.uleb128 0x13
 2687 00c0 38       		.uleb128 0x38
 2688 00c1 0A       		.uleb128 0xa
 2689 00c2 00       		.byte	0
 2690 00c3 00       		.byte	0
 2691 00c4 11       		.uleb128 0x11
 2692 00c5 0F       		.uleb128 0xf
 2693 00c6 00       		.byte	0
 2694 00c7 0B       		.uleb128 0xb
 2695 00c8 0B       		.uleb128 0xb
 2696 00c9 49       		.uleb128 0x49
 2697 00ca 13       		.uleb128 0x13
 2698 00cb 00       		.byte	0
 2699 00cc 00       		.byte	0
 2700 00cd 12       		.uleb128 0x12
 2701 00ce 15       		.uleb128 0x15
 2702 00cf 01       		.byte	0x1
 2703 00d0 27       		.uleb128 0x27
 2704 00d1 0C       		.uleb128 0xc
 2705 00d2 01       		.uleb128 0x1
 2706 00d3 13       		.uleb128 0x13
 2707 00d4 00       		.byte	0
 2708 00d5 00       		.byte	0
 2709 00d6 13       		.uleb128 0x13
 2710 00d7 05       		.uleb128 0x5
 2711 00d8 00       		.byte	0
 2712 00d9 49       		.uleb128 0x49
 2713 00da 13       		.uleb128 0x13
 2714 00db 00       		.byte	0
 2715 00dc 00       		.byte	0
 2716 00dd 14       		.uleb128 0x14
 2717 00de 26       		.uleb128 0x26
 2718 00df 00       		.byte	0
 2719 00e0 49       		.uleb128 0x49
 2720 00e1 13       		.uleb128 0x13
 2721 00e2 00       		.byte	0
 2722 00e3 00       		.byte	0
 2723 00e4 15       		.uleb128 0x15
 2724 00e5 2E       		.uleb128 0x2e
ARM GAS  /tmp/ccIMeq3I.s 			page 49


 2725 00e6 01       		.byte	0x1
 2726 00e7 3F       		.uleb128 0x3f
 2727 00e8 0C       		.uleb128 0xc
 2728 00e9 03       		.uleb128 0x3
 2729 00ea 0E       		.uleb128 0xe
 2730 00eb 3A       		.uleb128 0x3a
 2731 00ec 0B       		.uleb128 0xb
 2732 00ed 3B       		.uleb128 0x3b
 2733 00ee 0B       		.uleb128 0xb
 2734 00ef 27       		.uleb128 0x27
 2735 00f0 0C       		.uleb128 0xc
 2736 00f1 11       		.uleb128 0x11
 2737 00f2 01       		.uleb128 0x1
 2738 00f3 12       		.uleb128 0x12
 2739 00f4 01       		.uleb128 0x1
 2740 00f5 40       		.uleb128 0x40
 2741 00f6 06       		.uleb128 0x6
 2742 00f7 01       		.uleb128 0x1
 2743 00f8 13       		.uleb128 0x13
 2744 00f9 00       		.byte	0
 2745 00fa 00       		.byte	0
 2746 00fb 16       		.uleb128 0x16
 2747 00fc 34       		.uleb128 0x34
 2748 00fd 00       		.byte	0
 2749 00fe 03       		.uleb128 0x3
 2750 00ff 0E       		.uleb128 0xe
 2751 0100 3A       		.uleb128 0x3a
 2752 0101 0B       		.uleb128 0xb
 2753 0102 3B       		.uleb128 0x3b
 2754 0103 0B       		.uleb128 0xb
 2755 0104 49       		.uleb128 0x49
 2756 0105 13       		.uleb128 0x13
 2757 0106 02       		.uleb128 0x2
 2758 0107 06       		.uleb128 0x6
 2759 0108 00       		.byte	0
 2760 0109 00       		.byte	0
 2761 010a 17       		.uleb128 0x17
 2762 010b 2E       		.uleb128 0x2e
 2763 010c 01       		.byte	0x1
 2764 010d 3F       		.uleb128 0x3f
 2765 010e 0C       		.uleb128 0xc
 2766 010f 03       		.uleb128 0x3
 2767 0110 0E       		.uleb128 0xe
 2768 0111 3A       		.uleb128 0x3a
 2769 0112 0B       		.uleb128 0xb
 2770 0113 3B       		.uleb128 0x3b
 2771 0114 05       		.uleb128 0x5
 2772 0115 27       		.uleb128 0x27
 2773 0116 0C       		.uleb128 0xc
 2774 0117 11       		.uleb128 0x11
 2775 0118 01       		.uleb128 0x1
 2776 0119 12       		.uleb128 0x12
 2777 011a 01       		.uleb128 0x1
 2778 011b 40       		.uleb128 0x40
 2779 011c 06       		.uleb128 0x6
 2780 011d 01       		.uleb128 0x1
 2781 011e 13       		.uleb128 0x13
ARM GAS  /tmp/ccIMeq3I.s 			page 50


 2782 011f 00       		.byte	0
 2783 0120 00       		.byte	0
 2784 0121 18       		.uleb128 0x18
 2785 0122 34       		.uleb128 0x34
 2786 0123 00       		.byte	0
 2787 0124 03       		.uleb128 0x3
 2788 0125 0E       		.uleb128 0xe
 2789 0126 3A       		.uleb128 0x3a
 2790 0127 0B       		.uleb128 0xb
 2791 0128 3B       		.uleb128 0x3b
 2792 0129 05       		.uleb128 0x5
 2793 012a 49       		.uleb128 0x49
 2794 012b 13       		.uleb128 0x13
 2795 012c 02       		.uleb128 0x2
 2796 012d 06       		.uleb128 0x6
 2797 012e 00       		.byte	0
 2798 012f 00       		.byte	0
 2799 0130 19       		.uleb128 0x19
 2800 0131 34       		.uleb128 0x34
 2801 0132 00       		.byte	0
 2802 0133 03       		.uleb128 0x3
 2803 0134 08       		.uleb128 0x8
 2804 0135 3A       		.uleb128 0x3a
 2805 0136 0B       		.uleb128 0xb
 2806 0137 3B       		.uleb128 0x3b
 2807 0138 05       		.uleb128 0x5
 2808 0139 49       		.uleb128 0x49
 2809 013a 13       		.uleb128 0x13
 2810 013b 02       		.uleb128 0x2
 2811 013c 06       		.uleb128 0x6
 2812 013d 00       		.byte	0
 2813 013e 00       		.byte	0
 2814 013f 1A       		.uleb128 0x1a
 2815 0140 2E       		.uleb128 0x2e
 2816 0141 01       		.byte	0x1
 2817 0142 3F       		.uleb128 0x3f
 2818 0143 0C       		.uleb128 0xc
 2819 0144 03       		.uleb128 0x3
 2820 0145 0E       		.uleb128 0xe
 2821 0146 3A       		.uleb128 0x3a
 2822 0147 0B       		.uleb128 0xb
 2823 0148 3B       		.uleb128 0x3b
 2824 0149 05       		.uleb128 0x5
 2825 014a 27       		.uleb128 0x27
 2826 014b 0C       		.uleb128 0xc
 2827 014c 49       		.uleb128 0x49
 2828 014d 13       		.uleb128 0x13
 2829 014e 11       		.uleb128 0x11
 2830 014f 01       		.uleb128 0x1
 2831 0150 12       		.uleb128 0x12
 2832 0151 01       		.uleb128 0x1
 2833 0152 40       		.uleb128 0x40
 2834 0153 06       		.uleb128 0x6
 2835 0154 01       		.uleb128 0x1
 2836 0155 13       		.uleb128 0x13
 2837 0156 00       		.byte	0
 2838 0157 00       		.byte	0
ARM GAS  /tmp/ccIMeq3I.s 			page 51


 2839 0158 1B       		.uleb128 0x1b
 2840 0159 05       		.uleb128 0x5
 2841 015a 00       		.byte	0
 2842 015b 03       		.uleb128 0x3
 2843 015c 0E       		.uleb128 0xe
 2844 015d 3A       		.uleb128 0x3a
 2845 015e 0B       		.uleb128 0xb
 2846 015f 3B       		.uleb128 0x3b
 2847 0160 05       		.uleb128 0x5
 2848 0161 49       		.uleb128 0x49
 2849 0162 13       		.uleb128 0x13
 2850 0163 02       		.uleb128 0x2
 2851 0164 06       		.uleb128 0x6
 2852 0165 00       		.byte	0
 2853 0166 00       		.byte	0
 2854 0167 1C       		.uleb128 0x1c
 2855 0168 34       		.uleb128 0x34
 2856 0169 00       		.byte	0
 2857 016a 03       		.uleb128 0x3
 2858 016b 0E       		.uleb128 0xe
 2859 016c 3A       		.uleb128 0x3a
 2860 016d 0B       		.uleb128 0xb
 2861 016e 3B       		.uleb128 0x3b
 2862 016f 05       		.uleb128 0x5
 2863 0170 49       		.uleb128 0x49
 2864 0171 13       		.uleb128 0x13
 2865 0172 3F       		.uleb128 0x3f
 2866 0173 0C       		.uleb128 0xc
 2867 0174 3C       		.uleb128 0x3c
 2868 0175 0C       		.uleb128 0xc
 2869 0176 00       		.byte	0
 2870 0177 00       		.byte	0
 2871 0178 1D       		.uleb128 0x1d
 2872 0179 34       		.uleb128 0x34
 2873 017a 00       		.byte	0
 2874 017b 03       		.uleb128 0x3
 2875 017c 0E       		.uleb128 0xe
 2876 017d 3A       		.uleb128 0x3a
 2877 017e 0B       		.uleb128 0xb
 2878 017f 3B       		.uleb128 0x3b
 2879 0180 0B       		.uleb128 0xb
 2880 0181 49       		.uleb128 0x49
 2881 0182 13       		.uleb128 0x13
 2882 0183 02       		.uleb128 0x2
 2883 0184 0A       		.uleb128 0xa
 2884 0185 00       		.byte	0
 2885 0186 00       		.byte	0
 2886 0187 1E       		.uleb128 0x1e
 2887 0188 34       		.uleb128 0x34
 2888 0189 00       		.byte	0
 2889 018a 03       		.uleb128 0x3
 2890 018b 0E       		.uleb128 0xe
 2891 018c 3A       		.uleb128 0x3a
 2892 018d 0B       		.uleb128 0xb
 2893 018e 3B       		.uleb128 0x3b
 2894 018f 0B       		.uleb128 0xb
 2895 0190 49       		.uleb128 0x49
ARM GAS  /tmp/ccIMeq3I.s 			page 52


 2896 0191 13       		.uleb128 0x13
 2897 0192 3F       		.uleb128 0x3f
 2898 0193 0C       		.uleb128 0xc
 2899 0194 02       		.uleb128 0x2
 2900 0195 0A       		.uleb128 0xa
 2901 0196 00       		.byte	0
 2902 0197 00       		.byte	0
 2903 0198 00       		.byte	0
 2904              		.section	.debug_loc,"",%progbits
 2905              	.Ldebug_loc0:
 2906              	.LLST0:
 2907 0000 00000000 		.4byte	.LFB118
 2908 0004 10000000 		.4byte	.LCFI0
 2909 0008 0200     		.2byte	0x2
 2910 000a 7D       		.byte	0x7d
 2911 000b 00       		.sleb128 0
 2912 000c 10000000 		.4byte	.LCFI0
 2913 0010 28000000 		.4byte	.LFE118
 2914 0014 0200     		.2byte	0x2
 2915 0016 7D       		.byte	0x7d
 2916 0017 08       		.sleb128 8
 2917 0018 00000000 		.4byte	0
 2918 001c 00000000 		.4byte	0
 2919              	.LLST1:
 2920 0020 0E000000 		.4byte	.LVL0
 2921 0024 1A000000 		.4byte	.LVL1
 2922 0028 0600     		.2byte	0x6
 2923 002a 71       		.byte	0x71
 2924 002b 00       		.sleb128 0
 2925 002c 08       		.byte	0x8
 2926 002d 3D       		.byte	0x3d
 2927 002e 1A       		.byte	0x1a
 2928 002f 9F       		.byte	0x9f
 2929 0030 1A000000 		.4byte	.LVL1
 2930 0034 1B000000 		.4byte	.LVL2-1
 2931 0038 0100     		.2byte	0x1
 2932 003a 51       		.byte	0x51
 2933 003b 00000000 		.4byte	0
 2934 003f 00000000 		.4byte	0
 2935              	.LLST2:
 2936 0043 00000000 		.4byte	.LFB119
 2937 0047 10000000 		.4byte	.LCFI1
 2938 004b 0200     		.2byte	0x2
 2939 004d 7D       		.byte	0x7d
 2940 004e 00       		.sleb128 0
 2941 004f 10000000 		.4byte	.LCFI1
 2942 0053 30000000 		.4byte	.LFE119
 2943 0057 0200     		.2byte	0x2
 2944 0059 7D       		.byte	0x7d
 2945 005a 08       		.sleb128 8
 2946 005b 00000000 		.4byte	0
 2947 005f 00000000 		.4byte	0
 2948              	.LLST3:
 2949 0063 0E000000 		.4byte	.LVL3
 2950 0067 1A000000 		.4byte	.LVL4
 2951 006b 0800     		.2byte	0x8
 2952 006d 71       		.byte	0x71
ARM GAS  /tmp/ccIMeq3I.s 			page 53


 2953 006e 00       		.sleb128 0
 2954 006f 36       		.byte	0x36
 2955 0070 25       		.byte	0x25
 2956 0071 08       		.byte	0x8
 2957 0072 3D       		.byte	0x3d
 2958 0073 1A       		.byte	0x1a
 2959 0074 9F       		.byte	0x9f
 2960 0075 1A000000 		.4byte	.LVL4
 2961 0079 20000000 		.4byte	.LVL5
 2962 007d 0600     		.2byte	0x6
 2963 007f 71       		.byte	0x71
 2964 0080 00       		.sleb128 0
 2965 0081 08       		.byte	0x8
 2966 0082 3D       		.byte	0x3d
 2967 0083 1A       		.byte	0x1a
 2968 0084 9F       		.byte	0x9f
 2969 0085 00000000 		.4byte	0
 2970 0089 00000000 		.4byte	0
 2971              	.LLST4:
 2972 008d 00000000 		.4byte	.LFB120
 2973 0091 10000000 		.4byte	.LCFI2
 2974 0095 0200     		.2byte	0x2
 2975 0097 7D       		.byte	0x7d
 2976 0098 00       		.sleb128 0
 2977 0099 10000000 		.4byte	.LCFI2
 2978 009d 30000000 		.4byte	.LFE120
 2979 00a1 0200     		.2byte	0x2
 2980 00a3 7D       		.byte	0x7d
 2981 00a4 08       		.sleb128 8
 2982 00a5 00000000 		.4byte	0
 2983 00a9 00000000 		.4byte	0
 2984              	.LLST5:
 2985 00ad 0E000000 		.4byte	.LVL6
 2986 00b1 1A000000 		.4byte	.LVL7
 2987 00b5 0800     		.2byte	0x8
 2988 00b7 71       		.byte	0x71
 2989 00b8 00       		.sleb128 0
 2990 00b9 40       		.byte	0x40
 2991 00ba 25       		.byte	0x25
 2992 00bb 08       		.byte	0x8
 2993 00bc 3D       		.byte	0x3d
 2994 00bd 1A       		.byte	0x1a
 2995 00be 9F       		.byte	0x9f
 2996 00bf 1A000000 		.4byte	.LVL7
 2997 00c3 20000000 		.4byte	.LVL8
 2998 00c7 0600     		.2byte	0x6
 2999 00c9 71       		.byte	0x71
 3000 00ca 00       		.sleb128 0
 3001 00cb 08       		.byte	0x8
 3002 00cc 3D       		.byte	0x3d
 3003 00cd 1A       		.byte	0x1a
 3004 00ce 9F       		.byte	0x9f
 3005 00cf 00000000 		.4byte	0
 3006 00d3 00000000 		.4byte	0
 3007              	.LLST6:
 3008 00d7 00000000 		.4byte	.LFB121
 3009 00db 10000000 		.4byte	.LCFI3
ARM GAS  /tmp/ccIMeq3I.s 			page 54


 3010 00df 0200     		.2byte	0x2
 3011 00e1 7D       		.byte	0x7d
 3012 00e2 00       		.sleb128 0
 3013 00e3 10000000 		.4byte	.LCFI3
 3014 00e7 30000000 		.4byte	.LFE121
 3015 00eb 0200     		.2byte	0x2
 3016 00ed 7D       		.byte	0x7d
 3017 00ee 08       		.sleb128 8
 3018 00ef 00000000 		.4byte	0
 3019 00f3 00000000 		.4byte	0
 3020              	.LLST7:
 3021 00f7 0E000000 		.4byte	.LVL9
 3022 00fb 1A000000 		.4byte	.LVL10
 3023 00ff 0800     		.2byte	0x8
 3024 0101 71       		.byte	0x71
 3025 0102 00       		.sleb128 0
 3026 0103 46       		.byte	0x46
 3027 0104 25       		.byte	0x25
 3028 0105 08       		.byte	0x8
 3029 0106 3D       		.byte	0x3d
 3030 0107 1A       		.byte	0x1a
 3031 0108 9F       		.byte	0x9f
 3032 0109 1A000000 		.4byte	.LVL10
 3033 010d 20000000 		.4byte	.LVL11
 3034 0111 0600     		.2byte	0x6
 3035 0113 71       		.byte	0x71
 3036 0114 00       		.sleb128 0
 3037 0115 08       		.byte	0x8
 3038 0116 3D       		.byte	0x3d
 3039 0117 1A       		.byte	0x1a
 3040 0118 9F       		.byte	0x9f
 3041 0119 00000000 		.4byte	0
 3042 011d 00000000 		.4byte	0
 3043              	.LLST8:
 3044 0121 00000000 		.4byte	.LFB122
 3045 0125 10000000 		.4byte	.LCFI4
 3046 0129 0200     		.2byte	0x2
 3047 012b 7D       		.byte	0x7d
 3048 012c 00       		.sleb128 0
 3049 012d 10000000 		.4byte	.LCFI4
 3050 0131 28000000 		.4byte	.LFE122
 3051 0135 0200     		.2byte	0x2
 3052 0137 7D       		.byte	0x7d
 3053 0138 08       		.sleb128 8
 3054 0139 00000000 		.4byte	0
 3055 013d 00000000 		.4byte	0
 3056              	.LLST9:
 3057 0141 0E000000 		.4byte	.LVL12
 3058 0145 1A000000 		.4byte	.LVL13
 3059 0149 0600     		.2byte	0x6
 3060 014b 71       		.byte	0x71
 3061 014c 00       		.sleb128 0
 3062 014d 08       		.byte	0x8
 3063 014e 3D       		.byte	0x3d
 3064 014f 1A       		.byte	0x1a
 3065 0150 9F       		.byte	0x9f
 3066 0151 1A000000 		.4byte	.LVL13
ARM GAS  /tmp/ccIMeq3I.s 			page 55


 3067 0155 1B000000 		.4byte	.LVL14-1
 3068 0159 0100     		.2byte	0x1
 3069 015b 51       		.byte	0x51
 3070 015c 00000000 		.4byte	0
 3071 0160 00000000 		.4byte	0
 3072              	.LLST10:
 3073 0164 00000000 		.4byte	.LFB123
 3074 0168 10000000 		.4byte	.LCFI5
 3075 016c 0200     		.2byte	0x2
 3076 016e 7D       		.byte	0x7d
 3077 016f 00       		.sleb128 0
 3078 0170 10000000 		.4byte	.LCFI5
 3079 0174 30000000 		.4byte	.LFE123
 3080 0178 0200     		.2byte	0x2
 3081 017a 7D       		.byte	0x7d
 3082 017b 08       		.sleb128 8
 3083 017c 00000000 		.4byte	0
 3084 0180 00000000 		.4byte	0
 3085              	.LLST11:
 3086 0184 0E000000 		.4byte	.LVL15
 3087 0188 1A000000 		.4byte	.LVL16
 3088 018c 0800     		.2byte	0x8
 3089 018e 71       		.byte	0x71
 3090 018f 00       		.sleb128 0
 3091 0190 36       		.byte	0x36
 3092 0191 25       		.byte	0x25
 3093 0192 08       		.byte	0x8
 3094 0193 3D       		.byte	0x3d
 3095 0194 1A       		.byte	0x1a
 3096 0195 9F       		.byte	0x9f
 3097 0196 1A000000 		.4byte	.LVL16
 3098 019a 20000000 		.4byte	.LVL17
 3099 019e 0600     		.2byte	0x6
 3100 01a0 71       		.byte	0x71
 3101 01a1 00       		.sleb128 0
 3102 01a2 08       		.byte	0x8
 3103 01a3 3D       		.byte	0x3d
 3104 01a4 1A       		.byte	0x1a
 3105 01a5 9F       		.byte	0x9f
 3106 01a6 00000000 		.4byte	0
 3107 01aa 00000000 		.4byte	0
 3108              	.LLST12:
 3109 01ae 00000000 		.4byte	.LFB124
 3110 01b2 10000000 		.4byte	.LCFI6
 3111 01b6 0200     		.2byte	0x2
 3112 01b8 7D       		.byte	0x7d
 3113 01b9 00       		.sleb128 0
 3114 01ba 10000000 		.4byte	.LCFI6
 3115 01be 30000000 		.4byte	.LFE124
 3116 01c2 0200     		.2byte	0x2
 3117 01c4 7D       		.byte	0x7d
 3118 01c5 08       		.sleb128 8
 3119 01c6 00000000 		.4byte	0
 3120 01ca 00000000 		.4byte	0
 3121              	.LLST13:
 3122 01ce 0E000000 		.4byte	.LVL18
 3123 01d2 1A000000 		.4byte	.LVL19
ARM GAS  /tmp/ccIMeq3I.s 			page 56


 3124 01d6 0800     		.2byte	0x8
 3125 01d8 71       		.byte	0x71
 3126 01d9 00       		.sleb128 0
 3127 01da 40       		.byte	0x40
 3128 01db 25       		.byte	0x25
 3129 01dc 08       		.byte	0x8
 3130 01dd 3D       		.byte	0x3d
 3131 01de 1A       		.byte	0x1a
 3132 01df 9F       		.byte	0x9f
 3133 01e0 1A000000 		.4byte	.LVL19
 3134 01e4 20000000 		.4byte	.LVL20
 3135 01e8 0600     		.2byte	0x6
 3136 01ea 71       		.byte	0x71
 3137 01eb 00       		.sleb128 0
 3138 01ec 08       		.byte	0x8
 3139 01ed 3D       		.byte	0x3d
 3140 01ee 1A       		.byte	0x1a
 3141 01ef 9F       		.byte	0x9f
 3142 01f0 00000000 		.4byte	0
 3143 01f4 00000000 		.4byte	0
 3144              	.LLST14:
 3145 01f8 00000000 		.4byte	.LFB125
 3146 01fc 10000000 		.4byte	.LCFI7
 3147 0200 0200     		.2byte	0x2
 3148 0202 7D       		.byte	0x7d
 3149 0203 00       		.sleb128 0
 3150 0204 10000000 		.4byte	.LCFI7
 3151 0208 30000000 		.4byte	.LFE125
 3152 020c 0200     		.2byte	0x2
 3153 020e 7D       		.byte	0x7d
 3154 020f 08       		.sleb128 8
 3155 0210 00000000 		.4byte	0
 3156 0214 00000000 		.4byte	0
 3157              	.LLST15:
 3158 0218 0E000000 		.4byte	.LVL21
 3159 021c 1A000000 		.4byte	.LVL22
 3160 0220 0800     		.2byte	0x8
 3161 0222 71       		.byte	0x71
 3162 0223 00       		.sleb128 0
 3163 0224 46       		.byte	0x46
 3164 0225 25       		.byte	0x25
 3165 0226 08       		.byte	0x8
 3166 0227 3D       		.byte	0x3d
 3167 0228 1A       		.byte	0x1a
 3168 0229 9F       		.byte	0x9f
 3169 022a 1A000000 		.4byte	.LVL22
 3170 022e 20000000 		.4byte	.LVL23
 3171 0232 0600     		.2byte	0x6
 3172 0234 71       		.byte	0x71
 3173 0235 00       		.sleb128 0
 3174 0236 08       		.byte	0x8
 3175 0237 3D       		.byte	0x3d
 3176 0238 1A       		.byte	0x1a
 3177 0239 9F       		.byte	0x9f
 3178 023a 00000000 		.4byte	0
 3179 023e 00000000 		.4byte	0
 3180              	.LLST16:
ARM GAS  /tmp/ccIMeq3I.s 			page 57


 3181 0242 00000000 		.4byte	.LFB126
 3182 0246 10000000 		.4byte	.LCFI8
 3183 024a 0200     		.2byte	0x2
 3184 024c 7D       		.byte	0x7d
 3185 024d 00       		.sleb128 0
 3186 024e 10000000 		.4byte	.LCFI8
 3187 0252 28000000 		.4byte	.LFE126
 3188 0256 0200     		.2byte	0x2
 3189 0258 7D       		.byte	0x7d
 3190 0259 08       		.sleb128 8
 3191 025a 00000000 		.4byte	0
 3192 025e 00000000 		.4byte	0
 3193              	.LLST17:
 3194 0262 0E000000 		.4byte	.LVL24
 3195 0266 1A000000 		.4byte	.LVL25
 3196 026a 0600     		.2byte	0x6
 3197 026c 71       		.byte	0x71
 3198 026d 00       		.sleb128 0
 3199 026e 08       		.byte	0x8
 3200 026f 3D       		.byte	0x3d
 3201 0270 1A       		.byte	0x1a
 3202 0271 9F       		.byte	0x9f
 3203 0272 1A000000 		.4byte	.LVL25
 3204 0276 1B000000 		.4byte	.LVL26-1
 3205 027a 0100     		.2byte	0x1
 3206 027c 51       		.byte	0x51
 3207 027d 00000000 		.4byte	0
 3208 0281 00000000 		.4byte	0
 3209              	.LLST18:
 3210 0285 00000000 		.4byte	.LFB127
 3211 0289 10000000 		.4byte	.LCFI9
 3212 028d 0200     		.2byte	0x2
 3213 028f 7D       		.byte	0x7d
 3214 0290 00       		.sleb128 0
 3215 0291 10000000 		.4byte	.LCFI9
 3216 0295 30000000 		.4byte	.LFE127
 3217 0299 0200     		.2byte	0x2
 3218 029b 7D       		.byte	0x7d
 3219 029c 08       		.sleb128 8
 3220 029d 00000000 		.4byte	0
 3221 02a1 00000000 		.4byte	0
 3222              	.LLST19:
 3223 02a5 0E000000 		.4byte	.LVL27
 3224 02a9 1A000000 		.4byte	.LVL28
 3225 02ad 0800     		.2byte	0x8
 3226 02af 71       		.byte	0x71
 3227 02b0 00       		.sleb128 0
 3228 02b1 36       		.byte	0x36
 3229 02b2 25       		.byte	0x25
 3230 02b3 08       		.byte	0x8
 3231 02b4 3D       		.byte	0x3d
 3232 02b5 1A       		.byte	0x1a
 3233 02b6 9F       		.byte	0x9f
 3234 02b7 1A000000 		.4byte	.LVL28
 3235 02bb 20000000 		.4byte	.LVL29
 3236 02bf 0600     		.2byte	0x6
 3237 02c1 71       		.byte	0x71
ARM GAS  /tmp/ccIMeq3I.s 			page 58


 3238 02c2 00       		.sleb128 0
 3239 02c3 08       		.byte	0x8
 3240 02c4 3D       		.byte	0x3d
 3241 02c5 1A       		.byte	0x1a
 3242 02c6 9F       		.byte	0x9f
 3243 02c7 00000000 		.4byte	0
 3244 02cb 00000000 		.4byte	0
 3245              	.LLST20:
 3246 02cf 00000000 		.4byte	.LFB128
 3247 02d3 10000000 		.4byte	.LCFI10
 3248 02d7 0200     		.2byte	0x2
 3249 02d9 7D       		.byte	0x7d
 3250 02da 00       		.sleb128 0
 3251 02db 10000000 		.4byte	.LCFI10
 3252 02df 30000000 		.4byte	.LFE128
 3253 02e3 0200     		.2byte	0x2
 3254 02e5 7D       		.byte	0x7d
 3255 02e6 08       		.sleb128 8
 3256 02e7 00000000 		.4byte	0
 3257 02eb 00000000 		.4byte	0
 3258              	.LLST21:
 3259 02ef 0E000000 		.4byte	.LVL30
 3260 02f3 1A000000 		.4byte	.LVL31
 3261 02f7 0800     		.2byte	0x8
 3262 02f9 71       		.byte	0x71
 3263 02fa 00       		.sleb128 0
 3264 02fb 40       		.byte	0x40
 3265 02fc 25       		.byte	0x25
 3266 02fd 08       		.byte	0x8
 3267 02fe 3D       		.byte	0x3d
 3268 02ff 1A       		.byte	0x1a
 3269 0300 9F       		.byte	0x9f
 3270 0301 1A000000 		.4byte	.LVL31
 3271 0305 20000000 		.4byte	.LVL32
 3272 0309 0600     		.2byte	0x6
 3273 030b 71       		.byte	0x71
 3274 030c 00       		.sleb128 0
 3275 030d 08       		.byte	0x8
 3276 030e 3D       		.byte	0x3d
 3277 030f 1A       		.byte	0x1a
 3278 0310 9F       		.byte	0x9f
 3279 0311 00000000 		.4byte	0
 3280 0315 00000000 		.4byte	0
 3281              	.LLST22:
 3282 0319 00000000 		.4byte	.LFB129
 3283 031d 10000000 		.4byte	.LCFI11
 3284 0321 0200     		.2byte	0x2
 3285 0323 7D       		.byte	0x7d
 3286 0324 00       		.sleb128 0
 3287 0325 10000000 		.4byte	.LCFI11
 3288 0329 30000000 		.4byte	.LFE129
 3289 032d 0200     		.2byte	0x2
 3290 032f 7D       		.byte	0x7d
 3291 0330 08       		.sleb128 8
 3292 0331 00000000 		.4byte	0
 3293 0335 00000000 		.4byte	0
 3294              	.LLST23:
ARM GAS  /tmp/ccIMeq3I.s 			page 59


 3295 0339 0E000000 		.4byte	.LVL33
 3296 033d 1A000000 		.4byte	.LVL34
 3297 0341 0800     		.2byte	0x8
 3298 0343 71       		.byte	0x71
 3299 0344 00       		.sleb128 0
 3300 0345 46       		.byte	0x46
 3301 0346 25       		.byte	0x25
 3302 0347 08       		.byte	0x8
 3303 0348 3D       		.byte	0x3d
 3304 0349 1A       		.byte	0x1a
 3305 034a 9F       		.byte	0x9f
 3306 034b 1A000000 		.4byte	.LVL34
 3307 034f 20000000 		.4byte	.LVL35
 3308 0353 0600     		.2byte	0x6
 3309 0355 71       		.byte	0x71
 3310 0356 00       		.sleb128 0
 3311 0357 08       		.byte	0x8
 3312 0358 3D       		.byte	0x3d
 3313 0359 1A       		.byte	0x1a
 3314 035a 9F       		.byte	0x9f
 3315 035b 00000000 		.4byte	0
 3316 035f 00000000 		.4byte	0
 3317              	.LLST24:
 3318 0363 00000000 		.4byte	.LFB130
 3319 0367 10000000 		.4byte	.LCFI12
 3320 036b 0200     		.2byte	0x2
 3321 036d 7D       		.byte	0x7d
 3322 036e 00       		.sleb128 0
 3323 036f 10000000 		.4byte	.LCFI12
 3324 0373 28000000 		.4byte	.LFE130
 3325 0377 0200     		.2byte	0x2
 3326 0379 7D       		.byte	0x7d
 3327 037a 08       		.sleb128 8
 3328 037b 00000000 		.4byte	0
 3329 037f 00000000 		.4byte	0
 3330              	.LLST25:
 3331 0383 0E000000 		.4byte	.LVL36
 3332 0387 1A000000 		.4byte	.LVL37
 3333 038b 0600     		.2byte	0x6
 3334 038d 71       		.byte	0x71
 3335 038e 00       		.sleb128 0
 3336 038f 08       		.byte	0x8
 3337 0390 3D       		.byte	0x3d
 3338 0391 1A       		.byte	0x1a
 3339 0392 9F       		.byte	0x9f
 3340 0393 1A000000 		.4byte	.LVL37
 3341 0397 1B000000 		.4byte	.LVL38-1
 3342 039b 0100     		.2byte	0x1
 3343 039d 51       		.byte	0x51
 3344 039e 00000000 		.4byte	0
 3345 03a2 00000000 		.4byte	0
 3346              	.LLST26:
 3347 03a6 00000000 		.4byte	.LFB131
 3348 03aa 10000000 		.4byte	.LCFI13
 3349 03ae 0200     		.2byte	0x2
 3350 03b0 7D       		.byte	0x7d
 3351 03b1 00       		.sleb128 0
ARM GAS  /tmp/ccIMeq3I.s 			page 60


 3352 03b2 10000000 		.4byte	.LCFI13
 3353 03b6 30000000 		.4byte	.LFE131
 3354 03ba 0200     		.2byte	0x2
 3355 03bc 7D       		.byte	0x7d
 3356 03bd 08       		.sleb128 8
 3357 03be 00000000 		.4byte	0
 3358 03c2 00000000 		.4byte	0
 3359              	.LLST27:
 3360 03c6 0E000000 		.4byte	.LVL39
 3361 03ca 1A000000 		.4byte	.LVL40
 3362 03ce 0800     		.2byte	0x8
 3363 03d0 71       		.byte	0x71
 3364 03d1 00       		.sleb128 0
 3365 03d2 36       		.byte	0x36
 3366 03d3 25       		.byte	0x25
 3367 03d4 08       		.byte	0x8
 3368 03d5 3D       		.byte	0x3d
 3369 03d6 1A       		.byte	0x1a
 3370 03d7 9F       		.byte	0x9f
 3371 03d8 1A000000 		.4byte	.LVL40
 3372 03dc 20000000 		.4byte	.LVL41
 3373 03e0 0600     		.2byte	0x6
 3374 03e2 71       		.byte	0x71
 3375 03e3 00       		.sleb128 0
 3376 03e4 08       		.byte	0x8
 3377 03e5 3D       		.byte	0x3d
 3378 03e6 1A       		.byte	0x1a
 3379 03e7 9F       		.byte	0x9f
 3380 03e8 00000000 		.4byte	0
 3381 03ec 00000000 		.4byte	0
 3382              	.LLST28:
 3383 03f0 00000000 		.4byte	.LFB132
 3384 03f4 10000000 		.4byte	.LCFI14
 3385 03f8 0200     		.2byte	0x2
 3386 03fa 7D       		.byte	0x7d
 3387 03fb 00       		.sleb128 0
 3388 03fc 10000000 		.4byte	.LCFI14
 3389 0400 30000000 		.4byte	.LFE132
 3390 0404 0200     		.2byte	0x2
 3391 0406 7D       		.byte	0x7d
 3392 0407 08       		.sleb128 8
 3393 0408 00000000 		.4byte	0
 3394 040c 00000000 		.4byte	0
 3395              	.LLST29:
 3396 0410 0E000000 		.4byte	.LVL42
 3397 0414 1A000000 		.4byte	.LVL43
 3398 0418 0800     		.2byte	0x8
 3399 041a 71       		.byte	0x71
 3400 041b 00       		.sleb128 0
 3401 041c 40       		.byte	0x40
 3402 041d 25       		.byte	0x25
 3403 041e 08       		.byte	0x8
 3404 041f 3D       		.byte	0x3d
 3405 0420 1A       		.byte	0x1a
 3406 0421 9F       		.byte	0x9f
 3407 0422 1A000000 		.4byte	.LVL43
 3408 0426 20000000 		.4byte	.LVL44
ARM GAS  /tmp/ccIMeq3I.s 			page 61


 3409 042a 0600     		.2byte	0x6
 3410 042c 71       		.byte	0x71
 3411 042d 00       		.sleb128 0
 3412 042e 08       		.byte	0x8
 3413 042f 3D       		.byte	0x3d
 3414 0430 1A       		.byte	0x1a
 3415 0431 9F       		.byte	0x9f
 3416 0432 00000000 		.4byte	0
 3417 0436 00000000 		.4byte	0
 3418              	.LLST30:
 3419 043a 00000000 		.4byte	.LFB133
 3420 043e 10000000 		.4byte	.LCFI15
 3421 0442 0200     		.2byte	0x2
 3422 0444 7D       		.byte	0x7d
 3423 0445 00       		.sleb128 0
 3424 0446 10000000 		.4byte	.LCFI15
 3425 044a 30000000 		.4byte	.LFE133
 3426 044e 0200     		.2byte	0x2
 3427 0450 7D       		.byte	0x7d
 3428 0451 08       		.sleb128 8
 3429 0452 00000000 		.4byte	0
 3430 0456 00000000 		.4byte	0
 3431              	.LLST31:
 3432 045a 0E000000 		.4byte	.LVL45
 3433 045e 1A000000 		.4byte	.LVL46
 3434 0462 0800     		.2byte	0x8
 3435 0464 71       		.byte	0x71
 3436 0465 00       		.sleb128 0
 3437 0466 46       		.byte	0x46
 3438 0467 25       		.byte	0x25
 3439 0468 08       		.byte	0x8
 3440 0469 3D       		.byte	0x3d
 3441 046a 1A       		.byte	0x1a
 3442 046b 9F       		.byte	0x9f
 3443 046c 1A000000 		.4byte	.LVL46
 3444 0470 20000000 		.4byte	.LVL47
 3445 0474 0600     		.2byte	0x6
 3446 0476 71       		.byte	0x71
 3447 0477 00       		.sleb128 0
 3448 0478 08       		.byte	0x8
 3449 0479 3D       		.byte	0x3d
 3450 047a 1A       		.byte	0x1a
 3451 047b 9F       		.byte	0x9f
 3452 047c 00000000 		.4byte	0
 3453 0480 00000000 		.4byte	0
 3454              	.LLST32:
 3455 0484 00000000 		.4byte	.LFB134
 3456 0488 04000000 		.4byte	.LCFI16
 3457 048c 0200     		.2byte	0x2
 3458 048e 7D       		.byte	0x7d
 3459 048f 00       		.sleb128 0
 3460 0490 04000000 		.4byte	.LCFI16
 3461 0494 4C000000 		.4byte	.LFE134
 3462 0498 0200     		.2byte	0x2
 3463 049a 7D       		.byte	0x7d
 3464 049b 08       		.sleb128 8
 3465 049c 00000000 		.4byte	0
ARM GAS  /tmp/ccIMeq3I.s 			page 62


 3466 04a0 00000000 		.4byte	0
 3467              	.LLST33:
 3468 04a4 0C000000 		.4byte	.LVL48
 3469 04a8 10000000 		.4byte	.LVL49
 3470 04ac 0200     		.2byte	0x2
 3471 04ae 30       		.byte	0x30
 3472 04af 9F       		.byte	0x9f
 3473 04b0 00000000 		.4byte	0
 3474 04b4 00000000 		.4byte	0
 3475              	.LLST34:
 3476 04b8 00000000 		.4byte	.LFB135
 3477 04bc 04000000 		.4byte	.LCFI17
 3478 04c0 0200     		.2byte	0x2
 3479 04c2 7D       		.byte	0x7d
 3480 04c3 00       		.sleb128 0
 3481 04c4 04000000 		.4byte	.LCFI17
 3482 04c8 A4000000 		.4byte	.LFE135
 3483 04cc 0200     		.2byte	0x2
 3484 04ce 7D       		.byte	0x7d
 3485 04cf 18       		.sleb128 24
 3486 04d0 00000000 		.4byte	0
 3487 04d4 00000000 		.4byte	0
 3488              	.LLST35:
 3489 04d8 00000000 		.4byte	.LVL50
 3490 04dc 82000000 		.4byte	.LVL52
 3491 04e0 0100     		.2byte	0x1
 3492 04e2 50       		.byte	0x50
 3493 04e3 8E000000 		.4byte	.LVL55
 3494 04e7 90000000 		.4byte	.LVL56
 3495 04eb 0100     		.2byte	0x1
 3496 04ed 50       		.byte	0x50
 3497 04ee 94000000 		.4byte	.LVL57
 3498 04f2 96000000 		.4byte	.LVL58
 3499 04f6 0100     		.2byte	0x1
 3500 04f8 50       		.byte	0x50
 3501 04f9 00000000 		.4byte	0
 3502 04fd 00000000 		.4byte	0
 3503              	.LLST36:
 3504 0501 00000000 		.4byte	.LVL50
 3505 0505 84000000 		.4byte	.LVL53
 3506 0509 0100     		.2byte	0x1
 3507 050b 51       		.byte	0x51
 3508 050c 8E000000 		.4byte	.LVL55
 3509 0510 A4000000 		.4byte	.LFE135
 3510 0514 0100     		.2byte	0x1
 3511 0516 51       		.byte	0x51
 3512 0517 00000000 		.4byte	0
 3513 051b 00000000 		.4byte	0
 3514              	.LLST37:
 3515 051f 00000000 		.4byte	.LVL50
 3516 0523 87000000 		.4byte	.LVL54-1
 3517 0527 0100     		.2byte	0x1
 3518 0529 52       		.byte	0x52
 3519 052a 8E000000 		.4byte	.LVL55
 3520 052e A4000000 		.4byte	.LFE135
 3521 0532 0100     		.2byte	0x1
 3522 0534 52       		.byte	0x52
ARM GAS  /tmp/ccIMeq3I.s 			page 63


 3523 0535 00000000 		.4byte	0
 3524 0539 00000000 		.4byte	0
 3525              	.LLST38:
 3526 053d 00000000 		.4byte	.LVL50
 3527 0541 2E000000 		.4byte	.LVL51
 3528 0545 0100     		.2byte	0x1
 3529 0547 53       		.byte	0x53
 3530 0548 2E000000 		.4byte	.LVL51
 3531 054c 87000000 		.4byte	.LVL54-1
 3532 0550 0200     		.2byte	0x2
 3533 0552 78       		.byte	0x78
 3534 0553 04       		.sleb128 4
 3535 0554 8E000000 		.4byte	.LVL55
 3536 0558 94000000 		.4byte	.LVL57
 3537 055c 0100     		.2byte	0x1
 3538 055e 53       		.byte	0x53
 3539 055f 94000000 		.4byte	.LVL57
 3540 0563 A4000000 		.4byte	.LFE135
 3541 0567 0200     		.2byte	0x2
 3542 0569 78       		.byte	0x78
 3543 056a 04       		.sleb128 4
 3544 056b 00000000 		.4byte	0
 3545 056f 00000000 		.4byte	0
 3546              	.LLST39:
 3547 0573 00000000 		.4byte	.LFB136
 3548 0577 02000000 		.4byte	.LCFI18
 3549 057b 0200     		.2byte	0x2
 3550 057d 7D       		.byte	0x7d
 3551 057e 00       		.sleb128 0
 3552 057f 02000000 		.4byte	.LCFI18
 3553 0583 54000000 		.4byte	.LFE136
 3554 0587 0200     		.2byte	0x2
 3555 0589 7D       		.byte	0x7d
 3556 058a 08       		.sleb128 8
 3557 058b 00000000 		.4byte	0
 3558 058f 00000000 		.4byte	0
 3559              	.LLST40:
 3560 0593 00000000 		.4byte	.LVL59
 3561 0597 06000000 		.4byte	.LVL60
 3562 059b 0100     		.2byte	0x1
 3563 059d 50       		.byte	0x50
 3564 059e 06000000 		.4byte	.LVL60
 3565 05a2 54000000 		.4byte	.LFE136
 3566 05a6 0100     		.2byte	0x1
 3567 05a8 54       		.byte	0x54
 3568 05a9 00000000 		.4byte	0
 3569 05ad 00000000 		.4byte	0
 3570              		.section	.debug_aranges,"",%progbits
 3571 0000 AC000000 		.4byte	0xac
 3572 0004 0200     		.2byte	0x2
 3573 0006 00000000 		.4byte	.Ldebug_info0
 3574 000a 04       		.byte	0x4
 3575 000b 00       		.byte	0
 3576 000c 0000     		.2byte	0
 3577 000e 0000     		.2byte	0
 3578 0010 00000000 		.4byte	.LFB118
 3579 0014 28000000 		.4byte	.LFE118-.LFB118
ARM GAS  /tmp/ccIMeq3I.s 			page 64


 3580 0018 00000000 		.4byte	.LFB119
 3581 001c 30000000 		.4byte	.LFE119-.LFB119
 3582 0020 00000000 		.4byte	.LFB120
 3583 0024 30000000 		.4byte	.LFE120-.LFB120
 3584 0028 00000000 		.4byte	.LFB121
 3585 002c 30000000 		.4byte	.LFE121-.LFB121
 3586 0030 00000000 		.4byte	.LFB122
 3587 0034 28000000 		.4byte	.LFE122-.LFB122
 3588 0038 00000000 		.4byte	.LFB123
 3589 003c 30000000 		.4byte	.LFE123-.LFB123
 3590 0040 00000000 		.4byte	.LFB124
 3591 0044 30000000 		.4byte	.LFE124-.LFB124
 3592 0048 00000000 		.4byte	.LFB125
 3593 004c 30000000 		.4byte	.LFE125-.LFB125
 3594 0050 00000000 		.4byte	.LFB126
 3595 0054 28000000 		.4byte	.LFE126-.LFB126
 3596 0058 00000000 		.4byte	.LFB127
 3597 005c 30000000 		.4byte	.LFE127-.LFB127
 3598 0060 00000000 		.4byte	.LFB128
 3599 0064 30000000 		.4byte	.LFE128-.LFB128
 3600 0068 00000000 		.4byte	.LFB129
 3601 006c 30000000 		.4byte	.LFE129-.LFB129
 3602 0070 00000000 		.4byte	.LFB130
 3603 0074 28000000 		.4byte	.LFE130-.LFB130
 3604 0078 00000000 		.4byte	.LFB131
 3605 007c 30000000 		.4byte	.LFE131-.LFB131
 3606 0080 00000000 		.4byte	.LFB132
 3607 0084 30000000 		.4byte	.LFE132-.LFB132
 3608 0088 00000000 		.4byte	.LFB133
 3609 008c 30000000 		.4byte	.LFE133-.LFB133
 3610 0090 00000000 		.4byte	.LFB134
 3611 0094 4C000000 		.4byte	.LFE134-.LFB134
 3612 0098 00000000 		.4byte	.LFB135
 3613 009c A4000000 		.4byte	.LFE135-.LFB135
 3614 00a0 00000000 		.4byte	.LFB136
 3615 00a4 54000000 		.4byte	.LFE136-.LFB136
 3616 00a8 00000000 		.4byte	0
 3617 00ac 00000000 		.4byte	0
 3618              		.section	.debug_ranges,"",%progbits
 3619              	.Ldebug_ranges0:
 3620 0000 00000000 		.4byte	.LFB118
 3621 0004 28000000 		.4byte	.LFE118
 3622 0008 00000000 		.4byte	.LFB119
 3623 000c 30000000 		.4byte	.LFE119
 3624 0010 00000000 		.4byte	.LFB120
 3625 0014 30000000 		.4byte	.LFE120
 3626 0018 00000000 		.4byte	.LFB121
 3627 001c 30000000 		.4byte	.LFE121
 3628 0020 00000000 		.4byte	.LFB122
 3629 0024 28000000 		.4byte	.LFE122
 3630 0028 00000000 		.4byte	.LFB123
 3631 002c 30000000 		.4byte	.LFE123
 3632 0030 00000000 		.4byte	.LFB124
 3633 0034 30000000 		.4byte	.LFE124
 3634 0038 00000000 		.4byte	.LFB125
 3635 003c 30000000 		.4byte	.LFE125
 3636 0040 00000000 		.4byte	.LFB126
ARM GAS  /tmp/ccIMeq3I.s 			page 65


 3637 0044 28000000 		.4byte	.LFE126
 3638 0048 00000000 		.4byte	.LFB127
 3639 004c 30000000 		.4byte	.LFE127
 3640 0050 00000000 		.4byte	.LFB128
 3641 0054 30000000 		.4byte	.LFE128
 3642 0058 00000000 		.4byte	.LFB129
 3643 005c 30000000 		.4byte	.LFE129
 3644 0060 00000000 		.4byte	.LFB130
 3645 0064 28000000 		.4byte	.LFE130
 3646 0068 00000000 		.4byte	.LFB131
 3647 006c 30000000 		.4byte	.LFE131
 3648 0070 00000000 		.4byte	.LFB132
 3649 0074 30000000 		.4byte	.LFE132
 3650 0078 00000000 		.4byte	.LFB133
 3651 007c 30000000 		.4byte	.LFE133
 3652 0080 00000000 		.4byte	.LFB134
 3653 0084 4C000000 		.4byte	.LFE134
 3654 0088 00000000 		.4byte	.LFB135
 3655 008c A4000000 		.4byte	.LFE135
 3656 0090 00000000 		.4byte	.LFB136
 3657 0094 54000000 		.4byte	.LFE136
 3658 0098 00000000 		.4byte	0
 3659 009c 00000000 		.4byte	0
 3660              		.section	.debug_line,"",%progbits
 3661              	.Ldebug_line0:
 3662 0000 70030000 		.section	.debug_str,"MS",%progbits,1
 3662      02002701 
 3662      00000201 
 3662      FB0E0D00 
 3662      01010101 
 3663              	.LASF151:
 3664 0000 646D615F 		.ascii	"dma_isr_redir_t\000"
 3664      6973725F 
 3664      72656469 
 3664      725F7400 
 3665              	.LASF134:
 3666 0010 41504231 		.ascii	"APB1LPENR\000"
 3666      4C50454E 
 3666      5200
 3667              	.LASF43:
 3668 001a 43414E31 		.ascii	"CAN1_RX0_IRQn\000"
 3668      5F525830 
 3668      5F495251 
 3668      6E00
 3669              	.LASF24:
 3670 0028 5056445F 		.ascii	"PVD_IRQn\000"
 3670      4952516E 
 3670      00
 3671              	.LASF87:
 3672 0031 43414E32 		.ascii	"CAN2_RX0_IRQn\000"
 3672      5F525830 
 3672      5F495251 
 3672      6E00
 3673              	.LASF106:
 3674 003f 4D304152 		.ascii	"M0AR\000"
 3674      00
 3675              	.LASF92:
ARM GAS  /tmp/ccIMeq3I.s 			page 66


 3676 0044 444D4132 		.ascii	"DMA2_Stream6_IRQn\000"
 3676      5F537472 
 3676      65616D36 
 3676      5F495251 
 3676      6E00
 3677              	.LASF46:
 3678 0056 45585449 		.ascii	"EXTI9_5_IRQn\000"
 3678      395F355F 
 3678      4952516E 
 3678      00
 3679              	.LASF96:
 3680 0063 49324333 		.ascii	"I2C3_ER_IRQn\000"
 3680      5F45525F 
 3680      4952516E 
 3680      00
 3681              	.LASF109:
 3682 0070 4C495352 		.ascii	"LISR\000"
 3682      00
 3683              	.LASF180:
 3684 0075 2E2E2F2E 		.ascii	"../../os/hal/platforms/STM32F4xx/stm32_dma.c\000"
 3684      2E2F6F73 
 3684      2F68616C 
 3684      2F706C61 
 3684      74666F72 
 3685              	.LASF54:
 3686 00a2 49324331 		.ascii	"I2C1_EV_IRQn\000"
 3686      5F45565F 
 3686      4952516E 
 3686      00
 3687              	.LASF91:
 3688 00af 444D4132 		.ascii	"DMA2_Stream5_IRQn\000"
 3688      5F537472 
 3688      65616D35 
 3688      5F495251 
 3688      6E00
 3689              	.LASF165:
 3690 00c1 56656374 		.ascii	"Vector130\000"
 3690      6F723133 
 3690      3000
 3691              	.LASF142:
 3692 00cb 73747265 		.ascii	"stream\000"
 3692      616D00
 3693              	.LASF44:
 3694 00d2 43414E31 		.ascii	"CAN1_RX1_IRQn\000"
 3694      5F525831 
 3694      5F495251 
 3694      6E00
 3695              	.LASF11:
 3696 00e0 6C6F6E67 		.ascii	"long long unsigned int\000"
 3696      206C6F6E 
 3696      6720756E 
 3696      7369676E 
 3696      65642069 
 3697              	.LASF64:
 3698 00f7 5254435F 		.ascii	"RTC_Alarm_IRQn\000"
 3698      416C6172 
 3698      6D5F4952 
ARM GAS  /tmp/ccIMeq3I.s 			page 67


 3698      516E00
 3699              	.LASF146:
 3700 0106 76656374 		.ascii	"vector\000"
 3700      6F7200
 3701              	.LASF176:
 3702 010d 5F73746D 		.ascii	"_stm32_dma_streams\000"
 3702      33325F64 
 3702      6D615F73 
 3702      74726561 
 3702      6D7300
 3703              	.LASF57:
 3704 0120 49324332 		.ascii	"I2C2_ER_IRQn\000"
 3704      5F45525F 
 3704      4952516E 
 3704      00
 3705              	.LASF53:
 3706 012d 54494D34 		.ascii	"TIM4_IRQn\000"
 3706      5F495251 
 3706      6E00
 3707              	.LASF26:
 3708 0137 5254435F 		.ascii	"RTC_WKUP_IRQn\000"
 3708      574B5550 
 3708      5F495251 
 3708      6E00
 3709              	.LASF23:
 3710 0145 57574447 		.ascii	"WWDG_IRQn\000"
 3710      5F495251 
 3710      6E00
 3711              	.LASF72:
 3712 014f 5344494F 		.ascii	"SDIO_IRQn\000"
 3712      5F495251 
 3712      6E00
 3713              	.LASF130:
 3714 0159 41484231 		.ascii	"AHB1LPENR\000"
 3714      4C50454E 
 3714      5200
 3715              	.LASF69:
 3716 0163 54494D38 		.ascii	"TIM8_CC_IRQn\000"
 3716      5F43435F 
 3716      4952516E 
 3716      00
 3717              	.LASF10:
 3718 0170 6C6F6E67 		.ascii	"long long int\000"
 3718      206C6F6E 
 3718      6720696E 
 3718      7400
 3719              	.LASF1:
 3720 017e 7369676E 		.ascii	"signed char\000"
 3720      65642063 
 3720      68617200 
 3721              	.LASF88:
 3722 018a 43414E32 		.ascii	"CAN2_RX1_IRQn\000"
 3722      5F525831 
 3722      5F495251 
 3722      6E00
 3723              	.LASF102:
 3724 0198 43525950 		.ascii	"CRYP_IRQn\000"
ARM GAS  /tmp/ccIMeq3I.s 			page 68


 3724      5F495251 
 3724      6E00
 3725              	.LASF116:
 3726 01a2 41484231 		.ascii	"AHB1RSTR\000"
 3726      52535452 
 3726      00
 3727              	.LASF168:
 3728 01ab 56656374 		.ascii	"Vector158\000"
 3728      6F723135 
 3728      3800
 3729              	.LASF12:
 3730 01b5 626F6F6C 		.ascii	"bool_t\000"
 3730      5F7400
 3731              	.LASF170:
 3732 01bc 646D6173 		.ascii	"dmastp\000"
 3732      747000
 3733              	.LASF181:
 3734 01c3 2F686F6D 		.ascii	"/home/aggieair/workspace/ChibiOS_2.6.1/demos/ARMCM4"
 3734      652F6167 
 3734      67696561 
 3734      69722F77 
 3734      6F726B73 
 3735 01f6 2D53544D 		.ascii	"-STM32F407-DISCOVERY/\000"
 3735      33324634 
 3735      30372D44 
 3735      4953434F 
 3735      56455259 
 3736              	.LASF7:
 3737 020c 6C6F6E67 		.ascii	"long int\000"
 3737      20696E74 
 3737      00
 3738              	.LASF121:
 3739 0215 41504232 		.ascii	"APB2RSTR\000"
 3739      52535452 
 3739      00
 3740              	.LASF39:
 3741 021e 444D4131 		.ascii	"DMA1_Stream5_IRQn\000"
 3741      5F537472 
 3741      65616D35 
 3741      5F495251 
 3741      6E00
 3742              	.LASF172:
 3743 0230 66756E63 		.ascii	"func\000"
 3743      00
 3744              	.LASF85:
 3745 0235 4554485F 		.ascii	"ETH_WKUP_IRQn\000"
 3745      574B5550 
 3745      5F495251 
 3745      6E00
 3746              	.LASF8:
 3747 0243 75696E74 		.ascii	"uint32_t\000"
 3747      33325F74 
 3747      00
 3748              	.LASF77:
 3749 024c 54494D36 		.ascii	"TIM6_DAC_IRQn\000"
 3749      5F444143 
 3749      5F495251 
ARM GAS  /tmp/ccIMeq3I.s 			page 69


 3749      6E00
 3750              	.LASF114:
 3751 025a 504C4C43 		.ascii	"PLLCFGR\000"
 3751      46475200 
 3752              	.LASF75:
 3753 0262 55415254 		.ascii	"UART4_IRQn\000"
 3753      345F4952 
 3753      516E00
 3754              	.LASF65:
 3755 026d 4F54475F 		.ascii	"OTG_FS_WKUP_IRQn\000"
 3755      46535F57 
 3755      4B55505F 
 3755      4952516E 
 3755      00
 3756              	.LASF21:
 3757 027e 50656E64 		.ascii	"PendSV_IRQn\000"
 3757      53565F49 
 3757      52516E00 
 3758              	.LASF67:
 3759 028a 54494D38 		.ascii	"TIM8_UP_TIM13_IRQn\000"
 3759      5F55505F 
 3759      54494D31 
 3759      335F4952 
 3759      516E00
 3760              	.LASF117:
 3761 029d 41484232 		.ascii	"AHB2RSTR\000"
 3761      52535452 
 3761      00
 3762              	.LASF145:
 3763 02a6 73656C66 		.ascii	"selfindex\000"
 3763      696E6465 
 3763      7800
 3764              	.LASF93:
 3765 02b0 444D4132 		.ascii	"DMA2_Stream7_IRQn\000"
 3765      5F537472 
 3765      65616D37 
 3765      5F495251 
 3765      6E00
 3766              	.LASF123:
 3767 02c2 41484231 		.ascii	"AHB1ENR\000"
 3767      454E5200 
 3768              	.LASF113:
 3769 02ca 444D415F 		.ascii	"DMA_TypeDef\000"
 3769      54797065 
 3769      44656600 
 3770              	.LASF0:
 3771 02d6 756E7369 		.ascii	"unsigned int\000"
 3771      676E6564 
 3771      20696E74 
 3771      00
 3772              	.LASF166:
 3773 02e3 56656374 		.ascii	"Vector150\000"
 3773      6F723135 
 3773      3000
 3774              	.LASF37:
 3775 02ed 444D4131 		.ascii	"DMA1_Stream3_IRQn\000"
 3775      5F537472 
ARM GAS  /tmp/ccIMeq3I.s 			page 70


 3775      65616D33 
 3775      5F495251 
 3775      6E00
 3776              	.LASF40:
 3777 02ff 444D4131 		.ascii	"DMA1_Stream6_IRQn\000"
 3777      5F537472 
 3777      65616D36 
 3777      5F495251 
 3777      6E00
 3778              	.LASF167:
 3779 0311 56656374 		.ascii	"Vector154\000"
 3779      6F723135 
 3779      3400
 3780              	.LASF16:
 3781 031b 4D656D6F 		.ascii	"MemoryManagement_IRQn\000"
 3781      72794D61 
 3781      6E616765 
 3781      6D656E74 
 3781      5F495251 
 3782              	.LASF148:
 3783 0331 73746D33 		.ascii	"stm32_dmaisr_t\000"
 3783      325F646D 
 3783      61697372 
 3783      5F7400
 3784              	.LASF95:
 3785 0340 49324333 		.ascii	"I2C3_EV_IRQn\000"
 3785      5F45565F 
 3785      4952516E 
 3785      00
 3786              	.LASF9:
 3787 034d 6C6F6E67 		.ascii	"long unsigned int\000"
 3787      20756E73 
 3787      69676E65 
 3787      6420696E 
 3787      7400
 3788              	.LASF141:
 3789 035f 5243435F 		.ascii	"RCC_TypeDef\000"
 3789      54797065 
 3789      44656600 
 3790              	.LASF144:
 3791 036b 69736869 		.ascii	"ishift\000"
 3791      667400
 3792              	.LASF160:
 3793 0372 56656374 		.ascii	"VectorFC\000"
 3793      6F724643 
 3793      00
 3794              	.LASF97:
 3795 037b 4F54475F 		.ascii	"OTG_HS_EP1_OUT_IRQn\000"
 3795      48535F45 
 3795      50315F4F 
 3795      55545F49 
 3795      52516E00 
 3796              	.LASF19:
 3797 038f 53564361 		.ascii	"SVCall_IRQn\000"
 3797      6C6C5F49 
 3797      52516E00 
 3798              	.LASF4:
ARM GAS  /tmp/ccIMeq3I.s 			page 71


 3799 039b 73686F72 		.ascii	"short unsigned int\000"
 3799      7420756E 
 3799      7369676E 
 3799      65642069 
 3799      6E7400
 3800              	.LASF81:
 3801 03ae 444D4132 		.ascii	"DMA2_Stream2_IRQn\000"
 3801      5F537472 
 3801      65616D32 
 3801      5F495251 
 3801      6E00
 3802              	.LASF140:
 3803 03c0 504C4C49 		.ascii	"PLLI2SCFGR\000"
 3803      32534346 
 3803      475200
 3804              	.LASF42:
 3805 03cb 43414E31 		.ascii	"CAN1_TX_IRQn\000"
 3805      5F54585F 
 3805      4952516E 
 3805      00
 3806              	.LASF118:
 3807 03d8 41484233 		.ascii	"AHB3RSTR\000"
 3807      52535452 
 3807      00
 3808              	.LASF63:
 3809 03e1 45585449 		.ascii	"EXTI15_10_IRQn\000"
 3809      31355F31 
 3809      305F4952 
 3809      516E00
 3810              	.LASF58:
 3811 03f0 53504931 		.ascii	"SPI1_IRQn\000"
 3811      5F495251 
 3811      6E00
 3812              	.LASF35:
 3813 03fa 444D4131 		.ascii	"DMA1_Stream1_IRQn\000"
 3813      5F537472 
 3813      65616D31 
 3813      5F495251 
 3813      6E00
 3814              	.LASF171:
 3815 040c 7072696F 		.ascii	"priority\000"
 3815      72697479 
 3815      00
 3816              	.LASF110:
 3817 0415 48495352 		.ascii	"HISR\000"
 3817      00
 3818              	.LASF135:
 3819 041a 41504232 		.ascii	"APB2LPENR\000"
 3819      4C50454E 
 3819      5200
 3820              	.LASF66:
 3821 0424 54494D38 		.ascii	"TIM8_BRK_TIM12_IRQn\000"
 3821      5F42524B 
 3821      5F54494D 
 3821      31325F49 
 3821      52516E00 
 3822              	.LASF22:
ARM GAS  /tmp/ccIMeq3I.s 			page 72


 3823 0438 53797354 		.ascii	"SysTick_IRQn\000"
 3823      69636B5F 
 3823      4952516E 
 3823      00
 3824              	.LASF50:
 3825 0445 54494D31 		.ascii	"TIM1_CC_IRQn\000"
 3825      5F43435F 
 3825      4952516E 
 3825      00
 3826              	.LASF68:
 3827 0452 54494D38 		.ascii	"TIM8_TRG_COM_TIM14_IRQn\000"
 3827      5F545247 
 3827      5F434F4D 
 3827      5F54494D 
 3827      31345F49 
 3828              	.LASF182:
 3829 046a 4952516E 		.ascii	"IRQn\000"
 3829      00
 3830              	.LASF111:
 3831 046f 4C494643 		.ascii	"LIFCR\000"
 3831      5200
 3832              	.LASF84:
 3833 0475 4554485F 		.ascii	"ETH_IRQn\000"
 3833      4952516E 
 3833      00
 3834              	.LASF48:
 3835 047e 54494D31 		.ascii	"TIM1_UP_TIM10_IRQn\000"
 3835      5F55505F 
 3835      54494D31 
 3835      305F4952 
 3835      516E00
 3836              	.LASF82:
 3837 0491 444D4132 		.ascii	"DMA2_Stream3_IRQn\000"
 3837      5F537472 
 3837      65616D33 
 3837      5F495251 
 3837      6E00
 3838              	.LASF56:
 3839 04a3 49324332 		.ascii	"I2C2_EV_IRQn\000"
 3839      5F45565F 
 3839      4952516E 
 3839      00
 3840              	.LASF38:
 3841 04b0 444D4131 		.ascii	"DMA1_Stream4_IRQn\000"
 3841      5F537472 
 3841      65616D34 
 3841      5F495251 
 3841      6E00
 3842              	.LASF94:
 3843 04c2 55534152 		.ascii	"USART6_IRQn\000"
 3843      54365F49 
 3843      52516E00 
 3844              	.LASF173:
 3845 04ce 70617261 		.ascii	"param\000"
 3845      6D00
 3846              	.LASF73:
 3847 04d4 54494D35 		.ascii	"TIM5_IRQn\000"
ARM GAS  /tmp/ccIMeq3I.s 			page 73


 3847      5F495251 
 3847      6E00
 3848              	.LASF32:
 3849 04de 45585449 		.ascii	"EXTI3_IRQn\000"
 3849      335F4952 
 3849      516E00
 3850              	.LASF59:
 3851 04e9 53504932 		.ascii	"SPI2_IRQn\000"
 3851      5F495251 
 3851      6E00
 3852              	.LASF36:
 3853 04f3 444D4131 		.ascii	"DMA1_Stream2_IRQn\000"
 3853      5F537472 
 3853      65616D32 
 3853      5F495251 
 3853      6E00
 3854              	.LASF86:
 3855 0505 43414E32 		.ascii	"CAN2_TX_IRQn\000"
 3855      5F54585F 
 3855      4952516E 
 3855      00
 3856              	.LASF131:
 3857 0512 41484232 		.ascii	"AHB2LPENR\000"
 3857      4C50454E 
 3857      5200
 3858              	.LASF149:
 3859 051c 646D615F 		.ascii	"dma_func\000"
 3859      66756E63 
 3859      00
 3860              	.LASF120:
 3861 0525 41504231 		.ascii	"APB1RSTR\000"
 3861      52535452 
 3861      00
 3862              	.LASF100:
 3863 052e 4F54475F 		.ascii	"OTG_HS_IRQn\000"
 3863      48535F49 
 3863      52516E00 
 3864              	.LASF119:
 3865 053a 52455345 		.ascii	"RESERVED0\000"
 3865      52564544 
 3865      3000
 3866              	.LASF122:
 3867 0544 52455345 		.ascii	"RESERVED1\000"
 3867      52564544 
 3867      3100
 3868              	.LASF126:
 3869 054e 52455345 		.ascii	"RESERVED2\000"
 3869      52564544 
 3869      3200
 3870              	.LASF129:
 3871 0558 52455345 		.ascii	"RESERVED3\000"
 3871      52564544 
 3871      3300
 3872              	.LASF133:
 3873 0562 52455345 		.ascii	"RESERVED4\000"
 3873      52564544 
 3873      3400
ARM GAS  /tmp/ccIMeq3I.s 			page 74


 3874              	.LASF136:
 3875 056c 52455345 		.ascii	"RESERVED5\000"
 3875      52564544 
 3875      3500
 3876              	.LASF138:
 3877 0576 52455345 		.ascii	"RESERVED6\000"
 3877      52564544 
 3877      3600
 3878              	.LASF147:
 3879 0580 73746D33 		.ascii	"stm32_dma_stream_t\000"
 3879      325F646D 
 3879      615F7374 
 3879      7265616D 
 3879      5F7400
 3880              	.LASF74:
 3881 0593 53504933 		.ascii	"SPI3_IRQn\000"
 3881      5F495251 
 3881      6E00
 3882              	.LASF152:
 3883 059d 56656374 		.ascii	"Vector6C\000"
 3883      6F723643 
 3883      00
 3884              	.LASF83:
 3885 05a6 444D4132 		.ascii	"DMA2_Stream4_IRQn\000"
 3885      5F537472 
 3885      65616D34 
 3885      5F495251 
 3885      6E00
 3886              	.LASF71:
 3887 05b8 46534D43 		.ascii	"FSMC_IRQn\000"
 3887      5F495251 
 3887      6E00
 3888              	.LASF13:
 3889 05c2 5F426F6F 		.ascii	"_Bool\000"
 3889      6C00
 3890              	.LASF6:
 3891 05c8 696E7433 		.ascii	"int32_t\000"
 3891      325F7400 
 3892              	.LASF2:
 3893 05d0 756E7369 		.ascii	"unsigned char\000"
 3893      676E6564 
 3893      20636861 
 3893      7200
 3894              	.LASF47:
 3895 05de 54494D31 		.ascii	"TIM1_BRK_TIM9_IRQn\000"
 3895      5F42524B 
 3895      5F54494D 
 3895      395F4952 
 3895      516E00
 3896              	.LASF175:
 3897 05f1 49544D5F 		.ascii	"ITM_RxBuffer\000"
 3897      52784275 
 3897      66666572 
 3897      00
 3898              	.LASF33:
 3899 05fe 45585449 		.ascii	"EXTI4_IRQn\000"
 3899      345F4952 
ARM GAS  /tmp/ccIMeq3I.s 			page 75


 3899      516E00
 3900              	.LASF103:
 3901 0609 48415348 		.ascii	"HASH_RNG_IRQn\000"
 3901      5F524E47 
 3901      5F495251 
 3901      6E00
 3902              	.LASF3:
 3903 0617 73686F72 		.ascii	"short int\000"
 3903      7420696E 
 3903      7400
 3904              	.LASF132:
 3905 0621 41484233 		.ascii	"AHB3LPENR\000"
 3905      4C50454E 
 3905      5200
 3906              	.LASF76:
 3907 062b 55415254 		.ascii	"UART5_IRQn\000"
 3907      355F4952 
 3907      516E00
 3908              	.LASF49:
 3909 0636 54494D31 		.ascii	"TIM1_TRG_COM_TIM11_IRQn\000"
 3909      5F545247 
 3909      5F434F4D 
 3909      5F54494D 
 3909      31315F49 
 3910              	.LASF150:
 3911 064e 646D615F 		.ascii	"dma_param\000"
 3911      70617261 
 3911      6D00
 3912              	.LASF31:
 3913 0658 45585449 		.ascii	"EXTI2_IRQn\000"
 3913      325F4952 
 3913      516E00
 3914              	.LASF128:
 3915 0663 41504232 		.ascii	"APB2ENR\000"
 3915      454E5200 
 3916              	.LASF125:
 3917 066b 41484233 		.ascii	"AHB3ENR\000"
 3917      454E5200 
 3918              	.LASF27:
 3919 0673 464C4153 		.ascii	"FLASH_IRQn\000"
 3919      485F4952 
 3919      516E00
 3920              	.LASF143:
 3921 067e 69666372 		.ascii	"ifcr\000"
 3921      00
 3922              	.LASF153:
 3923 0683 56656374 		.ascii	"Vector70\000"
 3923      6F723730 
 3923      00
 3924              	.LASF90:
 3925 068c 4F54475F 		.ascii	"OTG_FS_IRQn\000"
 3925      46535F49 
 3925      52516E00 
 3926              	.LASF155:
 3927 0698 56656374 		.ascii	"Vector74\000"
 3927      6F723734 
 3927      00
ARM GAS  /tmp/ccIMeq3I.s 			page 76


 3928              	.LASF61:
 3929 06a1 55534152 		.ascii	"USART2_IRQn\000"
 3929      54325F49 
 3929      52516E00 
 3930              	.LASF18:
 3931 06ad 55736167 		.ascii	"UsageFault_IRQn\000"
 3931      65466175 
 3931      6C745F49 
 3931      52516E00 
 3932              	.LASF156:
 3933 06bd 56656374 		.ascii	"Vector78\000"
 3933      6F723738 
 3933      00
 3934              	.LASF127:
 3935 06c6 41504231 		.ascii	"APB1ENR\000"
 3935      454E5200 
 3936              	.LASF169:
 3937 06ce 646D6149 		.ascii	"dmaInit\000"
 3937      6E697400 
 3938              	.LASF70:
 3939 06d6 444D4131 		.ascii	"DMA1_Stream7_IRQn\000"
 3939      5F537472 
 3939      65616D37 
 3939      5F495251 
 3939      6E00
 3940              	.LASF14:
 3941 06e8 63686172 		.ascii	"char\000"
 3941      00
 3942              	.LASF174:
 3943 06ed 646D6153 		.ascii	"dmaStreamRelease\000"
 3943      74726561 
 3943      6D52656C 
 3943      65617365 
 3943      00
 3944              	.LASF157:
 3945 06fe 56656374 		.ascii	"Vector7C\000"
 3945      6F723743 
 3945      00
 3946              	.LASF17:
 3947 0707 42757346 		.ascii	"BusFault_IRQn\000"
 3947      61756C74 
 3947      5F495251 
 3947      6E00
 3948              	.LASF78:
 3949 0715 54494D37 		.ascii	"TIM7_IRQn\000"
 3949      5F495251 
 3949      6E00
 3950              	.LASF98:
 3951 071f 4F54475F 		.ascii	"OTG_HS_EP1_IN_IRQn\000"
 3951      48535F45 
 3951      50315F49 
 3951      4E5F4952 
 3951      516E00
 3952              	.LASF15:
 3953 0732 4E6F6E4D 		.ascii	"NonMaskableInt_IRQn\000"
 3953      61736B61 
 3953      626C6549 
ARM GAS  /tmp/ccIMeq3I.s 			page 77


 3953      6E745F49 
 3953      52516E00 
 3954              	.LASF105:
 3955 0746 4E445452 		.ascii	"NDTR\000"
 3955      00
 3956              	.LASF108:
 3957 074b 444D415F 		.ascii	"DMA_Stream_TypeDef\000"
 3957      53747265 
 3957      616D5F54 
 3957      79706544 
 3957      656600
 3958              	.LASF124:
 3959 075e 41484232 		.ascii	"AHB2ENR\000"
 3959      454E5200 
 3960              	.LASF25:
 3961 0766 54414D50 		.ascii	"TAMP_STAMP_IRQn\000"
 3961      5F535441 
 3961      4D505F49 
 3961      52516E00 
 3962              	.LASF177:
 3963 0776 646D615F 		.ascii	"dma_streams_mask\000"
 3963      73747265 
 3963      616D735F 
 3963      6D61736B 
 3963      00
 3964              	.LASF179:
 3965 0787 474E5520 		.ascii	"GNU C 4.6.2 20110908 (prerelease)\000"
 3965      4320342E 
 3965      362E3220 
 3965      32303131 
 3965      30393038 
 3966              	.LASF20:
 3967 07a9 44656275 		.ascii	"DebugMonitor_IRQn\000"
 3967      674D6F6E 
 3967      69746F72 
 3967      5F495251 
 3967      6E00
 3968              	.LASF79:
 3969 07bb 444D4132 		.ascii	"DMA2_Stream0_IRQn\000"
 3969      5F537472 
 3969      65616D30 
 3969      5F495251 
 3969      6E00
 3970              	.LASF107:
 3971 07cd 4D314152 		.ascii	"M1AR\000"
 3971      00
 3972              	.LASF158:
 3973 07d2 56656374 		.ascii	"Vector80\000"
 3973      6F723830 
 3973      00
 3974              	.LASF62:
 3975 07db 55534152 		.ascii	"USART3_IRQn\000"
 3975      54335F49 
 3975      52516E00 
 3976              	.LASF139:
 3977 07e7 53534347 		.ascii	"SSCGR\000"
 3977      5200
ARM GAS  /tmp/ccIMeq3I.s 			page 78


 3978              	.LASF159:
 3979 07ed 56656374 		.ascii	"Vector84\000"
 3979      6F723834 
 3979      00
 3980              	.LASF51:
 3981 07f6 54494D32 		.ascii	"TIM2_IRQn\000"
 3981      5F495251 
 3981      6E00
 3982              	.LASF29:
 3983 0800 45585449 		.ascii	"EXTI0_IRQn\000"
 3983      305F4952 
 3983      516E00
 3984              	.LASF60:
 3985 080b 55534152 		.ascii	"USART1_IRQn\000"
 3985      54315F49 
 3985      52516E00 
 3986              	.LASF137:
 3987 0817 42444352 		.ascii	"BDCR\000"
 3987      00
 3988              	.LASF5:
 3989 081c 75696E74 		.ascii	"uint8_t\000"
 3989      385F7400 
 3990              	.LASF154:
 3991 0824 666C6167 		.ascii	"flags\000"
 3991      7300
 3992              	.LASF101:
 3993 082a 44434D49 		.ascii	"DCMI_IRQn\000"
 3993      5F495251 
 3993      6E00
 3994              	.LASF178:
 3995 0834 646D615F 		.ascii	"dma_isr_redir\000"
 3995      6973725F 
 3995      72656469 
 3995      7200
 3996              	.LASF161:
 3997 0842 56656374 		.ascii	"Vector120\000"
 3997      6F723132 
 3997      3000
 3998              	.LASF104:
 3999 084c 4650555F 		.ascii	"FPU_IRQn\000"
 3999      4952516E 
 3999      00
 4000              	.LASF115:
 4001 0855 43464752 		.ascii	"CFGR\000"
 4001      00
 4002              	.LASF162:
 4003 085a 56656374 		.ascii	"Vector124\000"
 4003      6F723132 
 4003      3400
 4004              	.LASF163:
 4005 0864 56656374 		.ascii	"Vector128\000"
 4005      6F723132 
 4005      3800
 4006              	.LASF55:
 4007 086e 49324331 		.ascii	"I2C1_ER_IRQn\000"
 4007      5F45525F 
 4007      4952516E 
ARM GAS  /tmp/ccIMeq3I.s 			page 79


 4007      00
 4008              	.LASF41:
 4009 087b 4144435F 		.ascii	"ADC_IRQn\000"
 4009      4952516E 
 4009      00
 4010              	.LASF80:
 4011 0884 444D4132 		.ascii	"DMA2_Stream1_IRQn\000"
 4011      5F537472 
 4011      65616D31 
 4011      5F495251 
 4011      6E00
 4012              	.LASF164:
 4013 0896 56656374 		.ascii	"Vector12C\000"
 4013      6F723132 
 4013      4300
 4014              	.LASF112:
 4015 08a0 48494643 		.ascii	"HIFCR\000"
 4015      5200
 4016              	.LASF45:
 4017 08a6 43414E31 		.ascii	"CAN1_SCE_IRQn\000"
 4017      5F534345 
 4017      5F495251 
 4017      6E00
 4018              	.LASF183:
 4019 08b4 646D6153 		.ascii	"dmaStreamAllocate\000"
 4019      74726561 
 4019      6D416C6C 
 4019      6F636174 
 4019      6500
 4020              	.LASF89:
 4021 08c6 43414E32 		.ascii	"CAN2_SCE_IRQn\000"
 4021      5F534345 
 4021      5F495251 
 4021      6E00
 4022              	.LASF28:
 4023 08d4 5243435F 		.ascii	"RCC_IRQn\000"
 4023      4952516E 
 4023      00
 4024              	.LASF99:
 4025 08dd 4F54475F 		.ascii	"OTG_HS_WKUP_IRQn\000"
 4025      48535F57 
 4025      4B55505F 
 4025      4952516E 
 4025      00
 4026              	.LASF52:
 4027 08ee 54494D33 		.ascii	"TIM3_IRQn\000"
 4027      5F495251 
 4027      6E00
 4028              	.LASF30:
 4029 08f8 45585449 		.ascii	"EXTI1_IRQn\000"
 4029      315F4952 
 4029      516E00
 4030              	.LASF34:
 4031 0903 444D4131 		.ascii	"DMA1_Stream0_IRQn\000"
 4031      5F537472 
 4031      65616D30 
 4031      5F495251 
ARM GAS  /tmp/ccIMeq3I.s 			page 80


 4031      6E00
 4032              		.ident	"GCC: (Linaro GCC 4.6-2011.09-1) 4.6.2 20110908 (prerelease)"
ARM GAS  /tmp/ccIMeq3I.s 			page 81


DEFINED SYMBOLS
                            *ABS*:0000000000000000 stm32_dma.c
     /tmp/ccIMeq3I.s:18     .text.Vector6C:0000000000000000 $t
     /tmp/ccIMeq3I.s:24     .text.Vector6C:0000000000000000 Vector6C
     /tmp/ccIMeq3I.s:66     .text.Vector6C:0000000000000024 $d
     /tmp/ccIMeq3I.s:71     .text.Vector70:0000000000000000 $t
     /tmp/ccIMeq3I.s:77     .text.Vector70:0000000000000000 Vector70
     /tmp/ccIMeq3I.s:120    .text.Vector70:000000000000002c $d
     /tmp/ccIMeq3I.s:125    .text.Vector74:0000000000000000 $t
     /tmp/ccIMeq3I.s:131    .text.Vector74:0000000000000000 Vector74
     /tmp/ccIMeq3I.s:174    .text.Vector74:000000000000002c $d
     /tmp/ccIMeq3I.s:179    .text.Vector78:0000000000000000 $t
     /tmp/ccIMeq3I.s:185    .text.Vector78:0000000000000000 Vector78
     /tmp/ccIMeq3I.s:228    .text.Vector78:000000000000002c $d
     /tmp/ccIMeq3I.s:233    .text.Vector7C:0000000000000000 $t
     /tmp/ccIMeq3I.s:239    .text.Vector7C:0000000000000000 Vector7C
     /tmp/ccIMeq3I.s:280    .text.Vector7C:0000000000000024 $d
     /tmp/ccIMeq3I.s:285    .text.Vector80:0000000000000000 $t
     /tmp/ccIMeq3I.s:291    .text.Vector80:0000000000000000 Vector80
     /tmp/ccIMeq3I.s:334    .text.Vector80:000000000000002c $d
     /tmp/ccIMeq3I.s:339    .text.Vector84:0000000000000000 $t
     /tmp/ccIMeq3I.s:345    .text.Vector84:0000000000000000 Vector84
     /tmp/ccIMeq3I.s:388    .text.Vector84:000000000000002c $d
     /tmp/ccIMeq3I.s:393    .text.VectorFC:0000000000000000 $t
     /tmp/ccIMeq3I.s:399    .text.VectorFC:0000000000000000 VectorFC
     /tmp/ccIMeq3I.s:442    .text.VectorFC:000000000000002c $d
     /tmp/ccIMeq3I.s:447    .text.Vector120:0000000000000000 $t
     /tmp/ccIMeq3I.s:453    .text.Vector120:0000000000000000 Vector120
     /tmp/ccIMeq3I.s:494    .text.Vector120:0000000000000024 $d
     /tmp/ccIMeq3I.s:499    .text.Vector124:0000000000000000 $t
     /tmp/ccIMeq3I.s:505    .text.Vector124:0000000000000000 Vector124
     /tmp/ccIMeq3I.s:548    .text.Vector124:000000000000002c $d
     /tmp/ccIMeq3I.s:553    .text.Vector128:0000000000000000 $t
     /tmp/ccIMeq3I.s:559    .text.Vector128:0000000000000000 Vector128
     /tmp/ccIMeq3I.s:602    .text.Vector128:000000000000002c $d
     /tmp/ccIMeq3I.s:607    .text.Vector12C:0000000000000000 $t
     /tmp/ccIMeq3I.s:613    .text.Vector12C:0000000000000000 Vector12C
     /tmp/ccIMeq3I.s:656    .text.Vector12C:000000000000002c $d
     /tmp/ccIMeq3I.s:661    .text.Vector130:0000000000000000 $t
     /tmp/ccIMeq3I.s:667    .text.Vector130:0000000000000000 Vector130
     /tmp/ccIMeq3I.s:708    .text.Vector130:0000000000000024 $d
     /tmp/ccIMeq3I.s:713    .text.Vector150:0000000000000000 $t
     /tmp/ccIMeq3I.s:719    .text.Vector150:0000000000000000 Vector150
     /tmp/ccIMeq3I.s:762    .text.Vector150:000000000000002c $d
     /tmp/ccIMeq3I.s:767    .text.Vector154:0000000000000000 $t
     /tmp/ccIMeq3I.s:773    .text.Vector154:0000000000000000 Vector154
     /tmp/ccIMeq3I.s:816    .text.Vector154:000000000000002c $d
     /tmp/ccIMeq3I.s:821    .text.Vector158:0000000000000000 $t
     /tmp/ccIMeq3I.s:827    .text.Vector158:0000000000000000 Vector158
     /tmp/ccIMeq3I.s:870    .text.Vector158:000000000000002c $d
     /tmp/ccIMeq3I.s:875    .text.dmaInit:0000000000000000 $t
     /tmp/ccIMeq3I.s:881    .text.dmaInit:0000000000000000 dmaInit
     /tmp/ccIMeq3I.s:943    .text.dmaInit:0000000000000040 $d
     /tmp/ccIMeq3I.s:950    .text.dmaStreamAllocate:0000000000000000 $t
     /tmp/ccIMeq3I.s:956    .text.dmaStreamAllocate:0000000000000000 dmaStreamAllocate
     /tmp/ccIMeq3I.s:1064   .text.dmaStreamAllocate:000000000000009c $d
     /tmp/ccIMeq3I.s:1070   .text.dmaStreamRelease:0000000000000000 $t
ARM GAS  /tmp/ccIMeq3I.s 			page 82


     /tmp/ccIMeq3I.s:1076   .text.dmaStreamRelease:0000000000000000 dmaStreamRelease
     /tmp/ccIMeq3I.s:1127   .text.dmaStreamRelease:0000000000000050 $d
     /tmp/ccIMeq3I.s:1144   .rodata._stm32_dma_streams:0000000000000000 _stm32_dma_streams
     /tmp/ccIMeq3I.s:1133   .bss.dma_isr_redir:0000000000000000 $d
     /tmp/ccIMeq3I.s:1137   .bss.dma_isr_redir:0000000000000000 dma_isr_redir
     /tmp/ccIMeq3I.s:1140   .rodata._stm32_dma_streams:0000000000000000 $d
     /tmp/ccIMeq3I.s:1242   .bss.dma_streams_mask:0000000000000000 $d
     /tmp/ccIMeq3I.s:1246   .bss.dma_streams_mask:0000000000000000 dma_streams_mask
                     .debug_frame:0000000000000010 $d
     /tmp/ccIMeq3I.s:70     .text.Vector6C:0000000000000028 $t
     /tmp/ccIMeq3I.s:284    .text.Vector7C:0000000000000028 $t
     /tmp/ccIMeq3I.s:498    .text.Vector120:0000000000000028 $t
     /tmp/ccIMeq3I.s:712    .text.Vector130:0000000000000028 $t
     /tmp/ccIMeq3I.s:949    .text.dmaInit:000000000000004c $t
     /tmp/ccIMeq3I.s:1069   .text.dmaStreamAllocate:00000000000000a4 $t
     /tmp/ccIMeq3I.s:1132   .text.dmaStreamRelease:0000000000000054 $t

UNDEFINED SYMBOLS
_port_irq_epilogue
nvicEnableVector
nvicDisableVector
