ARM GAS  /tmp/ccaMc7pi.s 			page 1


   1              		.syntax unified
   2              		.cpu cortex-m4
   3              		.fpu softvfp
   4              		.eabi_attribute 20, 1
   5              		.eabi_attribute 21, 1
   6              		.eabi_attribute 23, 3
   7              		.eabi_attribute 24, 1
   8              		.eabi_attribute 25, 1
   9              		.eabi_attribute 26, 1
  10              		.eabi_attribute 30, 2
  11              		.eabi_attribute 18, 4
  12              		.thumb
  13              		.file	"testmtx.c"
  14              		.text
  15              	.Ltext0:
  16              		.cfi_sections	.debug_frame
  17              		.section	.text.mtx8_execute,"ax",%progbits
  18              		.align	2
  19              		.p2align 4,,15
  20              		.thumb
  21              		.thumb_func
  22              		.type	mtx8_execute, %function
  23              	mtx8_execute:
  24              	.LFB36:
  25              		.file 1 "../../test/testmtx.c"
  26              		.loc 1 595 0
  27              		.cfi_startproc
  28              		@ args = 0, pretend = 0, frame = 0
  29              		@ frame_needed = 0, uses_anonymous_args = 0
  30              		.loc 1 597 0
  31 0000 40F20003 		movw	r3, #:lower16:rlist
  32              		.loc 1 595 0
  33 0004 F0B5     		push	{r4, r5, r6, r7, lr}
  34              	.LCFI0:
  35              		.cfi_def_cfa_offset 20
  36              		.cfi_offset 14, -4
  37              		.cfi_offset 7, -8
  38              		.cfi_offset 6, -12
  39              		.cfi_offset 5, -16
  40              		.cfi_offset 4, -20
  41              		.loc 1 597 0
  42 0006 C0F20003 		movt	r3, #:upper16:rlist
  43              		.loc 1 598 0
  44 000a 40F20005 		movw	r5, #:lower16:wa
  45              		.loc 1 597 0
  46 000e 9B69     		ldr	r3, [r3, #24]
  47              		.loc 1 598 0
  48 0010 C0F20005 		movt	r5, #:upper16:wa
  49              		.loc 1 597 0
  50 0014 9E68     		ldr	r6, [r3, #8]
  51              	.LVL0:
  52              		.loc 1 598 0
  53 0016 2868     		ldr	r0, [r5, #0]
  54              		.loc 1 595 0
  55 0018 83B0     		sub	sp, sp, #12
  56              	.LCFI1:
  57              		.cfi_def_cfa_offset 32
ARM GAS  /tmp/ccaMc7pi.s 			page 2


  58              		.loc 1 598 0
  59 001a 40F20003 		movw	r3, #:lower16:thread11
  60 001e 40F20004 		movw	r4, #:lower16:.LC0
  61 0022 721C     		adds	r2, r6, #1
  62 0024 4FF49871 		mov	r1, #304
  63 0028 C0F20003 		movt	r3, #:upper16:thread11
  64 002c C0F20004 		movt	r4, #:upper16:.LC0
  65 0030 0094     		str	r4, [sp, #0]
  66 0032 FFF7FEFF 		bl	chThdCreateStatic
  67              	.LVL1:
  68 0036 40F20004 		movw	r4, #:lower16:threads
  69 003a C0F20004 		movt	r4, #:upper16:threads
  70              		.loc 1 599 0
  71 003e 6F68     		ldr	r7, [r5, #4]
  72              		.loc 1 598 0
  73 0040 2060     		str	r0, [r4, #0]
  74              		.loc 1 599 0
  75 0042 40F20003 		movw	r3, #:lower16:thread10
  76 0046 3846     		mov	r0, r7
  77 0048 40F20007 		movw	r7, #:lower16:.LC1
  78 004c B21C     		adds	r2, r6, #2
  79 004e 4FF49871 		mov	r1, #304
  80 0052 C0F20003 		movt	r3, #:upper16:thread10
  81 0056 C0F20007 		movt	r7, #:upper16:.LC1
  82 005a 0097     		str	r7, [sp, #0]
  83 005c FFF7FEFF 		bl	chThdCreateStatic
  84              		.loc 1 600 0
  85 0060 AD68     		ldr	r5, [r5, #8]
  86              		.loc 1 599 0
  87 0062 6060     		str	r0, [r4, #4]
  88              		.loc 1 600 0
  89 0064 40F20003 		movw	r3, #:lower16:thread12
  90 0068 2846     		mov	r0, r5
  91 006a 40F20005 		movw	r5, #:lower16:.LC2
  92 006e 4FF49871 		mov	r1, #304
  93 0072 F21C     		adds	r2, r6, #3
  94 0074 C0F20003 		movt	r3, #:upper16:thread12
  95 0078 C0F20005 		movt	r5, #:upper16:.LC2
  96 007c 0095     		str	r5, [sp, #0]
  97 007e FFF7FEFF 		bl	chThdCreateStatic
  98              		.loc 1 601 0
  99 0082 40F20005 		movw	r5, #:lower16:.LANCHOR0
 100 0086 C0F20005 		movt	r5, #:upper16:.LANCHOR0
 101              		.loc 1 600 0
 102 008a A060     		str	r0, [r4, #8]
 103              		.loc 1 601 0
 104 008c 2846     		mov	r0, r5
 105 008e FFF7FEFF 		bl	chCondSignal
 106              		.loc 1 602 0
 107 0092 2846     		mov	r0, r5
 108 0094 FFF7FEFF 		bl	chCondSignal
 109              		.loc 1 603 0
 110 0098 FFF7FEFF 		bl	test_wait_threads
 111              		.loc 1 604 0
 112 009c 40F20001 		movw	r1, #:lower16:.LC3
 113 00a0 0120     		movs	r0, #1
 114 00a2 C0F20001 		movt	r1, #:upper16:.LC3
ARM GAS  /tmp/ccaMc7pi.s 			page 3


 115              		.loc 1 605 0
 116 00a6 03B0     		add	sp, sp, #12
 117 00a8 BDE8F040 		pop	{r4, r5, r6, r7, lr}
 118              		.loc 1 604 0
 119 00ac FFF7FEBF 		b	_test_assert_sequence
 120              		.cfi_endproc
 121              	.LFE36:
 122              		.size	mtx8_execute, .-mtx8_execute
 123              		.section	.text.thread12,"ax",%progbits
 124              		.align	2
 125              		.p2align 4,,15
 126              		.thumb
 127              		.thumb_func
 128              		.type	thread12, %function
 129              	thread12:
 130              	.LFB35:
 131              		.loc 1 587 0
 132              		.cfi_startproc
 133              		@ args = 0, pretend = 0, frame = 0
 134              		@ frame_needed = 0, uses_anonymous_args = 0
 135              	.LVL2:
 136 0000 10B5     		push	{r4, lr}
 137              	.LCFI2:
 138              		.cfi_def_cfa_offset 8
 139              		.cfi_offset 14, -4
 140              		.cfi_offset 4, -8
 141              		.loc 1 587 0
 142 0002 0446     		mov	r4, r0
 143              		.loc 1 589 0
 144 0004 40F20000 		movw	r0, #:lower16:.LANCHOR1
 145              	.LVL3:
 146 0008 C0F20000 		movt	r0, #:upper16:.LANCHOR1
 147 000c FFF7FEFF 		bl	chMtxLock
 148              		.loc 1 590 0
 149 0010 2078     		ldrb	r0, [r4, #0]	@ zero_extendqisi2
 150 0012 FFF7FEFF 		bl	test_emit_token
 151              		.loc 1 591 0
 152 0016 FFF7FEFF 		bl	chMtxUnlock
 153              		.loc 1 593 0
 154 001a 0020     		movs	r0, #0
 155 001c 10BD     		pop	{r4, pc}
 156              		.cfi_endproc
 157              	.LFE35:
 158              		.size	thread12, .-thread12
 159 001e 00BF     		.section	.text.thread1,"ax",%progbits
 160              		.align	2
 161              		.p2align 4,,15
 162              		.thumb
 163              		.thumb_func
 164              		.type	thread1, %function
 165              	thread1:
 166              	.LFB8:
 167              		.loc 1 89 0
 168              		.cfi_startproc
 169              		@ args = 0, pretend = 0, frame = 0
 170              		@ frame_needed = 0, uses_anonymous_args = 0
 171              	.LVL4:
ARM GAS  /tmp/ccaMc7pi.s 			page 4


 172 0000 10B5     		push	{r4, lr}
 173              	.LCFI3:
 174              		.cfi_def_cfa_offset 8
 175              		.cfi_offset 14, -4
 176              		.cfi_offset 4, -8
 177              		.loc 1 89 0
 178 0002 0446     		mov	r4, r0
 179              		.loc 1 91 0
 180 0004 40F20000 		movw	r0, #:lower16:.LANCHOR2
 181              	.LVL5:
 182 0008 C0F20000 		movt	r0, #:upper16:.LANCHOR2
 183 000c FFF7FEFF 		bl	chMtxLock
 184              		.loc 1 92 0
 185 0010 2078     		ldrb	r0, [r4, #0]	@ zero_extendqisi2
 186 0012 FFF7FEFF 		bl	test_emit_token
 187              		.loc 1 93 0
 188 0016 FFF7FEFF 		bl	chMtxUnlock
 189              		.loc 1 95 0
 190 001a 0020     		movs	r0, #0
 191 001c 10BD     		pop	{r4, pc}
 192              		.cfi_endproc
 193              	.LFE8:
 194              		.size	thread1, .-thread1
 195 001e 00BF     		.section	.text.thread10,"ax",%progbits
 196              		.align	2
 197              		.p2align 4,,15
 198              		.thumb
 199              		.thumb_func
 200              		.type	thread10, %function
 201              	thread10:
 202              	.LFB29:
 203              		.loc 1 484 0
 204              		.cfi_startproc
 205              		@ args = 0, pretend = 0, frame = 0
 206              		@ frame_needed = 0, uses_anonymous_args = 0
 207              	.LVL6:
 208 0000 10B5     		push	{r4, lr}
 209              	.LCFI4:
 210              		.cfi_def_cfa_offset 8
 211              		.cfi_offset 14, -4
 212              		.cfi_offset 4, -8
 213              		.loc 1 484 0
 214 0002 0446     		mov	r4, r0
 215              		.loc 1 486 0
 216 0004 40F20000 		movw	r0, #:lower16:.LANCHOR2
 217              	.LVL7:
 218 0008 C0F20000 		movt	r0, #:upper16:.LANCHOR2
 219 000c FFF7FEFF 		bl	chMtxLock
 220              		.loc 1 487 0
 221 0010 40F20000 		movw	r0, #:lower16:.LANCHOR0
 222 0014 C0F20000 		movt	r0, #:upper16:.LANCHOR0
 223 0018 FFF7FEFF 		bl	chCondWait
 224              		.loc 1 488 0
 225 001c 2078     		ldrb	r0, [r4, #0]	@ zero_extendqisi2
 226 001e FFF7FEFF 		bl	test_emit_token
 227              		.loc 1 489 0
 228 0022 FFF7FEFF 		bl	chMtxUnlock
ARM GAS  /tmp/ccaMc7pi.s 			page 5


 229              		.loc 1 491 0
 230 0026 0020     		movs	r0, #0
 231 0028 10BD     		pop	{r4, pc}
 232              		.cfi_endproc
 233              	.LFE29:
 234              		.size	thread10, .-thread10
 235 002a 00BFAFF3 		.section	.text.thread11,"ax",%progbits
 235      0080
 236              		.align	2
 237              		.p2align 4,,15
 238              		.thumb
 239              		.thumb_func
 240              		.type	thread11, %function
 241              	thread11:
 242              	.LFB34:
 243              		.loc 1 572 0
 244              		.cfi_startproc
 245              		@ args = 0, pretend = 0, frame = 0
 246              		@ frame_needed = 0, uses_anonymous_args = 0
 247              	.LVL8:
 248 0000 10B5     		push	{r4, lr}
 249              	.LCFI5:
 250              		.cfi_def_cfa_offset 8
 251              		.cfi_offset 14, -4
 252              		.cfi_offset 4, -8
 253              		.loc 1 572 0
 254 0002 0446     		mov	r4, r0
 255              		.loc 1 574 0
 256 0004 40F20000 		movw	r0, #:lower16:.LANCHOR1
 257              	.LVL9:
 258 0008 C0F20000 		movt	r0, #:upper16:.LANCHOR1
 259 000c FFF7FEFF 		bl	chMtxLock
 260              		.loc 1 575 0
 261 0010 40F20000 		movw	r0, #:lower16:.LANCHOR2
 262 0014 C0F20000 		movt	r0, #:upper16:.LANCHOR2
 263 0018 FFF7FEFF 		bl	chMtxLock
 264              		.loc 1 577 0
 265 001c 40F20000 		movw	r0, #:lower16:.LANCHOR0
 266 0020 4FF0FF31 		mov	r1, #-1
 267 0024 C0F20000 		movt	r0, #:upper16:.LANCHOR0
 268 0028 FFF7FEFF 		bl	chCondWaitTimeout
 269              		.loc 1 581 0
 270 002c 2078     		ldrb	r0, [r4, #0]	@ zero_extendqisi2
 271 002e FFF7FEFF 		bl	test_emit_token
 272              		.loc 1 582 0
 273 0032 FFF7FEFF 		bl	chMtxUnlock
 274              		.loc 1 583 0
 275 0036 FFF7FEFF 		bl	chMtxUnlock
 276              		.loc 1 585 0
 277 003a 0020     		movs	r0, #0
 278 003c 10BD     		pop	{r4, pc}
 279              		.cfi_endproc
 280              	.LFE34:
 281              		.size	thread11, .-thread11
 282 003e 00BF     		.section	.text.mtx8_setup,"ax",%progbits
 283              		.align	2
 284              		.p2align 4,,15
ARM GAS  /tmp/ccaMc7pi.s 			page 6


 285              		.thumb
 286              		.thumb_func
 287              		.type	mtx8_setup, %function
 288              	mtx8_setup:
 289              	.LFB33:
 290              		.loc 1 565 0
 291              		.cfi_startproc
 292              		@ args = 0, pretend = 0, frame = 0
 293              		@ frame_needed = 0, uses_anonymous_args = 0
 294              		.loc 1 567 0
 295 0000 40F20000 		movw	r0, #:lower16:.LANCHOR0
 296              		.loc 1 565 0
 297 0004 08B5     		push	{r3, lr}
 298              	.LCFI6:
 299              		.cfi_def_cfa_offset 8
 300              		.cfi_offset 14, -4
 301              		.cfi_offset 3, -8
 302              		.loc 1 567 0
 303 0006 C0F20000 		movt	r0, #:upper16:.LANCHOR0
 304 000a FFF7FEFF 		bl	chCondInit
 305              		.loc 1 568 0
 306 000e 40F20000 		movw	r0, #:lower16:.LANCHOR2
 307 0012 C0F20000 		movt	r0, #:upper16:.LANCHOR2
 308 0016 FFF7FEFF 		bl	chMtxInit
 309              		.loc 1 569 0
 310 001a 40F20000 		movw	r0, #:lower16:.LANCHOR1
 311 001e C0F20000 		movt	r0, #:upper16:.LANCHOR1
 312              		.loc 1 570 0
 313 0022 BDE80840 		pop	{r3, lr}
 314              		.loc 1 569 0
 315 0026 FFF7FEBF 		b	chMtxInit
 316              		.cfi_endproc
 317              	.LFE33:
 318              		.size	mtx8_setup, .-mtx8_setup
 319 002a 00BFAFF3 		.section	.text.mtx7_setup,"ax",%progbits
 319      0080
 320              		.align	2
 321              		.p2align 4,,15
 322              		.thumb
 323              		.thumb_func
 324              		.type	mtx7_setup, %function
 325              	mtx7_setup:
 326              	.LFB31:
 327              		.loc 1 530 0
 328              		.cfi_startproc
 329              		@ args = 0, pretend = 0, frame = 0
 330              		@ frame_needed = 0, uses_anonymous_args = 0
 331 0000 08B5     		push	{r3, lr}
 332              	.LCFI7:
 333              		.cfi_def_cfa_offset 8
 334              		.cfi_offset 14, -4
 335              		.cfi_offset 3, -8
 336              		.loc 1 532 0
 337 0002 40F20000 		movw	r0, #:lower16:.LANCHOR0
 338 0006 C0F20000 		movt	r0, #:upper16:.LANCHOR0
 339 000a FFF7FEFF 		bl	chCondInit
 340              		.loc 1 533 0
ARM GAS  /tmp/ccaMc7pi.s 			page 7


 341 000e 40F20000 		movw	r0, #:lower16:.LANCHOR2
 342 0012 C0F20000 		movt	r0, #:upper16:.LANCHOR2
 343              		.loc 1 534 0
 344 0016 BDE80840 		pop	{r3, lr}
 345              		.loc 1 533 0
 346 001a FFF7FEBF 		b	chMtxInit
 347              		.cfi_endproc
 348              	.LFE31:
 349              		.size	mtx7_setup, .-mtx7_setup
 350 001e 00BF     		.section	.text.mtx6_setup,"ax",%progbits
 351              		.align	2
 352              		.p2align 4,,15
 353              		.thumb
 354              		.thumb_func
 355              		.type	mtx6_setup, %function
 356              	mtx6_setup:
 357              	.LFB28:
 358              		.loc 1 478 0
 359              		.cfi_startproc
 360              		@ args = 0, pretend = 0, frame = 0
 361              		@ frame_needed = 0, uses_anonymous_args = 0
 362 0000 08B5     		push	{r3, lr}
 363              	.LCFI8:
 364              		.cfi_def_cfa_offset 8
 365              		.cfi_offset 14, -4
 366              		.cfi_offset 3, -8
 367              		.loc 1 480 0
 368 0002 40F20000 		movw	r0, #:lower16:.LANCHOR0
 369 0006 C0F20000 		movt	r0, #:upper16:.LANCHOR0
 370 000a FFF7FEFF 		bl	chCondInit
 371              		.loc 1 481 0
 372 000e 40F20000 		movw	r0, #:lower16:.LANCHOR2
 373 0012 C0F20000 		movt	r0, #:upper16:.LANCHOR2
 374              		.loc 1 482 0
 375 0016 BDE80840 		pop	{r3, lr}
 376              		.loc 1 481 0
 377 001a FFF7FEBF 		b	chMtxInit
 378              		.cfi_endproc
 379              	.LFE28:
 380              		.size	mtx6_setup, .-mtx6_setup
 381 001e 00BF     		.section	.text.mtx5_setup,"ax",%progbits
 382              		.align	2
 383              		.p2align 4,,15
 384              		.thumb
 385              		.thumb_func
 386              		.type	mtx5_setup, %function
 387              	mtx5_setup:
 388              	.LFB26:
 389              		.loc 1 428 0
 390              		.cfi_startproc
 391              		@ args = 0, pretend = 0, frame = 0
 392              		@ frame_needed = 0, uses_anonymous_args = 0
 393              		@ link register save eliminated.
 394              		.loc 1 430 0
 395 0000 40F20000 		movw	r0, #:lower16:.LANCHOR2
 396 0004 C0F20000 		movt	r0, #:upper16:.LANCHOR2
 397              		.loc 1 431 0
ARM GAS  /tmp/ccaMc7pi.s 			page 8


 398              		.loc 1 430 0
 399 0008 FFF7FEBF 		b	chMtxInit
 400              		.cfi_endproc
 401              	.LFE26:
 402              		.size	mtx5_setup, .-mtx5_setup
 403 000c AFF30080 		.section	.text.mtx4_setup,"ax",%progbits
 404              		.align	2
 405              		.p2align 4,,15
 406              		.thumb
 407              		.thumb_func
 408              		.type	mtx4_setup, %function
 409              	mtx4_setup:
 410              	.LFB22:
 411              		.loc 1 341 0
 412              		.cfi_startproc
 413              		@ args = 0, pretend = 0, frame = 0
 414              		@ frame_needed = 0, uses_anonymous_args = 0
 415 0000 08B5     		push	{r3, lr}
 416              	.LCFI9:
 417              		.cfi_def_cfa_offset 8
 418              		.cfi_offset 14, -4
 419              		.cfi_offset 3, -8
 420              		.loc 1 343 0
 421 0002 40F20000 		movw	r0, #:lower16:.LANCHOR2
 422 0006 C0F20000 		movt	r0, #:upper16:.LANCHOR2
 423 000a FFF7FEFF 		bl	chMtxInit
 424              		.loc 1 344 0
 425 000e 40F20000 		movw	r0, #:lower16:.LANCHOR1
 426 0012 C0F20000 		movt	r0, #:upper16:.LANCHOR1
 427              		.loc 1 345 0
 428 0016 BDE80840 		pop	{r3, lr}
 429              		.loc 1 344 0
 430 001a FFF7FEBF 		b	chMtxInit
 431              		.cfi_endproc
 432              	.LFE22:
 433              		.size	mtx4_setup, .-mtx4_setup
 434 001e 00BF     		.section	.text.mtx3_setup,"ax",%progbits
 435              		.align	2
 436              		.p2align 4,,15
 437              		.thumb
 438              		.thumb_func
 439              		.type	mtx3_setup, %function
 440              	mtx3_setup:
 441              	.LFB15:
 442              		.loc 1 241 0
 443              		.cfi_startproc
 444              		@ args = 0, pretend = 0, frame = 0
 445              		@ frame_needed = 0, uses_anonymous_args = 0
 446 0000 08B5     		push	{r3, lr}
 447              	.LCFI10:
 448              		.cfi_def_cfa_offset 8
 449              		.cfi_offset 14, -4
 450              		.cfi_offset 3, -8
 451              		.loc 1 243 0
 452 0002 40F20000 		movw	r0, #:lower16:.LANCHOR2
 453 0006 C0F20000 		movt	r0, #:upper16:.LANCHOR2
 454 000a FFF7FEFF 		bl	chMtxInit
ARM GAS  /tmp/ccaMc7pi.s 			page 9


 455              		.loc 1 244 0
 456 000e 40F20000 		movw	r0, #:lower16:.LANCHOR1
 457 0012 C0F20000 		movt	r0, #:upper16:.LANCHOR1
 458              		.loc 1 245 0
 459 0016 BDE80840 		pop	{r3, lr}
 460              		.loc 1 244 0
 461 001a FFF7FEBF 		b	chMtxInit
 462              		.cfi_endproc
 463              	.LFE15:
 464              		.size	mtx3_setup, .-mtx3_setup
 465 001e 00BF     		.section	.text.mtx2_setup,"ax",%progbits
 466              		.align	2
 467              		.p2align 4,,15
 468              		.thumb
 469              		.thumb_func
 470              		.type	mtx2_setup, %function
 471              	mtx2_setup:
 472              	.LFB10:
 473              		.loc 1 151 0
 474              		.cfi_startproc
 475              		@ args = 0, pretend = 0, frame = 0
 476              		@ frame_needed = 0, uses_anonymous_args = 0
 477              		@ link register save eliminated.
 478              		.loc 1 153 0
 479 0000 40F20000 		movw	r0, #:lower16:.LANCHOR2
 480 0004 C0F20000 		movt	r0, #:upper16:.LANCHOR2
 481              		.loc 1 154 0
 482              		.loc 1 153 0
 483 0008 FFF7FEBF 		b	chMtxInit
 484              		.cfi_endproc
 485              	.LFE10:
 486              		.size	mtx2_setup, .-mtx2_setup
 487 000c AFF30080 		.section	.text.mtx1_setup,"ax",%progbits
 488              		.align	2
 489              		.p2align 4,,15
 490              		.thumb
 491              		.thumb_func
 492              		.type	mtx1_setup, %function
 493              	mtx1_setup:
 494              	.LFB7:
 495              		.loc 1 84 0
 496              		.cfi_startproc
 497              		@ args = 0, pretend = 0, frame = 0
 498              		@ frame_needed = 0, uses_anonymous_args = 0
 499              		@ link register save eliminated.
 500              		.loc 1 86 0
 501 0000 40F20000 		movw	r0, #:lower16:.LANCHOR2
 502 0004 C0F20000 		movt	r0, #:upper16:.LANCHOR2
 503              		.loc 1 87 0
 504              		.loc 1 86 0
 505 0008 FFF7FEBF 		b	chMtxInit
 506              		.cfi_endproc
 507              	.LFE7:
 508              		.size	mtx1_setup, .-mtx1_setup
 509 000c AFF30080 		.section	.text.mtx7_execute,"ax",%progbits
 510              		.align	2
 511              		.p2align 4,,15
ARM GAS  /tmp/ccaMc7pi.s 			page 10


 512              		.thumb
 513              		.thumb_func
 514              		.type	mtx7_execute, %function
 515              	mtx7_execute:
 516              	.LFB32:
 517              		.loc 1 536 0
 518              		.cfi_startproc
 519              		@ args = 0, pretend = 0, frame = 0
 520              		@ frame_needed = 0, uses_anonymous_args = 0
 521              		.loc 1 538 0
 522 0000 40F20003 		movw	r3, #:lower16:rlist
 523              		.loc 1 536 0
 524 0004 F0B5     		push	{r4, r5, r6, r7, lr}
 525              	.LCFI11:
 526              		.cfi_def_cfa_offset 20
 527              		.cfi_offset 14, -4
 528              		.cfi_offset 7, -8
 529              		.cfi_offset 6, -12
 530              		.cfi_offset 5, -16
 531              		.cfi_offset 4, -20
 532              		.loc 1 538 0
 533 0006 C0F20003 		movt	r3, #:upper16:rlist
 534              		.loc 1 539 0
 535 000a 40F20006 		movw	r6, #:lower16:wa
 536              		.loc 1 538 0
 537 000e 9B69     		ldr	r3, [r3, #24]
 538              		.loc 1 539 0
 539 0010 C0F20006 		movt	r6, #:upper16:wa
 540              		.loc 1 538 0
 541 0014 9F68     		ldr	r7, [r3, #8]
 542              	.LVL10:
 543              		.loc 1 539 0
 544 0016 3068     		ldr	r0, [r6, #0]
 545 0018 40F20005 		movw	r5, #:lower16:thread10
 546              		.loc 1 536 0
 547 001c 83B0     		sub	sp, sp, #12
 548              	.LCFI12:
 549              		.cfi_def_cfa_offset 32
 550              		.loc 1 539 0
 551 001e C0F20005 		movt	r5, #:upper16:thread10
 552 0022 40F20004 		movw	r4, #:lower16:.LC4
 553 0026 7A1C     		adds	r2, r7, #1
 554 0028 2B46     		mov	r3, r5
 555 002a 4FF49871 		mov	r1, #304
 556 002e C0F20004 		movt	r4, #:upper16:.LC4
 557 0032 0094     		str	r4, [sp, #0]
 558 0034 FFF7FEFF 		bl	chThdCreateStatic
 559              	.LVL11:
 560 0038 40F20004 		movw	r4, #:lower16:threads
 561 003c C0F20004 		movt	r4, #:upper16:threads
 562              		.loc 1 540 0
 563 0040 D6F804E0 		ldr	lr, [r6, #4]
 564              		.loc 1 539 0
 565 0044 2060     		str	r0, [r4, #0]
 566              		.loc 1 540 0
 567 0046 7046     		mov	r0, lr
 568 0048 40F2000E 		movw	lr, #:lower16:.LC5
ARM GAS  /tmp/ccaMc7pi.s 			page 11


 569 004c BA1C     		adds	r2, r7, #2
 570 004e 2B46     		mov	r3, r5
 571 0050 C0F2000E 		movt	lr, #:upper16:.LC5
 572 0054 4FF49871 		mov	r1, #304
 573 0058 CDF800E0 		str	lr, [sp, #0]
 574 005c FFF7FEFF 		bl	chThdCreateStatic
 575              		.loc 1 541 0
 576 0060 D6F808E0 		ldr	lr, [r6, #8]
 577              		.loc 1 540 0
 578 0064 6060     		str	r0, [r4, #4]
 579              		.loc 1 541 0
 580 0066 7046     		mov	r0, lr
 581 0068 40F2000E 		movw	lr, #:lower16:.LC1
 582 006c FA1C     		adds	r2, r7, #3
 583 006e 2B46     		mov	r3, r5
 584 0070 C0F2000E 		movt	lr, #:upper16:.LC1
 585 0074 4FF49871 		mov	r1, #304
 586 0078 CDF800E0 		str	lr, [sp, #0]
 587 007c FFF7FEFF 		bl	chThdCreateStatic
 588              		.loc 1 542 0
 589 0080 D6F80CE0 		ldr	lr, [r6, #12]
 590              		.loc 1 541 0
 591 0084 A060     		str	r0, [r4, #8]
 592              		.loc 1 542 0
 593 0086 7046     		mov	r0, lr
 594 0088 40F2000E 		movw	lr, #:lower16:.LC2
 595 008c C0F2000E 		movt	lr, #:upper16:.LC2
 596 0090 3A1D     		adds	r2, r7, #4
 597 0092 2B46     		mov	r3, r5
 598 0094 4FF49871 		mov	r1, #304
 599 0098 CDF800E0 		str	lr, [sp, #0]
 600 009c FFF7FEFF 		bl	chThdCreateStatic
 601              		.loc 1 543 0
 602 00a0 3669     		ldr	r6, [r6, #16]
 603              		.loc 1 542 0
 604 00a2 E060     		str	r0, [r4, #12]
 605              		.loc 1 543 0
 606 00a4 2B46     		mov	r3, r5
 607 00a6 40F20005 		movw	r5, #:lower16:.LC0
 608 00aa 4FF49871 		mov	r1, #304
 609 00ae 7A1D     		adds	r2, r7, #5
 610 00b0 3046     		mov	r0, r6
 611 00b2 C0F20005 		movt	r5, #:upper16:.LC0
 612 00b6 0095     		str	r5, [sp, #0]
 613 00b8 FFF7FEFF 		bl	chThdCreateStatic
 614 00bc 2061     		str	r0, [r4, #16]
 615              		.loc 1 544 0
 616 00be 40F20000 		movw	r0, #:lower16:.LANCHOR0
 617 00c2 C0F20000 		movt	r0, #:upper16:.LANCHOR0
 618 00c6 FFF7FEFF 		bl	chCondBroadcast
 619              		.loc 1 545 0
 620 00ca FFF7FEFF 		bl	test_wait_threads
 621              		.loc 1 546 0
 622 00ce 40F20001 		movw	r1, #:lower16:.LC6
 623 00d2 0120     		movs	r0, #1
 624 00d4 C0F20001 		movt	r1, #:upper16:.LC6
 625              		.loc 1 547 0
ARM GAS  /tmp/ccaMc7pi.s 			page 12


 626 00d8 03B0     		add	sp, sp, #12
 627 00da BDE8F040 		pop	{r4, r5, r6, r7, lr}
 628              		.loc 1 546 0
 629 00de FFF7FEBF 		b	_test_assert_sequence
 630              		.cfi_endproc
 631              	.LFE32:
 632              		.size	mtx7_execute, .-mtx7_execute
 633 00e2 00BFAFF3 		.section	.text.mtx6_execute,"ax",%progbits
 633      0080AFF3 
 633      0080AFF3 
 633      0080
 634              		.align	2
 635              		.p2align 4,,15
 636              		.thumb
 637              		.thumb_func
 638              		.type	mtx6_execute, %function
 639              	mtx6_execute:
 640              	.LFB30:
 641              		.loc 1 493 0
 642              		.cfi_startproc
 643              		@ args = 0, pretend = 0, frame = 0
 644              		@ frame_needed = 0, uses_anonymous_args = 0
 645              		.loc 1 495 0
 646 0000 40F20003 		movw	r3, #:lower16:rlist
 647              		.loc 1 493 0
 648 0004 F0B5     		push	{r4, r5, r6, r7, lr}
 649              	.LCFI13:
 650              		.cfi_def_cfa_offset 20
 651              		.cfi_offset 14, -4
 652              		.cfi_offset 7, -8
 653              		.cfi_offset 6, -12
 654              		.cfi_offset 5, -16
 655              		.cfi_offset 4, -20
 656              		.loc 1 495 0
 657 0006 C0F20003 		movt	r3, #:upper16:rlist
 658              		.loc 1 496 0
 659 000a 40F20006 		movw	r6, #:lower16:wa
 660              		.loc 1 495 0
 661 000e 9B69     		ldr	r3, [r3, #24]
 662              		.loc 1 496 0
 663 0010 C0F20006 		movt	r6, #:upper16:wa
 664              		.loc 1 495 0
 665 0014 9F68     		ldr	r7, [r3, #8]
 666              	.LVL12:
 667              		.loc 1 496 0
 668 0016 3068     		ldr	r0, [r6, #0]
 669 0018 40F20005 		movw	r5, #:lower16:thread10
 670              		.loc 1 493 0
 671 001c 83B0     		sub	sp, sp, #12
 672              	.LCFI14:
 673              		.cfi_def_cfa_offset 32
 674              		.loc 1 496 0
 675 001e C0F20005 		movt	r5, #:upper16:thread10
 676 0022 40F20004 		movw	r4, #:lower16:.LC4
 677 0026 7A1C     		adds	r2, r7, #1
 678 0028 2B46     		mov	r3, r5
 679 002a 4FF49871 		mov	r1, #304
ARM GAS  /tmp/ccaMc7pi.s 			page 13


 680 002e C0F20004 		movt	r4, #:upper16:.LC4
 681 0032 0094     		str	r4, [sp, #0]
 682 0034 FFF7FEFF 		bl	chThdCreateStatic
 683              	.LVL13:
 684 0038 40F20004 		movw	r4, #:lower16:threads
 685 003c C0F20004 		movt	r4, #:upper16:threads
 686              		.loc 1 497 0
 687 0040 7168     		ldr	r1, [r6, #4]
 688              		.loc 1 496 0
 689 0042 2060     		str	r0, [r4, #0]
 690              		.loc 1 497 0
 691 0044 40F2000E 		movw	lr, #:lower16:.LC5
 692 0048 BA1C     		adds	r2, r7, #2
 693 004a 2B46     		mov	r3, r5
 694 004c C0F2000E 		movt	lr, #:upper16:.LC5
 695 0050 0846     		mov	r0, r1
 696 0052 4FF49871 		mov	r1, #304
 697 0056 CDF800E0 		str	lr, [sp, #0]
 698 005a FFF7FEFF 		bl	chThdCreateStatic
 699              		.loc 1 498 0
 700 005e B168     		ldr	r1, [r6, #8]
 701              		.loc 1 497 0
 702 0060 6060     		str	r0, [r4, #4]
 703              		.loc 1 498 0
 704 0062 40F2000E 		movw	lr, #:lower16:.LC1
 705 0066 FA1C     		adds	r2, r7, #3
 706 0068 2B46     		mov	r3, r5
 707 006a C0F2000E 		movt	lr, #:upper16:.LC1
 708 006e 0846     		mov	r0, r1
 709 0070 4FF49871 		mov	r1, #304
 710 0074 CDF800E0 		str	lr, [sp, #0]
 711 0078 FFF7FEFF 		bl	chThdCreateStatic
 712              		.loc 1 499 0
 713 007c F168     		ldr	r1, [r6, #12]
 714              		.loc 1 498 0
 715 007e A060     		str	r0, [r4, #8]
 716              		.loc 1 499 0
 717 0080 40F2000E 		movw	lr, #:lower16:.LC2
 718 0084 C0F2000E 		movt	lr, #:upper16:.LC2
 719 0088 3A1D     		adds	r2, r7, #4
 720 008a 2B46     		mov	r3, r5
 721 008c 0846     		mov	r0, r1
 722 008e 4FF49871 		mov	r1, #304
 723 0092 CDF800E0 		str	lr, [sp, #0]
 724 0096 FFF7FEFF 		bl	chThdCreateStatic
 725              		.loc 1 500 0
 726 009a 3269     		ldr	r2, [r6, #16]
 727              		.loc 1 499 0
 728 009c E060     		str	r0, [r4, #12]
 729              		.loc 1 500 0
 730 009e 2B46     		mov	r3, r5
 731 00a0 40F20005 		movw	r5, #:lower16:.LC0
 732 00a4 1046     		mov	r0, r2
 733 00a6 4FF49871 		mov	r1, #304
 734 00aa 7A1D     		adds	r2, r7, #5
 735 00ac C0F20005 		movt	r5, #:upper16:.LC0
 736 00b0 0095     		str	r5, [sp, #0]
ARM GAS  /tmp/ccaMc7pi.s 			page 14


 737 00b2 FFF7FEFF 		bl	chThdCreateStatic
 738              	.LBB2:
 739              		.loc 1 501 0
 740 00b6 2023     		movs	r3, #32
 741              	.LVL14:
 742              	.LBE2:
 743              		.loc 1 500 0
 744 00b8 2061     		str	r0, [r4, #16]
 745              	.LBB3:
 746              		.loc 1 501 0
 747              	@ 501 "../../test/testmtx.c" 1
 748 00ba 83F31188 		msr     BASEPRI, r3
 749              	@ 0 "" 2
 750              	.LVL15:
 751              		.thumb
 752              	.LBE3:
 753              		.loc 1 502 0
 754 00be 40F20004 		movw	r4, #:lower16:.LANCHOR0
 755 00c2 C0F20004 		movt	r4, #:upper16:.LANCHOR0
 756 00c6 2046     		mov	r0, r4
 757 00c8 FFF7FEFF 		bl	chCondSignalI
 758              	.LVL16:
 759              		.loc 1 503 0
 760 00cc 2046     		mov	r0, r4
 761 00ce FFF7FEFF 		bl	chCondSignalI
 762              		.loc 1 504 0
 763 00d2 2046     		mov	r0, r4
 764 00d4 FFF7FEFF 		bl	chCondSignalI
 765              		.loc 1 505 0
 766 00d8 2046     		mov	r0, r4
 767 00da FFF7FEFF 		bl	chCondSignalI
 768              		.loc 1 506 0
 769 00de 2046     		mov	r0, r4
 770 00e0 FFF7FEFF 		bl	chCondSignalI
 771              		.loc 1 507 0
 772 00e4 FFF7FEFF 		bl	chSchRescheduleS
 773              	.LBB4:
 774              		.loc 1 508 0
 775 00e8 0023     		movs	r3, #0
 776              	.LVL17:
 777              	@ 508 "../../test/testmtx.c" 1
 778 00ea 83F31188 		msr     BASEPRI, r3
 779              	@ 0 "" 2
 780              	.LVL18:
 781              		.thumb
 782              	.LBE4:
 783              		.loc 1 509 0
 784 00ee FFF7FEFF 		bl	test_wait_threads
 785              	.LVL19:
 786              		.loc 1 510 0
 787 00f2 40F20001 		movw	r1, #:lower16:.LC6
 788 00f6 0120     		movs	r0, #1
 789 00f8 C0F20001 		movt	r1, #:upper16:.LC6
 790              		.loc 1 511 0
 791 00fc 03B0     		add	sp, sp, #12
 792 00fe BDE8F040 		pop	{r4, r5, r6, r7, lr}
 793              		.loc 1 510 0
ARM GAS  /tmp/ccaMc7pi.s 			page 15


 794 0102 FFF7FEBF 		b	_test_assert_sequence
 795              		.cfi_endproc
 796              	.LFE30:
 797              		.size	mtx6_execute, .-mtx6_execute
 798 0106 00BFAFF3 		.section	.text.mtx1_execute,"ax",%progbits
 798      0080AFF3 
 798      0080
 799              		.align	2
 800              		.p2align 4,,15
 801              		.thumb
 802              		.thumb_func
 803              		.type	mtx1_execute, %function
 804              	mtx1_execute:
 805              	.LFB9:
 806              		.loc 1 97 0
 807              		.cfi_startproc
 808              		@ args = 0, pretend = 0, frame = 0
 809              		@ frame_needed = 0, uses_anonymous_args = 0
 810 0000 F0B5     		push	{r4, r5, r6, r7, lr}
 811              	.LCFI15:
 812              		.cfi_def_cfa_offset 20
 813              		.cfi_offset 14, -4
 814              		.cfi_offset 7, -8
 815              		.cfi_offset 6, -12
 816              		.cfi_offset 5, -16
 817              		.cfi_offset 4, -20
 818              		.loc 1 99 0
 819 0002 2C4F     		ldr	r7, .L20
 820              		.loc 1 100 0
 821 0004 2C48     		ldr	r0, .L20+4
 822              		.loc 1 99 0
 823 0006 BB69     		ldr	r3, [r7, #24]
 824              		.loc 1 101 0
 825 0008 2C4E     		ldr	r6, .L20+8
 826              		.loc 1 99 0
 827 000a 9C68     		ldr	r4, [r3, #8]
 828              	.LVL20:
 829              		.loc 1 101 0
 830 000c 2C4D     		ldr	r5, .L20+12
 831              		.loc 1 97 0
 832 000e 83B0     		sub	sp, sp, #12
 833              	.LCFI16:
 834              		.cfi_def_cfa_offset 32
 835              		.loc 1 100 0
 836 0010 FFF7FEFF 		bl	chMtxLock
 837              	.LVL21:
 838              		.loc 1 101 0
 839 0014 2B4A     		ldr	r2, .L20+16
 840 0016 3068     		ldr	r0, [r6, #0]
 841 0018 2B4B     		ldr	r3, .L20+20
 842 001a 0092     		str	r2, [sp, #0]
 843 001c 4FF49871 		mov	r1, #304
 844 0020 621C     		adds	r2, r4, #1
 845 0022 FFF7FEFF 		bl	chThdCreateStatic
 846              		.loc 1 102 0
 847 0026 D6F804E0 		ldr	lr, [r6, #4]
 848              		.loc 1 101 0
ARM GAS  /tmp/ccaMc7pi.s 			page 16


 849 002a 2860     		str	r0, [r5, #0]
 850              		.loc 1 102 0
 851 002c 2748     		ldr	r0, .L20+24
 852 002e 264B     		ldr	r3, .L20+20
 853 0030 0090     		str	r0, [sp, #0]
 854 0032 A21C     		adds	r2, r4, #2
 855 0034 4FF49871 		mov	r1, #304
 856 0038 7046     		mov	r0, lr
 857 003a FFF7FEFF 		bl	chThdCreateStatic
 858              		.loc 1 103 0
 859 003e D6F808E0 		ldr	lr, [r6, #8]
 860              		.loc 1 102 0
 861 0042 6860     		str	r0, [r5, #4]
 862              		.loc 1 103 0
 863 0044 2248     		ldr	r0, .L20+28
 864 0046 204B     		ldr	r3, .L20+20
 865 0048 0090     		str	r0, [sp, #0]
 866 004a E21C     		adds	r2, r4, #3
 867 004c 4FF49871 		mov	r1, #304
 868 0050 7046     		mov	r0, lr
 869 0052 FFF7FEFF 		bl	chThdCreateStatic
 870              		.loc 1 104 0
 871 0056 D6F80CE0 		ldr	lr, [r6, #12]
 872              		.loc 1 103 0
 873 005a A860     		str	r0, [r5, #8]
 874              		.loc 1 104 0
 875 005c 1D48     		ldr	r0, .L20+32
 876 005e 1A4B     		ldr	r3, .L20+20
 877 0060 0090     		str	r0, [sp, #0]
 878 0062 221D     		adds	r2, r4, #4
 879 0064 7046     		mov	r0, lr
 880 0066 4FF49871 		mov	r1, #304
 881 006a FFF7FEFF 		bl	chThdCreateStatic
 882              		.loc 1 105 0
 883 006e 3669     		ldr	r6, [r6, #16]
 884              		.loc 1 104 0
 885 0070 E860     		str	r0, [r5, #12]
 886              		.loc 1 105 0
 887 0072 3046     		mov	r0, r6
 888 0074 184E     		ldr	r6, .L20+36
 889 0076 144B     		ldr	r3, .L20+20
 890 0078 0096     		str	r6, [sp, #0]
 891 007a 4FF49871 		mov	r1, #304
 892 007e 621D     		adds	r2, r4, #5
 893 0080 FFF7FEFF 		bl	chThdCreateStatic
 894 0084 2861     		str	r0, [r5, #16]
 895              		.loc 1 106 0
 896 0086 FFF7FEFF 		bl	chMtxUnlock
 897              		.loc 1 107 0
 898 008a FFF7FEFF 		bl	test_wait_threads
 899              		.loc 1 108 0
 900 008e BB69     		ldr	r3, [r7, #24]
 901 0090 9968     		ldr	r1, [r3, #8]
 902 0092 0B1B     		subs	r3, r1, r4
 903 0094 0120     		movs	r0, #1
 904 0096 5942     		rsbs	r1, r3, #0
 905 0098 41EB0301 		adc	r1, r1, r3
ARM GAS  /tmp/ccaMc7pi.s 			page 17


 906 009c FFF7FEFF 		bl	_test_assert
 907 00a0 08B1     		cbz	r0, .L19
 908              		.loc 1 110 0
 909 00a2 03B0     		add	sp, sp, #12
 910 00a4 F0BD     		pop	{r4, r5, r6, r7, pc}
 911              	.L19:
 912              		.loc 1 109 0
 913 00a6 0D49     		ldr	r1, .L20+40
 914 00a8 0220     		movs	r0, #2
 915              		.loc 1 110 0
 916 00aa 03B0     		add	sp, sp, #12
 917 00ac BDE8F040 		pop	{r4, r5, r6, r7, lr}
 918              		.loc 1 109 0
 919 00b0 FFF7FEBF 		b	_test_assert_sequence
 920              	.L21:
 921              		.align	2
 922              	.L20:
 923 00b4 00000000 		.word	rlist
 924 00b8 00000000 		.word	.LANCHOR2
 925 00bc 00000000 		.word	wa
 926 00c0 00000000 		.word	threads
 927 00c4 10000000 		.word	.LC4
 928 00c8 00000000 		.word	thread1
 929 00cc 14000000 		.word	.LC5
 930 00d0 04000000 		.word	.LC1
 931 00d4 08000000 		.word	.LC2
 932 00d8 00000000 		.word	.LC0
 933 00dc 18000000 		.word	.LC6
 934              		.cfi_endproc
 935              	.LFE9:
 936              		.size	mtx1_execute, .-mtx1_execute
 937              		.section	.text.mtx5_execute,"ax",%progbits
 938              		.align	2
 939              		.p2align 4,,15
 940              		.thumb
 941              		.thumb_func
 942              		.type	mtx5_execute, %function
 943              	mtx5_execute:
 944              	.LFB27:
 945              		.loc 1 433 0
 946              		.cfi_startproc
 947              		@ args = 0, pretend = 0, frame = 0
 948              		@ frame_needed = 0, uses_anonymous_args = 0
 949 0000 F8B5     		push	{r3, r4, r5, r6, r7, lr}
 950              	.LCFI17:
 951              		.cfi_def_cfa_offset 24
 952              		.cfi_offset 14, -4
 953              		.cfi_offset 7, -8
 954              		.cfi_offset 6, -12
 955              		.cfi_offset 5, -16
 956              		.cfi_offset 4, -20
 957              		.cfi_offset 3, -24
 958              		.loc 1 437 0
 959 0002 2F4D     		ldr	r5, .L25
 960              		.loc 1 439 0
 961 0004 2F4C     		ldr	r4, .L25+4
 962              		.loc 1 437 0
ARM GAS  /tmp/ccaMc7pi.s 			page 18


 963 0006 AB69     		ldr	r3, [r5, #24]
 964              		.loc 1 439 0
 965 0008 2046     		mov	r0, r4
 966              		.loc 1 437 0
 967 000a 9E68     		ldr	r6, [r3, #8]
 968              	.LVL22:
 969              		.loc 1 439 0
 970 000c FFF7FEFF 		bl	chMtxTryLock
 971              	.LVL23:
 972 0010 0146     		mov	r1, r0
 973              	.LVL24:
 974              		.loc 1 440 0
 975 0012 0120     		movs	r0, #1
 976              	.LVL25:
 977 0014 FFF7FEFF 		bl	_test_assert
 978              	.LVL26:
 979 0018 00B1     		cbz	r0, .L24
 980              	.L22:
 981 001a F8BD     		pop	{r3, r4, r5, r6, r7, pc}
 982              	.L24:
 983              		.loc 1 442 0
 984 001c 2046     		mov	r0, r4
 985 001e FFF7FEFF 		bl	chMtxTryLock
 986              	.LVL27:
 987              		.loc 1 443 0
 988 0022 D0F10101 		rsbs	r1, r0, #1
 989 0026 38BF     		it	cc
 990 0028 0021     		movcc	r1, #0
 991 002a 0220     		movs	r0, #2
 992              	.LVL28:
 993 002c FFF7FEFF 		bl	_test_assert
 994 0030 0746     		mov	r7, r0
 995 0032 0028     		cmp	r0, #0
 996 0034 F1D1     		bne	.L22
 997              	.LBB5:
 998              		.loc 1 445 0
 999 0036 2023     		movs	r3, #32
 1000              	.LVL29:
 1001              	@ 445 "../../test/testmtx.c" 1
 1002 0038 83F31188 		msr     BASEPRI, r3
 1003              	@ 0 "" 2
 1004              	.LVL30:
 1005              		.thumb
 1006              	.LBE5:
 1007              		.loc 1 446 0
 1008 003c FFF7FEFF 		bl	chMtxUnlockS
 1009              	.LVL31:
 1010              	.LBB6:
 1011              		.loc 1 447 0
 1012 0040 3B46     		mov	r3, r7
 1013              	.LVL32:
 1014              	@ 447 "../../test/testmtx.c" 1
 1015 0042 83F31188 		msr     BASEPRI, r3
 1016              	@ 0 "" 2
 1017              	.LVL33:
 1018              		.thumb
 1019              	.LBE6:
ARM GAS  /tmp/ccaMc7pi.s 			page 19


 1020              		.loc 1 449 0
 1021 0046 2168     		ldr	r1, [r4, #0]
 1022 0048 C4EB010C 		rsb	ip, r4, r1
 1023 004c 0320     		movs	r0, #3
 1024 004e DCF10001 		rsbs	r1, ip, #0
 1025 0052 41EB0C01 		adc	r1, r1, ip
 1026 0056 FFF7FEFF 		bl	_test_assert
 1027              	.LVL34:
 1028 005a 0028     		cmp	r0, #0
 1029 005c DDD1     		bne	.L22
 1030              		.loc 1 450 0
 1031 005e A168     		ldr	r1, [r4, #8]
 1032 0060 0420     		movs	r0, #4
 1033 0062 D1F10101 		rsbs	r1, r1, #1
 1034 0066 38BF     		it	cc
 1035 0068 0021     		movcc	r1, #0
 1036 006a FFF7FEFF 		bl	_test_assert
 1037 006e 0028     		cmp	r0, #0
 1038 0070 D3D1     		bne	.L22
 1039              		.loc 1 451 0
 1040 0072 AB69     		ldr	r3, [r5, #24]
 1041 0074 9968     		ldr	r1, [r3, #8]
 1042 0076 C6EB010E 		rsb	lr, r6, r1
 1043 007a 0520     		movs	r0, #5
 1044 007c DEF10001 		rsbs	r1, lr, #0
 1045 0080 41EB0E01 		adc	r1, r1, lr
 1046 0084 FFF7FEFF 		bl	_test_assert
 1047 0088 0028     		cmp	r0, #0
 1048 008a C6D1     		bne	.L22
 1049              		.loc 1 453 0
 1050 008c 2046     		mov	r0, r4
 1051 008e FFF7FEFF 		bl	chMtxLock
 1052              		.loc 1 454 0
 1053 0092 FFF7FEFF 		bl	chMtxUnlockAll
 1054              		.loc 1 455 0
 1055 0096 2168     		ldr	r1, [r4, #0]
 1056 0098 0A1B     		subs	r2, r1, r4
 1057 009a 0620     		movs	r0, #6
 1058 009c 5142     		rsbs	r1, r2, #0
 1059 009e 41EB0201 		adc	r1, r1, r2
 1060 00a2 FFF7FEFF 		bl	_test_assert
 1061 00a6 0028     		cmp	r0, #0
 1062 00a8 B7D1     		bne	.L22
 1063              		.loc 1 456 0
 1064 00aa A168     		ldr	r1, [r4, #8]
 1065 00ac 0720     		movs	r0, #7
 1066 00ae D1F10101 		rsbs	r1, r1, #1
 1067 00b2 38BF     		it	cc
 1068 00b4 0021     		movcc	r1, #0
 1069              		.loc 1 457 0
 1070 00b6 BDE8F840 		pop	{r3, r4, r5, r6, r7, lr}
 1071              		.loc 1 456 0
 1072 00ba FFF7FEBF 		b	_test_assert
 1073              	.L26:
 1074 00be 00BF     		.align	2
 1075              	.L25:
 1076 00c0 00000000 		.word	rlist
ARM GAS  /tmp/ccaMc7pi.s 			page 20


 1077 00c4 00000000 		.word	.LANCHOR2
 1078              		.cfi_endproc
 1079              	.LFE27:
 1080              		.size	mtx5_execute, .-mtx5_execute
 1081 00c8 AFF30080 		.section	.text.mtx4_execute,"ax",%progbits
 1081      AFF30080 
 1082              		.align	2
 1083              		.p2align 4,,15
 1084              		.thumb
 1085              		.thumb_func
 1086              		.type	mtx4_execute, %function
 1087              	mtx4_execute:
 1088              	.LFB25:
 1089              		.loc 1 365 0
 1090              		.cfi_startproc
 1091              		@ args = 0, pretend = 0, frame = 0
 1092              		@ frame_needed = 0, uses_anonymous_args = 0
 1093 0000 2DE9F047 		push	{r4, r5, r6, r7, r8, r9, sl, lr}
 1094              	.LCFI18:
 1095              		.cfi_def_cfa_offset 32
 1096              		.cfi_offset 14, -4
 1097              		.cfi_offset 10, -8
 1098              		.cfi_offset 9, -12
 1099              		.cfi_offset 8, -16
 1100              		.cfi_offset 7, -20
 1101              		.cfi_offset 6, -24
 1102              		.cfi_offset 5, -28
 1103              		.cfi_offset 4, -32
 1104              		.loc 1 368 0
 1105 0004 8E4D     		ldr	r5, .L30
 1106              		.loc 1 371 0
 1107 0006 8F4F     		ldr	r7, .L30+4
 1108              		.loc 1 368 0
 1109 0008 AB69     		ldr	r3, [r5, #24]
 1110              		.loc 1 371 0
 1111 000a D7F800A0 		ldr	sl, [r7, #0]
 1112              		.loc 1 368 0
 1113 000e 9C68     		ldr	r4, [r3, #8]
 1114              	.LVL35:
 1115              		.loc 1 371 0
 1116 0010 8D4A     		ldr	r2, .L30+8
 1117 0012 8E4B     		ldr	r3, .L30+12
 1118 0014 8E4E     		ldr	r6, .L30+16
 1119              		.loc 1 365 0
 1120 0016 82B0     		sub	sp, sp, #8
 1121              	.LCFI19:
 1122              		.cfi_def_cfa_offset 40
 1123              		.loc 1 369 0
 1124 0018 04F10108 		add	r8, r4, #1
 1125              	.LVL36:
 1126              		.loc 1 371 0
 1127 001c 0092     		str	r2, [sp, #0]
 1128 001e 4FF49871 		mov	r1, #304
 1129 0022 4246     		mov	r2, r8
 1130 0024 5046     		mov	r0, sl
 1131 0026 FFF7FEFF 		bl	chThdCreateStatic
 1132              	.LVL37:
ARM GAS  /tmp/ccaMc7pi.s 			page 21


 1133              		.loc 1 372 0
 1134 002a D7F80490 		ldr	r9, [r7, #4]
 1135              		.loc 1 371 0
 1136 002e 3060     		str	r0, [r6, #0]
 1137              		.loc 1 372 0
 1138 0030 8848     		ldr	r0, .L30+20
 1139 0032 894B     		ldr	r3, .L30+24
 1140 0034 0090     		str	r0, [sp, #0]
 1141              		.loc 1 370 0
 1142 0036 A71C     		adds	r7, r4, #2
 1143              	.LVL38:
 1144              		.loc 1 372 0
 1145 0038 4FF49871 		mov	r1, #304
 1146 003c 3A46     		mov	r2, r7
 1147 003e 4846     		mov	r0, r9
 1148 0040 FFF7FEFF 		bl	chThdCreateStatic
 1149 0044 7060     		str	r0, [r6, #4]
 1150              		.loc 1 373 0
 1151 0046 8548     		ldr	r0, .L30+28
 1152 0048 FFF7FEFF 		bl	chMtxLock
 1153              		.loc 1 374 0
 1154 004c AB69     		ldr	r3, [r5, #24]
 1155 004e 9968     		ldr	r1, [r3, #8]
 1156 0050 0A1B     		subs	r2, r1, r4
 1157 0052 0120     		movs	r0, #1
 1158 0054 5142     		rsbs	r1, r2, #0
 1159 0056 41EB0201 		adc	r1, r1, r2
 1160 005a FFF7FEFF 		bl	_test_assert
 1161 005e 10B1     		cbz	r0, .L29
 1162              	.L27:
 1163              		.loc 1 409 0
 1164 0060 02B0     		add	sp, sp, #8
 1165 0062 BDE8F087 		pop	{r4, r5, r6, r7, r8, r9, sl, pc}
 1166              	.L29:
 1167              		.loc 1 375 0
 1168 0066 6420     		movs	r0, #100
 1169 0068 FFF7FEFF 		bl	chThdSleep
 1170              		.loc 1 376 0
 1171 006c AB69     		ldr	r3, [r5, #24]
 1172 006e 9968     		ldr	r1, [r3, #8]
 1173 0070 C8EB0103 		rsb	r3, r8, r1
 1174 0074 0220     		movs	r0, #2
 1175 0076 5942     		rsbs	r1, r3, #0
 1176 0078 41EB0301 		adc	r1, r1, r3
 1177 007c FFF7FEFF 		bl	_test_assert
 1178 0080 0028     		cmp	r0, #0
 1179 0082 EDD1     		bne	.L27
 1180              		.loc 1 377 0
 1181 0084 7648     		ldr	r0, .L30+32
 1182 0086 FFF7FEFF 		bl	chMtxLock
 1183              		.loc 1 378 0
 1184 008a AB69     		ldr	r3, [r5, #24]
 1185 008c 9968     		ldr	r1, [r3, #8]
 1186 008e C8EB010C 		rsb	ip, r8, r1
 1187 0092 0320     		movs	r0, #3
 1188 0094 DCF10001 		rsbs	r1, ip, #0
 1189 0098 41EB0C01 		adc	r1, r1, ip
ARM GAS  /tmp/ccaMc7pi.s 			page 22


 1190 009c FFF7FEFF 		bl	_test_assert
 1191 00a0 0028     		cmp	r0, #0
 1192 00a2 DDD1     		bne	.L27
 1193              		.loc 1 379 0
 1194 00a4 6420     		movs	r0, #100
 1195 00a6 FFF7FEFF 		bl	chThdSleep
 1196              		.loc 1 380 0
 1197 00aa AB69     		ldr	r3, [r5, #24]
 1198 00ac 9968     		ldr	r1, [r3, #8]
 1199 00ae C7EB010E 		rsb	lr, r7, r1
 1200 00b2 0420     		movs	r0, #4
 1201 00b4 DEF10001 		rsbs	r1, lr, #0
 1202 00b8 41EB0E01 		adc	r1, r1, lr
 1203 00bc FFF7FEFF 		bl	_test_assert
 1204 00c0 0028     		cmp	r0, #0
 1205 00c2 CDD1     		bne	.L27
 1206              		.loc 1 381 0
 1207 00c4 FFF7FEFF 		bl	chMtxUnlock
 1208              		.loc 1 382 0
 1209 00c8 AB69     		ldr	r3, [r5, #24]
 1210 00ca 9968     		ldr	r1, [r3, #8]
 1211 00cc C8EB0102 		rsb	r2, r8, r1
 1212 00d0 0520     		movs	r0, #5
 1213 00d2 5142     		rsbs	r1, r2, #0
 1214 00d4 41EB0201 		adc	r1, r1, r2
 1215 00d8 FFF7FEFF 		bl	_test_assert
 1216 00dc 0028     		cmp	r0, #0
 1217 00de BFD1     		bne	.L27
 1218              		.loc 1 383 0
 1219 00e0 6420     		movs	r0, #100
 1220 00e2 FFF7FEFF 		bl	chThdSleep
 1221              		.loc 1 384 0
 1222 00e6 AB69     		ldr	r3, [r5, #24]
 1223 00e8 9968     		ldr	r1, [r3, #8]
 1224 00ea C8EB0103 		rsb	r3, r8, r1
 1225 00ee 0620     		movs	r0, #6
 1226 00f0 5942     		rsbs	r1, r3, #0
 1227 00f2 41EB0301 		adc	r1, r1, r3
 1228 00f6 FFF7FEFF 		bl	_test_assert
 1229 00fa 0028     		cmp	r0, #0
 1230 00fc B0D1     		bne	.L27
 1231              		.loc 1 385 0
 1232 00fe FFF7FEFF 		bl	chMtxUnlockAll
 1233              		.loc 1 386 0
 1234 0102 AB69     		ldr	r3, [r5, #24]
 1235 0104 9968     		ldr	r1, [r3, #8]
 1236 0106 C4EB010C 		rsb	ip, r4, r1
 1237 010a 0720     		movs	r0, #7
 1238 010c DCF10001 		rsbs	r1, ip, #0
 1239 0110 41EB0C01 		adc	r1, r1, ip
 1240 0114 FFF7FEFF 		bl	_test_assert
 1241 0118 0028     		cmp	r0, #0
 1242 011a A1D1     		bne	.L27
 1243              		.loc 1 387 0
 1244 011c FFF7FEFF 		bl	test_wait_threads
 1245              		.loc 1 390 0
 1246 0120 504A     		ldr	r2, .L30+36
ARM GAS  /tmp/ccaMc7pi.s 			page 23


 1247 0122 4A4B     		ldr	r3, .L30+12
 1248 0124 0092     		str	r2, [sp, #0]
 1249 0126 4FF49871 		mov	r1, #304
 1250 012a 4246     		mov	r2, r8
 1251 012c 5046     		mov	r0, sl
 1252 012e FFF7FEFF 		bl	chThdCreateStatic
 1253 0132 3060     		str	r0, [r6, #0]
 1254              		.loc 1 391 0
 1255 0134 4C48     		ldr	r0, .L30+40
 1256 0136 484B     		ldr	r3, .L30+24
 1257 0138 0090     		str	r0, [sp, #0]
 1258 013a 4FF49871 		mov	r1, #304
 1259 013e 3A46     		mov	r2, r7
 1260 0140 4846     		mov	r0, r9
 1261 0142 FFF7FEFF 		bl	chThdCreateStatic
 1262 0146 7060     		str	r0, [r6, #4]
 1263              		.loc 1 392 0
 1264 0148 4448     		ldr	r0, .L30+28
 1265 014a FFF7FEFF 		bl	chMtxLock
 1266              		.loc 1 393 0
 1267 014e AB69     		ldr	r3, [r5, #24]
 1268 0150 9968     		ldr	r1, [r3, #8]
 1269 0152 C4EB010E 		rsb	lr, r4, r1
 1270 0156 0820     		movs	r0, #8
 1271 0158 DEF10001 		rsbs	r1, lr, #0
 1272 015c 41EB0E01 		adc	r1, r1, lr
 1273 0160 FFF7FEFF 		bl	_test_assert
 1274 0164 0028     		cmp	r0, #0
 1275 0166 7FF47BAF 		bne	.L27
 1276              		.loc 1 394 0
 1277 016a 6420     		movs	r0, #100
 1278 016c FFF7FEFF 		bl	chThdSleep
 1279              		.loc 1 395 0
 1280 0170 AB69     		ldr	r3, [r5, #24]
 1281 0172 9968     		ldr	r1, [r3, #8]
 1282 0174 C8EB0102 		rsb	r2, r8, r1
 1283 0178 0920     		movs	r0, #9
 1284 017a 5142     		rsbs	r1, r2, #0
 1285 017c 41EB0201 		adc	r1, r1, r2
 1286 0180 FFF7FEFF 		bl	_test_assert
 1287 0184 0028     		cmp	r0, #0
 1288 0186 7FF46BAF 		bne	.L27
 1289              		.loc 1 396 0
 1290 018a 3548     		ldr	r0, .L30+32
 1291 018c FFF7FEFF 		bl	chMtxLock
 1292              		.loc 1 397 0
 1293 0190 AB69     		ldr	r3, [r5, #24]
 1294 0192 9968     		ldr	r1, [r3, #8]
 1295 0194 C8EB0103 		rsb	r3, r8, r1
 1296 0198 0A20     		movs	r0, #10
 1297 019a 5942     		rsbs	r1, r3, #0
 1298 019c 41EB0301 		adc	r1, r1, r3
 1299 01a0 FFF7FEFF 		bl	_test_assert
 1300 01a4 0028     		cmp	r0, #0
 1301 01a6 7FF45BAF 		bne	.L27
 1302              		.loc 1 398 0
 1303 01aa 6420     		movs	r0, #100
ARM GAS  /tmp/ccaMc7pi.s 			page 24


 1304 01ac FFF7FEFF 		bl	chThdSleep
 1305              		.loc 1 399 0
 1306 01b0 AB69     		ldr	r3, [r5, #24]
 1307 01b2 9968     		ldr	r1, [r3, #8]
 1308 01b4 C7EB010C 		rsb	ip, r7, r1
 1309 01b8 0B20     		movs	r0, #11
 1310 01ba DCF10001 		rsbs	r1, ip, #0
 1311 01be 41EB0C01 		adc	r1, r1, ip
 1312 01c2 FFF7FEFF 		bl	_test_assert
 1313 01c6 0646     		mov	r6, r0
 1314 01c8 0028     		cmp	r0, #0
 1315 01ca 7FF449AF 		bne	.L27
 1316              	.LBB7:
 1317              		.loc 1 400 0
 1318 01ce 2023     		movs	r3, #32
 1319              	.LVL39:
 1320              	@ 400 "../../test/testmtx.c" 1
 1321 01d0 83F31188 		msr     BASEPRI, r3
 1322              	@ 0 "" 2
 1323              	.LVL40:
 1324              		.thumb
 1325              	.LBE7:
 1326              		.loc 1 401 0
 1327 01d4 FFF7FEFF 		bl	chMtxUnlockS
 1328              	.LVL41:
 1329              	.LBB8:
 1330              		.loc 1 402 0
 1331 01d8 3346     		mov	r3, r6
 1332              	.LVL42:
 1333              	@ 402 "../../test/testmtx.c" 1
 1334 01da 83F31188 		msr     BASEPRI, r3
 1335              	@ 0 "" 2
 1336              	.LVL43:
 1337              		.thumb
 1338              	.LBE8:
 1339              		.loc 1 403 0
 1340 01de AB69     		ldr	r3, [r5, #24]
 1341              	.LVL44:
 1342 01e0 9968     		ldr	r1, [r3, #8]
 1343 01e2 C8EB010E 		rsb	lr, r8, r1
 1344 01e6 0C20     		movs	r0, #12
 1345 01e8 DEF10001 		rsbs	r1, lr, #0
 1346 01ec 41EB0E01 		adc	r1, r1, lr
 1347 01f0 FFF7FEFF 		bl	_test_assert
 1348 01f4 0028     		cmp	r0, #0
 1349 01f6 7FF433AF 		bne	.L27
 1350              		.loc 1 404 0
 1351 01fa 6420     		movs	r0, #100
 1352 01fc FFF7FEFF 		bl	chThdSleep
 1353              		.loc 1 405 0
 1354 0200 AB69     		ldr	r3, [r5, #24]
 1355 0202 9968     		ldr	r1, [r3, #8]
 1356 0204 C8EB0102 		rsb	r2, r8, r1
 1357 0208 0D20     		movs	r0, #13
 1358 020a 5142     		rsbs	r1, r2, #0
 1359 020c 41EB0201 		adc	r1, r1, r2
 1360 0210 FFF7FEFF 		bl	_test_assert
ARM GAS  /tmp/ccaMc7pi.s 			page 25


 1361 0214 0028     		cmp	r0, #0
 1362 0216 7FF423AF 		bne	.L27
 1363              		.loc 1 406 0
 1364 021a FFF7FEFF 		bl	chMtxUnlockAll
 1365              		.loc 1 407 0
 1366 021e AB69     		ldr	r3, [r5, #24]
 1367 0220 9968     		ldr	r1, [r3, #8]
 1368 0222 0B1B     		subs	r3, r1, r4
 1369 0224 0E20     		movs	r0, #14
 1370 0226 5942     		rsbs	r1, r3, #0
 1371 0228 41EB0301 		adc	r1, r1, r3
 1372 022c FFF7FEFF 		bl	_test_assert
 1373 0230 0028     		cmp	r0, #0
 1374 0232 7FF415AF 		bne	.L27
 1375              		.loc 1 409 0
 1376 0236 02B0     		add	sp, sp, #8
 1377 0238 BDE8F047 		pop	{r4, r5, r6, r7, r8, r9, sl, lr}
 1378              		.loc 1 408 0
 1379 023c FFF7FEBF 		b	test_wait_threads
 1380              	.L31:
 1381              		.align	2
 1382              	.L30:
 1383 0240 00000000 		.word	rlist
 1384 0244 00000000 		.word	wa
 1385 0248 08000000 		.word	.LC2
 1386 024c 00000000 		.word	thread4a
 1387 0250 00000000 		.word	threads
 1388 0254 00000000 		.word	.LC0
 1389 0258 00000000 		.word	thread4b
 1390 025c 00000000 		.word	.LANCHOR1
 1391 0260 00000000 		.word	.LANCHOR2
 1392 0264 14000000 		.word	.LC5
 1393 0268 04000000 		.word	.LC1
 1394              		.cfi_endproc
 1395              	.LFE25:
 1396              		.size	mtx4_execute, .-mtx4_execute
 1397 026c AFF30080 		.section	.text.thread4b,"ax",%progbits
 1398              		.align	2
 1399              		.p2align 4,,15
 1400              		.thumb
 1401              		.thumb_func
 1402              		.type	thread4b, %function
 1403              	thread4b:
 1404              	.LFB24:
 1405              		.loc 1 356 0
 1406              		.cfi_startproc
 1407              		@ args = 0, pretend = 0, frame = 0
 1408              		@ frame_needed = 0, uses_anonymous_args = 0
 1409              	.LVL45:
 1410 0000 08B5     		push	{r3, lr}
 1411              	.LCFI20:
 1412              		.cfi_def_cfa_offset 8
 1413              		.cfi_offset 14, -4
 1414              		.cfi_offset 3, -8
 1415              		.loc 1 359 0
 1416 0002 9620     		movs	r0, #150
 1417              	.LVL46:
ARM GAS  /tmp/ccaMc7pi.s 			page 26


 1418 0004 FFF7FEFF 		bl	chThdSleep
 1419              		.loc 1 360 0
 1420 0008 40F20000 		movw	r0, #:lower16:.LANCHOR2
 1421 000c C0F20000 		movt	r0, #:upper16:.LANCHOR2
 1422 0010 FFF7FEFF 		bl	chMtxLock
 1423              		.loc 1 361 0
 1424 0014 FFF7FEFF 		bl	chMtxUnlock
 1425              		.loc 1 363 0
 1426 0018 0020     		movs	r0, #0
 1427 001a 08BD     		pop	{r3, pc}
 1428              		.cfi_endproc
 1429              	.LFE24:
 1430              		.size	thread4b, .-thread4b
 1431 001c AFF30080 		.section	.text.thread4a,"ax",%progbits
 1432              		.align	2
 1433              		.p2align 4,,15
 1434              		.thumb
 1435              		.thumb_func
 1436              		.type	thread4a, %function
 1437              	thread4a:
 1438              	.LFB23:
 1439              		.loc 1 347 0
 1440              		.cfi_startproc
 1441              		@ args = 0, pretend = 0, frame = 0
 1442              		@ frame_needed = 0, uses_anonymous_args = 0
 1443              	.LVL47:
 1444 0000 08B5     		push	{r3, lr}
 1445              	.LCFI21:
 1446              		.cfi_def_cfa_offset 8
 1447              		.cfi_offset 14, -4
 1448              		.cfi_offset 3, -8
 1449              		.loc 1 350 0
 1450 0002 3220     		movs	r0, #50
 1451              	.LVL48:
 1452 0004 FFF7FEFF 		bl	chThdSleep
 1453              		.loc 1 351 0
 1454 0008 40F20000 		movw	r0, #:lower16:.LANCHOR1
 1455 000c C0F20000 		movt	r0, #:upper16:.LANCHOR1
 1456 0010 FFF7FEFF 		bl	chMtxLock
 1457              		.loc 1 352 0
 1458 0014 FFF7FEFF 		bl	chMtxUnlock
 1459              		.loc 1 354 0
 1460 0018 0020     		movs	r0, #0
 1461 001a 08BD     		pop	{r3, pc}
 1462              		.cfi_endproc
 1463              	.LFE23:
 1464              		.size	thread4a, .-thread4a
 1465 001c AFF30080 		.section	.text.mtx3_execute,"ax",%progbits
 1466              		.align	2
 1467              		.p2align 4,,15
 1468              		.thumb
 1469              		.thumb_func
 1470              		.type	mtx3_execute, %function
 1471              	mtx3_execute:
 1472              	.LFB21:
 1473              		.loc 1 308 0
 1474              		.cfi_startproc
ARM GAS  /tmp/ccaMc7pi.s 			page 27


 1475              		@ args = 0, pretend = 0, frame = 0
 1476              		@ frame_needed = 0, uses_anonymous_args = 0
 1477 0000 2DE9F041 		push	{r4, r5, r6, r7, r8, lr}
 1478              	.LCFI22:
 1479              		.cfi_def_cfa_offset 24
 1480              		.cfi_offset 14, -4
 1481              		.cfi_offset 8, -8
 1482              		.cfi_offset 7, -12
 1483              		.cfi_offset 6, -16
 1484              		.cfi_offset 5, -20
 1485              		.cfi_offset 4, -24
 1486              		.loc 1 313 0
 1487 0004 2D4F     		ldr	r7, .L37
 1488 0006 2E4E     		ldr	r6, .L37+4
 1489 0008 2E4C     		ldr	r4, .L37+8
 1490              		.loc 1 308 0
 1491 000a 82B0     		sub	sp, sp, #8
 1492              	.LCFI23:
 1493              		.cfi_def_cfa_offset 32
 1494              		.loc 1 311 0
 1495 000c FFF7FEFF 		bl	test_wait_tick
 1496              		.loc 1 313 0
 1497 0010 BB69     		ldr	r3, [r7, #24]
 1498              		.loc 1 312 0
 1499 0012 2D49     		ldr	r1, .L37+12
 1500              		.loc 1 313 0
 1501 0014 9A68     		ldr	r2, [r3, #8]
 1502              		.loc 1 312 0
 1503 0016 D1F80C80 		ldr	r8, [r1, #12]
 1504              	.LVL49:
 1505              		.loc 1 313 0
 1506 001a 3068     		ldr	r0, [r6, #0]
 1507 001c 2B4B     		ldr	r3, .L37+16
 1508 001e 0025     		movs	r5, #0
 1509 0020 4FF49871 		mov	r1, #304
 1510 0024 053A     		subs	r2, r2, #5
 1511 0026 0095     		str	r5, [sp, #0]
 1512 0028 FFF7FEFF 		bl	chThdCreateStatic
 1513              		.loc 1 314 0
 1514 002c BB69     		ldr	r3, [r7, #24]
 1515 002e D6F804E0 		ldr	lr, [r6, #4]
 1516 0032 9A68     		ldr	r2, [r3, #8]
 1517              		.loc 1 313 0
 1518 0034 2060     		str	r0, [r4, #0]
 1519              		.loc 1 314 0
 1520 0036 4FF49871 		mov	r1, #304
 1521 003a 043A     		subs	r2, r2, #4
 1522 003c 244B     		ldr	r3, .L37+20
 1523 003e 0095     		str	r5, [sp, #0]
 1524 0040 7046     		mov	r0, lr
 1525 0042 FFF7FEFF 		bl	chThdCreateStatic
 1526              		.loc 1 315 0
 1527 0046 BB69     		ldr	r3, [r7, #24]
 1528 0048 D6F808E0 		ldr	lr, [r6, #8]
 1529 004c 9A68     		ldr	r2, [r3, #8]
 1530              		.loc 1 314 0
 1531 004e 6060     		str	r0, [r4, #4]
ARM GAS  /tmp/ccaMc7pi.s 			page 28


 1532              		.loc 1 315 0
 1533 0050 4FF49871 		mov	r1, #304
 1534 0054 033A     		subs	r2, r2, #3
 1535 0056 1F4B     		ldr	r3, .L37+24
 1536 0058 0095     		str	r5, [sp, #0]
 1537 005a 7046     		mov	r0, lr
 1538 005c FFF7FEFF 		bl	chThdCreateStatic
 1539              		.loc 1 316 0
 1540 0060 BB69     		ldr	r3, [r7, #24]
 1541 0062 D6F80CE0 		ldr	lr, [r6, #12]
 1542 0066 9A68     		ldr	r2, [r3, #8]
 1543              		.loc 1 315 0
 1544 0068 A060     		str	r0, [r4, #8]
 1545              		.loc 1 316 0
 1546 006a 4FF49871 		mov	r1, #304
 1547 006e 7046     		mov	r0, lr
 1548 0070 023A     		subs	r2, r2, #2
 1549 0072 194B     		ldr	r3, .L37+28
 1550 0074 0095     		str	r5, [sp, #0]
 1551 0076 FFF7FEFF 		bl	chThdCreateStatic
 1552              		.loc 1 317 0
 1553 007a BB69     		ldr	r3, [r7, #24]
 1554 007c 3669     		ldr	r6, [r6, #16]
 1555 007e 9A68     		ldr	r2, [r3, #8]
 1556              		.loc 1 316 0
 1557 0080 E060     		str	r0, [r4, #12]
 1558              		.loc 1 317 0
 1559 0082 4FF49871 		mov	r1, #304
 1560 0086 013A     		subs	r2, r2, #1
 1561 0088 144B     		ldr	r3, .L37+32
 1562 008a 0095     		str	r5, [sp, #0]
 1563 008c 3046     		mov	r0, r6
 1564 008e FFF7FEFF 		bl	chThdCreateStatic
 1565 0092 2061     		str	r0, [r4, #16]
 1566              		.loc 1 318 0
 1567 0094 FFF7FEFF 		bl	test_wait_threads
 1568              		.loc 1 319 0
 1569 0098 0120     		movs	r0, #1
 1570 009a 1149     		ldr	r1, .L37+36
 1571 009c FFF7FEFF 		bl	_test_assert_sequence
 1572 00a0 10B1     		cbz	r0, .L36
 1573              		.loc 1 321 0
 1574 00a2 02B0     		add	sp, sp, #8
 1575 00a4 BDE8F081 		pop	{r4, r5, r6, r7, r8, pc}
 1576              	.L36:
 1577              		.loc 1 320 0
 1578 00a8 0220     		movs	r0, #2
 1579 00aa 08F16E01 		add	r1, r8, #110
 1580 00ae 08F17302 		add	r2, r8, #115
 1581              		.loc 1 321 0
 1582 00b2 02B0     		add	sp, sp, #8
 1583 00b4 BDE8F041 		pop	{r4, r5, r6, r7, r8, lr}
 1584              		.loc 1 320 0
 1585 00b8 FFF7FEBF 		b	_test_assert_time_window
 1586              	.L38:
 1587              		.align	2
 1588              	.L37:
ARM GAS  /tmp/ccaMc7pi.s 			page 29


 1589 00bc 00000000 		.word	rlist
 1590 00c0 00000000 		.word	wa
 1591 00c4 00000000 		.word	threads
 1592 00c8 00000000 		.word	vtlist
 1593 00cc 00000000 		.word	thread3LL
 1594 00d0 00000000 		.word	thread3L
 1595 00d4 00000000 		.word	thread3M
 1596 00d8 00000000 		.word	thread3H
 1597 00dc 00000000 		.word	thread3HH
 1598 00e0 18000000 		.word	.LC6
 1599              		.cfi_endproc
 1600              	.LFE21:
 1601              		.size	mtx3_execute, .-mtx3_execute
 1602 00e4 AFF30080 		.section	.text.mtx2_execute,"ax",%progbits
 1602      AFF30080 
 1602      AFF30080 
 1603              		.align	2
 1604              		.p2align 4,,15
 1605              		.thumb
 1606              		.thumb_func
 1607              		.type	mtx2_execute, %function
 1608              	mtx2_execute:
 1609              	.LFB14:
 1610              		.loc 1 190 0
 1611              		.cfi_startproc
 1612              		@ args = 0, pretend = 0, frame = 0
 1613              		@ frame_needed = 0, uses_anonymous_args = 0
 1614 0000 2DE9F041 		push	{r4, r5, r6, r7, r8, lr}
 1615              	.LCFI24:
 1616              		.cfi_def_cfa_offset 24
 1617              		.cfi_offset 14, -4
 1618              		.cfi_offset 8, -8
 1619              		.cfi_offset 7, -12
 1620              		.cfi_offset 6, -16
 1621              		.cfi_offset 5, -20
 1622              		.cfi_offset 4, -24
 1623              		.loc 1 195 0
 1624 0004 204F     		ldr	r7, .L42
 1625 0006 214E     		ldr	r6, .L42+4
 1626 0008 214C     		ldr	r4, .L42+8
 1627              		.loc 1 190 0
 1628 000a 82B0     		sub	sp, sp, #8
 1629              	.LCFI25:
 1630              		.cfi_def_cfa_offset 32
 1631              		.loc 1 193 0
 1632 000c FFF7FEFF 		bl	test_wait_tick
 1633              		.loc 1 195 0
 1634 0010 BB69     		ldr	r3, [r7, #24]
 1635              		.loc 1 194 0
 1636 0012 2049     		ldr	r1, .L42+12
 1637              		.loc 1 195 0
 1638 0014 9A68     		ldr	r2, [r3, #8]
 1639              		.loc 1 194 0
 1640 0016 D1F80C80 		ldr	r8, [r1, #12]
 1641              	.LVL50:
 1642              		.loc 1 195 0
 1643 001a 3068     		ldr	r0, [r6, #0]
ARM GAS  /tmp/ccaMc7pi.s 			page 30


 1644 001c 1E4B     		ldr	r3, .L42+16
 1645 001e 0025     		movs	r5, #0
 1646 0020 4FF49871 		mov	r1, #304
 1647 0024 013A     		subs	r2, r2, #1
 1648 0026 0095     		str	r5, [sp, #0]
 1649 0028 FFF7FEFF 		bl	chThdCreateStatic
 1650              		.loc 1 196 0
 1651 002c BB69     		ldr	r3, [r7, #24]
 1652 002e D6F804E0 		ldr	lr, [r6, #4]
 1653 0032 9A68     		ldr	r2, [r3, #8]
 1654              		.loc 1 195 0
 1655 0034 2060     		str	r0, [r4, #0]
 1656              		.loc 1 196 0
 1657 0036 4FF49871 		mov	r1, #304
 1658 003a 7046     		mov	r0, lr
 1659 003c 023A     		subs	r2, r2, #2
 1660 003e 174B     		ldr	r3, .L42+20
 1661 0040 0095     		str	r5, [sp, #0]
 1662 0042 FFF7FEFF 		bl	chThdCreateStatic
 1663              		.loc 1 197 0
 1664 0046 BB69     		ldr	r3, [r7, #24]
 1665 0048 B668     		ldr	r6, [r6, #8]
 1666 004a 9A68     		ldr	r2, [r3, #8]
 1667              		.loc 1 196 0
 1668 004c 6060     		str	r0, [r4, #4]
 1669              		.loc 1 197 0
 1670 004e 4FF49871 		mov	r1, #304
 1671 0052 033A     		subs	r2, r2, #3
 1672 0054 124B     		ldr	r3, .L42+24
 1673 0056 0095     		str	r5, [sp, #0]
 1674 0058 3046     		mov	r0, r6
 1675 005a FFF7FEFF 		bl	chThdCreateStatic
 1676 005e A060     		str	r0, [r4, #8]
 1677              		.loc 1 198 0
 1678 0060 FFF7FEFF 		bl	test_wait_threads
 1679              		.loc 1 199 0
 1680 0064 0120     		movs	r0, #1
 1681 0066 0F49     		ldr	r1, .L42+28
 1682 0068 FFF7FEFF 		bl	_test_assert_sequence
 1683 006c 10B1     		cbz	r0, .L41
 1684              		.loc 1 201 0
 1685 006e 02B0     		add	sp, sp, #8
 1686 0070 BDE8F081 		pop	{r4, r5, r6, r7, r8, pc}
 1687              	.L41:
 1688              		.loc 1 200 0
 1689 0074 0220     		movs	r0, #2
 1690 0076 08F16401 		add	r1, r8, #100
 1691 007a 08F16902 		add	r2, r8, #105
 1692              		.loc 1 201 0
 1693 007e 02B0     		add	sp, sp, #8
 1694 0080 BDE8F041 		pop	{r4, r5, r6, r7, r8, lr}
 1695              		.loc 1 200 0
 1696 0084 FFF7FEBF 		b	_test_assert_time_window
 1697              	.L43:
 1698              		.align	2
 1699              	.L42:
 1700 0088 00000000 		.word	rlist
ARM GAS  /tmp/ccaMc7pi.s 			page 31


 1701 008c 00000000 		.word	wa
 1702 0090 00000000 		.word	threads
 1703 0094 00000000 		.word	vtlist
 1704 0098 00000000 		.word	thread2H
 1705 009c 00000000 		.word	thread2M
 1706 00a0 00000000 		.word	thread2L
 1707 00a4 0C000000 		.word	.LC3
 1708              		.cfi_endproc
 1709              	.LFE14:
 1710              		.size	mtx2_execute, .-mtx2_execute
 1711 00a8 AFF30080 		.section	.text.thread3HH,"ax",%progbits
 1711      AFF30080 
 1712              		.align	2
 1713              		.p2align 4,,15
 1714              		.thumb
 1715              		.thumb_func
 1716              		.type	thread3HH, %function
 1717              	thread3HH:
 1718              	.LFB20:
 1719              		.loc 1 297 0
 1720              		.cfi_startproc
 1721              		@ args = 0, pretend = 0, frame = 0
 1722              		@ frame_needed = 0, uses_anonymous_args = 0
 1723              	.LVL51:
 1724 0000 08B5     		push	{r3, lr}
 1725              	.LCFI26:
 1726              		.cfi_def_cfa_offset 8
 1727              		.cfi_offset 14, -4
 1728              		.cfi_offset 3, -8
 1729              		.loc 1 300 0
 1730 0002 3220     		movs	r0, #50
 1731              	.LVL52:
 1732 0004 FFF7FEFF 		bl	chThdSleep
 1733              		.loc 1 301 0
 1734 0008 40F20000 		movw	r0, #:lower16:.LANCHOR1
 1735 000c C0F20000 		movt	r0, #:upper16:.LANCHOR1
 1736 0010 FFF7FEFF 		bl	chMtxLock
 1737              		.loc 1 302 0
 1738 0014 0A20     		movs	r0, #10
 1739 0016 FFF7FEFF 		bl	test_cpu_pulse
 1740              		.loc 1 303 0
 1741 001a FFF7FEFF 		bl	chMtxUnlock
 1742              		.loc 1 304 0
 1743 001e 4120     		movs	r0, #65
 1744 0020 FFF7FEFF 		bl	test_emit_token
 1745              		.loc 1 306 0
 1746 0024 0020     		movs	r0, #0
 1747 0026 08BD     		pop	{r3, pc}
 1748              		.cfi_endproc
 1749              	.LFE20:
 1750              		.size	thread3HH, .-thread3HH
 1751 0028 AFF30080 		.section	.text.thread3H,"ax",%progbits
 1751      AFF30080 
 1752              		.align	2
 1753              		.p2align 4,,15
 1754              		.thumb
 1755              		.thumb_func
ARM GAS  /tmp/ccaMc7pi.s 			page 32


 1756              		.type	thread3H, %function
 1757              	thread3H:
 1758              	.LFB19:
 1759              		.loc 1 287 0
 1760              		.cfi_startproc
 1761              		@ args = 0, pretend = 0, frame = 0
 1762              		@ frame_needed = 0, uses_anonymous_args = 0
 1763              	.LVL53:
 1764 0000 08B5     		push	{r3, lr}
 1765              	.LCFI27:
 1766              		.cfi_def_cfa_offset 8
 1767              		.cfi_offset 14, -4
 1768              		.cfi_offset 3, -8
 1769              		.loc 1 290 0
 1770 0002 2820     		movs	r0, #40
 1771              	.LVL54:
 1772 0004 FFF7FEFF 		bl	chThdSleep
 1773              		.loc 1 291 0
 1774 0008 1420     		movs	r0, #20
 1775 000a FFF7FEFF 		bl	test_cpu_pulse
 1776              		.loc 1 292 0
 1777 000e 4220     		movs	r0, #66
 1778 0010 FFF7FEFF 		bl	test_emit_token
 1779              		.loc 1 294 0
 1780 0014 0020     		movs	r0, #0
 1781 0016 08BD     		pop	{r3, pc}
 1782              		.cfi_endproc
 1783              	.LFE19:
 1784              		.size	thread3H, .-thread3H
 1785 0018 AFF30080 		.section	.text.thread3M,"ax",%progbits
 1785      AFF30080 
 1786              		.align	2
 1787              		.p2align 4,,15
 1788              		.thumb
 1789              		.thumb_func
 1790              		.type	thread3M, %function
 1791              	thread3M:
 1792              	.LFB18:
 1793              		.loc 1 275 0
 1794              		.cfi_startproc
 1795              		@ args = 0, pretend = 0, frame = 0
 1796              		@ frame_needed = 0, uses_anonymous_args = 0
 1797              	.LVL55:
 1798 0000 08B5     		push	{r3, lr}
 1799              	.LCFI28:
 1800              		.cfi_def_cfa_offset 8
 1801              		.cfi_offset 14, -4
 1802              		.cfi_offset 3, -8
 1803              		.loc 1 278 0
 1804 0002 1420     		movs	r0, #20
 1805              	.LVL56:
 1806 0004 FFF7FEFF 		bl	chThdSleep
 1807              		.loc 1 279 0
 1808 0008 40F20000 		movw	r0, #:lower16:.LANCHOR1
 1809 000c C0F20000 		movt	r0, #:upper16:.LANCHOR1
 1810 0010 FFF7FEFF 		bl	chMtxLock
 1811              		.loc 1 280 0
ARM GAS  /tmp/ccaMc7pi.s 			page 33


 1812 0014 0A20     		movs	r0, #10
 1813 0016 FFF7FEFF 		bl	test_cpu_pulse
 1814              		.loc 1 281 0
 1815 001a FFF7FEFF 		bl	chMtxUnlock
 1816              		.loc 1 282 0
 1817 001e 4320     		movs	r0, #67
 1818 0020 FFF7FEFF 		bl	test_emit_token
 1819              		.loc 1 284 0
 1820 0024 0020     		movs	r0, #0
 1821 0026 08BD     		pop	{r3, pc}
 1822              		.cfi_endproc
 1823              	.LFE18:
 1824              		.size	thread3M, .-thread3M
 1825 0028 AFF30080 		.section	.text.thread3L,"ax",%progbits
 1825      AFF30080 
 1826              		.align	2
 1827              		.p2align 4,,15
 1828              		.thumb
 1829              		.thumb_func
 1830              		.type	thread3L, %function
 1831              	thread3L:
 1832              	.LFB17:
 1833              		.loc 1 259 0
 1834              		.cfi_startproc
 1835              		@ args = 0, pretend = 0, frame = 0
 1836              		@ frame_needed = 0, uses_anonymous_args = 0
 1837              	.LVL57:
 1838 0000 08B5     		push	{r3, lr}
 1839              	.LCFI29:
 1840              		.cfi_def_cfa_offset 8
 1841              		.cfi_offset 14, -4
 1842              		.cfi_offset 3, -8
 1843              		.loc 1 262 0
 1844 0002 0A20     		movs	r0, #10
 1845              	.LVL58:
 1846 0004 FFF7FEFF 		bl	chThdSleep
 1847              		.loc 1 263 0
 1848 0008 40F20000 		movw	r0, #:lower16:.LANCHOR1
 1849 000c C0F20000 		movt	r0, #:upper16:.LANCHOR1
 1850 0010 FFF7FEFF 		bl	chMtxLock
 1851              		.loc 1 264 0
 1852 0014 1420     		movs	r0, #20
 1853 0016 FFF7FEFF 		bl	test_cpu_pulse
 1854              		.loc 1 265 0
 1855 001a 40F20000 		movw	r0, #:lower16:.LANCHOR2
 1856 001e C0F20000 		movt	r0, #:upper16:.LANCHOR2
 1857 0022 FFF7FEFF 		bl	chMtxLock
 1858              		.loc 1 266 0
 1859 0026 0A20     		movs	r0, #10
 1860 0028 FFF7FEFF 		bl	test_cpu_pulse
 1861              		.loc 1 267 0
 1862 002c FFF7FEFF 		bl	chMtxUnlock
 1863              		.loc 1 268 0
 1864 0030 0A20     		movs	r0, #10
 1865 0032 FFF7FEFF 		bl	test_cpu_pulse
 1866              		.loc 1 269 0
 1867 0036 FFF7FEFF 		bl	chMtxUnlock
ARM GAS  /tmp/ccaMc7pi.s 			page 34


 1868              		.loc 1 270 0
 1869 003a 4420     		movs	r0, #68
 1870 003c FFF7FEFF 		bl	test_emit_token
 1871              		.loc 1 272 0
 1872 0040 0020     		movs	r0, #0
 1873 0042 08BD     		pop	{r3, pc}
 1874              		.cfi_endproc
 1875              	.LFE17:
 1876              		.size	thread3L, .-thread3L
 1877 0044 AFF30080 		.section	.text.thread3LL,"ax",%progbits
 1877      AFF30080 
 1877      AFF30080 
 1878              		.align	2
 1879              		.p2align 4,,15
 1880              		.thumb
 1881              		.thumb_func
 1882              		.type	thread3LL, %function
 1883              	thread3LL:
 1884              	.LFB16:
 1885              		.loc 1 248 0
 1886              		.cfi_startproc
 1887              		@ args = 0, pretend = 0, frame = 0
 1888              		@ frame_needed = 0, uses_anonymous_args = 0
 1889              	.LVL59:
 1890              		.loc 1 251 0
 1891 0000 40F20000 		movw	r0, #:lower16:.LANCHOR2
 1892              	.LVL60:
 1893              		.loc 1 248 0
 1894 0004 08B5     		push	{r3, lr}
 1895              	.LCFI30:
 1896              		.cfi_def_cfa_offset 8
 1897              		.cfi_offset 14, -4
 1898              		.cfi_offset 3, -8
 1899              		.loc 1 251 0
 1900 0006 C0F20000 		movt	r0, #:upper16:.LANCHOR2
 1901 000a FFF7FEFF 		bl	chMtxLock
 1902              		.loc 1 252 0
 1903 000e 1E20     		movs	r0, #30
 1904 0010 FFF7FEFF 		bl	test_cpu_pulse
 1905              		.loc 1 253 0
 1906 0014 FFF7FEFF 		bl	chMtxUnlock
 1907              		.loc 1 254 0
 1908 0018 4520     		movs	r0, #69
 1909 001a FFF7FEFF 		bl	test_emit_token
 1910              		.loc 1 256 0
 1911 001e 0020     		movs	r0, #0
 1912 0020 08BD     		pop	{r3, pc}
 1913              		.cfi_endproc
 1914              	.LFE16:
 1915              		.size	thread3LL, .-thread3LL
 1916 0022 00BFAFF3 		.section	.text.thread2L,"ax",%progbits
 1916      0080AFF3 
 1916      0080AFF3 
 1916      0080
 1917              		.align	2
 1918              		.p2align 4,,15
 1919              		.thumb
ARM GAS  /tmp/ccaMc7pi.s 			page 35


 1920              		.thumb_func
 1921              		.type	thread2L, %function
 1922              	thread2L:
 1923              	.LFB11:
 1924              		.loc 1 157 0
 1925              		.cfi_startproc
 1926              		@ args = 0, pretend = 0, frame = 0
 1927              		@ frame_needed = 0, uses_anonymous_args = 0
 1928              	.LVL61:
 1929              		.loc 1 160 0
 1930 0000 40F20000 		movw	r0, #:lower16:.LANCHOR2
 1931              	.LVL62:
 1932              		.loc 1 157 0
 1933 0004 08B5     		push	{r3, lr}
 1934              	.LCFI31:
 1935              		.cfi_def_cfa_offset 8
 1936              		.cfi_offset 14, -4
 1937              		.cfi_offset 3, -8
 1938              		.loc 1 160 0
 1939 0006 C0F20000 		movt	r0, #:upper16:.LANCHOR2
 1940 000a FFF7FEFF 		bl	chMtxLock
 1941              		.loc 1 161 0
 1942 000e 2820     		movs	r0, #40
 1943 0010 FFF7FEFF 		bl	test_cpu_pulse
 1944              		.loc 1 162 0
 1945 0014 FFF7FEFF 		bl	chMtxUnlock
 1946              		.loc 1 163 0
 1947 0018 0A20     		movs	r0, #10
 1948 001a FFF7FEFF 		bl	test_cpu_pulse
 1949              		.loc 1 164 0
 1950 001e 4320     		movs	r0, #67
 1951 0020 FFF7FEFF 		bl	test_emit_token
 1952              		.loc 1 166 0
 1953 0024 0020     		movs	r0, #0
 1954 0026 08BD     		pop	{r3, pc}
 1955              		.cfi_endproc
 1956              	.LFE11:
 1957              		.size	thread2L, .-thread2L
 1958 0028 AFF30080 		.section	.text.thread2M,"ax",%progbits
 1958      AFF30080 
 1959              		.align	2
 1960              		.p2align 4,,15
 1961              		.thumb
 1962              		.thumb_func
 1963              		.type	thread2M, %function
 1964              	thread2M:
 1965              	.LFB12:
 1966              		.loc 1 169 0
 1967              		.cfi_startproc
 1968              		@ args = 0, pretend = 0, frame = 0
 1969              		@ frame_needed = 0, uses_anonymous_args = 0
 1970              	.LVL63:
 1971 0000 08B5     		push	{r3, lr}
 1972              	.LCFI32:
 1973              		.cfi_def_cfa_offset 8
 1974              		.cfi_offset 14, -4
 1975              		.cfi_offset 3, -8
ARM GAS  /tmp/ccaMc7pi.s 			page 36


 1976              		.loc 1 172 0
 1977 0002 1420     		movs	r0, #20
 1978              	.LVL64:
 1979 0004 FFF7FEFF 		bl	chThdSleep
 1980              		.loc 1 173 0
 1981 0008 2820     		movs	r0, #40
 1982 000a FFF7FEFF 		bl	test_cpu_pulse
 1983              		.loc 1 174 0
 1984 000e 4220     		movs	r0, #66
 1985 0010 FFF7FEFF 		bl	test_emit_token
 1986              		.loc 1 176 0
 1987 0014 0020     		movs	r0, #0
 1988 0016 08BD     		pop	{r3, pc}
 1989              		.cfi_endproc
 1990              	.LFE12:
 1991              		.size	thread2M, .-thread2M
 1992 0018 AFF30080 		.section	.text.thread2H,"ax",%progbits
 1992      AFF30080 
 1993              		.align	2
 1994              		.p2align 4,,15
 1995              		.thumb
 1996              		.thumb_func
 1997              		.type	thread2H, %function
 1998              	thread2H:
 1999              	.LFB13:
 2000              		.loc 1 179 0
 2001              		.cfi_startproc
 2002              		@ args = 0, pretend = 0, frame = 0
 2003              		@ frame_needed = 0, uses_anonymous_args = 0
 2004              	.LVL65:
 2005 0000 08B5     		push	{r3, lr}
 2006              	.LCFI33:
 2007              		.cfi_def_cfa_offset 8
 2008              		.cfi_offset 14, -4
 2009              		.cfi_offset 3, -8
 2010              		.loc 1 182 0
 2011 0002 2820     		movs	r0, #40
 2012              	.LVL66:
 2013 0004 FFF7FEFF 		bl	chThdSleep
 2014              		.loc 1 183 0
 2015 0008 40F20000 		movw	r0, #:lower16:.LANCHOR2
 2016 000c C0F20000 		movt	r0, #:upper16:.LANCHOR2
 2017 0010 FFF7FEFF 		bl	chMtxLock
 2018              		.loc 1 184 0
 2019 0014 0A20     		movs	r0, #10
 2020 0016 FFF7FEFF 		bl	test_cpu_pulse
 2021              		.loc 1 185 0
 2022 001a FFF7FEFF 		bl	chMtxUnlock
 2023              		.loc 1 186 0
 2024 001e 4120     		movs	r0, #65
 2025 0020 FFF7FEFF 		bl	test_emit_token
 2026              		.loc 1 188 0
 2027 0024 0020     		movs	r0, #0
 2028 0026 08BD     		pop	{r3, pc}
 2029              		.cfi_endproc
 2030              	.LFE13:
 2031              		.size	thread2H, .-thread2H
ARM GAS  /tmp/ccaMc7pi.s 			page 37


 2032              		.global	patternmtx
 2033              		.global	testmtx8
 2034              		.global	testmtx7
 2035              		.global	testmtx6
 2036              		.global	testmtx5
 2037              		.global	testmtx4
 2038              		.global	testmtx3
 2039              		.global	testmtx2
 2040              		.global	testmtx1
 2041 0028 AFF30080 		.section	.rodata.testmtx5,"a",%progbits
 2041      AFF30080 
 2042              		.align	2
 2043              		.type	testmtx5, %object
 2044              		.size	testmtx5, 16
 2045              	testmtx5:
 2046 0000 64000000 		.word	.LC10
 2047 0004 00000000 		.word	mtx5_setup
 2048 0008 00000000 		.word	0
 2049 000c 00000000 		.word	mtx5_execute
 2050              		.section	.rodata.testmtx6,"a",%progbits
 2051              		.align	2
 2052              		.type	testmtx6, %object
 2053              		.size	testmtx6, 16
 2054              	testmtx6:
 2055 0000 4C000000 		.word	.LC9
 2056 0004 00000000 		.word	mtx6_setup
 2057 0008 00000000 		.word	0
 2058 000c 00000000 		.word	mtx6_execute
 2059              		.section	.rodata.testmtx7,"a",%progbits
 2060              		.align	2
 2061              		.type	testmtx7, %object
 2062              		.size	testmtx7, 16
 2063              	testmtx7:
 2064 0000 34000000 		.word	.LC8
 2065 0004 00000000 		.word	mtx7_setup
 2066 0008 00000000 		.word	0
 2067 000c 00000000 		.word	mtx7_execute
 2068              		.section	.rodata.testmtx8,"a",%progbits
 2069              		.align	2
 2070              		.type	testmtx8, %object
 2071              		.size	testmtx8, 16
 2072              	testmtx8:
 2073 0000 20000000 		.word	.LC7
 2074 0004 00000000 		.word	mtx8_setup
 2075 0008 00000000 		.word	0
 2076 000c 00000000 		.word	mtx8_execute
 2077              		.section	.data.m1,"aw",%progbits
 2078              		.align	2
 2079              		.set	.LANCHOR2,. + 0
 2080              		.type	m1, %object
 2081              		.size	m1, 16
 2082              	m1:
 2083 0000 00000000 		.word	m1
 2084 0004 00000000 		.word	m1
 2085 0008 00000000 		.word	0
 2086 000c 00000000 		.word	0
 2087              		.section	.data.m2,"aw",%progbits
ARM GAS  /tmp/ccaMc7pi.s 			page 38


 2088              		.align	2
 2089              		.set	.LANCHOR1,. + 0
 2090              		.type	m2, %object
 2091              		.size	m2, 16
 2092              	m2:
 2093 0000 00000000 		.word	m2
 2094 0004 00000000 		.word	m2
 2095 0008 00000000 		.word	0
 2096 000c 00000000 		.word	0
 2097              		.section	.rodata.str1.4,"aMS",%progbits,1
 2098              		.align	2
 2099              	.LC0:
 2100 0000 4100     		.ascii	"A\000"
 2101 0002 0000     		.space	2
 2102              	.LC1:
 2103 0004 4300     		.ascii	"C\000"
 2104 0006 0000     		.space	2
 2105              	.LC2:
 2106 0008 4200     		.ascii	"B\000"
 2107 000a 0000     		.space	2
 2108              	.LC3:
 2109 000c 41424300 		.ascii	"ABC\000"
 2110              	.LC4:
 2111 0010 4500     		.ascii	"E\000"
 2112 0012 0000     		.space	2
 2113              	.LC5:
 2114 0014 4400     		.ascii	"D\000"
 2115 0016 0000     		.space	2
 2116              	.LC6:
 2117 0018 41424344 		.ascii	"ABCDE\000"
 2117      4500
 2118 001e 0000     		.space	2
 2119              	.LC7:
 2120 0020 436F6E64 		.ascii	"CondVar, boost test\000"
 2120      5661722C 
 2120      20626F6F 
 2120      73742074 
 2120      65737400 
 2121              	.LC8:
 2122 0034 436F6E64 		.ascii	"CondVar, broadcast test\000"
 2122      5661722C 
 2122      2062726F 
 2122      61646361 
 2122      73742074 
 2123              	.LC9:
 2124 004c 436F6E64 		.ascii	"CondVar, signal test\000"
 2124      5661722C 
 2124      20736967 
 2124      6E616C20 
 2124      74657374 
 2125 0061 000000   		.space	3
 2126              	.LC10:
 2127 0064 4D757465 		.ascii	"Mutexes, status\000"
 2127      7865732C 
 2127      20737461 
 2127      74757300 
 2128              	.LC11:
ARM GAS  /tmp/ccaMc7pi.s 			page 39


 2129 0074 4D757465 		.ascii	"Mutexes, priority return\000"
 2129      7865732C 
 2129      20707269 
 2129      6F726974 
 2129      79207265 
 2130 008d 000000   		.space	3
 2131              	.LC12:
 2132 0090 4D757465 		.ascii	"Mutexes, priority inheritance, complex case\000"
 2132      7865732C 
 2132      20707269 
 2132      6F726974 
 2132      7920696E 
 2133              	.LC13:
 2134 00bc 4D757465 		.ascii	"Mutexes, priority inheritance, simple case\000"
 2134      7865732C 
 2134      20707269 
 2134      6F726974 
 2134      7920696E 
 2135 00e7 00       		.space	1
 2136              	.LC14:
 2137 00e8 4D757465 		.ascii	"Mutexes, priority enqueuing test\000"
 2137      7865732C 
 2137      20707269 
 2137      6F726974 
 2137      7920656E 
 2138 0109 000000   		.section	.rodata.patternmtx,"a",%progbits
 2139              		.align	2
 2140              		.type	patternmtx, %object
 2141              		.size	patternmtx, 36
 2142              	patternmtx:
 2143 0000 00000000 		.word	testmtx1
 2144 0004 00000000 		.word	testmtx2
 2145 0008 00000000 		.word	testmtx3
 2146 000c 00000000 		.word	testmtx4
 2147 0010 00000000 		.word	testmtx5
 2148 0014 00000000 		.word	testmtx6
 2149 0018 00000000 		.word	testmtx7
 2150 001c 00000000 		.word	testmtx8
 2151 0020 00000000 		.word	0
 2152              		.section	.data.c1,"aw",%progbits
 2153              		.align	2
 2154              		.set	.LANCHOR0,. + 0
 2155              		.type	c1, %object
 2156              		.size	c1, 8
 2157              	c1:
 2158 0000 00000000 		.word	c1
 2159 0004 00000000 		.word	c1
 2160              		.section	.rodata.testmtx1,"a",%progbits
 2161              		.align	2
 2162              		.type	testmtx1, %object
 2163              		.size	testmtx1, 16
 2164              	testmtx1:
 2165 0000 E8000000 		.word	.LC14
 2166 0004 00000000 		.word	mtx1_setup
 2167 0008 00000000 		.word	0
 2168 000c 00000000 		.word	mtx1_execute
 2169              		.section	.rodata.testmtx2,"a",%progbits
ARM GAS  /tmp/ccaMc7pi.s 			page 40


 2170              		.align	2
 2171              		.type	testmtx2, %object
 2172              		.size	testmtx2, 16
 2173              	testmtx2:
 2174 0000 BC000000 		.word	.LC13
 2175 0004 00000000 		.word	mtx2_setup
 2176 0008 00000000 		.word	0
 2177 000c 00000000 		.word	mtx2_execute
 2178              		.section	.rodata.testmtx3,"a",%progbits
 2179              		.align	2
 2180              		.type	testmtx3, %object
 2181              		.size	testmtx3, 16
 2182              	testmtx3:
 2183 0000 90000000 		.word	.LC12
 2184 0004 00000000 		.word	mtx3_setup
 2185 0008 00000000 		.word	0
 2186 000c 00000000 		.word	mtx3_execute
 2187              		.section	.rodata.testmtx4,"a",%progbits
 2188              		.align	2
 2189              		.type	testmtx4, %object
 2190              		.size	testmtx4, 16
 2191              	testmtx4:
 2192 0000 74000000 		.word	.LC11
 2193 0004 00000000 		.word	mtx4_setup
 2194 0008 00000000 		.word	0
 2195 000c 00000000 		.word	mtx4_execute
 2196              		.text
 2197              	.Letext0:
 2198              		.file 2 "/opt/paparazzi/arm-multilib/lib/gcc/arm-none-eabi/4.6.2/../../../../arm-none-eabi/include
 2199              		.file 3 "../../os/ports/GCC/ARMCMx/chtypes.h"
 2200              		.file 4 "../../os/kernel/include/chlists.h"
 2201              		.file 5 "../../os/kernel/include/chthreads.h"
 2202              		.file 6 "../../os/ports/GCC/ARMCMx/chcore_v7m.h"
 2203              		.file 7 "../../os/kernel/include/chvt.h"
 2204              		.file 8 "../../os/kernel/include/chschd.h"
 2205              		.file 9 "../../os/kernel/include/chmtx.h"
 2206              		.file 10 "../../os/kernel/include/chcond.h"
 2207              		.file 11 "../../test/test.h"