ARM GAS  /tmp/ccHMNvMF.s 			page 1


   1              		.syntax unified
   2              		.cpu cortex-m4
   3              		.fpu softvfp
   4              		.eabi_attribute 20, 1
   5              		.eabi_attribute 21, 1
   6              		.eabi_attribute 23, 3
   7              		.eabi_attribute 24, 1
   8              		.eabi_attribute 25, 1
   9              		.eabi_attribute 26, 1
  10              		.eabi_attribute 30, 2
  11              		.eabi_attribute 18, 4
  12              		.thumb
  13              		.file	"test.c"
  14              		.text
  15              	.Ltext0:
  16              		.cfi_sections	.debug_frame
  17              		.section	.text.tmr,"ax",%progbits
  18              		.align	2
  19              		.p2align 4,,15
  20              		.thumb
  21              		.thumb_func
  22              		.type	tmr, %function
  23              	tmr:
  24              	.LFB132:
  25              		.file 1 "../../test/test.c"
  26              		.loc 1 261 0
  27              		.cfi_startproc
  28              		@ args = 0, pretend = 0, frame = 0
  29              		@ frame_needed = 0, uses_anonymous_args = 0
  30              		@ link register save eliminated.
  31              	.LVL0:
  32              		.loc 1 264 0
  33 0000 40F20003 		movw	r3, #:lower16:.LANCHOR0
  34 0004 C0F20003 		movt	r3, #:upper16:.LANCHOR0
  35 0008 0122     		movs	r2, #1
  36 000a 1A70     		strb	r2, [r3, #0]
  37              		.loc 1 265 0
  38 000c 7047     		bx	lr
  39              		.cfi_endproc
  40              	.LFE132:
  41              		.size	tmr, .-tmr
  42              		.section	.text.print_line,"ax",%progbits
  43              		.align	2
  44              		.p2align 4,,15
  45              		.thumb
  46              		.thumb_func
  47              		.type	print_line, %function
  48              	print_line:
  49              	.LFB135:
  50              		.loc 1 300 0
  51              		.cfi_startproc
  52              		@ args = 0, pretend = 0, frame = 0
  53              		@ frame_needed = 0, uses_anonymous_args = 0
  54              	.LVL1:
  55 0000 38B5     		push	{r3, r4, r5, lr}
  56              	.LCFI0:
  57              		.cfi_def_cfa_offset 16
ARM GAS  /tmp/ccHMNvMF.s 			page 2


  58              		.cfi_offset 14, -4
  59              		.cfi_offset 5, -8
  60              		.cfi_offset 4, -12
  61              		.cfi_offset 3, -16
  62 0002 084D     		ldr	r5, .L6
  63              		.loc 1 300 0
  64 0004 4C24     		movs	r4, #76
  65              	.LVL2:
  66              	.L3:
  67              		.loc 1 304 0 discriminator 2
  68 0006 2868     		ldr	r0, [r5, #0]
  69 0008 0368     		ldr	r3, [r0, #0]
  70 000a 2D21     		movs	r1, #45
  71 000c 9B68     		ldr	r3, [r3, #8]
  72 000e 9847     		blx	r3
  73              		.loc 1 303 0 discriminator 2
  74 0010 013C     		subs	r4, r4, #1
  75 0012 F8D1     		bne	.L3
  76              		.loc 1 305 0
  77 0014 034B     		ldr	r3, .L6
  78 0016 0449     		ldr	r1, .L6+4
  79 0018 1868     		ldr	r0, [r3, #0]
  80 001a 0368     		ldr	r3, [r0, #0]
  81 001c 0222     		movs	r2, #2
  82 001e 1B68     		ldr	r3, [r3, #0]
  83 0020 9847     		blx	r3
  84              		.loc 1 306 0
  85 0022 38BD     		pop	{r3, r4, r5, pc}
  86              	.L7:
  87              		.align	2
  88              	.L6:
  89 0024 00000000 		.word	.LANCHOR1
  90 0028 00000000 		.word	.LC0
  91              		.cfi_endproc
  92              	.LFE135:
  93              		.size	print_line, .-print_line
  94 002c AFF30080 		.section	.text.test_printn,"ax",%progbits
  95              		.align	2
  96              		.p2align 4,,15
  97              		.global	test_printn
  98              		.thumb
  99              		.thumb_func
 100              		.type	test_printn, %function
 101              	test_printn:
 102              	.LFB118:
 103              		.loc 1 91 0
 104              		.cfi_startproc
 105              		@ args = 0, pretend = 0, frame = 16
 106              		@ frame_needed = 0, uses_anonymous_args = 0
 107              	.LVL3:
 108 0000 70B5     		push	{r4, r5, r6, lr}
 109              	.LCFI1:
 110              		.cfi_def_cfa_offset 16
 111              		.cfi_offset 14, -4
 112              		.cfi_offset 6, -8
 113              		.cfi_offset 5, -12
 114              		.cfi_offset 4, -16
ARM GAS  /tmp/ccHMNvMF.s 			page 3


 115 0002 84B0     		sub	sp, sp, #16
 116              	.LCFI2:
 117              		.cfi_def_cfa_offset 32
 118              		.loc 1 94 0
 119 0004 0028     		cmp	r0, #0
 120 0006 23D0     		beq	.L14
 121              		.loc 1 99 0
 122 0008 4CF6CD42 		movw	r2, #52429
 123              	.LBB24:
 124              	.LBB25:
 125              		.loc 1 97 0
 126 000c 6D46     		mov	r5, sp
 127              	.LBE25:
 128              	.LBE24:
 129              		.loc 1 94 0
 130 000e 6C46     		mov	r4, sp
 131              		.loc 1 99 0
 132 0010 CCF6CC42 		movt	r2, 52428
 133              	.LVL4:
 134              	.L11:
 135 0014 A2FB0013 		umull	r1, r3, r2, r0
 136 0018 DB08     		lsrs	r3, r3, #3
 137 001a 03EB8301 		add	r1, r3, r3, lsl #2
 138 001e A0EB4101 		sub	r1, r0, r1, lsl #1
 139 0022 3031     		adds	r1, r1, #48
 140 0024 C9B2     		uxtb	r1, r1
 141              		.loc 1 98 0
 142 0026 1846     		mov	r0, r3
 143              		.loc 1 99 0
 144 0028 04F8011B 		strb	r1, [r4], #1
 145              	.LVL5:
 146              		.loc 1 98 0
 147 002c 002B     		cmp	r3, #0
 148 002e F1D1     		bne	.L11
 149              		.loc 1 100 0
 150 0030 AC42     		cmp	r4, r5
 151 0032 0BD9     		bls	.L8
 152 0034 0A4E     		ldr	r6, .L16
 153              		.loc 1 91 0
 154 0036 0135     		adds	r5, r5, #1
 155 0038 02E0     		b	.L12
 156              	.LVL6:
 157              	.L15:
 158              		.loc 1 100 0
 159 003a 14F8021C 		ldrb	r1, [r4, #-2]	@ zero_extendqisi2
 160 003e 013C     		subs	r4, r4, #1
 161              	.L12:
 162              		.loc 1 101 0
 163 0040 3068     		ldr	r0, [r6, #0]
 164 0042 0368     		ldr	r3, [r0, #0]
 165 0044 9B68     		ldr	r3, [r3, #8]
 166 0046 9847     		blx	r3
 167              		.loc 1 100 0
 168 0048 AC42     		cmp	r4, r5
 169 004a F6D1     		bne	.L15
 170              	.L8:
 171              		.loc 1 103 0
ARM GAS  /tmp/ccHMNvMF.s 			page 4


 172 004c 04B0     		add	sp, sp, #16
 173 004e 70BD     		pop	{r4, r5, r6, pc}
 174              	.LVL7:
 175              	.L14:
 176              	.LBB27:
 177              	.LBB26:
 178              		.loc 1 95 0
 179 0050 034B     		ldr	r3, .L16
 180 0052 1868     		ldr	r0, [r3, #0]
 181              	.LVL8:
 182 0054 0368     		ldr	r3, [r0, #0]
 183 0056 3021     		movs	r1, #48
 184 0058 9B68     		ldr	r3, [r3, #8]
 185 005a 9847     		blx	r3
 186 005c F6E7     		b	.L8
 187              	.L17:
 188 005e 00BF     		.align	2
 189              	.L16:
 190 0060 00000000 		.word	.LANCHOR1
 191              	.LBE26:
 192              	.LBE27:
 193              		.cfi_endproc
 194              	.LFE118:
 195              		.size	test_printn, .-test_printn
 196 0064 AFF30080 		.section	.text.test_print,"ax",%progbits
 196      AFF30080 
 196      AFF30080 
 197              		.align	2
 198              		.p2align 4,,15
 199              		.global	test_print
 200              		.thumb
 201              		.thumb_func
 202              		.type	test_print, %function
 203              	test_print:
 204              	.LFB119:
 205              		.loc 1 110 0
 206              		.cfi_startproc
 207              		@ args = 0, pretend = 0, frame = 0
 208              		@ frame_needed = 0, uses_anonymous_args = 0
 209              	.LVL9:
 210 0000 38B5     		push	{r3, r4, r5, lr}
 211              	.LCFI3:
 212              		.cfi_def_cfa_offset 16
 213              		.cfi_offset 14, -4
 214              		.cfi_offset 5, -8
 215              		.cfi_offset 4, -12
 216              		.cfi_offset 3, -16
 217              		.loc 1 112 0
 218 0002 0178     		ldrb	r1, [r0, #0]	@ zero_extendqisi2
 219 0004 49B1     		cbz	r1, .L18
 220 0006 054D     		ldr	r5, .L22
 221 0008 0446     		mov	r4, r0
 222              	.LVL10:
 223              	.L20:
 224              		.loc 1 113 0
 225 000a 2868     		ldr	r0, [r5, #0]
 226 000c 0368     		ldr	r3, [r0, #0]
ARM GAS  /tmp/ccHMNvMF.s 			page 5


 227 000e 9B68     		ldr	r3, [r3, #8]
 228 0010 9847     		blx	r3
 229              		.loc 1 112 0
 230 0012 14F8011F 		ldrb	r1, [r4, #1]!	@ zero_extendqisi2
 231 0016 0029     		cmp	r1, #0
 232 0018 F7D1     		bne	.L20
 233              	.L18:
 234 001a 38BD     		pop	{r3, r4, r5, pc}
 235              	.L23:
 236              		.align	2
 237              	.L22:
 238 001c 00000000 		.word	.LANCHOR1
 239              		.cfi_endproc
 240              	.LFE119:
 241              		.size	test_print, .-test_print
 242              		.section	.text.test_println,"ax",%progbits
 243              		.align	2
 244              		.p2align 4,,15
 245              		.global	test_println
 246              		.thumb
 247              		.thumb_func
 248              		.type	test_println, %function
 249              	test_println:
 250              	.LFB120:
 251              		.loc 1 121 0
 252              		.cfi_startproc
 253              		@ args = 0, pretend = 0, frame = 0
 254              		@ frame_needed = 0, uses_anonymous_args = 0
 255              	.LVL11:
 256 0000 08B5     		push	{r3, lr}
 257              	.LCFI4:
 258              		.cfi_def_cfa_offset 8
 259              		.cfi_offset 14, -4
 260              		.cfi_offset 3, -8
 261              		.loc 1 123 0
 262 0002 FFF7FEFF 		bl	test_print
 263              	.LVL12:
 264              		.loc 1 124 0
 265 0006 40F20003 		movw	r3, #:lower16:.LANCHOR1
 266 000a C0F20003 		movt	r3, #:upper16:.LANCHOR1
 267 000e 40F20001 		movw	r1, #:lower16:.LC0
 268 0012 1868     		ldr	r0, [r3, #0]
 269 0014 0368     		ldr	r3, [r0, #0]
 270 0016 C0F20001 		movt	r1, #:upper16:.LC0
 271 001a 1B68     		ldr	r3, [r3, #0]
 272 001c 0222     		movs	r2, #2
 273 001e 9847     		blx	r3
 274              		.loc 1 125 0
 275 0020 08BD     		pop	{r3, pc}
 276              		.cfi_endproc
 277              	.LFE120:
 278              		.size	test_println, .-test_println
 279 0022 00BFAFF3 		.section	.text.test_emit_token,"ax",%progbits
 279      0080AFF3 
 279      0080AFF3 
 279      0080
 280              		.align	2
ARM GAS  /tmp/ccHMNvMF.s 			page 6


 281              		.p2align 4,,15
 282              		.global	test_emit_token
 283              		.thumb
 284              		.thumb_func
 285              		.type	test_emit_token, %function
 286              	test_emit_token:
 287              	.LFB123:
 288              		.loc 1 147 0
 289              		.cfi_startproc
 290              		@ args = 0, pretend = 0, frame = 0
 291              		@ frame_needed = 0, uses_anonymous_args = 0
 292              		@ link register save eliminated.
 293              	.LVL13:
 294              	.LBB28:
 295              		.loc 1 149 0
 296 0000 2023     		movs	r3, #32
 297              	.LVL14:
 298              	@ 149 "../../test/test.c" 1
 299 0002 83F31188 		msr     BASEPRI, r3
 300              	@ 0 "" 2
 301              	.LVL15:
 302              		.thumb
 303              	.LBE28:
 304              		.loc 1 150 0
 305 0006 40F20002 		movw	r2, #:lower16:.LANCHOR2
 306 000a C0F20002 		movt	r2, #:upper16:.LANCHOR2
 307              	.LBB29:
 308              		.loc 1 151 0
 309 000e 0023     		movs	r3, #0
 310              	.LVL16:
 311              	.LBE29:
 312              		.loc 1 150 0
 313 0010 1168     		ldr	r1, [r2, #0]
 314 0012 01F8010B 		strb	r0, [r1], #1
 315 0016 1160     		str	r1, [r2, #0]
 316              	.LBB30:
 317              		.loc 1 151 0
 318              	@ 151 "../../test/test.c" 1
 319 0018 83F31188 		msr     BASEPRI, r3
 320              	@ 0 "" 2
 321              	.LVL17:
 322              		.thumb
 323              	.LBE30:
 324              		.loc 1 152 0
 325 001c 7047     		bx	lr
 326              		.cfi_endproc
 327              	.LFE123:
 328              		.size	test_emit_token, .-test_emit_token
 329 001e 00BF     		.section	.text._test_fail,"ax",%progbits
 330              		.align	2
 331              		.p2align 4,,15
 332              		.global	_test_fail
 333              		.thumb
 334              		.thumb_func
 335              		.type	_test_fail, %function
 336              	_test_fail:
 337              	.LFB124:
ARM GAS  /tmp/ccHMNvMF.s 			page 7


 338              		.loc 1 157 0
 339              		.cfi_startproc
 340              		@ args = 0, pretend = 0, frame = 0
 341              		@ frame_needed = 0, uses_anonymous_args = 0
 342              		@ link register save eliminated.
 343              	.LVL18:
 344 0000 10B4     		push	{r4}
 345              	.LCFI5:
 346              		.cfi_def_cfa_offset 4
 347              		.cfi_offset 4, -4
 348              		.loc 1 159 0
 349 0002 40F20001 		movw	r1, #:lower16:.LANCHOR3
 350              		.loc 1 160 0
 351 0006 40F20002 		movw	r2, #:lower16:.LANCHOR4
 352              		.loc 1 161 0
 353 000a 40F20004 		movw	r4, #:lower16:.LANCHOR5
 354              		.loc 1 159 0
 355 000e C0F20001 		movt	r1, #:upper16:.LANCHOR3
 356              		.loc 1 160 0
 357 0012 C0F20002 		movt	r2, #:upper16:.LANCHOR4
 358              		.loc 1 161 0
 359 0016 C0F20004 		movt	r4, #:upper16:.LANCHOR5
 360              		.loc 1 159 0
 361 001a 0123     		movs	r3, #1
 362              		.loc 1 161 0
 363 001c 2060     		str	r0, [r4, #0]
 364              		.loc 1 159 0
 365 001e 0B70     		strb	r3, [r1, #0]
 366              		.loc 1 160 0
 367 0020 1370     		strb	r3, [r2, #0]
 368              		.loc 1 163 0
 369 0022 1846     		mov	r0, r3
 370              	.LVL19:
 371 0024 10BC     		pop	{r4}
 372 0026 7047     		bx	lr
 373              		.cfi_endproc
 374              	.LFE124:
 375              		.size	_test_fail, .-_test_fail
 376 0028 AFF30080 		.section	.text._test_assert,"ax",%progbits
 376      AFF30080 
 377              		.align	2
 378              		.p2align 4,,15
 379              		.global	_test_assert
 380              		.thumb
 381              		.thumb_func
 382              		.type	_test_assert, %function
 383              	_test_assert:
 384              	.LFB125:
 385              		.loc 1 165 0
 386              		.cfi_startproc
 387              		@ args = 0, pretend = 0, frame = 0
 388              		@ frame_needed = 0, uses_anonymous_args = 0
 389              		@ link register save eliminated.
 390              	.LVL20:
 391              		.loc 1 167 0
 392 0000 41B9     		cbnz	r1, .L29
 393              	.LVL21:
ARM GAS  /tmp/ccHMNvMF.s 			page 8


 394              	.LBB31:
 395              	.LBB32:
 396              		.loc 1 159 0
 397 0002 054A     		ldr	r2, .L30
 398 0004 0123     		movs	r3, #1
 399 0006 1370     		strb	r3, [r2, #0]
 400              		.loc 1 160 0
 401 0008 044A     		ldr	r2, .L30+4
 402 000a 1370     		strb	r3, [r2, #0]
 403              		.loc 1 161 0
 404 000c 044A     		ldr	r2, .L30+8
 405 000e 1060     		str	r0, [r2, #0]
 406              	.LBE32:
 407              	.LBE31:
 408              		.loc 1 168 0
 409 0010 1846     		mov	r0, r3
 410              	.LVL22:
 411 0012 7047     		bx	lr
 412              	.LVL23:
 413              	.L29:
 414              		.loc 1 169 0
 415 0014 0020     		movs	r0, #0
 416              	.LVL24:
 417              		.loc 1 170 0
 418 0016 7047     		bx	lr
 419              	.L31:
 420              		.align	2
 421              	.L30:
 422 0018 00000000 		.word	.LANCHOR3
 423 001c 00000000 		.word	.LANCHOR4
 424 0020 00000000 		.word	.LANCHOR5
 425              		.cfi_endproc
 426              	.LFE125:
 427              		.size	_test_assert, .-_test_assert
 428 0024 AFF30080 		.section	.text._test_assert_sequence,"ax",%progbits
 428      AFF30080 
 428      AFF30080 
 429              		.align	2
 430              		.p2align 4,,15
 431              		.global	_test_assert_sequence
 432              		.thumb
 433              		.thumb_func
 434              		.type	_test_assert_sequence, %function
 435              	_test_assert_sequence:
 436              	.LFB126:
 437              		.loc 1 172 0
 438              		.cfi_startproc
 439              		@ args = 0, pretend = 0, frame = 0
 440              		@ frame_needed = 0, uses_anonymous_args = 0
 441              		@ link register save eliminated.
 442              	.LVL25:
 443 0000 F0B4     		push	{r4, r5, r6, r7}
 444              	.LCFI6:
 445              		.cfi_def_cfa_offset 16
 446              		.cfi_offset 7, -4
 447              		.cfi_offset 6, -8
 448              		.cfi_offset 5, -12
ARM GAS  /tmp/ccHMNvMF.s 			page 9


 449              		.cfi_offset 4, -16
 450              		.loc 1 181 0
 451 0002 0F4A     		ldr	r2, .L39
 452              		.loc 1 173 0
 453 0004 0F4C     		ldr	r4, .L39+4
 454              		.loc 1 181 0
 455 0006 1368     		ldr	r3, [r2, #0]
 456              		.loc 1 173 0
 457 0008 2546     		mov	r5, r4
 458              		.loc 1 174 0
 459 000a 04E0     		b	.L33
 460              	.LVL26:
 461              	.L35:
 462              		.loc 1 175 0
 463 000c 11F8017B 		ldrb	r7, [r1], #1	@ zero_extendqisi2
 464              	.LVL27:
 465 0010 3678     		ldrb	r6, [r6, #0]	@ zero_extendqisi2
 466 0012 BE42     		cmp	r6, r7
 467 0014 09D1     		bne	.L38
 468              	.L33:
 469              		.loc 1 174 0 discriminator 1
 470 0016 AB42     		cmp	r3, r5
 471              		.loc 1 176 0 discriminator 1
 472 0018 2E46     		mov	r6, r5
 473              		.loc 1 174 0 discriminator 1
 474 001a 05F10105 		add	r5, r5, #1
 475 001e F5D8     		bhi	.L35
 476              		.loc 1 178 0
 477 0020 0B78     		ldrb	r3, [r1, #0]	@ zero_extendqisi2
 478 0022 13B9     		cbnz	r3, .L38
 479              	.LBB33:
 480              	.LBB34:
 481              		.loc 1 132 0
 482 0024 1460     		str	r4, [r2, #0]
 483              	.LBE34:
 484              	.LBE33:
 485              		.loc 1 181 0
 486 0026 1846     		mov	r0, r3
 487              	.LVL28:
 488 0028 07E0     		b	.L34
 489              	.LVL29:
 490              	.L38:
 491              	.LBB35:
 492              	.LBB36:
 493              		.loc 1 159 0
 494 002a 074A     		ldr	r2, .L39+8
 495 002c 0123     		movs	r3, #1
 496 002e 1370     		strb	r3, [r2, #0]
 497              		.loc 1 160 0
 498 0030 064A     		ldr	r2, .L39+12
 499 0032 1370     		strb	r3, [r2, #0]
 500              		.loc 1 161 0
 501 0034 064A     		ldr	r2, .L39+16
 502 0036 1060     		str	r0, [r2, #0]
 503              	.LBE36:
 504              	.LBE35:
 505              		.loc 1 179 0
ARM GAS  /tmp/ccHMNvMF.s 			page 10


 506 0038 1846     		mov	r0, r3
 507              	.LVL30:
 508              	.L34:
 509              		.loc 1 182 0
 510 003a F0BC     		pop	{r4, r5, r6, r7}
 511 003c 7047     		bx	lr
 512              	.L40:
 513 003e 00BF     		.align	2
 514              	.L39:
 515 0040 00000000 		.word	.LANCHOR2
 516 0044 00000000 		.word	.LANCHOR6
 517 0048 00000000 		.word	.LANCHOR3
 518 004c 00000000 		.word	.LANCHOR4
 519 0050 00000000 		.word	.LANCHOR5
 520              		.cfi_endproc
 521              	.LFE126:
 522              		.size	_test_assert_sequence, .-_test_assert_sequence
 523 0054 AFF30080 		.section	.text._test_assert_time_window,"ax",%progbits
 523      AFF30080 
 523      AFF30080 
 524              		.align	2
 525              		.p2align 4,,15
 526              		.global	_test_assert_time_window
 527              		.thumb
 528              		.thumb_func
 529              		.type	_test_assert_time_window, %function
 530              	_test_assert_time_window:
 531              	.LFB127:
 532              		.loc 1 184 0
 533              		.cfi_startproc
 534              		@ args = 0, pretend = 0, frame = 0
 535              		@ frame_needed = 0, uses_anonymous_args = 0
 536              	.LVL31:
 537 0000 10B5     		push	{r4, lr}
 538              	.LCFI7:
 539              		.cfi_def_cfa_offset 8
 540              		.cfi_offset 14, -4
 541              		.cfi_offset 4, -8
 542              		.loc 1 184 0
 543 0002 0446     		mov	r4, r0
 544              		.loc 1 186 0
 545 0004 0846     		mov	r0, r1
 546              	.LVL32:
 547 0006 1146     		mov	r1, r2
 548              	.LVL33:
 549 0008 FFF7FEFF 		bl	chTimeIsWithin
 550              	.LVL34:
 551              	.LBB37:
 552              	.LBB38:
 553              		.loc 1 167 0
 554 000c 38B9     		cbnz	r0, .L43
 555              	.LVL35:
 556              	.LBB39:
 557              	.LBB40:
 558              		.loc 1 159 0
 559 000e 054B     		ldr	r3, .L44
 560 0010 0120     		movs	r0, #1
ARM GAS  /tmp/ccHMNvMF.s 			page 11


 561              	.LVL36:
 562 0012 1870     		strb	r0, [r3, #0]
 563              		.loc 1 160 0
 564 0014 044B     		ldr	r3, .L44+4
 565 0016 1870     		strb	r0, [r3, #0]
 566              		.loc 1 161 0
 567 0018 044B     		ldr	r3, .L44+8
 568 001a 1C60     		str	r4, [r3, #0]
 569 001c 10BD     		pop	{r4, pc}
 570              	.LVL37:
 571              	.L43:
 572              	.LBE40:
 573              	.LBE39:
 574              		.loc 1 169 0
 575 001e 0020     		movs	r0, #0
 576              	.LVL38:
 577              	.LBE38:
 578              	.LBE37:
 579              		.loc 1 187 0
 580 0020 10BD     		pop	{r4, pc}
 581              	.L45:
 582 0022 00BF     		.align	2
 583              	.L44:
 584 0024 00000000 		.word	.LANCHOR3
 585 0028 00000000 		.word	.LANCHOR4
 586 002c 00000000 		.word	.LANCHOR5
 587              		.cfi_endproc
 588              	.LFE127:
 589              		.size	_test_assert_time_window, .-_test_assert_time_window
 590              		.section	.text.test_terminate_threads,"ax",%progbits
 591              		.align	2
 592              		.p2align 4,,15
 593              		.global	test_terminate_threads
 594              		.thumb
 595              		.thumb_func
 596              		.type	test_terminate_threads, %function
 597              	test_terminate_threads:
 598              	.LFB128:
 599              		.loc 1 196 0
 600              		.cfi_startproc
 601              		@ args = 0, pretend = 0, frame = 0
 602              		@ frame_needed = 0, uses_anonymous_args = 0
 603              	.LVL39:
 604 0000 38B5     		push	{r3, r4, r5, lr}
 605              	.LCFI8:
 606              		.cfi_def_cfa_offset 16
 607              		.cfi_offset 14, -4
 608              		.cfi_offset 5, -8
 609              		.cfi_offset 4, -12
 610              		.cfi_offset 3, -16
 611              		.loc 1 196 0
 612 0002 064C     		ldr	r4, .L50
 613 0004 04F11405 		add	r5, r4, #20
 614              	.LVL40:
 615              	.L48:
 616              		.loc 1 200 0
 617 0008 54F8043F 		ldr	r3, [r4, #4]!
ARM GAS  /tmp/ccHMNvMF.s 			page 12


 618              		.loc 1 201 0
 619 000c 1846     		mov	r0, r3
 620              		.loc 1 200 0
 621 000e 0BB1     		cbz	r3, .L47
 622              		.loc 1 201 0
 623 0010 FFF7FEFF 		bl	chThdTerminate
 624              	.L47:
 625              		.loc 1 199 0
 626 0014 AC42     		cmp	r4, r5
 627 0016 F7D1     		bne	.L48
 628              		.loc 1 202 0
 629 0018 38BD     		pop	{r3, r4, r5, pc}
 630              	.L51:
 631 001a 00BF     		.align	2
 632              	.L50:
 633 001c FCFFFFFF 		.word	.LANCHOR7-4
 634              		.cfi_endproc
 635              	.LFE128:
 636              		.size	test_terminate_threads, .-test_terminate_threads
 637              		.section	.text.test_wait_threads,"ax",%progbits
 638              		.align	2
 639              		.p2align 4,,15
 640              		.global	test_wait_threads
 641              		.thumb
 642              		.thumb_func
 643              		.type	test_wait_threads, %function
 644              	test_wait_threads:
 645              	.LFB129:
 646              		.loc 1 207 0
 647              		.cfi_startproc
 648              		@ args = 0, pretend = 0, frame = 0
 649              		@ frame_needed = 0, uses_anonymous_args = 0
 650              	.LVL41:
 651 0000 70B5     		push	{r4, r5, r6, lr}
 652              	.LCFI9:
 653              		.cfi_def_cfa_offset 16
 654              		.cfi_offset 14, -4
 655              		.cfi_offset 6, -8
 656              		.cfi_offset 5, -12
 657              		.cfi_offset 4, -16
 658              		.loc 1 207 0
 659 0002 074C     		ldr	r4, .L56
 660              		.loc 1 213 0
 661 0004 0026     		movs	r6, #0
 662              		.loc 1 207 0
 663 0006 04F11405 		add	r5, r4, #20
 664              	.LVL42:
 665              	.L54:
 666              		.loc 1 211 0
 667 000a 54F8043B 		ldr	r3, [r4], #4
 668              		.loc 1 212 0
 669 000e 1846     		mov	r0, r3
 670              		.loc 1 211 0
 671 0010 1BB1     		cbz	r3, .L53
 672              		.loc 1 212 0
 673 0012 FFF7FEFF 		bl	chThdWait
 674              		.loc 1 213 0
ARM GAS  /tmp/ccHMNvMF.s 			page 13


 675 0016 44F8046C 		str	r6, [r4, #-4]
 676              	.L53:
 677              		.loc 1 210 0
 678 001a AC42     		cmp	r4, r5
 679 001c F5D1     		bne	.L54
 680              		.loc 1 215 0
 681 001e 70BD     		pop	{r4, r5, r6, pc}
 682              	.L57:
 683              		.align	2
 684              	.L56:
 685 0020 00000000 		.word	.LANCHOR7
 686              		.cfi_endproc
 687              	.LFE129:
 688              		.size	test_wait_threads, .-test_wait_threads
 689 0024 AFF30080 		.section	.text.test_cpu_pulse,"ax",%progbits
 689      AFF30080 
 689      AFF30080 
 690              		.align	2
 691              		.p2align 4,,15
 692              		.global	test_cpu_pulse
 693              		.thumb
 694              		.thumb_func
 695              		.type	test_cpu_pulse, %function
 696              	test_cpu_pulse:
 697              	.LFB130:
 698              		.loc 1 224 0
 699              		.cfi_startproc
 700              		@ args = 0, pretend = 0, frame = 0
 701              		@ frame_needed = 0, uses_anonymous_args = 0
 702              		@ link register save eliminated.
 703              	.LVL43:
 704              		.loc 1 227 0
 705 0000 154B     		ldr	r3, .L64
 706 0002 9A69     		ldr	r2, [r3, #24]
 707              		.loc 1 228 0
 708 0004 4FF47A71 		mov	r1, #1000
 709              		.loc 1 224 0
 710 0008 30B4     		push	{r4, r5}
 711              	.LCFI10:
 712              		.cfi_def_cfa_offset 8
 713              		.cfi_offset 5, -4
 714              		.cfi_offset 4, -8
 715              		.loc 1 228 0
 716 000a 01FB00F0 		mul	r0, r1, r0
 717              	.LVL44:
 718              		.loc 1 227 0
 719 000e 136A     		ldr	r3, [r2, #32]
 720              	.LVL45:
 721              		.loc 1 228 0
 722 0010 44F6D354 		movw	r4, #19923
 723 0014 0138     		subs	r0, r0, #1
 724 0016 C1F26204 		movt	r4, 4194
 725 001a 5D1C     		adds	r5, r3, #1
 726 001c A4FB0010 		umull	r1, r0, r4, r0
 727 0020 05EB9010 		add	r0, r5, r0, lsr #6
 728              	.LVL46:
 729              	.L61:
ARM GAS  /tmp/ccHMNvMF.s 			page 14


 730              		.loc 1 235 0
 731 0024 8342     		cmp	r3, r0
 732              		.loc 1 230 0
 733 0026 116A     		ldr	r1, [r2, #32]
 734              	.LVL47:
 735              		.loc 1 235 0
 736 0028 0AD2     		bcs	.L59
 737              		.loc 1 235 0 is_stmt 0 discriminator 1
 738 002a 8142     		cmp	r1, r0
 739 002c 2CBF     		ite	cs
 740 002e 0024     		movcs	r4, #0
 741 0030 0124     		movcc	r4, #1
 742 0032 9942     		cmp	r1, r3
 743 0034 38BF     		it	cc
 744 0036 0024     		movcc	r4, #0
 745              		.loc 1 236 0 is_stmt 1 discriminator 1
 746 0038 002C     		cmp	r4, #0
 747 003a F3D1     		bne	.L61
 748              	.L63:
 749              		.loc 1 237 0
 750 003c 30BC     		pop	{r4, r5}
 751 003e 7047     		bx	lr
 752              	.L59:
 753              		.loc 1 236 0 discriminator 2
 754 0040 9942     		cmp	r1, r3
 755 0042 34BF     		ite	cc
 756 0044 0024     		movcc	r4, #0
 757 0046 0124     		movcs	r4, #1
 758              		.loc 1 235 0 discriminator 2
 759 0048 8142     		cmp	r1, r0
 760 004a 38BF     		it	cc
 761 004c 44F00104 		orrcc	r4, r4, #1
 762              		.loc 1 236 0 discriminator 2
 763 0050 002C     		cmp	r4, #0
 764 0052 E7D1     		bne	.L61
 765 0054 F2E7     		b	.L63
 766              	.L65:
 767 0056 00BF     		.align	2
 768              	.L64:
 769 0058 00000000 		.word	rlist
 770              		.cfi_endproc
 771              	.LFE130:
 772              		.size	test_cpu_pulse, .-test_cpu_pulse
 773 005c AFF30080 		.section	.text.test_wait_tick,"ax",%progbits
 774              		.align	2
 775              		.p2align 4,,15
 776              		.global	test_wait_tick
 777              		.thumb
 778              		.thumb_func
 779              		.type	test_wait_tick, %function
 780              	test_wait_tick:
 781              	.LFB131:
 782              		.loc 1 245 0
 783              		.cfi_startproc
 784              		@ args = 0, pretend = 0, frame = 0
 785              		@ frame_needed = 0, uses_anonymous_args = 0
 786 0000 08B5     		push	{r3, lr}
ARM GAS  /tmp/ccHMNvMF.s 			page 15


 787              	.LCFI11:
 788              		.cfi_def_cfa_offset 8
 789              		.cfi_offset 14, -4
 790              		.cfi_offset 3, -8
 791              		.loc 1 247 0
 792 0002 0120     		movs	r0, #1
 793 0004 FFF7FEFF 		bl	chThdSleep
 794              		.loc 1 248 0
 795 0008 40F20003 		movw	r3, #:lower16:vtlist
 796 000c C0F20003 		movt	r3, #:upper16:vtlist
 797 0010 D868     		ldr	r0, [r3, #12]
 798              		.loc 1 249 0
 799 0012 08BD     		pop	{r3, pc}
 800              		.cfi_endproc
 801              	.LFE131:
 802              		.size	test_wait_tick, .-test_wait_tick
 803 0014 AFF30080 		.section	.text.test_start_timer,"ax",%progbits
 803      AFF30080 
 803      AFF30080 
 804              		.align	2
 805              		.p2align 4,,15
 806              		.global	test_start_timer
 807              		.thumb
 808              		.thumb_func
 809              		.type	test_start_timer, %function
 810              	test_start_timer:
 811              	.LFB133:
 812              		.loc 1 272 0
 813              		.cfi_startproc
 814              		@ args = 0, pretend = 0, frame = 0
 815              		@ frame_needed = 0, uses_anonymous_args = 0
 816              	.LVL48:
 817              		.loc 1 275 0
 818 0000 40F20003 		movw	r3, #:lower16:.LANCHOR0
 819 0004 C0F20003 		movt	r3, #:upper16:.LANCHOR0
 820              		.loc 1 272 0
 821 0008 10B5     		push	{r4, lr}
 822              	.LCFI12:
 823              		.cfi_def_cfa_offset 8
 824              		.cfi_offset 14, -4
 825              		.cfi_offset 4, -8
 826              		.loc 1 275 0
 827 000a 0024     		movs	r4, #0
 828 000c 1C70     		strb	r4, [r3, #0]
 829              	.LVL49:
 830              	.LBB41:
 831              		.loc 1 276 0
 832 000e 2023     		movs	r3, #32
 833              	.LVL50:
 834              	@ 276 "../../test/test.c" 1
 835 0010 83F31188 		msr     BASEPRI, r3
 836              	@ 0 "" 2
 837              	.LVL51:
 838              		.thumb
 839              	.LBE41:
 840              		.loc 1 274 0
 841 0014 4FF47A71 		mov	r1, #1000
ARM GAS  /tmp/ccHMNvMF.s 			page 16


 842 0018 01FB00F1 		mul	r1, r1, r0
 843 001c 44F6D353 		movw	r3, #19923
 844              	.LVL52:
 845 0020 0139     		subs	r1, r1, #1
 846 0022 C1F26203 		movt	r3, 4194
 847 0026 A3FB0121 		umull	r2, r1, r3, r1
 848 002a 8909     		lsrs	r1, r1, #6
 849              		.loc 1 276 0
 850 002c 40F20000 		movw	r0, #:lower16:.LANCHOR8
 851              	.LVL53:
 852 0030 40F20002 		movw	r2, #:lower16:tmr
 853 0034 2346     		mov	r3, r4
 854 0036 C0F20000 		movt	r0, #:upper16:.LANCHOR8
 855 003a 0131     		adds	r1, r1, #1
 856 003c C0F20002 		movt	r2, #:upper16:tmr
 857 0040 FFF7FEFF 		bl	chVTSetI
 858              	.LBB42:
 859 0044 2346     		mov	r3, r4
 860              	.LVL54:
 861              	@ 276 "../../test/test.c" 1
 862 0046 83F31188 		msr     BASEPRI, r3
 863              	@ 0 "" 2
 864              	.LVL55:
 865              		.thumb
 866              	.LBE42:
 867              		.loc 1 277 0
 868 004a 10BD     		pop	{r4, pc}
 869              		.cfi_endproc
 870              	.LFE133:
 871              		.size	test_start_timer, .-test_start_timer
 872 004c AFF30080 		.section	.text.TestThread,"ax",%progbits
 873              		.align	2
 874              		.p2align 4,,15
 875              		.global	TestThread
 876              		.thumb
 877              		.thumb_func
 878              		.type	TestThread, %function
 879              	TestThread:
 880              	.LFB136:
 881              		.loc 1 314 0
 882              		.cfi_startproc
 883              		@ args = 0, pretend = 0, frame = 8
 884              		@ frame_needed = 0, uses_anonymous_args = 0
 885              	.LVL56:
 886 0000 2DE9F04F 		push	{r4, r5, r6, r7, r8, r9, sl, fp, lr}
 887              	.LCFI13:
 888              		.cfi_def_cfa_offset 36
 889              		.cfi_offset 14, -4
 890              		.cfi_offset 11, -8
 891              		.cfi_offset 10, -12
 892              		.cfi_offset 9, -16
 893              		.cfi_offset 8, -20
 894              		.cfi_offset 7, -24
 895              		.cfi_offset 6, -28
 896              		.cfi_offset 5, -32
 897              		.cfi_offset 4, -36
 898              		.loc 1 317 0
ARM GAS  /tmp/ccHMNvMF.s 			page 17


 899 0004 694E     		ldr	r6, .L85
 900              		.loc 1 349 0
 901 0006 DFF838B2 		ldr	fp, .L85+148
 902              		.loc 1 317 0
 903 000a 3060     		str	r0, [r6, #0]
 904              		.loc 1 314 0
 905 000c 83B0     		sub	sp, sp, #12
 906              	.LCFI14:
 907              		.cfi_def_cfa_offset 48
 908              		.loc 1 318 0
 909 000e 6848     		ldr	r0, .L85+4
 910              	.LVL57:
 911              	.LBB43:
 912              	.LBB44:
 913              	.LBB45:
 914              	.LBB46:
 915              		.loc 1 132 0
 916 0010 684D     		ldr	r5, .L85+8
 917 0012 DFF81492 		ldr	r9, .L85+124
 918              	.LBE46:
 919              	.LBE45:
 920              	.LBE44:
 921              	.LBE43:
 922              		.loc 1 349 0
 923 0016 684F     		ldr	r7, .L85+12
 924              		.loc 1 318 0
 925 0018 FFF7FEFF 		bl	test_println
 926              	.LVL58:
 927              		.loc 1 319 0
 928 001c 6748     		ldr	r0, .L85+16
 929 001e FFF7FEFF 		bl	test_println
 930              		.loc 1 320 0
 931 0022 6748     		ldr	r0, .L85+20
 932 0024 FFF7FEFF 		bl	test_println
 933              		.loc 1 321 0
 934 0028 6648     		ldr	r0, .L85+24
 935 002a FFF7FEFF 		bl	test_print
 936              		.loc 1 322 0
 937 002e 6648     		ldr	r0, .L85+28
 938 0030 FFF7FEFF 		bl	test_println
 939              		.loc 1 323 0
 940 0034 6548     		ldr	r0, .L85+32
 941 0036 FFF7FEFF 		bl	test_print
 942              		.loc 1 324 0
 943 003a 6548     		ldr	r0, .L85+36
 944 003c FFF7FEFF 		bl	test_println
 945              		.loc 1 326 0
 946 0040 6448     		ldr	r0, .L85+40
 947 0042 FFF7FEFF 		bl	test_print
 948              		.loc 1 327 0
 949 0046 6448     		ldr	r0, .L85+44
 950 0048 FFF7FEFF 		bl	test_println
 951              		.loc 1 329 0
 952 004c 6348     		ldr	r0, .L85+48
 953 004e FFF7FEFF 		bl	test_print
 954              		.loc 1 330 0
 955 0052 6348     		ldr	r0, .L85+52
ARM GAS  /tmp/ccHMNvMF.s 			page 18


 956 0054 FFF7FEFF 		bl	test_println
 957              		.loc 1 332 0
 958 0058 6248     		ldr	r0, .L85+56
 959 005a FFF7FEFF 		bl	test_print
 960              		.loc 1 333 0
 961 005e 6248     		ldr	r0, .L85+60
 962 0060 FFF7FEFF 		bl	test_println
 963              		.loc 1 336 0
 964 0064 6148     		ldr	r0, .L85+64
 965 0066 FFF7FEFF 		bl	test_print
 966              		.loc 1 337 0
 967 006a 6148     		ldr	r0, .L85+68
 968 006c FFF7FEFF 		bl	test_println
 969              		.loc 1 340 0
 970 0070 6048     		ldr	r0, .L85+72
 971 0072 FFF7FEFF 		bl	test_print
 972              		.loc 1 341 0
 973 0076 6048     		ldr	r0, .L85+76
 974 0078 FFF7FEFF 		bl	test_println
 975              		.loc 1 344 0
 976 007c 5F48     		ldr	r0, .L85+80
 977 007e FFF7FEFF 		bl	test_print
 978              		.loc 1 345 0
 979 0082 5F48     		ldr	r0, .L85+84
 980 0084 FFF7FEFF 		bl	test_println
 981              		.loc 1 347 0
 982 0088 4948     		ldr	r0, .L85+4
 983 008a FFF7FEFF 		bl	test_println
 984              		.loc 1 349 0
 985 008e 40F20002 		movw	r2, #:lower16:.LANCHOR4
 986 0092 C0F20002 		movt	r2, #:upper16:.LANCHOR4
 987 0096 4FF0000A 		mov	sl, #0
 988 009a 82F800A0 		strb	sl, [r2, #0]
 989              	.LVL59:
 990              	.L69:
 991              		.loc 1 351 0 discriminator 1
 992 009e 0AF1010A 		add	sl, sl, #1
 993              		.loc 1 314 0 discriminator 1
 994 00a2 4FF00008 		mov	r8, #0
 995              	.L82:
 996              	.LVL60:
 997              		.loc 1 353 0 discriminator 1
 998 00a6 57F8043B 		ldr	r3, [r7], #4
 999 00aa 002B     		cmp	r3, #0
 1000 00ac 59D0     		beq	.L83
 1001              	.L76:
 1002              		.loc 1 354 0
 1003 00ae FFF7FEFF 		bl	print_line
 1004              		.loc 1 355 0
 1005 00b2 5448     		ldr	r0, .L85+88
 1006              	.LBB52:
 1007              	.LBB49:
 1008              		.loc 1 287 0
 1009 00b4 544C     		ldr	r4, .L85+92
 1010              	.LBE49:
 1011              	.LBE52:
 1012              		.loc 1 355 0
ARM GAS  /tmp/ccHMNvMF.s 			page 19


 1013 00b6 FFF7FEFF 		bl	test_print
 1014              		.loc 1 356 0
 1015 00ba 5046     		mov	r0, sl
 1016 00bc FFF7FEFF 		bl	test_printn
 1017              		.loc 1 358 0
 1018 00c0 08F10108 		add	r8, r8, #1
 1019              	.LVL61:
 1020              		.loc 1 357 0
 1021 00c4 5148     		ldr	r0, .L85+96
 1022 00c6 FFF7FEFF 		bl	test_print
 1023              		.loc 1 358 0
 1024 00ca 4046     		mov	r0, r8
 1025 00cc FFF7FEFF 		bl	test_printn
 1026              		.loc 1 359 0
 1027 00d0 4F48     		ldr	r0, .L85+100
 1028 00d2 FFF7FEFF 		bl	test_print
 1029              		.loc 1 360 0
 1030 00d6 57F8043C 		ldr	r3, [r7, #-4]
 1031 00da 1868     		ldr	r0, [r3, #0]
 1032 00dc FFF7FEFF 		bl	test_print
 1033              		.loc 1 361 0
 1034 00e0 4C48     		ldr	r0, .L85+104
 1035 00e2 FFF7FEFF 		bl	test_println
 1036              		.loc 1 363 0
 1037 00e6 C820     		movs	r0, #200
 1038 00e8 FFF7FEFF 		bl	chThdSleep
 1039              	.LBB53:
 1040              	.LBB50:
 1041              		.loc 1 289 0
 1042 00ec 4A4A     		ldr	r2, .L85+108
 1043              	.LBE50:
 1044              	.LBE53:
 1045              		.loc 1 365 0
 1046 00ee 57F8043C 		ldr	r3, [r7, #-4]
 1047              	.LVL62:
 1048              	.LBB54:
 1049              	.LBB51:
 1050              	.LBB48:
 1051              	.LBB47:
 1052              		.loc 1 132 0
 1053 00f2 C5F80090 		str	r9, [r5, #0]
 1054              	.LBE47:
 1055              	.LBE48:
 1056              		.loc 1 287 0
 1057 00f6 0021     		movs	r1, #0
 1058              		.loc 1 289 0
 1059 00f8 1160     		str	r1, [r2, #0]
 1060 00fa 5160     		str	r1, [r2, #4]
 1061 00fc 9160     		str	r1, [r2, #8]
 1062 00fe D160     		str	r1, [r2, #12]
 1063 0100 1161     		str	r1, [r2, #16]
 1064              		.loc 1 291 0
 1065 0102 5A68     		ldr	r2, [r3, #4]
 1066              		.loc 1 287 0
 1067 0104 2170     		strb	r1, [r4, #0]
 1068              	.LVL63:
 1069              		.loc 1 291 0
ARM GAS  /tmp/ccHMNvMF.s 			page 20


 1070 0106 12B1     		cbz	r2, .L70
 1071              		.loc 1 292 0
 1072 0108 0193     		str	r3, [sp, #4]
 1073 010a 9047     		blx	r2
 1074              	.LVL64:
 1075 010c 019B     		ldr	r3, [sp, #4]
 1076              	.L70:
 1077              		.loc 1 293 0
 1078 010e DA68     		ldr	r2, [r3, #12]
 1079 0110 0193     		str	r3, [sp, #4]
 1080 0112 9047     		blx	r2
 1081              		.loc 1 294 0
 1082 0114 019B     		ldr	r3, [sp, #4]
 1083 0116 9B68     		ldr	r3, [r3, #8]
 1084 0118 03B1     		cbz	r3, .L71
 1085              		.loc 1 295 0
 1086 011a 9847     		blx	r3
 1087              	.L71:
 1088              		.loc 1 297 0
 1089 011c FFF7FEFF 		bl	test_wait_threads
 1090              	.LBE51:
 1091              	.LBE54:
 1092              		.loc 1 366 0
 1093 0120 2378     		ldrb	r3, [r4, #0]	@ zero_extendqisi2
 1094 0122 002B     		cmp	r3, #0
 1095 0124 3AD0     		beq	.L72
 1096              		.loc 1 367 0
 1097 0126 3D48     		ldr	r0, .L85+112
 1098 0128 FFF7FEFF 		bl	test_print
 1099              		.loc 1 368 0
 1100 012c 3C4B     		ldr	r3, .L85+116
 1101 012e 1868     		ldr	r0, [r3, #0]
 1102 0130 FFF7FEFF 		bl	test_printn
 1103              		.loc 1 369 0
 1104 0134 3B48     		ldr	r0, .L85+120
 1105 0136 FFF7FEFF 		bl	test_print
 1106              	.LVL65:
 1107              	.LBB55:
 1108              	.LBB56:
 1109              		.loc 1 138 0
 1110 013a 2B68     		ldr	r3, [r5, #0]
 1111 013c 4B45     		cmp	r3, r9
 1112 013e 09D9     		bls	.L73
 1113 0140 394C     		ldr	r4, .L85+124
 1114              	.LVL66:
 1115              	.L74:
 1116              		.loc 1 139 0
 1117 0142 3068     		ldr	r0, [r6, #0]
 1118 0144 14F8011B 		ldrb	r1, [r4], #1	@ zero_extendqisi2
 1119              	.LVL67:
 1120 0148 0368     		ldr	r3, [r0, #0]
 1121 014a 9B68     		ldr	r3, [r3, #8]
 1122 014c 9847     		blx	r3
 1123              	.LVL68:
 1124              		.loc 1 138 0
 1125 014e 2B68     		ldr	r3, [r5, #0]
 1126 0150 A342     		cmp	r3, r4
ARM GAS  /tmp/ccHMNvMF.s 			page 21


 1127 0152 F6D8     		bhi	.L74
 1128              	.LVL69:
 1129              	.L73:
 1130              	.LBE56:
 1131              	.LBE55:
 1132              		.loc 1 371 0
 1133 0154 3548     		ldr	r0, .L85+128
 1134 0156 FFF7FEFF 		bl	test_println
 1135              	.LVL70:
 1136              		.loc 1 353 0
 1137 015a 57F8043B 		ldr	r3, [r7], #4
 1138 015e 002B     		cmp	r3, #0
 1139 0160 A5D1     		bne	.L76
 1140              	.LVL71:
 1141              	.L83:
 1142              		.loc 1 351 0
 1143 0162 5BF8047F 		ldr	r7, [fp, #4]!
 1144 0166 002F     		cmp	r7, #0
 1145 0168 99D1     		bne	.L69
 1146              		.loc 1 379 0
 1147 016a FFF7FEFF 		bl	print_line
 1148              		.loc 1 380 0
 1149 016e 1048     		ldr	r0, .L85+4
 1150 0170 FFF7FEFF 		bl	test_println
 1151              		.loc 1 381 0
 1152 0174 2E48     		ldr	r0, .L85+132
 1153 0176 FFF7FEFF 		bl	test_print
 1154              		.loc 1 382 0
 1155 017a 40F20002 		movw	r2, #:lower16:.LANCHOR4
 1156 017e C0F20002 		movt	r2, #:upper16:.LANCHOR4
 1157 0182 1378     		ldrb	r3, [r2, #0]	@ zero_extendqisi2
 1158 0184 73B9     		cbnz	r3, .L84
 1159              		.loc 1 385 0
 1160 0186 2B48     		ldr	r0, .L85+136
 1161 0188 FFF7FEFF 		bl	test_println
 1162              	.L80:
 1163              		.loc 1 388 0
 1164 018c 40F20003 		movw	r3, #:lower16:.LANCHOR4
 1165 0190 C0F20003 		movt	r3, #:upper16:.LANCHOR4
 1166 0194 1878     		ldrb	r0, [r3, #0]	@ zero_extendqisi2
 1167 0196 03B0     		add	sp, sp, #12
 1168 0198 BDE8F08F 		pop	{r4, r5, r6, r7, r8, r9, sl, fp, pc}
 1169              	.LVL72:
 1170              	.L72:
 1171              		.loc 1 374 0
 1172 019c 2648     		ldr	r0, .L85+140
 1173 019e FFF7FEFF 		bl	test_println
 1174 01a2 80E7     		b	.L82
 1175              	.LVL73:
 1176              	.L84:
 1177              		.loc 1 383 0
 1178 01a4 2548     		ldr	r0, .L85+144
 1179 01a6 FFF7FEFF 		bl	test_println
 1180 01aa EFE7     		b	.L80
 1181              	.L86:
 1182              		.align	2
 1183              	.L85:
ARM GAS  /tmp/ccHMNvMF.s 			page 22


 1184 01ac 00000000 		.word	.LANCHOR1
 1185 01b0 04000000 		.word	.LC1
 1186 01b4 00000000 		.word	.LANCHOR2
 1187 01b8 00000000 		.word	patternthd
 1188 01bc 08000000 		.word	.LC2
 1189 01c0 24000000 		.word	.LC3
 1190 01c4 28000000 		.word	.LC4
 1191 01c8 3C000000 		.word	.LC5
 1192 01cc 44000000 		.word	.LC6
 1193 01d0 58000000 		.word	.LC7
 1194 01d4 70000000 		.word	.LC8
 1195 01d8 84000000 		.word	.LC9
 1196 01dc A4000000 		.word	.LC10
 1197 01e0 B8000000 		.word	.LC11
 1198 01e4 C4000000 		.word	.LC12
 1199 01e8 D8000000 		.word	.LC13
 1200 01ec E4000000 		.word	.LC14
 1201 01f0 F8000000 		.word	.LC15
 1202 01f4 10010000 		.word	.LC16
 1203 01f8 24010000 		.word	.LC17
 1204 01fc 40010000 		.word	.LC18
 1205 0200 54010000 		.word	.LC19
 1206 0204 7C010000 		.word	.LC20
 1207 0208 00000000 		.word	.LANCHOR3
 1208 020c 8C010000 		.word	.LC21
 1209 0210 90010000 		.word	.LC22
 1210 0214 94010000 		.word	.LC23
 1211 0218 00000000 		.word	.LANCHOR7
 1212 021c 98010000 		.word	.LC24
 1213 0220 00000000 		.word	.LANCHOR5
 1214 0224 B0010000 		.word	.LC25
 1215 0228 00000000 		.word	.LANCHOR6
 1216 022c B4010000 		.word	.LC26
 1217 0230 CC010000 		.word	.LC28
 1218 0234 E4010000 		.word	.LC30
 1219 0238 B8010000 		.word	.LC27
 1220 023c DC010000 		.word	.LC29
 1221 0240 00000000 		.word	.LANCHOR9
 1222              		.cfi_endproc
 1223              	.LFE136:
 1224              		.size	TestThread, .-TestThread
 1225              		.global	test_timer_done
 1226              		.global	wa
 1227              		.global	threads
 1228              		.global	test
 1229 0244 AFF30080 		.section	.bss.test,"aw",%nobits
 1229      AFF30080 
 1229      AFF30080 
 1230              		.align	3
 1231              		.type	test, %object
 1232              		.size	test, 1520
 1233              	test:
 1234 0000 00000000 		.space	1520
 1234      00000000 
 1234      00000000 
 1234      00000000 
 1234      00000000 
ARM GAS  /tmp/ccHMNvMF.s 			page 23


 1235              		.section	.bss.failpoint,"aw",%nobits
 1236              		.align	2
 1237              		.set	.LANCHOR5,. + 0
 1238              		.type	failpoint, %object
 1239              		.size	failpoint, 4
 1240              	failpoint:
 1241 0000 00000000 		.space	4
 1242              		.section	.bss.local_fail,"aw",%nobits
 1243              		.set	.LANCHOR3,. + 0
 1244              		.type	local_fail, %object
 1245              		.size	local_fail, 1
 1246              	local_fail:
 1247 0000 00       		.space	1
 1248              		.section	.bss.test_timer_done,"aw",%nobits
 1249              		.set	.LANCHOR0,. + 0
 1250              		.type	test_timer_done, %object
 1251              		.size	test_timer_done, 1
 1252              	test_timer_done:
 1253 0000 00       		.space	1
 1254              		.section	.rodata.wa,"a",%progbits
 1255              		.align	2
 1256              		.type	wa, %object
 1257              		.size	wa, 20
 1258              	wa:
 1259 0000 00000000 		.word	test
 1260 0004 30010000 		.word	test+304
 1261 0008 60020000 		.word	test+608
 1262 000c 90030000 		.word	test+912
 1263 0010 C0040000 		.word	test+1216
 1264              		.section	.bss.tokp,"aw",%nobits
 1265              		.align	2
 1266              		.set	.LANCHOR2,. + 0
 1267              		.type	tokp, %object
 1268              		.size	tokp, 4
 1269              	tokp:
 1270 0000 00000000 		.space	4
 1271              		.section	.bss.global_fail,"aw",%nobits
 1272              		.set	.LANCHOR4,. + 0
 1273              		.type	global_fail, %object
 1274              		.size	global_fail, 1
 1275              	global_fail:
 1276 0000 00       		.space	1
 1277              		.section	.rodata.str1.4,"aMS",%progbits,1
 1278              		.align	2
 1279              	.LC0:
 1280 0000 0D0A00   		.ascii	"\015\012\000"
 1281 0003 00       		.space	1
 1282              	.LC1:
 1283 0004 00       		.ascii	"\000"
 1284 0005 000000   		.space	3
 1285              	.LC2:
 1286 0008 2A2A2A20 		.ascii	"*** ChibiOS/RT test suite\000"
 1286      43686962 
 1286      694F532F 
 1286      52542074 
 1286      65737420 
 1287 0022 0000     		.space	2
ARM GAS  /tmp/ccHMNvMF.s 			page 24


 1288              	.LC3:
 1289 0024 2A2A2A00 		.ascii	"***\000"
 1290              	.LC4:
 1291 0028 2A2A2A20 		.ascii	"*** Kernel:       \000"
 1291      4B65726E 
 1291      656C3A20 
 1291      20202020 
 1291      202000
 1292 003b 00       		.space	1
 1293              	.LC5:
 1294 003c 322E362E 		.ascii	"2.6.1\000"
 1294      3100
 1295 0042 0000     		.space	2
 1296              	.LC6:
 1297 0044 2A2A2A20 		.ascii	"*** Compiled:     \000"
 1297      436F6D70 
 1297      696C6564 
 1297      3A202020 
 1297      202000
 1298 0057 00       		.space	1
 1299              	.LC7:
 1300 0058 4F637420 		.ascii	"Oct  1 2013 - 14:20:38\000"
 1300      20312032 
 1300      30313320 
 1300      2D203134 
 1300      3A32303A 
 1301 006f 00       		.space	1
 1302              	.LC8:
 1303 0070 2A2A2A20 		.ascii	"*** Compiler:     \000"
 1303      436F6D70 
 1303      696C6572 
 1303      3A202020 
 1303      202000
 1304 0083 00       		.space	1
 1305              	.LC9:
 1306 0084 47434320 		.ascii	"GCC 4.6.2 20110908 (prerelease)\000"
 1306      342E362E 
 1306      32203230 
 1306      31313039 
 1306      30382028 
 1307              	.LC10:
 1308 00a4 2A2A2A20 		.ascii	"*** Architecture: \000"
 1308      41726368 
 1308      69746563 
 1308      74757265 
 1308      3A2000
 1309 00b7 00       		.space	1
 1310              	.LC11:
 1311 00b8 41524D76 		.ascii	"ARMv7-ME\000"
 1311      372D4D45 
 1311      00
 1312 00c1 000000   		.space	3
 1313              	.LC12:
 1314 00c4 2A2A2A20 		.ascii	"*** Core Variant: \000"
 1314      436F7265 
 1314      20566172 
 1314      69616E74 
ARM GAS  /tmp/ccHMNvMF.s 			page 25


 1314      3A2000
 1315 00d7 00       		.space	1
 1316              	.LC13:
 1317 00d8 436F7274 		.ascii	"Cortex-M4\000"
 1317      65782D4D 
 1317      3400
 1318 00e2 0000     		.space	2
 1319              	.LC14:
 1320 00e4 2A2A2A20 		.ascii	"*** Port Info:    \000"
 1320      506F7274 
 1320      20496E66 
 1320      6F3A2020 
 1320      202000
 1321 00f7 00       		.space	1
 1322              	.LC15:
 1323 00f8 41647661 		.ascii	"Advanced kernel mode\000"
 1323      6E636564 
 1323      206B6572 
 1323      6E656C20 
 1323      6D6F6465 
 1324 010d 000000   		.space	3
 1325              	.LC16:
 1326 0110 2A2A2A20 		.ascii	"*** Platform:     \000"
 1326      506C6174 
 1326      666F726D 
 1326      3A202020 
 1326      202000
 1327 0123 00       		.space	1
 1328              	.LC17:
 1329 0124 53544D33 		.ascii	"STM32F4xx High Performance\000"
 1329      32463478 
 1329      78204869 
 1329      67682050 
 1329      6572666F 
 1330 013f 00       		.space	1
 1331              	.LC18:
 1332 0140 2A2A2A20 		.ascii	"*** Test Board:   \000"
 1332      54657374 
 1332      20426F61 
 1332      72643A20 
 1332      202000
 1333 0153 00       		.space	1
 1334              	.LC19:
 1335 0154 53544D69 		.ascii	"STMicroelectronics STM32F4-Discovery\000"
 1335      63726F65 
 1335      6C656374 
 1335      726F6E69 
 1335      63732053 
 1336 0179 000000   		.space	3
 1337              	.LC20:
 1338 017c 2D2D2D20 		.ascii	"--- Test Case \000"
 1338      54657374 
 1338      20436173 
 1338      652000
 1339 018b 00       		.space	1
 1340              	.LC21:
 1341 018c 2E00     		.ascii	".\000"
ARM GAS  /tmp/ccHMNvMF.s 			page 26


 1342 018e 0000     		.space	2
 1343              	.LC22:
 1344 0190 202800   		.ascii	" (\000"
 1345 0193 00       		.space	1
 1346              	.LC23:
 1347 0194 2900     		.ascii	")\000"
 1348 0196 0000     		.space	2
 1349              	.LC24:
 1350 0198 2D2D2D20 		.ascii	"--- Result: FAILURE (#\000"
 1350      52657375 
 1350      6C743A20 
 1350      4641494C 
 1350      55524520 
 1351 01af 00       		.space	1
 1352              	.LC25:
 1353 01b0 205B00   		.ascii	" [\000"
 1354 01b3 00       		.space	1
 1355              	.LC26:
 1356 01b4 5D2900   		.ascii	"])\000"
 1357 01b7 00       		.space	1
 1358              	.LC27:
 1359 01b8 2D2D2D20 		.ascii	"--- Result: SUCCESS\000"
 1359      52657375 
 1359      6C743A20 
 1359      53554343 
 1359      45535300 
 1360              	.LC28:
 1361 01cc 46696E61 		.ascii	"Final result: \000"
 1361      6C207265 
 1361      73756C74 
 1361      3A2000
 1362 01db 00       		.space	1
 1363              	.LC29:
 1364 01dc 4641494C 		.ascii	"FAILURE\000"
 1364      55524500 
 1365              	.LC30:
 1366 01e4 53554343 		.ascii	"SUCCESS\000"
 1366      45535300 
 1367              		.section	.bss.vt,"aw",%nobits
 1368              		.align	2
 1369              		.set	.LANCHOR8,. + 0
 1370              		.type	vt, %object
 1371              		.size	vt, 20
 1372              	vt:
 1373 0000 00000000 		.space	20
 1373      00000000 
 1373      00000000 
 1373      00000000 
 1373      00000000 
 1374              		.section	.bss.threads,"aw",%nobits
 1375              		.align	2
 1376              		.set	.LANCHOR7,. + 0
 1377              		.type	threads, %object
 1378              		.size	threads, 20
 1379              	threads:
 1380 0000 00000000 		.space	20
 1380      00000000 
ARM GAS  /tmp/ccHMNvMF.s 			page 27


 1380      00000000 
 1380      00000000 
 1380      00000000 
 1381              		.section	.rodata.patterns,"a",%progbits
 1382              		.align	2
 1383              		.set	.LANCHOR9,. + 0
 1384              		.type	patterns, %object
 1385              		.size	patterns, 48
 1386              	patterns:
 1387 0000 00000000 		.word	patternthd
 1388 0004 00000000 		.word	patternsem
 1389 0008 00000000 		.word	patternmtx
 1390 000c 00000000 		.word	patternmsg
 1391 0010 00000000 		.word	patternmbox
 1392 0014 00000000 		.word	patternevt
 1393 0018 00000000 		.word	patternheap
 1394 001c 00000000 		.word	patternpools
 1395 0020 00000000 		.word	patterndyn
 1396 0024 00000000 		.word	patternqueues
 1397 0028 00000000 		.word	patternbmk
 1398 002c 00000000 		.word	0
 1399              		.section	.bss.chp,"aw",%nobits
 1400              		.align	2
 1401              		.set	.LANCHOR1,. + 0
 1402              		.type	chp, %object
 1403              		.size	chp, 4
 1404              	chp:
 1405 0000 00000000 		.space	4
 1406              		.section	.bss.tokens_buffer,"aw",%nobits
 1407              		.align	2
 1408              		.set	.LANCHOR6,. + 0
 1409              		.type	tokens_buffer, %object
 1410              		.size	tokens_buffer, 16
 1411              	tokens_buffer:
 1412 0000 00000000 		.space	16
 1412      00000000 
 1412      00000000 
 1412      00000000 
 1413              		.text
 1414              	.Letext0:
 1415              		.file 2 "/opt/paparazzi/arm-multilib/lib/gcc/arm-none-eabi/4.6.2/include/stddef.h"
 1416              		.file 3 "/opt/paparazzi/arm-multilib/lib/gcc/arm-none-eabi/4.6.2/../../../../arm-none-eabi/include
 1417              		.file 4 "../../os/ports/GCC/ARMCMx/chtypes.h"
 1418              		.file 5 "../../os/kernel/include/chlists.h"
 1419              		.file 6 "../../os/kernel/include/chthreads.h"
 1420              		.file 7 "../../os/ports/GCC/ARMCMx/chcore_v7m.h"
 1421              		.file 8 "../../os/kernel/include/chvt.h"
 1422              		.file 9 "../../os/kernel/include/chschd.h"
 1423              		.file 10 "../../os/kernel/include/chmtx.h"
 1424              		.file 11 "../../os/kernel/include/chstreams.h"
 1425              		.file 12 "../../test/test.h"
 1426              		.file 13 "../../os/ports/common/ARMCMx/CMSIS/include/core_cm4.h"
 1427              		.file 14 "../../test/testthd.h"
 1428              		.file 15 "../../test/testsem.h"
 1429              		.file 16 "../../test/testmtx.h"
 1430              		.file 17 "../../test/testmsg.h"
 1431              		.file 18 "../../test/testmbox.h"
ARM GAS  /tmp/ccHMNvMF.s 			page 28


 1432              		.file 19 "../../test/testevt.h"
 1433              		.file 20 "../../test/testheap.h"
 1434              		.file 21 "../../test/testpools.h"
 1435              		.file 22 "../../test/testdyn.h"
 1436              		.file 23 "../../test/testqueues.h"
 1437              		.file 24 "../../test/testbmk.h"