ARM GAS  /tmp/ccQqi3vQ.s 			page 1


   1              		.syntax unified
   2              		.cpu cortex-m4
   3              		.fpu softvfp
   4              		.eabi_attribute 20, 1
   5              		.eabi_attribute 21, 1
   6              		.eabi_attribute 23, 3
   7              		.eabi_attribute 24, 1
   8              		.eabi_attribute 25, 1
   9              		.eabi_attribute 26, 1
  10              		.eabi_attribute 30, 2
  11              		.eabi_attribute 18, 4
  12              		.thumb
  13              		.file	"testevt.c"
  14              		.text
  15              	.Ltext0:
  16              		.cfi_sections	.debug_frame
  17              		.section	.text.evt3_setup,"ax",%progbits
  18              		.align	2
  19              		.p2align 4,,15
  20              		.thumb
  21              		.thumb_func
  22              		.type	evt3_setup, %function
  23              	evt3_setup:
  24              	.LFB16:
  25              		.file 1 "../../test/testevt.c"
  26              		.loc 1 247 0
  27              		.cfi_startproc
  28              		@ args = 0, pretend = 0, frame = 0
  29              		@ frame_needed = 0, uses_anonymous_args = 0
  30              		@ link register save eliminated.
  31              		.loc 1 249 0
  32 0000 4FF0FF30 		mov	r0, #-1
  33              		.loc 1 250 0
  34              		.loc 1 249 0
  35 0004 FFF7FEBF 		b	chEvtGetAndClearEvents
  36              		.cfi_endproc
  37              	.LFE16:
  38              		.size	evt3_setup, .-evt3_setup
  39 0008 AFF30080 		.section	.text.evt2_setup,"ax",%progbits
  39      AFF30080 
  40              		.align	2
  41              		.p2align 4,,15
  42              		.thumb
  43              		.thumb_func
  44              		.type	evt2_setup, %function
  45              	evt2_setup:
  46              	.LFB12:
  47              		.loc 1 128 0
  48              		.cfi_startproc
  49              		@ args = 0, pretend = 0, frame = 0
  50              		@ frame_needed = 0, uses_anonymous_args = 0
  51              		@ link register save eliminated.
  52              		.loc 1 130 0
  53 0000 4FF0FF30 		mov	r0, #-1
  54              		.loc 1 131 0
  55              		.loc 1 130 0
  56 0004 FFF7FEBF 		b	chEvtGetAndClearEvents
ARM GAS  /tmp/ccQqi3vQ.s 			page 2


  57              		.cfi_endproc
  58              	.LFE12:
  59              		.size	evt2_setup, .-evt2_setup
  60 0008 AFF30080 		.section	.text.evt1_setup,"ax",%progbits
  60      AFF30080 
  61              		.align	2
  62              		.p2align 4,,15
  63              		.thumb
  64              		.thumb_func
  65              		.type	evt1_setup, %function
  66              	evt1_setup:
  67              	.LFB7:
  68              		.loc 1 75 0
  69              		.cfi_startproc
  70              		@ args = 0, pretend = 0, frame = 0
  71              		@ frame_needed = 0, uses_anonymous_args = 0
  72              		@ link register save eliminated.
  73              		.loc 1 77 0
  74 0000 4FF0FF30 		mov	r0, #-1
  75              		.loc 1 78 0
  76              		.loc 1 77 0
  77 0004 FFF7FEBF 		b	chEvtGetAndClearEvents
  78              		.cfi_endproc
  79              	.LFE7:
  80              		.size	evt1_setup, .-evt1_setup
  81 0008 AFF30080 		.section	.text.thread2,"ax",%progbits
  81      AFF30080 
  82              		.align	2
  83              		.p2align 4,,15
  84              		.thumb
  85              		.thumb_func
  86              		.type	thread2, %function
  87              	thread2:
  88              	.LFB14:
  89              		.loc 1 140 0
  90              		.cfi_startproc
  91              		@ args = 0, pretend = 0, frame = 0
  92              		@ frame_needed = 0, uses_anonymous_args = 0
  93              	.LVL0:
  94              		.loc 1 143 0
  95 0000 40F20000 		movw	r0, #:lower16:.LANCHOR0
  96              	.LVL1:
  97              		.loc 1 140 0
  98 0004 08B5     		push	{r3, lr}
  99              	.LCFI0:
 100              		.cfi_def_cfa_offset 8
 101              		.cfi_offset 14, -4
 102              		.cfi_offset 3, -8
 103              		.loc 1 143 0
 104 0006 0021     		movs	r1, #0
 105 0008 C0F20000 		movt	r0, #:upper16:.LANCHOR0
 106 000c FFF7FEFF 		bl	chEvtBroadcastFlags
 107              		.loc 1 144 0
 108 0010 3220     		movs	r0, #50
 109 0012 FFF7FEFF 		bl	chThdSleep
 110              		.loc 1 145 0
 111 0016 40F20000 		movw	r0, #:lower16:.LANCHOR1
ARM GAS  /tmp/ccQqi3vQ.s 			page 3


 112 001a C0F20000 		movt	r0, #:upper16:.LANCHOR1
 113 001e 0021     		movs	r1, #0
 114 0020 FFF7FEFF 		bl	chEvtBroadcastFlags
 115              		.loc 1 147 0
 116 0024 0020     		movs	r0, #0
 117 0026 08BD     		pop	{r3, pc}
 118              		.cfi_endproc
 119              	.LFE14:
 120              		.size	thread2, .-thread2
 121 0028 AFF30080 		.section	.text.thread1,"ax",%progbits
 121      AFF30080 
 122              		.align	2
 123              		.p2align 4,,15
 124              		.thumb
 125              		.thumb_func
 126              		.type	thread1, %function
 127              	thread1:
 128              	.LFB13:
 129              		.loc 1 133 0
 130              		.cfi_startproc
 131              		@ args = 0, pretend = 0, frame = 0
 132              		@ frame_needed = 0, uses_anonymous_args = 0
 133              	.LVL2:
 134 0000 10B5     		push	{r4, lr}
 135              	.LCFI1:
 136              		.cfi_def_cfa_offset 8
 137              		.cfi_offset 14, -4
 138              		.cfi_offset 4, -8
 139              		.loc 1 133 0
 140 0002 0446     		mov	r4, r0
 141              		.loc 1 135 0
 142 0004 3220     		movs	r0, #50
 143              	.LVL3:
 144 0006 FFF7FEFF 		bl	chThdSleep
 145              		.loc 1 136 0
 146 000a 2046     		mov	r0, r4
 147 000c 0121     		movs	r1, #1
 148 000e FFF7FEFF 		bl	chEvtSignal
 149              		.loc 1 138 0
 150 0012 0020     		movs	r0, #0
 151 0014 10BD     		pop	{r4, pc}
 152              		.cfi_endproc
 153              	.LFE13:
 154              		.size	thread1, .-thread1
 155 0016 00BFAFF3 		.section	.text.evt1_execute,"ax",%progbits
 155      0080AFF3 
 155      0080
 156              		.align	2
 157              		.p2align 4,,15
 158              		.thumb
 159              		.thumb_func
 160              		.type	evt1_execute, %function
 161              	evt1_execute:
 162              	.LFB11:
 163              		.loc 1 85 0
 164              		.cfi_startproc
 165              		@ args = 0, pretend = 0, frame = 32
ARM GAS  /tmp/ccQqi3vQ.s 			page 4


 166              		@ frame_needed = 0, uses_anonymous_args = 0
 167 0000 10B5     		push	{r4, lr}
 168              	.LCFI2:
 169              		.cfi_def_cfa_offset 8
 170              		.cfi_offset 14, -4
 171              		.cfi_offset 4, -8
 172              		.loc 1 91 0
 173 0002 1D4C     		ldr	r4, .L10
 174              		.loc 1 85 0
 175 0004 88B0     		sub	sp, sp, #32
 176              	.LCFI3:
 177              		.cfi_def_cfa_offset 40
 178              		.loc 1 92 0
 179 0006 0122     		movs	r2, #1
 180 0008 2046     		mov	r0, r4
 181 000a 6946     		mov	r1, sp
 182              		.loc 1 91 0
 183 000c 2460     		str	r4, [r4, #0]
 184              		.loc 1 92 0
 185 000e FFF7FEFF 		bl	chEvtRegisterMask
 186              		.loc 1 93 0
 187 0012 2046     		mov	r0, r4
 188 0014 04A9     		add	r1, sp, #16
 189 0016 0222     		movs	r2, #2
 190 0018 FFF7FEFF 		bl	chEvtRegisterMask
 191              		.loc 1 94 0
 192 001c 2168     		ldr	r1, [r4, #0]
 193 001e 0120     		movs	r0, #1
 194 0020 091B     		subs	r1, r1, r4
 195 0022 18BF     		it	ne
 196 0024 0121     		movne	r1, #1
 197 0026 FFF7FEFF 		bl	_test_assert
 198 002a 08B1     		cbz	r0, .L9
 199              	.L6:
 200              		.loc 1 105 0
 201 002c 08B0     		add	sp, sp, #32
 202 002e 10BD     		pop	{r4, pc}
 203              	.L9:
 204              		.loc 1 95 0
 205 0030 2046     		mov	r0, r4
 206 0032 6946     		mov	r1, sp
 207 0034 FFF7FEFF 		bl	chEvtUnregister
 208              		.loc 1 96 0
 209 0038 2168     		ldr	r1, [r4, #0]
 210 003a 0220     		movs	r0, #2
 211 003c 091B     		subs	r1, r1, r4
 212 003e 18BF     		it	ne
 213 0040 0121     		movne	r1, #1
 214 0042 FFF7FEFF 		bl	_test_assert
 215 0046 0028     		cmp	r0, #0
 216 0048 F0D1     		bne	.L6
 217              		.loc 1 97 0
 218 004a 2046     		mov	r0, r4
 219 004c 04A9     		add	r1, sp, #16
 220 004e FFF7FEFF 		bl	chEvtUnregister
 221              		.loc 1 98 0
 222 0052 2168     		ldr	r1, [r4, #0]
ARM GAS  /tmp/ccQqi3vQ.s 			page 5


 223 0054 0B1B     		subs	r3, r1, r4
 224 0056 0320     		movs	r0, #3
 225 0058 5942     		rsbs	r1, r3, #0
 226 005a 41EB0301 		adc	r1, r1, r3
 227 005e FFF7FEFF 		bl	_test_assert
 228 0062 0028     		cmp	r0, #0
 229 0064 E2D1     		bne	.L6
 230              		.loc 1 103 0
 231 0066 0721     		movs	r1, #7
 232 0068 0448     		ldr	r0, .L10+4
 233 006a FFF7FEFF 		bl	chEvtDispatch
 234              		.loc 1 104 0
 235 006e 0420     		movs	r0, #4
 236 0070 0349     		ldr	r1, .L10+8
 237 0072 FFF7FEFF 		bl	_test_assert_sequence
 238 0076 D9E7     		b	.L6
 239              	.L11:
 240              		.align	2
 241              	.L10:
 242 0078 00000000 		.word	.LANCHOR0
 243 007c 00000000 		.word	.LANCHOR2
 244 0080 00000000 		.word	.LC0
 245              		.cfi_endproc
 246              	.LFE11:
 247              		.size	evt1_execute, .-evt1_execute
 248 0084 AFF30080 		.section	.text.h3,"ax",%progbits
 248      AFF30080 
 248      AFF30080 
 249              		.align	2
 250              		.p2align 4,,15
 251              		.thumb
 252              		.thumb_func
 253              		.type	h3, %function
 254              	h3:
 255              	.LFB10:
 256              		.loc 1 82 0
 257              		.cfi_startproc
 258              		@ args = 0, pretend = 0, frame = 0
 259              		@ frame_needed = 0, uses_anonymous_args = 0
 260              		@ link register save eliminated.
 261              	.LVL4:
 262              		.loc 1 82 0
 263 0000 4320     		movs	r0, #67
 264              	.LVL5:
 265 0002 FFF7FEBF 		b	test_emit_token
 266              		.cfi_endproc
 267              	.LFE10:
 268              		.size	h3, .-h3
 269 0006 00BFAFF3 		.section	.text.h2,"ax",%progbits
 269      0080AFF3 
 269      0080
 270              		.align	2
 271              		.p2align 4,,15
 272              		.thumb
 273              		.thumb_func
 274              		.type	h2, %function
 275              	h2:
ARM GAS  /tmp/ccQqi3vQ.s 			page 6


 276              	.LFB9:
 277              		.loc 1 81 0
 278              		.cfi_startproc
 279              		@ args = 0, pretend = 0, frame = 0
 280              		@ frame_needed = 0, uses_anonymous_args = 0
 281              		@ link register save eliminated.
 282              	.LVL6:
 283              		.loc 1 81 0
 284 0000 4220     		movs	r0, #66
 285              	.LVL7:
 286 0002 FFF7FEBF 		b	test_emit_token
 287              		.cfi_endproc
 288              	.LFE9:
 289              		.size	h2, .-h2
 290 0006 00BFAFF3 		.section	.text.h1,"ax",%progbits
 290      0080AFF3 
 290      0080
 291              		.align	2
 292              		.p2align 4,,15
 293              		.thumb
 294              		.thumb_func
 295              		.type	h1, %function
 296              	h1:
 297              	.LFB8:
 298              		.loc 1 80 0
 299              		.cfi_startproc
 300              		@ args = 0, pretend = 0, frame = 0
 301              		@ frame_needed = 0, uses_anonymous_args = 0
 302              		@ link register save eliminated.
 303              	.LVL8:
 304              		.loc 1 80 0
 305 0000 4120     		movs	r0, #65
 306              	.LVL9:
 307 0002 FFF7FEBF 		b	test_emit_token
 308              		.cfi_endproc
 309              	.LFE8:
 310              		.size	h1, .-h1
 311 0006 00BFAFF3 		.section	.text.evt3_execute,"ax",%progbits
 311      0080AFF3 
 311      0080
 312              		.align	2
 313              		.p2align 4,,15
 314              		.thumb
 315              		.thumb_func
 316              		.type	evt3_execute, %function
 317              	evt3_execute:
 318              	.LFB17:
 319              		.loc 1 252 0
 320              		.cfi_startproc
 321              		@ args = 0, pretend = 0, frame = 0
 322              		@ frame_needed = 0, uses_anonymous_args = 0
 323              		.loc 1 258 0
 324 0000 0021     		movs	r1, #0
 325              		.loc 1 252 0
 326 0002 08B5     		push	{r3, lr}
 327              	.LCFI4:
 328              		.cfi_def_cfa_offset 8
ARM GAS  /tmp/ccQqi3vQ.s 			page 7


 329              		.cfi_offset 14, -4
 330              		.cfi_offset 3, -8
 331              		.loc 1 258 0
 332 0004 4FF0FF30 		mov	r0, #-1
 333 0008 FFF7FEFF 		bl	chEvtWaitOneTimeout
 334              	.LVL10:
 335              		.loc 1 259 0
 336 000c D0F10101 		rsbs	r1, r0, #1
 337 0010 38BF     		it	cc
 338 0012 0021     		movcc	r1, #0
 339 0014 0120     		movs	r0, #1
 340              	.LVL11:
 341 0016 FFF7FEFF 		bl	_test_assert
 342 001a 00B1     		cbz	r0, .L17
 343              	.L15:
 344 001c 08BD     		pop	{r3, pc}
 345              	.L17:
 346              		.loc 1 260 0
 347 001e 0146     		mov	r1, r0
 348 0020 4FF0FF30 		mov	r0, #-1
 349 0024 FFF7FEFF 		bl	chEvtWaitAnyTimeout
 350              	.LVL12:
 351              		.loc 1 261 0
 352 0028 D0F10101 		rsbs	r1, r0, #1
 353 002c 38BF     		it	cc
 354 002e 0021     		movcc	r1, #0
 355 0030 0220     		movs	r0, #2
 356              	.LVL13:
 357 0032 FFF7FEFF 		bl	_test_assert
 358 0036 0028     		cmp	r0, #0
 359 0038 F0D1     		bne	.L15
 360              		.loc 1 262 0
 361 003a 0146     		mov	r1, r0
 362 003c 4FF0FF30 		mov	r0, #-1
 363 0040 FFF7FEFF 		bl	chEvtWaitAllTimeout
 364              	.LVL14:
 365              		.loc 1 263 0
 366 0044 D0F10101 		rsbs	r1, r0, #1
 367 0048 38BF     		it	cc
 368 004a 0021     		movcc	r1, #0
 369 004c 0320     		movs	r0, #3
 370              	.LVL15:
 371 004e FFF7FEFF 		bl	_test_assert
 372 0052 0028     		cmp	r0, #0
 373 0054 E2D1     		bne	.L15
 374              	.LBB4:
 375              	.LBB5:
 376              		.loc 1 264 0
 377 0056 0A21     		movs	r1, #10
 378 0058 4FF0FF30 		mov	r0, #-1
 379 005c FFF7FEFF 		bl	chEvtWaitOneTimeout
 380              	.LVL16:
 381              		.loc 1 265 0
 382 0060 D0F10101 		rsbs	r1, r0, #1
 383 0064 38BF     		it	cc
 384 0066 0021     		movcc	r1, #0
 385 0068 0420     		movs	r0, #4
ARM GAS  /tmp/ccQqi3vQ.s 			page 8


 386              	.LVL17:
 387 006a FFF7FEFF 		bl	_test_assert
 388 006e 0028     		cmp	r0, #0
 389 0070 D4D1     		bne	.L15
 390              		.loc 1 266 0
 391 0072 0A21     		movs	r1, #10
 392 0074 4FF0FF30 		mov	r0, #-1
 393 0078 FFF7FEFF 		bl	chEvtWaitAnyTimeout
 394              	.LVL18:
 395              		.loc 1 267 0
 396 007c D0F10101 		rsbs	r1, r0, #1
 397 0080 38BF     		it	cc
 398 0082 0021     		movcc	r1, #0
 399 0084 0520     		movs	r0, #5
 400              	.LVL19:
 401 0086 FFF7FEFF 		bl	_test_assert
 402 008a 0028     		cmp	r0, #0
 403 008c C6D1     		bne	.L15
 404              		.loc 1 268 0
 405 008e 0A21     		movs	r1, #10
 406 0090 4FF0FF30 		mov	r0, #-1
 407 0094 FFF7FEFF 		bl	chEvtWaitAllTimeout
 408              	.LVL20:
 409              		.loc 1 269 0
 410 0098 D0F10101 		rsbs	r1, r0, #1
 411 009c 38BF     		it	cc
 412 009e 0021     		movcc	r1, #0
 413 00a0 0620     		movs	r0, #6
 414              	.LVL21:
 415              	.LBE5:
 416              	.LBE4:
 417              		.loc 1 270 0
 418 00a2 BDE80840 		pop	{r3, lr}
 419              	.LBB7:
 420              	.LBB6:
 421              		.loc 1 269 0
 422 00a6 FFF7FEBF 		b	_test_assert
 423              	.LBE6:
 424              	.LBE7:
 425              		.cfi_endproc
 426              	.LFE17:
 427              		.size	evt3_execute, .-evt3_execute
 428 00aa 00BFAFF3 		.section	.text.evt2_execute,"ax",%progbits
 428      0080
 429              		.align	2
 430              		.p2align 4,,15
 431              		.thumb
 432              		.thumb_func
 433              		.type	evt2_execute, %function
 434              	evt2_execute:
 435              	.LFB15:
 436              		.loc 1 149 0
 437              		.cfi_startproc
 438              		@ args = 0, pretend = 0, frame = 32
 439              		@ frame_needed = 0, uses_anonymous_args = 0
 440 0000 2DE9F043 		push	{r4, r5, r6, r7, r8, r9, lr}
 441              	.LCFI5:
ARM GAS  /tmp/ccQqi3vQ.s 			page 9


 442              		.cfi_def_cfa_offset 28
 443              		.cfi_offset 14, -4
 444              		.cfi_offset 9, -8
 445              		.cfi_offset 8, -12
 446              		.cfi_offset 7, -16
 447              		.cfi_offset 6, -20
 448              		.cfi_offset 5, -24
 449              		.cfi_offset 4, -28
 450              		.loc 1 157 0
 451 0004 0520     		movs	r0, #5
 452              		.loc 1 149 0
 453 0006 8BB0     		sub	sp, sp, #44
 454              	.LCFI6:
 455              		.cfi_def_cfa_offset 72
 456              		.loc 1 157 0
 457 0008 FFF7FEFF 		bl	chEvtAddEvents
 458              		.loc 1 158 0
 459 000c 4FF0FF30 		mov	r0, #-1
 460 0010 FFF7FEFF 		bl	chEvtWaitOne
 461              	.LVL22:
 462              		.loc 1 159 0
 463 0014 A0F1010E 		sub	lr, r0, #1
 464 0018 DEF10001 		rsbs	r1, lr, #0
 465 001c 41EB0E01 		adc	r1, r1, lr
 466 0020 0120     		movs	r0, #1
 467              	.LVL23:
 468 0022 FFF7FEFF 		bl	_test_assert
 469              	.LVL24:
 470 0026 10B1     		cbz	r0, .L20
 471              	.L18:
 472              		.loc 1 222 0
 473 0028 0BB0     		add	sp, sp, #44
 474 002a BDE8F083 		pop	{r4, r5, r6, r7, r8, r9, pc}
 475              	.L20:
 476              		.loc 1 160 0
 477 002e 4FF0FF30 		mov	r0, #-1
 478 0032 FFF7FEFF 		bl	chEvtWaitOne
 479              	.LVL25:
 480              		.loc 1 161 0
 481 0036 A0F10400 		sub	r0, r0, #4
 482              	.LVL26:
 483 003a 4142     		rsbs	r1, r0, #0
 484 003c 41EB0001 		adc	r1, r1, r0
 485 0040 0220     		movs	r0, #2
 486              	.LVL27:
 487 0042 FFF7FEFF 		bl	_test_assert
 488 0046 0028     		cmp	r0, #0
 489 0048 EED1     		bne	.L18
 490              		.loc 1 162 0
 491 004a 4FF0FF30 		mov	r0, #-1
 492 004e FFF7FEFF 		bl	chEvtGetAndClearEvents
 493              	.LVL28:
 494              		.loc 1 163 0
 495 0052 D0F10101 		rsbs	r1, r0, #1
 496 0056 38BF     		it	cc
 497 0058 0021     		movcc	r1, #0
 498 005a 0320     		movs	r0, #3
ARM GAS  /tmp/ccQqi3vQ.s 			page 10


 499              	.LVL29:
 500 005c FFF7FEFF 		bl	_test_assert
 501 0060 0028     		cmp	r0, #0
 502 0062 E1D1     		bne	.L18
 503              	.LBB10:
 504              	.LBB11:
 505              		.loc 1 170 0
 506 0064 764F     		ldr	r7, .L21
 507              		.loc 1 169 0
 508 0066 774E     		ldr	r6, .L21+4
 509              		.loc 1 170 0
 510 0068 774D     		ldr	r5, .L21+8
 511              		.loc 1 168 0
 512 006a FFF7FEFF 		bl	test_wait_tick
 513              		.loc 1 170 0
 514 006e B969     		ldr	r1, [r7, #24]
 515 0070 764B     		ldr	r3, .L21+12
 516 0072 8A68     		ldr	r2, [r1, #8]
 517 0074 D3F80080 		ldr	r8, [r3, #0]
 518              		.loc 1 169 0
 519 0078 F468     		ldr	r4, [r6, #12]
 520              	.LVL30:
 521              		.loc 1 170 0
 522 007a 754B     		ldr	r3, .L21+16
 523 007c 0091     		str	r1, [sp, #0]
 524 007e 013A     		subs	r2, r2, #1
 525 0080 4FF49871 		mov	r1, #304
 526 0084 4046     		mov	r0, r8
 527 0086 FFF7FEFF 		bl	chThdCreateStatic
 528 008a 2860     		str	r0, [r5, #0]
 529              		.loc 1 172 0
 530 008c 4FF0FF30 		mov	r0, #-1
 531 0090 FFF7FEFF 		bl	chEvtWaitOne
 532              		.loc 1 173 0
 533 0094 04F13201 		add	r1, r4, #50
 534              		.loc 1 172 0
 535 0098 8146     		mov	r9, r0
 536              	.LVL31:
 537              		.loc 1 173 0
 538 009a 04F13702 		add	r2, r4, #55
 539 009e 0420     		movs	r0, #4
 540              	.LVL32:
 541 00a0 FFF7FEFF 		bl	_test_assert_time_window
 542 00a4 0028     		cmp	r0, #0
 543 00a6 BFD1     		bne	.L18
 544              		.loc 1 174 0
 545 00a8 A9F10102 		sub	r2, r9, #1
 546 00ac 0520     		movs	r0, #5
 547 00ae 5142     		rsbs	r1, r2, #0
 548 00b0 41EB0201 		adc	r1, r1, r2
 549 00b4 FFF7FEFF 		bl	_test_assert
 550 00b8 0028     		cmp	r0, #0
 551 00ba B5D1     		bne	.L18
 552              		.loc 1 175 0
 553 00bc 4FF0FF30 		mov	r0, #-1
 554 00c0 FFF7FEFF 		bl	chEvtGetAndClearEvents
 555              	.LVL33:
ARM GAS  /tmp/ccQqi3vQ.s 			page 11


 556              		.loc 1 176 0
 557 00c4 D0F10101 		rsbs	r1, r0, #1
 558 00c8 38BF     		it	cc
 559 00ca 0021     		movcc	r1, #0
 560 00cc 0620     		movs	r0, #6
 561              	.LVL34:
 562 00ce FFF7FEFF 		bl	_test_assert
 563 00d2 0028     		cmp	r0, #0
 564 00d4 A8D1     		bne	.L18
 565              		.loc 1 177 0
 566 00d6 FFF7FEFF 		bl	test_wait_threads
 567              		.loc 1 182 0
 568 00da 0520     		movs	r0, #5
 569 00dc FFF7FEFF 		bl	chEvtAddEvents
 570              		.loc 1 183 0
 571 00e0 4FF0FF30 		mov	r0, #-1
 572 00e4 FFF7FEFF 		bl	chEvtWaitAny
 573              	.LVL35:
 574              		.loc 1 184 0
 575 00e8 A0F10503 		sub	r3, r0, #5
 576 00ec 5942     		rsbs	r1, r3, #0
 577 00ee 41EB0301 		adc	r1, r1, r3
 578 00f2 0720     		movs	r0, #7
 579              	.LVL36:
 580 00f4 FFF7FEFF 		bl	_test_assert
 581              	.LVL37:
 582 00f8 0028     		cmp	r0, #0
 583 00fa 95D1     		bne	.L18
 584              		.loc 1 185 0
 585 00fc 4FF0FF30 		mov	r0, #-1
 586 0100 FFF7FEFF 		bl	chEvtGetAndClearEvents
 587              	.LVL38:
 588              		.loc 1 186 0
 589 0104 D0F10101 		rsbs	r1, r0, #1
 590 0108 38BF     		it	cc
 591 010a 0021     		movcc	r1, #0
 592 010c 0820     		movs	r0, #8
 593              	.LVL39:
 594 010e FFF7FEFF 		bl	_test_assert
 595 0112 0028     		cmp	r0, #0
 596 0114 88D1     		bne	.L18
 597              		.loc 1 191 0
 598 0116 FFF7FEFF 		bl	test_wait_tick
 599              		.loc 1 193 0
 600 011a B969     		ldr	r1, [r7, #24]
 601              		.loc 1 192 0
 602 011c F468     		ldr	r4, [r6, #12]
 603              	.LVL40:
 604              		.loc 1 193 0
 605 011e 8A68     		ldr	r2, [r1, #8]
 606 0120 4B4B     		ldr	r3, .L21+16
 607 0122 0091     		str	r1, [sp, #0]
 608 0124 013A     		subs	r2, r2, #1
 609 0126 4FF49871 		mov	r1, #304
 610 012a 4046     		mov	r0, r8
 611 012c FFF7FEFF 		bl	chThdCreateStatic
 612 0130 2860     		str	r0, [r5, #0]
ARM GAS  /tmp/ccQqi3vQ.s 			page 12


 613              		.loc 1 195 0
 614 0132 4FF0FF30 		mov	r0, #-1
 615 0136 FFF7FEFF 		bl	chEvtWaitAny
 616              		.loc 1 196 0
 617 013a 04F13201 		add	r1, r4, #50
 618              		.loc 1 195 0
 619 013e 8146     		mov	r9, r0
 620              	.LVL41:
 621              		.loc 1 196 0
 622 0140 04F13702 		add	r2, r4, #55
 623 0144 0920     		movs	r0, #9
 624              	.LVL42:
 625 0146 FFF7FEFF 		bl	_test_assert_time_window
 626 014a 0028     		cmp	r0, #0
 627 014c 7FF46CAF 		bne	.L18
 628              		.loc 1 197 0
 629 0150 A9F1010C 		sub	ip, r9, #1
 630 0154 0A20     		movs	r0, #10
 631 0156 DCF10001 		rsbs	r1, ip, #0
 632 015a 41EB0C01 		adc	r1, r1, ip
 633 015e FFF7FEFF 		bl	_test_assert
 634 0162 0028     		cmp	r0, #0
 635 0164 7FF460AF 		bne	.L18
 636              		.loc 1 198 0
 637 0168 4FF0FF30 		mov	r0, #-1
 638 016c FFF7FEFF 		bl	chEvtGetAndClearEvents
 639              	.LVL43:
 640              		.loc 1 199 0
 641 0170 D0F10101 		rsbs	r1, r0, #1
 642 0174 38BF     		it	cc
 643 0176 0021     		movcc	r1, #0
 644 0178 0B20     		movs	r0, #11
 645              	.LVL44:
 646 017a FFF7FEFF 		bl	_test_assert
 647 017e 0028     		cmp	r0, #0
 648 0180 7FF452AF 		bne	.L18
 649              		.loc 1 205 0
 650 0184 334C     		ldr	r4, .L21+20
 651              	.LVL45:
 652              		.loc 1 206 0
 653 0186 DFF8D890 		ldr	r9, .L21+32
 654              		.loc 1 200 0
 655 018a FFF7FEFF 		bl	test_wait_threads
 656              		.loc 1 207 0
 657 018e 2046     		mov	r0, r4
 658 0190 02A9     		add	r1, sp, #8
 659 0192 0122     		movs	r2, #1
 660              		.loc 1 205 0
 661 0194 2460     		str	r4, [r4, #0]
 662              		.loc 1 206 0
 663 0196 C9F80090 		str	r9, [r9, #0]
 664              		.loc 1 207 0
 665 019a FFF7FEFF 		bl	chEvtRegisterMask
 666              		.loc 1 208 0
 667 019e 06A9     		add	r1, sp, #24
 668 01a0 0422     		movs	r2, #4
 669 01a2 4846     		mov	r0, r9
ARM GAS  /tmp/ccQqi3vQ.s 			page 13


 670 01a4 FFF7FEFF 		bl	chEvtRegisterMask
 671              		.loc 1 209 0
 672 01a8 FFF7FEFF 		bl	test_wait_tick
 673              		.loc 1 211 0
 674 01ac BB69     		ldr	r3, [r7, #24]
 675 01ae 2A49     		ldr	r1, .L21+24
 676 01b0 9A68     		ldr	r2, [r3, #8]
 677              		.loc 1 210 0
 678 01b2 F668     		ldr	r6, [r6, #12]
 679              	.LVL46:
 680              		.loc 1 211 0
 681 01b4 294B     		ldr	r3, .L21+28
 682 01b6 0091     		str	r1, [sp, #0]
 683 01b8 013A     		subs	r2, r2, #1
 684 01ba 4FF49871 		mov	r1, #304
 685 01be 4046     		mov	r0, r8
 686 01c0 FFF7FEFF 		bl	chThdCreateStatic
 687 01c4 2860     		str	r0, [r5, #0]
 688              		.loc 1 213 0
 689 01c6 0520     		movs	r0, #5
 690 01c8 FFF7FEFF 		bl	chEvtWaitAll
 691              		.loc 1 214 0
 692 01cc 0C20     		movs	r0, #12
 693 01ce 06F13201 		add	r1, r6, #50
 694 01d2 06F13702 		add	r2, r6, #55
 695 01d6 FFF7FEFF 		bl	_test_assert_time_window
 696 01da 0028     		cmp	r0, #0
 697 01dc 7FF424AF 		bne	.L18
 698              		.loc 1 215 0
 699 01e0 4FF0FF30 		mov	r0, #-1
 700 01e4 FFF7FEFF 		bl	chEvtGetAndClearEvents
 701              	.LVL47:
 702              		.loc 1 216 0
 703 01e8 D0F10101 		rsbs	r1, r0, #1
 704 01ec 38BF     		it	cc
 705 01ee 0021     		movcc	r1, #0
 706 01f0 0D20     		movs	r0, #13
 707              	.LVL48:
 708 01f2 FFF7FEFF 		bl	_test_assert
 709 01f6 0028     		cmp	r0, #0
 710 01f8 7FF416AF 		bne	.L18
 711              		.loc 1 217 0
 712 01fc FFF7FEFF 		bl	test_wait_threads
 713              		.loc 1 218 0
 714 0200 2046     		mov	r0, r4
 715 0202 02A9     		add	r1, sp, #8
 716 0204 FFF7FEFF 		bl	chEvtUnregister
 717              		.loc 1 219 0
 718 0208 4846     		mov	r0, r9
 719 020a 06A9     		add	r1, sp, #24
 720 020c FFF7FEFF 		bl	chEvtUnregister
 721              		.loc 1 220 0
 722 0210 2168     		ldr	r1, [r4, #0]
 723 0212 C4EB010E 		rsb	lr, r4, r1
 724 0216 0E20     		movs	r0, #14
 725 0218 DEF10001 		rsbs	r1, lr, #0
 726 021c 41EB0E01 		adc	r1, r1, lr
ARM GAS  /tmp/ccQqi3vQ.s 			page 14


 727 0220 FFF7FEFF 		bl	_test_assert
 728 0224 0028     		cmp	r0, #0
 729 0226 7FF4FFAE 		bne	.L18
 730              		.loc 1 221 0
 731 022a D9F80010 		ldr	r1, [r9, #0]
 732 022e C9EB0102 		rsb	r2, r9, r1
 733 0232 0F20     		movs	r0, #15
 734 0234 5142     		rsbs	r1, r2, #0
 735 0236 41EB0201 		adc	r1, r1, r2
 736 023a FFF7FEFF 		bl	_test_assert
 737 023e F3E6     		b	.L18
 738              	.L22:
 739              		.align	2
 740              	.L21:
 741 0240 00000000 		.word	rlist
 742 0244 00000000 		.word	vtlist
 743 0248 00000000 		.word	threads
 744 024c 00000000 		.word	wa
 745 0250 00000000 		.word	thread1
 746 0254 00000000 		.word	.LANCHOR0
 747 0258 04000000 		.word	.LC1
 748 025c 00000000 		.word	thread2
 749 0260 00000000 		.word	.LANCHOR1
 750              	.LBE11:
 751              	.LBE10:
 752              		.cfi_endproc
 753              	.LFE15:
 754              		.size	evt2_execute, .-evt2_execute
 755              		.global	patternevt
 756              		.global	testevt3
 757              		.global	testevt2
 758              		.global	testevt1
 759 0264 AFF30080 		.section	.rodata.patternevt,"a",%progbits
 759      AFF30080 
 759      AFF30080 
 760              		.align	2
 761              		.type	patternevt, %object
 762              		.size	patternevt, 16
 763              	patternevt:
 764 0000 00000000 		.word	testevt1
 765 0004 00000000 		.word	testevt2
 766 0008 00000000 		.word	testevt3
 767 000c 00000000 		.word	0
 768              		.section	.rodata.testevt2,"a",%progbits
 769              		.align	2
 770              		.type	testevt2, %object
 771              		.size	testevt2, 16
 772              	testevt2:
 773 0000 1C000000 		.word	.LC3
 774 0004 00000000 		.word	evt2_setup
 775 0008 00000000 		.word	0
 776 000c 00000000 		.word	evt2_execute
 777              		.section	.rodata.str1.4,"aMS",%progbits,1
 778              		.align	2
 779              	.LC0:
 780 0000 41424300 		.ascii	"ABC\000"
 781              	.LC1:
ARM GAS  /tmp/ccQqi3vQ.s 			page 15


 782 0004 4100     		.ascii	"A\000"
 783 0006 0000     		.space	2
 784              	.LC2:
 785 0008 4576656E 		.ascii	"Events, timeouts\000"
 785      74732C20 
 785      74696D65 
 785      6F757473 
 785      00
 786 0019 000000   		.space	3
 787              	.LC3:
 788 001c 4576656E 		.ascii	"Events, wait and broadcast\000"
 788      74732C20 
 788      77616974 
 788      20616E64 
 788      2062726F 
 789 0037 00       		.space	1
 790              	.LC4:
 791 0038 4576656E 		.ascii	"Events, registration and dispatch\000"
 791      74732C20 
 791      72656769 
 791      73747261 
 791      74696F6E 
 792 005a 0000     		.section	.rodata.testevt1,"a",%progbits
 793              		.align	2
 794              		.type	testevt1, %object
 795              		.size	testevt1, 16
 796              	testevt1:
 797 0000 38000000 		.word	.LC4
 798 0004 00000000 		.word	evt1_setup
 799 0008 00000000 		.word	0
 800 000c 00000000 		.word	evt1_execute
 801              		.section	.rodata.evhndl,"a",%progbits
 802              		.align	2
 803              		.set	.LANCHOR2,. + 0
 804              		.type	evhndl, %object
 805              		.size	evhndl, 12
 806              	evhndl:
 807 0000 00000000 		.word	h1
 808 0004 00000000 		.word	h2
 809 0008 00000000 		.word	h3
 810              		.section	.rodata.testevt3,"a",%progbits
 811              		.align	2
 812              		.type	testevt3, %object
 813              		.size	testevt3, 16
 814              	testevt3:
 815 0000 08000000 		.word	.LC2
 816 0004 00000000 		.word	evt3_setup
 817 0008 00000000 		.word	0
 818 000c 00000000 		.word	evt3_execute
 819              		.section	.data.es1,"aw",%progbits
 820              		.align	2
 821              		.set	.LANCHOR0,. + 0
 822              		.type	es1, %object
 823              		.size	es1, 4
 824              	es1:
 825 0000 00000000 		.word	es1
 826              		.section	.data.es2,"aw",%progbits
ARM GAS  /tmp/ccQqi3vQ.s 			page 16


 827              		.align	2
 828              		.set	.LANCHOR1,. + 0
 829              		.type	es2, %object
 830              		.size	es2, 4
 831              	es2:
 832 0000 00000000 		.word	es2
 833              		.text
 834              	.Letext0:
 835              		.file 2 "/opt/paparazzi/arm-multilib/lib/gcc/arm-none-eabi/4.6.2/../../../../arm-none-eabi/include
 836              		.file 3 "../../os/ports/GCC/ARMCMx/chtypes.h"
 837              		.file 4 "../../os/kernel/include/chlists.h"
 838              		.file 5 "../../os/kernel/include/chthreads.h"
 839              		.file 6 "../../os/ports/GCC/ARMCMx/chcore_v7m.h"
 840              		.file 7 "../../os/kernel/include/chvt.h"
 841              		.file 8 "../../os/kernel/include/chschd.h"
 842              		.file 9 "../../os/kernel/include/chmtx.h"
 843              		.file 10 "../../os/kernel/include/chevents.h"
 844              		.file 11 "../../test/test.h"