ARM GAS  /tmp/ccHMNvMF.s 			page 1


   1              		.syntax unified
   2              		.cpu cortex-m4
   3              		.fpu softvfp
   4              		.eabi_attribute 20, 1
   5              		.eabi_attribute 21, 1
   6              		.eabi_attribute 23, 3
   7              		.eabi_attribute 24, 1
   8              		.eabi_attribute 25, 1
   9              		.eabi_attribute 26, 1
  10              		.eabi_attribute 30, 2
  11              		.eabi_attribute 18, 4
  12              		.thumb
  13              		.file	"test.c"
  14              		.text
  15              	.Ltext0:
  16              		.cfi_sections	.debug_frame
  17              		.section	.text.tmr,"ax",%progbits
  18              		.align	2
  19              		.p2align 4,,15
  20              		.thumb
  21              		.thumb_func
  22              		.type	tmr, %function
  23              	tmr:
  24              	.LFB132:
  25              		.file 1 "../../test/test.c"
  26              		.loc 1 261 0
  27              		.cfi_startproc
  28              		@ args = 0, pretend = 0, frame = 0
  29              		@ frame_needed = 0, uses_anonymous_args = 0
  30              		@ link register save eliminated.
  31              	.LVL0:
  32              		.loc 1 264 0
  33 0000 40F20003 		movw	r3, #:lower16:.LANCHOR0
  34 0004 C0F20003 		movt	r3, #:upper16:.LANCHOR0
  35 0008 0122     		movs	r2, #1
  36 000a 1A70     		strb	r2, [r3, #0]
  37              		.loc 1 265 0
  38 000c 7047     		bx	lr
  39              		.cfi_endproc
  40              	.LFE132:
  41              		.size	tmr, .-tmr
  42              		.section	.text.print_line,"ax",%progbits
  43              		.align	2
  44              		.p2align 4,,15
  45              		.thumb
  46              		.thumb_func
  47              		.type	print_line, %function
  48              	print_line:
  49              	.LFB135:
  50              		.loc 1 300 0
  51              		.cfi_startproc
  52              		@ args = 0, pretend = 0, frame = 0
  53              		@ frame_needed = 0, uses_anonymous_args = 0
  54              	.LVL1:
  55 0000 38B5     		push	{r3, r4, r5, lr}
  56              	.LCFI0:
  57              		.cfi_def_cfa_offset 16
ARM GAS  /tmp/ccHMNvMF.s 			page 2


  58              		.cfi_offset 14, -4
  59              		.cfi_offset 5, -8
  60              		.cfi_offset 4, -12
  61              		.cfi_offset 3, -16
  62 0002 084D     		ldr	r5, .L6
  63              		.loc 1 300 0
  64 0004 4C24     		movs	r4, #76
  65              	.LVL2:
  66              	.L3:
  67              		.loc 1 304 0 discriminator 2
  68 0006 2868     		ldr	r0, [r5, #0]
  69 0008 0368     		ldr	r3, [r0, #0]
  70 000a 2D21     		movs	r1, #45
  71 000c 9B68     		ldr	r3, [r3, #8]
  72 000e 9847     		blx	r3
  73              		.loc 1 303 0 discriminator 2
  74 0010 013C     		subs	r4, r4, #1
  75 0012 F8D1     		bne	.L3
  76              		.loc 1 305 0
  77 0014 034B     		ldr	r3, .L6
  78 0016 0449     		ldr	r1, .L6+4
  79 0018 1868     		ldr	r0, [r3, #0]
  80 001a 0368     		ldr	r3, [r0, #0]
  81 001c 0222     		movs	r2, #2
  82 001e 1B68     		ldr	r3, [r3, #0]
  83 0020 9847     		blx	r3
  84              		.loc 1 306 0
  85 0022 38BD     		pop	{r3, r4, r5, pc}
  86              	.L7:
  87              		.align	2
  88              	.L6:
  89 0024 00000000 		.word	.LANCHOR1
  90 0028 00000000 		.word	.LC0
  91              		.cfi_endproc
  92              	.LFE135:
  93              		.size	print_line, .-print_line
  94 002c AFF30080 		.section	.text.test_printn,"ax",%progbits
  95              		.align	2
  96              		.p2align 4,,15
  97              		.global	test_printn
  98              		.thumb
  99              		.thumb_func
 100              		.type	test_printn, %function
 101              	test_printn:
 102              	.LFB118:
 103              		.loc 1 91 0
 104              		.cfi_startproc
 105              		@ args = 0, pretend = 0, frame = 16
 106              		@ frame_needed = 0, uses_anonymous_args = 0
 107              	.LVL3:
 108 0000 70B5     		push	{r4, r5, r6, lr}
 109              	.LCFI1:
 110              		.cfi_def_cfa_offset 16
 111              		.cfi_offset 14, -4
 112              		.cfi_offset 6, -8
 113              		.cfi_offset 5, -12
 114              		.cfi_offset 4, -16
ARM GAS  /tmp/ccHMNvMF.s 			page 3


 115 0002 84B0     		sub	sp, sp, #16
 116              	.LCFI2:
 117              		.cfi_def_cfa_offset 32
 118              		.loc 1 94 0
 119 0004 0028     		cmp	r0, #0
 120 0006 23D0     		beq	.L14
 121              		.loc 1 99 0
 122 0008 4CF6CD42 		movw	r2, #52429
 123              	.LBB24:
 124              	.LBB25:
 125              		.loc 1 97 0
 126 000c 6D46     		mov	r5, sp
 127              	.LBE25:
 128              	.LBE24:
 129              		.loc 1 94 0
 130 000e 6C46     		mov	r4, sp
 131              		.loc 1 99 0
 132 0010 CCF6CC42 		movt	r2, 52428
 133              	.LVL4:
 134              	.L11:
 135 0014 A2FB0013 		umull	r1, r3, r2, r0
 136 0018 DB08     		lsrs	r3, r3, #3
 137 001a 03EB8301 		add	r1, r3, r3, lsl #2
 138 001e A0EB4101 		sub	r1, r0, r1, lsl #1
 139 0022 3031     		adds	r1, r1, #48
 140 0024 C9B2     		uxtb	r1, r1
 141              		.loc 1 98 0
 142 0026 1846     		mov	r0, r3
 143              		.loc 1 99 0
 144 0028 04F8011B 		strb	r1, [r4], #1
 145              	.LVL5:
 146              		.loc 1 98 0
 147 002c 002B     		cmp	r3, #0
 148 002e F1D1     		bne	.L11
 149              		.loc 1 100 0
 150 0030 AC42     		cmp	r4, r5
 151 0032 0BD9     		bls	.L8
 152 0034 0A4E     		ldr	r6, .L16
 153              		.loc 1 91 0
 154 0036 0135     		adds	r5, r5, #1
 155 0038 02E0     		b	.L12
 156              	.LVL6:
 157              	.L15:
 158              		.loc 1 100 0
 159 003a 14F8021C 		ldrb	r1, [r4, #-2]	@ zero_extendqisi2
 160 003e 013C     		subs	r4, r4, #1
 161              	.L12:
 162              		.loc 1 101 0
 163 0040 3068     		ldr	r0, [r6, #0]
 164 0042 0368     		ldr	r3, [r0, #0]
 165 0044 9B68     		ldr	r3, [r3, #8]
 166 0046 9847     		blx	r3
 167              		.loc 1 100 0
 168 0048 AC42     		cmp	r4, r5
 169 004a F6D1     		bne	.L15
 170              	.L8:
 171              		.loc 1 103 0
ARM GAS  /tmp/ccHMNvMF.s 			page 4


 172 004c 04B0     		add	sp, sp, #16
 173 004e 70BD     		pop	{r4, r5, r6, pc}
 174              	.LVL7:
 175              	.L14:
 176              	.LBB27:
 177              	.LBB26:
 178              		.loc 1 95 0
 179 0050 034B     		ldr	r3, .L16
 180 0052 1868     		ldr	r0, [r3, #0]
 181              	.LVL8:
 182 0054 0368     		ldr	r3, [r0, #0]
 183 0056 3021     		movs	r1, #48
 184 0058 9B68     		ldr	r3, [r3, #8]
 185 005a 9847     		blx	r3
 186 005c F6E7     		b	.L8
 187              	.L17:
 188 005e 00BF     		.align	2
 189              	.L16:
 190 0060 00000000 		.word	.LANCHOR1
 191              	.LBE26:
 192              	.LBE27:
 193              		.cfi_endproc
 194              	.LFE118:
 195              		.size	test_printn, .-test_printn
 196 0064 AFF30080 		.section	.text.test_print,"ax",%progbits
 196      AFF30080 
 196      AFF30080 
 197              		.align	2
 198              		.p2align 4,,15
 199              		.global	test_print
 200              		.thumb
 201              		.thumb_func
 202              		.type	test_print, %function
 203              	test_print:
 204              	.LFB119:
 205              		.loc 1 110 0
 206              		.cfi_startproc
 207              		@ args = 0, pretend = 0, frame = 0
 208              		@ frame_needed = 0, uses_anonymous_args = 0
 209              	.LVL9:
 210 0000 38B5     		push	{r3, r4, r5, lr}
 211              	.LCFI3:
 212              		.cfi_def_cfa_offset 16
 213              		.cfi_offset 14, -4
 214              		.cfi_offset 5, -8
 215              		.cfi_offset 4, -12
 216              		.cfi_offset 3, -16
 217              		.loc 1 112 0
 218 0002 0178     		ldrb	r1, [r0, #0]	@ zero_extendqisi2
 219 0004 49B1     		cbz	r1, .L18
 220 0006 054D     		ldr	r5, .L22
 221 0008 0446     		mov	r4, r0
 222              	.LVL10:
 223              	.L20:
 224              		.loc 1 113 0
 225 000a 2868     		ldr	r0, [r5, #0]
 226 000c 0368     		ldr	r3, [r0, #0]
ARM GAS  /tmp/ccHMNvMF.s 			page 5


 227 000e 9B68     		ldr	r3, [r3, #8]
 228 0010 9847     		blx	r3
 229              		.loc 1 112 0
 230 0012 14F8011F 		ldrb	r1, [r4, #1]!	@ zero_extendqisi2
 231 0016 0029     		cmp	r1, #0
 232 0018 F7D1     		bne	.L20
 233              	.L18:
 234 001a 38BD     		pop	{r3, r4, r5, pc}
 235              	.L23:
 236              		.align	2
 237              	.L22:
 238 001c 00000000 		.word	.LANCHOR1
 239              		.cfi_endproc
 240              	.LFE119:
 241              		.size	test_print, .-test_print
 242              		.section	.text.test_println,"ax",%progbits
 243              		.align	2
 244              		.p2align 4,,15
 245              		.global	test_println
 246              		.thumb
 247              		.thumb_func
 248              		.type	test_println, %function
 249              	test_println:
 250              	.LFB120:
 251              		.loc 1 121 0
 252              		.cfi_startproc
 253              		@ args = 0, pretend = 0, frame = 0
 254              		@ frame_needed = 0, uses_anonymous_args = 0
 255              	.LVL11:
 256 0000 08B5     		push	{r3, lr}
 257              	.LCFI4:
 258              		.cfi_def_cfa_offset 8
 259              		.cfi_offset 14, -4
 260              		.cfi_offset 3, -8
 261              		.loc 1 123 0
 262 0002 FFF7FEFF 		bl	test_print
 263              	.LVL12:
 264              		.loc 1 124 0
 265 0006 40F20003 		movw	r3, #:lower16:.LANCHOR1
 266 000a C0F20003 		movt	r3, #:upper16:.LANCHOR1
 267 000e 40F20001 		movw	r1, #:lower16:.LC0
 268 0012 1868     		ldr	r0, [r3, #0]
 269 0014 0368     		ldr	r3, [r0, #0]
 270 0016 C0F20001 		movt	r1, #:upper16:.LC0
 271 001a 1B68     		ldr	r3, [r3, #0]
 272 001c 0222     		movs	r2, #2
 273 001e 9847     		blx	r3
 274              		.loc 1 125 0
 275 0020 08BD     		pop	{r3, pc}
 276              		.cfi_endproc
 277              	.LFE120:
 278              		.size	test_println, .-test_println
 279 0022 00BFAFF3 		.section	.text.test_emit_token,"ax",%progbits
 279      0080AFF3 
 279      0080AFF3 
 279      0080
 280              		.align	2
ARM GAS  /tmp/ccHMNvMF.s 			page 6


 281              		.p2align 4,,15
 282              		.global	test_emit_token
 283              		.thumb
 284              		.thumb_func
 285              		.type	test_emit_token, %function
 286              	test_emit_token:
 287              	.LFB123:
 288              		.loc 1 147 0
 289              		.cfi_startproc
 290              		@ args = 0, pretend = 0, frame = 0
 291              		@ frame_needed = 0, uses_anonymous_args = 0
 292              		@ link register save eliminated.
 293              	.LVL13:
 294              	.LBB28:
 295              		.loc 1 149 0
 296 0000 2023     		movs	r3, #32
 297              	.LVL14:
 298              	@ 149 "../../test/test.c" 1
 299 0002 83F31188 		msr     BASEPRI, r3
 300              	@ 0 "" 2
 301              	.LVL15:
 302              		.thumb
 303              	.LBE28:
 304              		.loc 1 150 0
 305 0006 40F20002 		movw	r2, #:lower16:.LANCHOR2
 306 000a C0F20002 		movt	r2, #:upper16:.LANCHOR2
 307              	.LBB29:
 308              		.loc 1 151 0
 309 000e 0023     		movs	r3, #0
 310              	.LVL16:
 311              	.LBE29:
 312              		.loc 1 150 0
 313 0010 1168     		ldr	r1, [r2, #0]
 314 0012 01F8010B 		strb	r0, [r1], #1
 315 0016 1160     		str	r1, [r2, #0]
 316              	.LBB30:
 317              		.loc 1 151 0
 318              	@ 151 "../../test/test.c" 1
 319 0018 83F31188 		msr     BASEPRI, r3
 320              	@ 0 "" 2
 321              	.LVL17:
 322              		.thumb
 323              	.LBE30:
 324              		.loc 1 152 0
 325 001c 7047     		bx	lr
 326              		.cfi_endproc
 327              	.LFE123:
 328              		.size	test_emit_token, .-test_emit_token
 329 001e 00BF     		.section	.text._test_fail,"ax",%progbits
 330              		.align	2
 331              		.p2align 4,,15
 332              		.global	_test_fail
 333              		.thumb
 334              		.thumb_func
 335              		.type	_test_fail, %function
 336              	_test_fail:
 337              	.LFB124:
ARM GAS  /tmp/ccHMNvMF.s 			page 7


 338              		.loc 1 157 0
 339              		.cfi_startproc
 340              		@ args = 0, pretend = 0, frame = 0
 341              		@ frame_needed = 0, uses_anonymous_args = 0
 342              		@ link register save eliminated.
 343              	.LVL18:
 344 0000 10B4     		push	{r4}
 345              	.LCFI5:
 346              		.cfi_def_cfa_offset 4
 347              		.cfi_offset 4, -4
 348              		.loc 1 159 0
 349 0002 40F20001 		movw	r1, #:lower16:.LANCHOR3
 350              		.loc 1 160 0
 351 0006 40F20002 		movw	r2, #:lower16:.LANCHOR4
 352              		.loc 1 161 0
 353 000a 40F20004 		movw	r4, #:lower16:.LANCHOR5
 354              		.loc 1 159 0
 355 000e C0F20001 		movt	r1, #:upper16:.LANCHOR3
 356              		.loc 1 160 0
 357 0012 C0F20002 		movt	r2, #:upper16:.LANCHOR4
 358              		.loc 1 161 0
 359 0016 C0F20004 		movt	r4, #:upper16:.LANCHOR5
 360              		.loc 1 159 0
 361 001a 0123     		movs	r3, #1
 362              		.loc 1 161 0
 363 001c 2060     		str	r0, [r4, #0]
 364              		.loc 1 159 0
 365 001e 0B70     		strb	r3, [r1, #0]
 366              		.loc 1 160 0
 367 0020 1370     		strb	r3, [r2, #0]
 368              		.loc 1 163 0
 369 0022 1846     		mov	r0, r3
 370              	.LVL19:
 371 0024 10BC     		pop	{r4}
 372 0026 7047     		bx	lr
 373              		.cfi_endproc
 374              	.LFE124:
 375              		.size	_test_fail, .-_test_fail
 376 0028 AFF30080 		.section	.text._test_assert,"ax",%progbits
 376      AFF30080 
 377              		.align	2
 378              		.p2align 4,,15
 379              		.global	_test_assert
 380              		.thumb
 381              		.thumb_func
 382              		.type	_test_assert, %function
 383              	_test_assert:
 384              	.LFB125:
 385              		.loc 1 165 0
 386              		.cfi_startproc
 387              		@ args = 0, pretend = 0, frame = 0
 388              		@ frame_needed = 0, uses_anonymous_args = 0
 389              		@ link register save eliminated.
 390              	.LVL20:
 391              		.loc 1 167 0
 392 0000 41B9     		cbnz	r1, .L29
 393              	.LVL21:
ARM GAS  /tmp/ccHMNvMF.s 			page 8


 394              	.LBB31:
 395              	.LBB32:
 396              		.loc 1 159 0
 397 0002 054A     		ldr	r2, .L30
 398 0004 0123     		movs	r3, #1
 399 0006 1370     		strb	r3, [r2, #0]
 400              		.loc 1 160 0
 401 0008 044A     		ldr	r2, .L30+4
 402 000a 1370     		strb	r3, [r2, #0]
 403              		.loc 1 161 0
 404 000c 044A     		ldr	r2, .L30+8
 405 000e 1060     		str	r0, [r2, #0]
 406              	.LBE32:
 407              	.LBE31:
 408              		.loc 1 168 0
 409 0010 1846     		mov	r0, r3
 410              	.LVL22:
 411 0012 7047     		bx	lr
 412              	.LVL23:
 413              	.L29:
 414              		.loc 1 169 0
 415 0014 0020     		movs	r0, #0
 416              	.LVL24:
 417              		.loc 1 170 0
 418 0016 7047     		bx	lr
 419              	.L31:
 420              		.align	2
 421              	.L30:
 422 0018 00000000 		.word	.LANCHOR3
 423 001c 00000000 		.word	.LANCHOR4
 424 0020 00000000 		.word	.LANCHOR5
 425              		.cfi_endproc
 426              	.LFE125:
 427              		.size	_test_assert, .-_test_assert
 428 0024 AFF30080 		.section	.text._test_assert_sequence,"ax",%progbits
 428      AFF30080 
 428      AFF30080 
 429              		.align	2
 430              		.p2align 4,,15
 431              		.global	_test_assert_sequence
 432              		.thumb
 433              		.thumb_func
 434              		.type	_test_assert_sequence, %function
 435              	_test_assert_sequence:
 436              	.LFB126:
 437              		.loc 1 172 0
 438              		.cfi_startproc
 439              		@ args = 0, pretend = 0, frame = 0
 440              		@ frame_needed = 0, uses_anonymous_args = 0
 441              		@ link register save eliminated.
 442              	.LVL25:
 443 0000 F0B4     		push	{r4, r5, r6, r7}
 444              	.LCFI6:
 445              		.cfi_def_cfa_offset 16
 446              		.cfi_offset 7, -4
 447              		.cfi_offset 6, -8
 448              		.cfi_offset 5, -12
ARM GAS  /tmp/ccHMNvMF.s 			page 9


 449              		.cfi_offset 4, -16
 450              		.loc 1 181 0
 451 0002 0F4A     		ldr	r2, .L39
 452              		.loc 1 173 0
 453 0004 0F4C     		ldr	r4, .L39+4
 454              		.loc 1 181 0
 455 0006 1368     		ldr	r3, [r2, #0]
 456              		.loc 1 173 0
 457 0008 2546     		mov	r5, r4
 458              		.loc 1 174 0
 459 000a 04E0     		b	.L33
 460              	.LVL26:
 461              	.L35:
 462              		.loc 1 175 0
 463 000c 11F8017B 		ldrb	r7, [r1], #1	@ zero_extendqisi2
 464              	.LVL27:
 465 0010 3678     		ldrb	r6, [r6, #0]	@ zero_extendqisi2
 466 0012 BE42     		cmp	r6, r7
 467 0014 09D1     		bne	.L38
 468              	.L33:
 469              		.loc 1 174 0 discriminator 1
 470 0016 AB42     		cmp	r3, r5
 471              		.loc 1 176 0 discriminator 1
 472 0018 2E46     		mov	r6, r5
 473              		.loc 1 174 0 discriminator 1
 474 001a 05F10105 		add	r5, r5, #1
 475 001e F5D8     		bhi	.L35
 476              		.loc 1 178 0
 477 0020 0B78     		ldrb	r3, [r1, #0]	@ zero_extendqisi2
 478 0022 13B9     		cbnz	r3, .L38
 479              	.LBB33:
 480              	.LBB34:
 481              		.loc 1 132 0
 482 0024 1460     		str	r4, [r2, #0]
 483              	.LBE34:
 484              	.LBE33:
 485              		.loc 1 181 0
 486 0026 1846     		mov	r0, r3
 487              	.LVL28:
 488 0028 07E0     		b	.L34
 489              	.LVL29:
 490              	.L38:
 491              	.LBB35:
 492              	.LBB36:
 493              		.loc 1 159 0
 494 002a 074A     		ldr	r2, .L39+8
 495 002c 0123     		movs	r3, #1
 496 002e 1370     		strb	r3, [r2, #0]
 497              		.loc 1 160 0
 498 0030 064A     		ldr	r2, .L39+12
 499 0032 1370     		strb	r3, [r2, #0]
 500              		.loc 1 161 0
 501 0034 064A     		ldr	r2, .L39+16
 502 0036 1060     		str	r0, [r2, #0]
 503              	.LBE36:
 504              	.LBE35:
 505              		.loc 1 179 0
ARM GAS  /tmp/ccHMNvMF.s 			page 10


 506 0038 1846     		mov	r0, r3
 507              	.LVL30:
 508              	.L34:
 509              		.loc 1 182 0
 510 003a F0BC     		pop	{r4, r5, r6, r7}
 511 003c 7047     		bx	lr
 512              	.L40:
 513 003e 00BF     		.align	2
 514              	.L39:
 515 0040 00000000 		.word	.LANCHOR2
 516 0044 00000000 		.word	.LANCHOR6
 517 0048 00000000 		.word	.LANCHOR3
 518 004c 00000000 		.word	.LANCHOR4
 519 0050 00000000 		.word	.LANCHOR5
 520              		.cfi_endproc
 521              	.LFE126:
 522              		.size	_test_assert_sequence, .-_test_assert_sequence
 523 0054 AFF30080 		.section	.text._test_assert_time_window,"ax",%progbits
 523      AFF30080 
 523      AFF30080 
 524              		.align	2
 525              		.p2align 4,,15
 526              		.global	_test_assert_time_window
 527              		.thumb
 528              		.thumb_func
 529              		.type	_test_assert_time_window, %function
 530              	_test_assert_time_window:
 531              	.LFB127:
 532              		.loc 1 184 0
 533              		.cfi_startproc
 534              		@ args = 0, pretend = 0, frame = 0
 535              		@ frame_needed = 0, uses_anonymous_args = 0
 536              	.LVL31:
 537 0000 10B5     		push	{r4, lr}
 538              	.LCFI7:
 539              		.cfi_def_cfa_offset 8
 540              		.cfi_offset 14, -4
 541              		.cfi_offset 4, -8
 542              		.loc 1 184 0
 543 0002 0446     		mov	r4, r0
 544              		.loc 1 186 0
 545 0004 0846     		mov	r0, r1
 546              	.LVL32:
 547 0006 1146     		mov	r1, r2
 548              	.LVL33:
 549 0008 FFF7FEFF 		bl	chTimeIsWithin
 550              	.LVL34:
 551              	.LBB37:
 552              	.LBB38:
 553              		.loc 1 167 0
 554 000c 38B9     		cbnz	r0, .L43
 555              	.LVL35:
 556              	.LBB39:
 557              	.LBB40:
 558              		.loc 1 159 0
 559 000e 054B     		ldr	r3, .L44
 560 0010 0120     		movs	r0, #1
ARM GAS  /tmp/ccHMNvMF.s 			page 11


 561              	.LVL36:
 562 0012 1870     		strb	r0, [r3, #0]
 563              		.loc 1 160 0
 564 0014 044B     		ldr	r3, .L44+4
 565 0016 1870     		strb	r0, [r3, #0]
 566              		.loc 1 161 0
 567 0018 044B     		ldr	r3, .L44+8
 568 001a 1C60     		str	r4, [r3, #0]
 569 001c 10BD     		pop	{r4, pc}
 570              	.LVL37:
 571              	.L43:
 572              	.LBE40:
 573              	.LBE39:
 574              		.loc 1 169 0
 575 001e 0020     		movs	r0, #0
 576              	.LVL38:
 577              	.LBE38:
 578              	.LBE37:
 579              		.loc 1 187 0
 580 0020 10BD     		pop	{r4, pc}
 581              	.L45:
 582 0022 00BF     		.align	2
 583              	.L44:
 584 0024 00000000 		.word	.LANCHOR3
 585 0028 00000000 		.word	.LANCHOR4
 586 002c 00000000 		.word	.LANCHOR5
 587              		.cfi_endproc
 588              	.LFE127:
 589              		.size	_test_assert_time_window, .-_test_assert_time_window
 590              		.section	.text.test_terminate_threads,"ax",%progbits
 591              		.align	2
 592              		.p2align 4,,15
 593              		.global	test_terminate_threads
 594              		.thumb
 595              		.thumb_func
 596              		.type	test_terminate_threads, %function
 597              	test_terminate_threads:
 598              	.LFB128:
 599              		.loc 1 196 0
 600              		.cfi_startproc
 601              		@ args = 0, pretend = 0, frame = 0
 602              		@ frame_needed = 0, uses_anonymous_args = 0
 603              	.LVL39:
 604 0000 38B5     		push	{r3, r4, r5, lr}
 605              	.LCFI8:
 606              		.cfi_def_cfa_offset 16
 607              		.cfi_offset 14, -4
 608              		.cfi_offset 5, -8
 609              		.cfi_offset 4, -12
 610              		.cfi_offset 3, -16
 611              		.loc 1 196 0
 612 0002 064C     		ldr	r4, .L50
 613 0004 04F11405 		add	r5, r4, #20
 614              	.LVL40:
 615              	.L48:
 616              		.loc 1 200 0
 617 0008 54F8043F 		ldr	r3, [r4, #4]!
ARM GAS  /tmp/ccHMNvMF.s 			page 12


 618              		.loc 1 201 0
 619 000c 1846     		mov	r0, r3
 620              		.loc 1 200 0
 621 000e 0BB1     		cbz	r3, .L47
 622              		.loc 1 201 0
 623 0010 FFF7FEFF 		bl	chThdTerminate
 624              	.L47:
 625              		.loc 1 199 0
 626 0014 AC42     		cmp	r4, r5
 627 0016 F7D1     		bne	.L48
 628              		.loc 1 202 0
 629 0018 38BD     		pop	{r3, r4, r5, pc}
 630              	.L51:
 631 001a 00BF     		.align	2
 632              	.L50:
 633 001c FCFFFFFF 		.word	.LANCHOR7-4
 634              		.cfi_endproc
 635              	.LFE128:
 636              		.size	test_terminate_threads, .-test_terminate_threads
 637              		.section	.text.test_wait_threads,"ax",%progbits
 638              		.align	2
 639              		.p2align 4,,15
 640              		.global	test_wait_threads
 641              		.thumb
 642              		.thumb_func
 643              		.type	test_wait_threads, %function
 644              	test_wait_threads:
 645              	.LFB129:
 646              		.loc 1 207 0
 647              		.cfi_startproc
 648              		@ args = 0, pretend = 0, frame = 0
 649              		@ frame_needed = 0, uses_anonymous_args = 0
 650              	.LVL41:
 651 0000 70B5     		push	{r4, r5, r6, lr}
 652              	.LCFI9:
 653              		.cfi_def_cfa_offset 16
 654              		.cfi_offset 14, -4
 655              		.cfi_offset 6, -8
 656              		.cfi_offset 5, -12
 657              		.cfi_offset 4, -16
 658              		.loc 1 207 0
 659 0002 074C     		ldr	r4, .L56
 660              		.loc 1 213 0
 661 0004 0026     		movs	r6, #0
 662              		.loc 1 207 0
 663 0006 04F11405 		add	r5, r4, #20
 664              	.LVL42:
 665              	.L54:
 666              		.loc 1 211 0
 667 000a 54F8043B 		ldr	r3, [r4], #4
 668              		.loc 1 212 0
 669 000e 1846     		mov	r0, r3
 670              		.loc 1 211 0
 671 0010 1BB1     		cbz	r3, .L53
 672              		.loc 1 212 0
 673 0012 FFF7FEFF 		bl	chThdWait
 674              		.loc 1 213 0
ARM GAS  /tmp/ccHMNvMF.s 			page 13


 675 0016 44F8046C 		str	r6, [r4, #-4]
 676              	.L53:
 677              		.loc 1 210 0
 678 001a AC42     		cmp	r4, r5
 679 001c F5D1     		bne	.L54
 680              		.loc 1 215 0
 681 001e 70BD     		pop	{r4, r5, r6, pc}
 682              	.L57:
 683              		.align	2
 684              	.L56:
 685 0020 00000000 		.word	.LANCHOR7
 686              		.cfi_endproc
 687              	.LFE129:
 688              		.size	test_wait_threads, .-test_wait_threads
 689 0024 AFF30080 		.section	.text.test_cpu_pulse,"ax",%progbits
 689      AFF30080 
 689      AFF30080 
 690              		.align	2
 691              		.p2align 4,,15
 692              		.global	test_cpu_pulse
 693              		.thumb
 694              		.thumb_func
 695              		.type	test_cpu_pulse, %function
 696              	test_cpu_pulse:
 697              	.LFB130:
 698              		.loc 1 224 0
 699              		.cfi_startproc
 700              		@ args = 0, pretend = 0, frame = 0
 701              		@ frame_needed = 0, uses_anonymous_args = 0
 702              		@ link register save eliminated.
 703              	.LVL43:
 704              		.loc 1 227 0
 705 0000 154B     		ldr	r3, .L64
 706 0002 9A69     		ldr	r2, [r3, #24]
 707              		.loc 1 228 0
 708 0004 4FF47A71 		mov	r1, #1000
 709              		.loc 1 224 0
 710 0008 30B4     		push	{r4, r5}
 711              	.LCFI10:
 712              		.cfi_def_cfa_offset 8
 713              		.cfi_offset 5, -4
 714              		.cfi_offset 4, -8
 715              		.loc 1 228 0
 716 000a 01FB00F0 		mul	r0, r1, r0
 717              	.LVL44:
 718              		.loc 1 227 0
 719 000e 136A     		ldr	r3, [r2, #32]
 720              	.LVL45:
 721              		.loc 1 228 0
 722 0010 44F6D354 		movw	r4, #19923
 723 0014 0138     		subs	r0, r0, #1
 724 0016 C1F26204 		movt	r4, 4194
 725 001a 5D1C     		adds	r5, r3, #1
 726 001c A4FB0010 		umull	r1, r0, r4, r0
 727 0020 05EB9010 		add	r0, r5, r0, lsr #6
 728              	.LVL46:
 729              	.L61:
ARM GAS  /tmp/ccHMNvMF.s 			page 14


 730              		.loc 1 235 0
 731 0024 8342     		cmp	r3, r0
 732              		.loc 1 230 0
 733 0026 116A     		ldr	r1, [r2, #32]
 734              	.LVL47:
 735              		.loc 1 235 0
 736 0028 0AD2     		bcs	.L59
 737              		.loc 1 235 0 is_stmt 0 discriminator 1
 738 002a 8142     		cmp	r1, r0
 739 002c 2CBF     		ite	cs
 740 002e 0024     		movcs	r4, #0
 741 0030 0124     		movcc	r4, #1
 742 0032 9942     		cmp	r1, r3
 743 0034 38BF     		it	cc
 744 0036 0024     		movcc	r4, #0
 745              		.loc 1 236 0 is_stmt 1 discriminator 1
 746 0038 002C     		cmp	r4, #0
 747 003a F3D1     		bne	.L61
 748              	.L63:
 749              		.loc 1 237 0
 750 003c 30BC     		pop	{r4, r5}
 751 003e 7047     		bx	lr
 752              	.L59:
 753              		.loc 1 236 0 discriminator 2
 754 0040 9942     		cmp	r1, r3
 755 0042 34BF     		ite	cc
 756 0044 0024     		movcc	r4, #0
 757 0046 0124     		movcs	r4, #1
 758              		.loc 1 235 0 discriminator 2
 759 0048 8142     		cmp	r1, r0
 760 004a 38BF     		it	cc
 761 004c 44F00104 		orrcc	r4, r4, #1
 762              		.loc 1 236 0 discriminator 2
 763 0050 002C     		cmp	r4, #0
 764 0052 E7D1     		bne	.L61
 765 0054 F2E7     		b	.L63
 766              	.L65:
 767 0056 00BF     		.align	2
 768              	.L64:
 769 0058 00000000 		.word	rlist
 770              		.cfi_endproc
 771              	.LFE130:
 772              		.size	test_cpu_pulse, .-test_cpu_pulse
 773 005c AFF30080 		.section	.text.test_wait_tick,"ax",%progbits
 774              		.align	2
 775              		.p2align 4,,15
 776              		.global	test_wait_tick
 777              		.thumb
 778              		.thumb_func
 779              		.type	test_wait_tick, %function
 780              	test_wait_tick:
 781              	.LFB131:
 782              		.loc 1 245 0
 783              		.cfi_startproc
 784              		@ args = 0, pretend = 0, frame = 0
 785              		@ frame_needed = 0, uses_anonymous_args = 0
 786 0000 08B5     		push	{r3, lr}
ARM GAS  /tmp/ccHMNvMF.s 			page 15


 787              	.LCFI11:
 788              		.cfi_def_cfa_offset 8
 789              		.cfi_offset 14, -4
 790              		.cfi_offset 3, -8
 791              		.loc 1 247 0
 792 0002 0120     		movs	r0, #1
 793 0004 FFF7FEFF 		bl	chThdSleep
 794              		.loc 1 248 0
 795 0008 40F20003 		movw	r3, #:lower16:vtlist
 796 000c C0F20003 		movt	r3, #:upper16:vtlist
 797 0010 D868     		ldr	r0, [r3, #12]
 798              		.loc 1 249 0
 799 0012 08BD     		pop	{r3, pc}
 800              		.cfi_endproc
 801              	.LFE131:
 802              		.size	test_wait_tick, .-test_wait_tick
 803 0014 AFF30080 		.section	.text.test_start_timer,"ax",%progbits
 803      AFF30080 
 803      AFF30080 
 804              		.align	2
 805              		.p2align 4,,15
 806              		.global	test_start_timer
 807              		.thumb
 808              		.thumb_func
 809              		.type	test_start_timer, %function
 810              	test_start_timer:
 811              	.LFB133:
 812              		.loc 1 272 0
 813              		.cfi_startproc
 814              		@ args = 0, pretend = 0, frame = 0
 815              		@ frame_needed = 0, uses_anonymous_args = 0
 816              	.LVL48:
 817              		.loc 1 275 0
 818 0000 40F20003 		movw	r3, #:lower16:.LANCHOR0
 819 0004 C0F20003 		movt	r3, #:upper16:.LANCHOR0
 820              		.loc 1 272 0
 821 0008 10B5     		push	{r4, lr}
 822              	.LCFI12:
 823              		.cfi_def_cfa_offset 8
 824              		.cfi_offset 14, -4
 825              		.cfi_offset 4, -8
 826              		.loc 1 275 0
 827 000a 0024     		movs	r4, #0
 828 000c 1C70     		strb	r4, [r3, #0]
 829              	.LVL49:
 830              	.LBB41:
 831              		.loc 1 276 0
 832 000e 2023     		movs	r3, #32
 833              	.LVL50:
 834              	@ 276 "../../test/test.c" 1
 835 0010 83F31188 		msr     BASEPRI, r3
 836              	@ 0 "" 2
 837              	.LVL51:
 838              		.thumb
 839              	.LBE41:
 840              		.loc 1 274 0
 841 0014 4FF47A71 		mov	r1, #1000
ARM GAS  /tmp/ccHMNvMF.s 			page 16


 842 0018 01FB00F1 		mul	r1, r1, r0
 843 001c 44F6D353 		movw	r3, #19923
 844              	.LVL52:
 845 0020 0139     		subs	r1, r1, #1
 846 0022 C1F26203 		movt	r3, 4194
 847 0026 A3FB0121 		umull	r2, r1, r3, r1
 848 002a 8909     		lsrs	r1, r1, #6
 849              		.loc 1 276 0
 850 002c 40F20000 		movw	r0, #:lower16:.LANCHOR8
 851              	.LVL53:
 852 0030 40F20002 		movw	r2, #:lower16:tmr
 853 0034 2346     		mov	r3, r4
 854 0036 C0F20000 		movt	r0, #:upper16:.LANCHOR8
 855 003a 0131     		adds	r1, r1, #1
 856 003c C0F20002 		movt	r2, #:upper16:tmr
 857 0040 FFF7FEFF 		bl	chVTSetI
 858              	.LBB42:
 859 0044 2346     		mov	r3, r4
 860              	.LVL54:
 861              	@ 276 "../../test/test.c" 1
 862 0046 83F31188 		msr     BASEPRI, r3
 863              	@ 0 "" 2
 864              	.LVL55:
 865              		.thumb
 866              	.LBE42:
 867              		.loc 1 277 0
 868 004a 10BD     		pop	{r4, pc}
 869              		.cfi_endproc
 870              	.LFE133:
 871              		.size	test_start_timer, .-test_start_timer
 872 004c AFF30080 		.section	.text.TestThread,"ax",%progbits
 873              		.align	2
 874              		.p2align 4,,15
 875              		.global	TestThread
 876              		.thumb
 877              		.thumb_func
 878              		.type	TestThread, %function
 879              	TestThread:
 880              	.LFB136:
 881              		.loc 1 314 0
 882              		.cfi_startproc
 883              		@ args = 0, pretend = 0, frame = 8
 884              		@ frame_needed = 0, uses_anonymous_args = 0
 885              	.LVL56:
 886 0000 2DE9F04F 		push	{r4, r5, r6, r7, r8, r9, sl, fp, lr}
 887              	.LCFI13:
 888              		.cfi_def_cfa_offset 36
 889              		.cfi_offset 14, -4
 890              		.cfi_offset 11, -8
 891              		.cfi_offset 10, -12
 892              		.cfi_offset 9, -16
 893              		.cfi_offset 8, -20
 894              		.cfi_offset 7, -24
 895              		.cfi_offset 6, -28
 896              		.cfi_offset 5, -32
 897              		.cfi_offset 4, -36
 898              		.loc 1 317 0
ARM GAS  /tmp/ccHMNvMF.s 			page 17


 899 0004 694E     		ldr	r6, .L85
 900              		.loc 1 349 0
 901 0006 DFF838B2 		ldr	fp, .L85+148
 902              		.loc 1 317 0
 903 000a 3060     		str	r0, [r6, #0]
 904              		.loc 1 314 0
 905 000c 83B0     		sub	sp, sp, #12
 906              	.LCFI14:
 907              		.cfi_def_cfa_offset 48
 908              		.loc 1 318 0
 909 000e 6848     		ldr	r0, .L85+4
 910              	.LVL57:
 911              	.LBB43:
 912              	.LBB44:
 913              	.LBB45:
 914              	.LBB46:
 915              		.loc 1 132 0
 916 0010 684D     		ldr	r5, .L85+8
 917 0012 DFF81492 		ldr	r9, .L85+124
 918              	.LBE46:
 919              	.LBE45:
 920              	.LBE44:
 921              	.LBE43:
 922              		.loc 1 349 0
 923 0016 684F     		ldr	r7, .L85+12
 924              		.loc 1 318 0
 925 0018 FFF7FEFF 		bl	test_println
 926              	.LVL58:
 927              		.loc 1 319 0
 928 001c 6748     		ldr	r0, .L85+16
 929 001e FFF7FEFF 		bl	test_println
 930              		.loc 1 320 0
 931 0022 6748     		ldr	r0, .L85+20
 932 0024 FFF7FEFF 		bl	test_println
 933              		.loc 1 321 0
 934 0028 6648     		ldr	r0, .L85+24
 935 002a FFF7FEFF 		bl	test_print
 936              		.loc 1 322 0
 937 002e 6648     		ldr	r0, .L85+28
 938 0030 FFF7FEFF 		bl	test_println
 939              		.loc 1 323 0
 940 0034 6548     		ldr	r0, .L85+32
 941 0036 FFF7FEFF 		bl	test_print
 942              		.loc 1 324 0
 943 003a 6548     		ldr	r0, .L85+36
 944 003c FFF7FEFF 		bl	test_println
 945              		.loc 1 326 0
 946 0040 6448     		ldr	r0, .L85+40
 947 0042 FFF7FEFF 		bl	test_print
 948              		.loc 1 327 0
 949 0046 6448     		ldr	r0, .L85+44
 950 0048 FFF7FEFF 		bl	test_println
 951              		.loc 1 329 0
 952 004c 6348     		ldr	r0, .L85+48
 953 004e FFF7FEFF 		bl	test_print
 954              		.loc 1 330 0
 955 0052 6348     		ldr	r0, .L85+52
ARM GAS  /tmp/ccHMNvMF.s 			page 18


 956 0054 FFF7FEFF 		bl	test_println
 957              		.loc 1 332 0
 958 0058 6248     		ldr	r0, .L85+56
 959 005a FFF7FEFF 		bl	test_print
 960              		.loc 1 333 0
 961 005e 6248     		ldr	r0, .L85+60
 962 0060 FFF7FEFF 		bl	test_println
 963              		.loc 1 336 0
 964 0064 6148     		ldr	r0, .L85+64
 965 0066 FFF7FEFF 		bl	test_print
 966              		.loc 1 337 0
 967 006a 6148     		ldr	r0, .L85+68
 968 006c FFF7FEFF 		bl	test_println
 969              		.loc 1 340 0
 970 0070 6048     		ldr	r0, .L85+72
 971 0072 FFF7FEFF 		bl	test_print
 972              		.loc 1 341 0
 973 0076 6048     		ldr	r0, .L85+76
 974 0078 FFF7FEFF 		bl	test_println
 975              		.loc 1 344 0
 976 007c 5F48     		ldr	r0, .L85+80
 977 007e FFF7FEFF 		bl	test_print
 978              		.loc 1 345 0
 979 0082 5F48     		ldr	r0, .L85+84
 980 0084 FFF7FEFF 		bl	test_println
 981              		.loc 1 347 0
 982 0088 4948     		ldr	r0, .L85+4
 983 008a FFF7FEFF 		bl	test_println
 984              		.loc 1 349 0
 985 008e 40F20002 		movw	r2, #:lower16:.LANCHOR4
 986 0092 C0F20002 		movt	r2, #:upper16:.LANCHOR4
 987 0096 4FF0000A 		mov	sl, #0
 988 009a 82F800A0 		strb	sl, [r2, #0]
 989              	.LVL59:
 990              	.L69:
 991              		.loc 1 351 0 discriminator 1
 992 009e 0AF1010A 		add	sl, sl, #1
 993              		.loc 1 314 0 discriminator 1
 994 00a2 4FF00008 		mov	r8, #0
 995              	.L82:
 996              	.LVL60:
 997              		.loc 1 353 0 discriminator 1
 998 00a6 57F8043B 		ldr	r3, [r7], #4
 999 00aa 002B     		cmp	r3, #0
 1000 00ac 59D0     		beq	.L83
 1001              	.L76:
 1002              		.loc 1 354 0
 1003 00ae FFF7FEFF 		bl	print_line
 1004              		.loc 1 355 0
 1005 00b2 5448     		ldr	r0, .L85+88
 1006              	.LBB52:
 1007              	.LBB49:
 1008              		.loc 1 287 0
 1009 00b4 544C     		ldr	r4, .L85+92
 1010              	.LBE49:
 1011              	.LBE52:
 1012              		.loc 1 355 0
ARM GAS  /tmp/ccHMNvMF.s 			page 19


 1013 00b6 FFF7FEFF 		bl	test_print
 1014              		.loc 1 356 0
 1015 00ba 5046     		mov	r0, sl
 1016 00bc FFF7FEFF 		bl	test_printn
 1017              		.loc 1 358 0
 1018 00c0 08F10108 		add	r8, r8, #1
 1019              	.LVL61:
 1020              		.loc 1 357 0
 1021 00c4 5148     		ldr	r0, .L85+96
 1022 00c6 FFF7FEFF 		bl	test_print
 1023              		.loc 1 358 0
 1024 00ca 4046     		mov	r0, r8
 1025 00cc FFF7FEFF 		bl	test_printn
 1026              		.loc 1 359 0
 1027 00d0 4F48     		ldr	r0, .L85+100
 1028 00d2 FFF7FEFF 		bl	test_print
 1029              		.loc 1 360 0
 1030 00d6 57F8043C 		ldr	r3, [r7, #-4]
 1031 00da 1868     		ldr	r0, [r3, #0]
 1032 00dc FFF7FEFF 		bl	test_print
 1033              		.loc 1 361 0
 1034 00e0 4C48     		ldr	r0, .L85+104
 1035 00e2 FFF7FEFF 		bl	test_println
 1036              		.loc 1 363 0
 1037 00e6 C820     		movs	r0, #200
 1038 00e8 FFF7FEFF 		bl	chThdSleep
 1039              	.LBB53:
 1040              	.LBB50:
 1041              		.loc 1 289 0
 1042 00ec 4A4A     		ldr	r2, .L85+108
 1043              	.LBE50:
 1044              	.LBE53:
 1045              		.loc 1 365 0
 1046 00ee 57F8043C 		ldr	r3, [r7, #-4]
 1047              	.LVL62:
 1048              	.LBB54:
 1049              	.LBB51:
 1050              	.LBB48:
 1051              	.LBB47:
 1052              		.loc 1 132 0
 1053 00f2 C5F80090 		str	r9, [r5, #0]
 1054              	.LBE47:
 1055              	.LBE48:
 1056              		.loc 1 287 0
 1057 00f6 0021     		movs	r1, #0
 1058              		.loc 1 289 0
 1059 00f8 1160     		str	r1, [r2, #0]
 1060 00fa 5160     		str	r1, [r2, #4]
 1061 00fc 9160     		str	r1, [r2, #8]
 1062 00fe D160     		str	r1, [r2, #12]
 1063 0100 1161     		str	r1, [r2, #16]
 1064              		.loc 1 291 0
 1065 0102 5A68     		ldr	r2, [r3, #4]
 1066              		.loc 1 287 0
 1067 0104 2170     		strb	r1, [r4, #0]
 1068              	.LVL63:
 1069              		.loc 1 291 0
ARM GAS  /tmp/ccHMNvMF.s 			page 20


 1070 0106 12B1     		cbz	r2, .L70
 1071              		.loc 1 292 0
 1072 0108 0193     		str	r3, [sp, #4]
 1073 010a 9047     		blx	r2
 1074              	.LVL64:
 1075 010c 019B     		ldr	r3, [sp, #4]
 1076              	.L70:
 1077              		.loc 1 293 0
 1078 010e DA68     		ldr	r2, [r3, #12]
 1079 0110 0193     		str	r3, [sp, #4]
 1080 0112 9047     		blx	r2
 1081              		.loc 1 294 0
 1082 0114 019B     		ldr	r3, [sp, #4]
 1083 0116 9B68     		ldr	r3, [r3, #8]
 1084 0118 03B1     		cbz	r3, .L71
 1085              		.loc 1 295 0
 1086 011a 9847     		blx	r3
 1087              	.L71:
 1088              		.loc 1 297 0
 1089 011c FFF7FEFF 		bl	test_wait_threads
 1090              	.LBE51:
 1091              	.LBE54:
 1092              		.loc 1 366 0
 1093 0120 2378     		ldrb	r3, [r4, #0]	@ zero_extendqisi2
 1094 0122 002B     		cmp	r3, #0
 1095 0124 3AD0     		beq	.L72
 1096              		.loc 1 367 0
 1097 0126 3D48     		ldr	r0, .L85+112
 1098 0128 FFF7FEFF 		bl	test_print
 1099              		.loc 1 368 0
 1100 012c 3C4B     		ldr	r3, .L85+116
 1101 012e 1868     		ldr	r0, [r3, #0]
 1102 0130 FFF7FEFF 		bl	test_printn
 1103              		.loc 1 369 0
 1104 0134 3B48     		ldr	r0, .L85+120
 1105 0136 FFF7FEFF 		bl	test_print
 1106              	.LVL65:
 1107              	.LBB55:
 1108              	.LBB56:
 1109              		.loc 1 138 0
 1110 013a 2B68     		ldr	r3, [r5, #0]
 1111 013c 4B45     		cmp	r3, r9
 1112 013e 09D9     		bls	.L73
 1113 0140 394C     		ldr	r4, .L85+124
 1114              	.LVL66:
 1115              	.L74:
 1116              		.loc 1 139 0
 1117 0142 3068     		ldr	r0, [r6, #0]
 1118 0144 14F8011B 		ldrb	r1, [r4], #1	@ zero_extendqisi2
 1119              	.LVL67:
 1120 0148 0368     		ldr	r3, [r0, #0]
 1121 014a 9B68     		ldr	r3, [r3, #8]
 1122 014c 9847     		blx	r3
 1123              	.LVL68:
 1124              		.loc 1 138 0
 1125 014e 2B68     		ldr	r3, [r5, #0]
 1126 0150 A342     		cmp	r3, r4
ARM GAS  /tmp/ccHMNvMF.s 			page 21


 1127 0152 F6D8     		bhi	.L74
 1128              	.LVL69:
 1129              	.L73:
 1130              	.LBE56:
 1131              	.LBE55:
 1132              		.loc 1 371 0
 1133 0154 3548     		ldr	r0, .L85+128
 1134 0156 FFF7FEFF 		bl	test_println
 1135              	.LVL70:
 1136              		.loc 1 353 0
 1137 015a 57F8043B 		ldr	r3, [r7], #4
 1138 015e 002B     		cmp	r3, #0
 1139 0160 A5D1     		bne	.L76
 1140              	.LVL71:
 1141              	.L83:
 1142              		.loc 1 351 0
 1143 0162 5BF8047F 		ldr	r7, [fp, #4]!
 1144 0166 002F     		cmp	r7, #0
 1145 0168 99D1     		bne	.L69
 1146              		.loc 1 379 0
 1147 016a FFF7FEFF 		bl	print_line
 1148              		.loc 1 380 0
 1149 016e 1048     		ldr	r0, .L85+4
 1150 0170 FFF7FEFF 		bl	test_println
 1151              		.loc 1 381 0
 1152 0174 2E48     		ldr	r0, .L85+132
 1153 0176 FFF7FEFF 		bl	test_print
 1154              		.loc 1 382 0
 1155 017a 40F20002 		movw	r2, #:lower16:.LANCHOR4
 1156 017e C0F20002 		movt	r2, #:upper16:.LANCHOR4
 1157 0182 1378     		ldrb	r3, [r2, #0]	@ zero_extendqisi2
 1158 0184 73B9     		cbnz	r3, .L84
 1159              		.loc 1 385 0
 1160 0186 2B48     		ldr	r0, .L85+136
 1161 0188 FFF7FEFF 		bl	test_println
 1162              	.L80:
 1163              		.loc 1 388 0
 1164 018c 40F20003 		movw	r3, #:lower16:.LANCHOR4
 1165 0190 C0F20003 		movt	r3, #:upper16:.LANCHOR4
 1166 0194 1878     		ldrb	r0, [r3, #0]	@ zero_extendqisi2
 1167 0196 03B0     		add	sp, sp, #12
 1168 0198 BDE8F08F 		pop	{r4, r5, r6, r7, r8, r9, sl, fp, pc}
 1169              	.LVL72:
 1170              	.L72:
 1171              		.loc 1 374 0
 1172 019c 2648     		ldr	r0, .L85+140
 1173 019e FFF7FEFF 		bl	test_println
 1174 01a2 80E7     		b	.L82
 1175              	.LVL73:
 1176              	.L84:
 1177              		.loc 1 383 0
 1178 01a4 2548     		ldr	r0, .L85+144
 1179 01a6 FFF7FEFF 		bl	test_println
 1180 01aa EFE7     		b	.L80
 1181              	.L86:
 1182              		.align	2
 1183              	.L85:
ARM GAS  /tmp/ccHMNvMF.s 			page 22


 1184 01ac 00000000 		.word	.LANCHOR1
 1185 01b0 04000000 		.word	.LC1
 1186 01b4 00000000 		.word	.LANCHOR2
 1187 01b8 00000000 		.word	patternthd
 1188 01bc 08000000 		.word	.LC2
 1189 01c0 24000000 		.word	.LC3
 1190 01c4 28000000 		.word	.LC4
 1191 01c8 3C000000 		.word	.LC5
 1192 01cc 44000000 		.word	.LC6
 1193 01d0 58000000 		.word	.LC7
 1194 01d4 70000000 		.word	.LC8
 1195 01d8 84000000 		.word	.LC9
 1196 01dc A4000000 		.word	.LC10
 1197 01e0 B8000000 		.word	.LC11
 1198 01e4 C4000000 		.word	.LC12
 1199 01e8 D8000000 		.word	.LC13
 1200 01ec E4000000 		.word	.LC14
 1201 01f0 F8000000 		.word	.LC15
 1202 01f4 10010000 		.word	.LC16
 1203 01f8 24010000 		.word	.LC17
 1204 01fc 40010000 		.word	.LC18
 1205 0200 54010000 		.word	.LC19
 1206 0204 7C010000 		.word	.LC20
 1207 0208 00000000 		.word	.LANCHOR3
 1208 020c 8C010000 		.word	.LC21
 1209 0210 90010000 		.word	.LC22
 1210 0214 94010000 		.word	.LC23
 1211 0218 00000000 		.word	.LANCHOR7
 1212 021c 98010000 		.word	.LC24
 1213 0220 00000000 		.word	.LANCHOR5
 1214 0224 B0010000 		.word	.LC25
 1215 0228 00000000 		.word	.LANCHOR6
 1216 022c B4010000 		.word	.LC26
 1217 0230 CC010000 		.word	.LC28
 1218 0234 E4010000 		.word	.LC30
 1219 0238 B8010000 		.word	.LC27
 1220 023c DC010000 		.word	.LC29
 1221 0240 00000000 		.word	.LANCHOR9
 1222              		.cfi_endproc
 1223              	.LFE136:
 1224              		.size	TestThread, .-TestThread
 1225              		.global	test_timer_done
 1226              		.global	wa
 1227              		.global	threads
 1228              		.global	test
 1229 0244 AFF30080 		.section	.bss.test,"aw",%nobits
 1229      AFF30080 
 1229      AFF30080 
 1230              		.align	3
 1231              		.type	test, %object
 1232              		.size	test, 1520
 1233              	test:
 1234 0000 00000000 		.space	1520
 1234      00000000 
 1234      00000000 
 1234      00000000 
 1234      00000000 
ARM GAS  /tmp/ccHMNvMF.s 			page 23


 1235              		.section	.bss.failpoint,"aw",%nobits
 1236              		.align	2
 1237              		.set	.LANCHOR5,. + 0
 1238              		.type	failpoint, %object
 1239              		.size	failpoint, 4
 1240              	failpoint:
 1241 0000 00000000 		.space	4
 1242              		.section	.bss.local_fail,"aw",%nobits
 1243              		.set	.LANCHOR3,. + 0
 1244              		.type	local_fail, %object
 1245              		.size	local_fail, 1
 1246              	local_fail:
 1247 0000 00       		.space	1
 1248              		.section	.bss.test_timer_done,"aw",%nobits
 1249              		.set	.LANCHOR0,. + 0
 1250              		.type	test_timer_done, %object
 1251              		.size	test_timer_done, 1
 1252              	test_timer_done:
 1253 0000 00       		.space	1
 1254              		.section	.rodata.wa,"a",%progbits
 1255              		.align	2
 1256              		.type	wa, %object
 1257              		.size	wa, 20
 1258              	wa:
 1259 0000 00000000 		.word	test
 1260 0004 30010000 		.word	test+304
 1261 0008 60020000 		.word	test+608
 1262 000c 90030000 		.word	test+912
 1263 0010 C0040000 		.word	test+1216
 1264              		.section	.bss.tokp,"aw",%nobits
 1265              		.align	2
 1266              		.set	.LANCHOR2,. + 0
 1267              		.type	tokp, %object
 1268              		.size	tokp, 4
 1269              	tokp:
 1270 0000 00000000 		.space	4
 1271              		.section	.bss.global_fail,"aw",%nobits
 1272              		.set	.LANCHOR4,. + 0
 1273              		.type	global_fail, %object
 1274              		.size	global_fail, 1
 1275              	global_fail:
 1276 0000 00       		.space	1
 1277              		.section	.rodata.str1.4,"aMS",%progbits,1
 1278              		.align	2
 1279              	.LC0:
 1280 0000 0D0A00   		.ascii	"\015\012\000"
 1281 0003 00       		.space	1
 1282              	.LC1:
 1283 0004 00       		.ascii	"\000"
 1284 0005 000000   		.space	3
 1285              	.LC2:
 1286 0008 2A2A2A20 		.ascii	"*** ChibiOS/RT test suite\000"
 1286      43686962 
 1286      694F532F 
 1286      52542074 
 1286      65737420 
 1287 0022 0000     		.space	2
ARM GAS  /tmp/ccHMNvMF.s 			page 24


 1288              	.LC3:
 1289 0024 2A2A2A00 		.ascii	"***\000"
 1290              	.LC4:
 1291 0028 2A2A2A20 		.ascii	"*** Kernel:       \000"
 1291      4B65726E 
 1291      656C3A20 
 1291      20202020 
 1291      202000
 1292 003b 00       		.space	1
 1293              	.LC5:
 1294 003c 322E362E 		.ascii	"2.6.1\000"
 1294      3100
 1295 0042 0000     		.space	2
 1296              	.LC6:
 1297 0044 2A2A2A20 		.ascii	"*** Compiled:     \000"
 1297      436F6D70 
 1297      696C6564 
 1297      3A202020 
 1297      202000
 1298 0057 00       		.space	1
 1299              	.LC7:
 1300 0058 4F637420 		.ascii	"Oct  1 2013 - 14:20:38\000"
 1300      20312032 
 1300      30313320 
 1300      2D203134 
 1300      3A32303A 
 1301 006f 00       		.space	1
 1302              	.LC8:
 1303 0070 2A2A2A20 		.ascii	"*** Compiler:     \000"
 1303      436F6D70 
 1303      696C6572 
 1303      3A202020 
 1303      202000
 1304 0083 00       		.space	1
 1305              	.LC9:
 1306 0084 47434320 		.ascii	"GCC 4.6.2 20110908 (prerelease)\000"
 1306      342E362E 
 1306      32203230 
 1306      31313039 
 1306      30382028 
 1307              	.LC10:
 1308 00a4 2A2A2A20 		.ascii	"*** Architecture: \000"
 1308      41726368 
 1308      69746563 
 1308      74757265 
 1308      3A2000
 1309 00b7 00       		.space	1
 1310              	.LC11:
 1311 00b8 41524D76 		.ascii	"ARMv7-ME\000"
 1311      372D4D45 
 1311      00
 1312 00c1 000000   		.space	3
 1313              	.LC12:
 1314 00c4 2A2A2A20 		.ascii	"*** Core Variant: \000"
 1314      436F7265 
 1314      20566172 
 1314      69616E74 
ARM GAS  /tmp/ccHMNvMF.s 			page 25


 1314      3A2000
 1315 00d7 00       		.space	1
 1316              	.LC13:
 1317 00d8 436F7274 		.ascii	"Cortex-M4\000"
 1317      65782D4D 
 1317      3400
 1318 00e2 0000     		.space	2
 1319              	.LC14:
 1320 00e4 2A2A2A20 		.ascii	"*** Port Info:    \000"
 1320      506F7274 
 1320      20496E66 
 1320      6F3A2020 
 1320      202000
 1321 00f7 00       		.space	1
 1322              	.LC15:
 1323 00f8 41647661 		.ascii	"Advanced kernel mode\000"
 1323      6E636564 
 1323      206B6572 
 1323      6E656C20 
 1323      6D6F6465 
 1324 010d 000000   		.space	3
 1325              	.LC16:
 1326 0110 2A2A2A20 		.ascii	"*** Platform:     \000"
 1326      506C6174 
 1326      666F726D 
 1326      3A202020 
 1326      202000
 1327 0123 00       		.space	1
 1328              	.LC17:
 1329 0124 53544D33 		.ascii	"STM32F4xx High Performance\000"
 1329      32463478 
 1329      78204869 
 1329      67682050 
 1329      6572666F 
 1330 013f 00       		.space	1
 1331              	.LC18:
 1332 0140 2A2A2A20 		.ascii	"*** Test Board:   \000"
 1332      54657374 
 1332      20426F61 
 1332      72643A20 
 1332      202000
 1333 0153 00       		.space	1
 1334              	.LC19:
 1335 0154 53544D69 		.ascii	"STMicroelectronics STM32F4-Discovery\000"
 1335      63726F65 
 1335      6C656374 
 1335      726F6E69 
 1335      63732053 
 1336 0179 000000   		.space	3
 1337              	.LC20:
 1338 017c 2D2D2D20 		.ascii	"--- Test Case \000"
 1338      54657374 
 1338      20436173 
 1338      652000
 1339 018b 00       		.space	1
 1340              	.LC21:
 1341 018c 2E00     		.ascii	".\000"
ARM GAS  /tmp/ccHMNvMF.s 			page 26


 1342 018e 0000     		.space	2
 1343              	.LC22:
 1344 0190 202800   		.ascii	" (\000"
 1345 0193 00       		.space	1
 1346              	.LC23:
 1347 0194 2900     		.ascii	")\000"
 1348 0196 0000     		.space	2
 1349              	.LC24:
 1350 0198 2D2D2D20 		.ascii	"--- Result: FAILURE (#\000"
 1350      52657375 
 1350      6C743A20 
 1350      4641494C 
 1350      55524520 
 1351 01af 00       		.space	1
 1352              	.LC25:
 1353 01b0 205B00   		.ascii	" [\000"
 1354 01b3 00       		.space	1
 1355              	.LC26:
 1356 01b4 5D2900   		.ascii	"])\000"
 1357 01b7 00       		.space	1
 1358              	.LC27:
 1359 01b8 2D2D2D20 		.ascii	"--- Result: SUCCESS\000"
 1359      52657375 
 1359      6C743A20 
 1359      53554343 
 1359      45535300 
 1360              	.LC28:
 1361 01cc 46696E61 		.ascii	"Final result: \000"
 1361      6C207265 
 1361      73756C74 
 1361      3A2000
 1362 01db 00       		.space	1
 1363              	.LC29:
 1364 01dc 4641494C 		.ascii	"FAILURE\000"
 1364      55524500 
 1365              	.LC30:
 1366 01e4 53554343 		.ascii	"SUCCESS\000"
 1366      45535300 
 1367              		.section	.bss.vt,"aw",%nobits
 1368              		.align	2
 1369              		.set	.LANCHOR8,. + 0
 1370              		.type	vt, %object
 1371              		.size	vt, 20
 1372              	vt:
 1373 0000 00000000 		.space	20
 1373      00000000 
 1373      00000000 
 1373      00000000 
 1373      00000000 
 1374              		.section	.bss.threads,"aw",%nobits
 1375              		.align	2
 1376              		.set	.LANCHOR7,. + 0
 1377              		.type	threads, %object
 1378              		.size	threads, 20
 1379              	threads:
 1380 0000 00000000 		.space	20
 1380      00000000 
ARM GAS  /tmp/ccHMNvMF.s 			page 27


 1380      00000000 
 1380      00000000 
 1380      00000000 
 1381              		.section	.rodata.patterns,"a",%progbits
 1382              		.align	2
 1383              		.set	.LANCHOR9,. + 0
 1384              		.type	patterns, %object
 1385              		.size	patterns, 48
 1386              	patterns:
 1387 0000 00000000 		.word	patternthd
 1388 0004 00000000 		.word	patternsem
 1389 0008 00000000 		.word	patternmtx
 1390 000c 00000000 		.word	patternmsg
 1391 0010 00000000 		.word	patternmbox
 1392 0014 00000000 		.word	patternevt
 1393 0018 00000000 		.word	patternheap
 1394 001c 00000000 		.word	patternpools
 1395 0020 00000000 		.word	patterndyn
 1396 0024 00000000 		.word	patternqueues
 1397 0028 00000000 		.word	patternbmk
 1398 002c 00000000 		.word	0
 1399              		.section	.bss.chp,"aw",%nobits
 1400              		.align	2
 1401              		.set	.LANCHOR1,. + 0
 1402              		.type	chp, %object
 1403              		.size	chp, 4
 1404              	chp:
 1405 0000 00000000 		.space	4
 1406              		.section	.bss.tokens_buffer,"aw",%nobits
 1407              		.align	2
 1408              		.set	.LANCHOR6,. + 0
 1409              		.type	tokens_buffer, %object
 1410              		.size	tokens_buffer, 16
 1411              	tokens_buffer:
 1412 0000 00000000 		.space	16
 1412      00000000 
 1412      00000000 
 1412      00000000 
 1413              		.text
 1414              	.Letext0:
 1415              		.file 2 "/opt/paparazzi/arm-multilib/lib/gcc/arm-none-eabi/4.6.2/include/stddef.h"
 1416              		.file 3 "/opt/paparazzi/arm-multilib/lib/gcc/arm-none-eabi/4.6.2/../../../../arm-none-eabi/include
 1417              		.file 4 "../../os/ports/GCC/ARMCMx/chtypes.h"
 1418              		.file 5 "../../os/kernel/include/chlists.h"
 1419              		.file 6 "../../os/kernel/include/chthreads.h"
 1420              		.file 7 "../../os/ports/GCC/ARMCMx/chcore_v7m.h"
 1421              		.file 8 "../../os/kernel/include/chvt.h"
 1422              		.file 9 "../../os/kernel/include/chschd.h"
 1423              		.file 10 "../../os/kernel/include/chmtx.h"
 1424              		.file 11 "../../os/kernel/include/chstreams.h"
 1425              		.file 12 "../../test/test.h"
 1426              		.file 13 "../../os/ports/common/ARMCMx/CMSIS/include/core_cm4.h"
 1427              		.file 14 "../../test/testthd.h"
 1428              		.file 15 "../../test/testsem.h"
 1429              		.file 16 "../../test/testmtx.h"
 1430              		.file 17 "../../test/testmsg.h"
 1431              		.file 18 "../../test/testmbox.h"
ARM GAS  /tmp/ccHMNvMF.s 			page 28


 1432              		.file 19 "../../test/testevt.h"
 1433              		.file 20 "../../test/testheap.h"
 1434              		.file 21 "../../test/testpools.h"
 1435              		.file 22 "../../test/testdyn.h"
 1436              		.file 23 "../../test/testqueues.h"
 1437              		.file 24 "../../test/testbmk.h"
 1438              		.section	.debug_info,"",%progbits
 1439              	.Ldebug_info0:
 1440 0000 750F0000 		.4byte	0xf75
 1441 0004 0200     		.2byte	0x2
 1442 0006 00000000 		.4byte	.Ldebug_abbrev0
 1443 000a 04       		.byte	0x4
 1444 000b 01       		.uleb128 0x1
 1445 000c 6C020000 		.4byte	.LASF130
 1446 0010 01       		.byte	0x1
 1447 0011 BC050000 		.4byte	.LASF131
 1448 0015 06010000 		.4byte	.LASF132
 1449 0019 00000000 		.4byte	0
 1450 001d 00000000 		.4byte	0
 1451 0021 B0000000 		.4byte	.Ldebug_ranges0+0xb0
 1452 0025 00000000 		.4byte	.Ldebug_line0
 1453 0029 02       		.uleb128 0x2
 1454 002a 04       		.byte	0x4
 1455 002b 05       		.byte	0x5
 1456 002c 696E7400 		.ascii	"int\000"
 1457 0030 03       		.uleb128 0x3
 1458 0031 0F000000 		.4byte	.LASF2
 1459 0035 02       		.byte	0x2
 1460 0036 D4       		.byte	0xd4
 1461 0037 3B000000 		.4byte	0x3b
 1462 003b 04       		.uleb128 0x4
 1463 003c 04       		.byte	0x4
 1464 003d 07       		.byte	0x7
 1465 003e 0D020000 		.4byte	.LASF0
 1466 0042 04       		.uleb128 0x4
 1467 0043 01       		.byte	0x1
 1468 0044 06       		.byte	0x6
 1469 0045 BC000000 		.4byte	.LASF1
 1470 0049 03       		.uleb128 0x3
 1471 004a 57050000 		.4byte	.LASF3
 1472 004e 03       		.byte	0x3
 1473 004f 2A       		.byte	0x2a
 1474 0050 54000000 		.4byte	0x54
 1475 0054 04       		.uleb128 0x4
 1476 0055 01       		.byte	0x1
 1477 0056 08       		.byte	0x8
 1478 0057 CE030000 		.4byte	.LASF4
 1479 005b 04       		.uleb128 0x4
 1480 005c 02       		.byte	0x2
 1481 005d 05       		.byte	0x5
 1482 005e 01040000 		.4byte	.LASF5
 1483 0062 04       		.uleb128 0x4
 1484 0063 02       		.byte	0x2
 1485 0064 07       		.byte	0x7
 1486 0065 59020000 		.4byte	.LASF6
 1487 0069 03       		.uleb128 0x3
 1488 006a C6030000 		.4byte	.LASF7
ARM GAS  /tmp/ccHMNvMF.s 			page 29


 1489 006e 03       		.byte	0x3
 1490 006f 4F       		.byte	0x4f
 1491 0070 74000000 		.4byte	0x74
 1492 0074 04       		.uleb128 0x4
 1493 0075 04       		.byte	0x4
 1494 0076 05       		.byte	0x5
 1495 0077 4F010000 		.4byte	.LASF8
 1496 007b 03       		.uleb128 0x3
 1497 007c 91040000 		.4byte	.LASF9
 1498 0080 03       		.byte	0x3
 1499 0081 50       		.byte	0x50
 1500 0082 86000000 		.4byte	0x86
 1501 0086 04       		.uleb128 0x4
 1502 0087 04       		.byte	0x4
 1503 0088 07       		.byte	0x7
 1504 0089 AE040000 		.4byte	.LASF10
 1505 008d 04       		.uleb128 0x4
 1506 008e 08       		.byte	0x8
 1507 008f 05       		.byte	0x5
 1508 0090 AE000000 		.4byte	.LASF11
 1509 0094 03       		.uleb128 0x3
 1510 0095 1D000000 		.4byte	.LASF12
 1511 0099 03       		.byte	0x3
 1512 009a 78       		.byte	0x78
 1513 009b 9F000000 		.4byte	0x9f
 1514 009f 04       		.uleb128 0x4
 1515 00a0 08       		.byte	0x8
 1516 00a1 07       		.byte	0x7
 1517 00a2 48000000 		.4byte	.LASF13
 1518 00a6 03       		.uleb128 0x3
 1519 00a7 D0000000 		.4byte	.LASF14
 1520 00ab 04       		.byte	0x4
 1521 00ac 2B       		.byte	0x2b
 1522 00ad B1000000 		.4byte	0xb1
 1523 00b1 04       		.uleb128 0x4
 1524 00b2 01       		.byte	0x1
 1525 00b3 02       		.byte	0x2
 1526 00b4 C0030000 		.4byte	.LASF15
 1527 00b8 03       		.uleb128 0x3
 1528 00b9 9F020000 		.4byte	.LASF16
 1529 00bd 04       		.byte	0x4
 1530 00be 2C       		.byte	0x2c
 1531 00bf 49000000 		.4byte	0x49
 1532 00c3 03       		.uleb128 0x3
 1533 00c4 64010000 		.4byte	.LASF17
 1534 00c8 04       		.byte	0x4
 1535 00c9 2D       		.byte	0x2d
 1536 00ca 49000000 		.4byte	0x49
 1537 00ce 03       		.uleb128 0x3
 1538 00cf A1030000 		.4byte	.LASF18
 1539 00d3 04       		.byte	0x4
 1540 00d4 2E       		.byte	0x2e
 1541 00d5 49000000 		.4byte	0x49
 1542 00d9 03       		.uleb128 0x3
 1543 00da FC000000 		.4byte	.LASF19
 1544 00de 04       		.byte	0x4
 1545 00df 2F       		.byte	0x2f
ARM GAS  /tmp/ccHMNvMF.s 			page 30


 1546 00e0 49000000 		.4byte	0x49
 1547 00e4 03       		.uleb128 0x3
 1548 00e5 B8030000 		.4byte	.LASF20
 1549 00e9 04       		.byte	0x4
 1550 00ea 30       		.byte	0x30
 1551 00eb 7B000000 		.4byte	0x7b
 1552 00ef 03       		.uleb128 0x3
 1553 00f0 8E020000 		.4byte	.LASF21
 1554 00f4 04       		.byte	0x4
 1555 00f5 31       		.byte	0x31
 1556 00f6 69000000 		.4byte	0x69
 1557 00fa 03       		.uleb128 0x3
 1558 00fb BD020000 		.4byte	.LASF22
 1559 00ff 04       		.byte	0x4
 1560 0100 33       		.byte	0x33
 1561 0101 7B000000 		.4byte	0x7b
 1562 0105 03       		.uleb128 0x3
 1563 0106 E0040000 		.4byte	.LASF23
 1564 010a 04       		.byte	0x4
 1565 010b 35       		.byte	0x35
 1566 010c 7B000000 		.4byte	0x7b
 1567 0110 03       		.uleb128 0x3
 1568 0111 76040000 		.4byte	.LASF24
 1569 0115 05       		.byte	0x5
 1570 0116 2A       		.byte	0x2a
 1571 0117 1B010000 		.4byte	0x11b
 1572 011b 05       		.uleb128 0x5
 1573 011c 76040000 		.4byte	.LASF24
 1574 0120 48       		.byte	0x48
 1575 0121 06       		.byte	0x6
 1576 0122 5E       		.byte	0x5e
 1577 0123 40020000 		.4byte	0x240
 1578 0127 06       		.uleb128 0x6
 1579 0128 44040000 		.4byte	.LASF25
 1580 012c 06       		.byte	0x6
 1581 012d 5F       		.byte	0x5f
 1582 012e 65020000 		.4byte	0x265
 1583 0132 02       		.byte	0x2
 1584 0133 23       		.byte	0x23
 1585 0134 00       		.uleb128 0
 1586 0135 06       		.uleb128 0x6
 1587 0136 A9030000 		.4byte	.LASF26
 1588 013a 06       		.byte	0x6
 1589 013b 61       		.byte	0x61
 1590 013c 65020000 		.4byte	0x265
 1591 0140 02       		.byte	0x2
 1592 0141 23       		.byte	0x23
 1593 0142 04       		.uleb128 0x4
 1594 0143 06       		.uleb128 0x6
 1595 0144 84000000 		.4byte	.LASF27
 1596 0148 06       		.byte	0x6
 1597 0149 63       		.byte	0x63
 1598 014a E4000000 		.4byte	0xe4
 1599 014e 02       		.byte	0x2
 1600 014f 23       		.byte	0x23
 1601 0150 08       		.uleb128 0x8
 1602 0151 06       		.uleb128 0x6
ARM GAS  /tmp/ccHMNvMF.s 			page 31


 1603 0152 4C030000 		.4byte	.LASF28
 1604 0156 06       		.byte	0x6
 1605 0157 64       		.byte	0x64
 1606 0158 3E030000 		.4byte	0x33e
 1607 015c 02       		.byte	0x2
 1608 015d 23       		.byte	0x23
 1609 015e 0C       		.uleb128 0xc
 1610 015f 06       		.uleb128 0x6
 1611 0160 B0010000 		.4byte	.LASF29
 1612 0164 06       		.byte	0x6
 1613 0165 66       		.byte	0x66
 1614 0166 65020000 		.4byte	0x265
 1615 016a 02       		.byte	0x2
 1616 016b 23       		.byte	0x23
 1617 016c 10       		.uleb128 0x10
 1618 016d 06       		.uleb128 0x6
 1619 016e 25040000 		.4byte	.LASF30
 1620 0172 06       		.byte	0x6
 1621 0173 67       		.byte	0x67
 1622 0174 65020000 		.4byte	0x265
 1623 0178 02       		.byte	0x2
 1624 0179 23       		.byte	0x23
 1625 017a 14       		.uleb128 0x14
 1626 017b 06       		.uleb128 0x6
 1627 017c 2C050000 		.4byte	.LASF31
 1628 0180 06       		.byte	0x6
 1629 0181 6E       		.byte	0x6e
 1630 0182 18050000 		.4byte	0x518
 1631 0186 02       		.byte	0x2
 1632 0187 23       		.byte	0x23
 1633 0188 18       		.uleb128 0x18
 1634 0189 06       		.uleb128 0x6
 1635 018a 0B040000 		.4byte	.LASF32
 1636 018e 06       		.byte	0x6
 1637 018f 79       		.byte	0x79
 1638 0190 C3000000 		.4byte	0xc3
 1639 0194 02       		.byte	0x2
 1640 0195 23       		.byte	0x23
 1641 0196 1C       		.uleb128 0x1c
 1642 0197 06       		.uleb128 0x6
 1643 0198 63040000 		.4byte	.LASF33
 1644 019c 06       		.byte	0x6
 1645 019d 7D       		.byte	0x7d
 1646 019e B8000000 		.4byte	0xb8
 1647 01a2 02       		.byte	0x2
 1648 01a3 23       		.byte	0x23
 1649 01a4 1D       		.uleb128 0x1d
 1650 01a5 06       		.uleb128 0x6
 1651 01a6 33050000 		.4byte	.LASF34
 1652 01aa 06       		.byte	0x6
 1653 01ab 82       		.byte	0x82
 1654 01ac CE000000 		.4byte	0xce
 1655 01b0 02       		.byte	0x2
 1656 01b1 23       		.byte	0x23
 1657 01b2 1E       		.uleb128 0x1e
 1658 01b3 06       		.uleb128 0x6
 1659 01b4 13040000 		.4byte	.LASF35
ARM GAS  /tmp/ccHMNvMF.s 			page 32


 1660 01b8 06       		.byte	0x6
 1661 01b9 88       		.byte	0x88
 1662 01ba D9000000 		.4byte	0xd9
 1663 01be 02       		.byte	0x2
 1664 01bf 23       		.byte	0x23
 1665 01c0 1F       		.uleb128 0x1f
 1666 01c1 06       		.uleb128 0x6
 1667 01c2 9D010000 		.4byte	.LASF36
 1668 01c6 06       		.byte	0x6
 1669 01c7 8F       		.byte	0x8f
 1670 01c8 23040000 		.4byte	0x423
 1671 01cc 02       		.byte	0x2
 1672 01cd 23       		.byte	0x23
 1673 01ce 20       		.uleb128 0x20
 1674 01cf 07       		.uleb128 0x7
 1675 01d0 705F7500 		.ascii	"p_u\000"
 1676 01d4 06       		.byte	0x6
 1677 01d5 B4       		.byte	0xb4
 1678 01d6 E3040000 		.4byte	0x4e3
 1679 01da 02       		.byte	0x2
 1680 01db 23       		.byte	0x23
 1681 01dc 24       		.uleb128 0x24
 1682 01dd 06       		.uleb128 0x6
 1683 01de F9020000 		.4byte	.LASF37
 1684 01e2 06       		.byte	0x6
 1685 01e3 B9       		.byte	0xb9
 1686 01e4 8D020000 		.4byte	0x28d
 1687 01e8 02       		.byte	0x2
 1688 01e9 23       		.byte	0x23
 1689 01ea 28       		.uleb128 0x28
 1690 01eb 06       		.uleb128 0x6
 1691 01ec 28020000 		.4byte	.LASF38
 1692 01f0 06       		.byte	0x6
 1693 01f1 BF       		.byte	0xbf
 1694 01f2 6B020000 		.4byte	0x26b
 1695 01f6 02       		.byte	0x2
 1696 01f7 23       		.byte	0x23
 1697 01f8 2C       		.uleb128 0x2c
 1698 01f9 06       		.uleb128 0x6
 1699 01fa 95050000 		.4byte	.LASF39
 1700 01fe 06       		.byte	0x6
 1701 01ff C3       		.byte	0xc3
 1702 0200 EF000000 		.4byte	0xef
 1703 0204 02       		.byte	0x2
 1704 0205 23       		.byte	0x23
 1705 0206 34       		.uleb128 0x34
 1706 0207 06       		.uleb128 0x6
 1707 0208 86040000 		.4byte	.LASF40
 1708 020c 06       		.byte	0x6
 1709 020d C9       		.byte	0xc9
 1710 020e FA000000 		.4byte	0xfa
 1711 0212 02       		.byte	0x2
 1712 0213 23       		.byte	0x23
 1713 0214 38       		.uleb128 0x38
 1714 0215 06       		.uleb128 0x6
 1715 0216 B3020000 		.4byte	.LASF41
 1716 021a 06       		.byte	0x6
ARM GAS  /tmp/ccHMNvMF.s 			page 33


 1717 021b D0       		.byte	0xd0
 1718 021c 2A050000 		.4byte	0x52a
 1719 0220 02       		.byte	0x2
 1720 0221 23       		.byte	0x23
 1721 0222 3C       		.uleb128 0x3c
 1722 0223 06       		.uleb128 0x6
 1723 0224 EA040000 		.4byte	.LASF42
 1724 0228 06       		.byte	0x6
 1725 0229 D4       		.byte	0xd4
 1726 022a E4000000 		.4byte	0xe4
 1727 022e 02       		.byte	0x2
 1728 022f 23       		.byte	0x23
 1729 0230 40       		.uleb128 0x40
 1730 0231 06       		.uleb128 0x6
 1731 0232 C8000000 		.4byte	.LASF43
 1732 0236 06       		.byte	0x6
 1733 0237 DA       		.byte	0xda
 1734 0238 A3020000 		.4byte	0x2a3
 1735 023c 02       		.byte	0x2
 1736 023d 23       		.byte	0x23
 1737 023e 44       		.uleb128 0x44
 1738 023f 00       		.byte	0
 1739 0240 08       		.uleb128 0x8
 1740 0241 08       		.byte	0x8
 1741 0242 05       		.byte	0x5
 1742 0243 61       		.byte	0x61
 1743 0244 65020000 		.4byte	0x265
 1744 0248 06       		.uleb128 0x6
 1745 0249 44040000 		.4byte	.LASF25
 1746 024d 05       		.byte	0x5
 1747 024e 62       		.byte	0x62
 1748 024f 65020000 		.4byte	0x265
 1749 0253 02       		.byte	0x2
 1750 0254 23       		.byte	0x23
 1751 0255 00       		.uleb128 0
 1752 0256 06       		.uleb128 0x6
 1753 0257 A9030000 		.4byte	.LASF26
 1754 025b 05       		.byte	0x5
 1755 025c 64       		.byte	0x64
 1756 025d 65020000 		.4byte	0x265
 1757 0261 02       		.byte	0x2
 1758 0262 23       		.byte	0x23
 1759 0263 04       		.uleb128 0x4
 1760 0264 00       		.byte	0
 1761 0265 09       		.uleb128 0x9
 1762 0266 04       		.byte	0x4
 1763 0267 10010000 		.4byte	0x110
 1764 026b 03       		.uleb128 0x3
 1765 026c 3F030000 		.4byte	.LASF44
 1766 0270 05       		.byte	0x5
 1767 0271 66       		.byte	0x66
 1768 0272 40020000 		.4byte	0x240
 1769 0276 08       		.uleb128 0x8
 1770 0277 04       		.byte	0x4
 1771 0278 05       		.byte	0x5
 1772 0279 6B       		.byte	0x6b
 1773 027a 8D020000 		.4byte	0x28d
ARM GAS  /tmp/ccHMNvMF.s 			page 34


 1774 027e 06       		.uleb128 0x6
 1775 027f 44040000 		.4byte	.LASF25
 1776 0283 05       		.byte	0x5
 1777 0284 6D       		.byte	0x6d
 1778 0285 65020000 		.4byte	0x265
 1779 0289 02       		.byte	0x2
 1780 028a 23       		.byte	0x23
 1781 028b 00       		.uleb128 0
 1782 028c 00       		.byte	0
 1783 028d 03       		.uleb128 0x3
 1784 028e A7020000 		.4byte	.LASF45
 1785 0292 05       		.byte	0x5
 1786 0293 70       		.byte	0x70
 1787 0294 76020000 		.4byte	0x276
 1788 0298 03       		.uleb128 0x3
 1789 0299 D1010000 		.4byte	.LASF46
 1790 029d 07       		.byte	0x7
 1791 029e E5       		.byte	0xe5
 1792 029f A3020000 		.4byte	0x2a3
 1793 02a3 0A       		.uleb128 0xa
 1794 02a4 04       		.byte	0x4
 1795 02a5 03       		.uleb128 0x3
 1796 02a6 CE020000 		.4byte	.LASF47
 1797 02aa 07       		.byte	0x7
 1798 02ab EB       		.byte	0xeb
 1799 02ac 94000000 		.4byte	0x94
 1800 02b0 0B       		.uleb128 0xb
 1801 02b1 11050000 		.4byte	.LASF48
 1802 02b5 24       		.byte	0x24
 1803 02b6 07       		.byte	0x7
 1804 02b7 0C01     		.2byte	0x10c
 1805 02b9 3E030000 		.4byte	0x33e
 1806 02bd 0C       		.uleb128 0xc
 1807 02be 723400   		.ascii	"r4\000"
 1808 02c1 07       		.byte	0x7
 1809 02c2 1F01     		.2byte	0x11f
 1810 02c4 98020000 		.4byte	0x298
 1811 02c8 02       		.byte	0x2
 1812 02c9 23       		.byte	0x23
 1813 02ca 00       		.uleb128 0
 1814 02cb 0C       		.uleb128 0xc
 1815 02cc 723500   		.ascii	"r5\000"
 1816 02cf 07       		.byte	0x7
 1817 02d0 2001     		.2byte	0x120
 1818 02d2 98020000 		.4byte	0x298
 1819 02d6 02       		.byte	0x2
 1820 02d7 23       		.byte	0x23
 1821 02d8 04       		.uleb128 0x4
 1822 02d9 0C       		.uleb128 0xc
 1823 02da 723600   		.ascii	"r6\000"
 1824 02dd 07       		.byte	0x7
 1825 02de 2101     		.2byte	0x121
 1826 02e0 98020000 		.4byte	0x298
 1827 02e4 02       		.byte	0x2
 1828 02e5 23       		.byte	0x23
 1829 02e6 08       		.uleb128 0x8
 1830 02e7 0C       		.uleb128 0xc
ARM GAS  /tmp/ccHMNvMF.s 			page 35


 1831 02e8 723700   		.ascii	"r7\000"
 1832 02eb 07       		.byte	0x7
 1833 02ec 2201     		.2byte	0x122
 1834 02ee 98020000 		.4byte	0x298
 1835 02f2 02       		.byte	0x2
 1836 02f3 23       		.byte	0x23
 1837 02f4 0C       		.uleb128 0xc
 1838 02f5 0C       		.uleb128 0xc
 1839 02f6 723800   		.ascii	"r8\000"
 1840 02f9 07       		.byte	0x7
 1841 02fa 2301     		.2byte	0x123
 1842 02fc 98020000 		.4byte	0x298
 1843 0300 02       		.byte	0x2
 1844 0301 23       		.byte	0x23
 1845 0302 10       		.uleb128 0x10
 1846 0303 0C       		.uleb128 0xc
 1847 0304 723900   		.ascii	"r9\000"
 1848 0307 07       		.byte	0x7
 1849 0308 2401     		.2byte	0x124
 1850 030a 98020000 		.4byte	0x298
 1851 030e 02       		.byte	0x2
 1852 030f 23       		.byte	0x23
 1853 0310 14       		.uleb128 0x14
 1854 0311 0C       		.uleb128 0xc
 1855 0312 72313000 		.ascii	"r10\000"
 1856 0316 07       		.byte	0x7
 1857 0317 2501     		.2byte	0x125
 1858 0319 98020000 		.4byte	0x298
 1859 031d 02       		.byte	0x2
 1860 031e 23       		.byte	0x23
 1861 031f 18       		.uleb128 0x18
 1862 0320 0C       		.uleb128 0xc
 1863 0321 72313100 		.ascii	"r11\000"
 1864 0325 07       		.byte	0x7
 1865 0326 2601     		.2byte	0x126
 1866 0328 98020000 		.4byte	0x298
 1867 032c 02       		.byte	0x2
 1868 032d 23       		.byte	0x23
 1869 032e 1C       		.uleb128 0x1c
 1870 032f 0C       		.uleb128 0xc
 1871 0330 6C7200   		.ascii	"lr\000"
 1872 0333 07       		.byte	0x7
 1873 0334 2701     		.2byte	0x127
 1874 0336 98020000 		.4byte	0x298
 1875 033a 02       		.byte	0x2
 1876 033b 23       		.byte	0x23
 1877 033c 20       		.uleb128 0x20
 1878 033d 00       		.byte	0
 1879 033e 0B       		.uleb128 0xb
 1880 033f 09050000 		.4byte	.LASF49
 1881 0343 04       		.byte	0x4
 1882 0344 07       		.byte	0x7
 1883 0345 3101     		.2byte	0x131
 1884 0347 5B030000 		.4byte	0x35b
 1885 034b 0C       		.uleb128 0xc
 1886 034c 72313300 		.ascii	"r13\000"
 1887 0350 07       		.byte	0x7
ARM GAS  /tmp/ccHMNvMF.s 			page 36


 1888 0351 3201     		.2byte	0x132
 1889 0353 5B030000 		.4byte	0x35b
 1890 0357 02       		.byte	0x2
 1891 0358 23       		.byte	0x23
 1892 0359 00       		.uleb128 0
 1893 035a 00       		.byte	0
 1894 035b 09       		.uleb128 0x9
 1895 035c 04       		.byte	0x4
 1896 035d B0020000 		.4byte	0x2b0
 1897 0361 03       		.uleb128 0x3
 1898 0362 F5040000 		.4byte	.LASF50
 1899 0366 08       		.byte	0x8
 1900 0367 58       		.byte	0x58
 1901 0368 6C030000 		.4byte	0x36c
 1902 036c 09       		.uleb128 0x9
 1903 036d 04       		.byte	0x4
 1904 036e 72030000 		.4byte	0x372
 1905 0372 0D       		.uleb128 0xd
 1906 0373 01       		.byte	0x1
 1907 0374 7E030000 		.4byte	0x37e
 1908 0378 0E       		.uleb128 0xe
 1909 0379 A3020000 		.4byte	0x2a3
 1910 037d 00       		.byte	0
 1911 037e 03       		.uleb128 0x3
 1912 037f 4C020000 		.4byte	.LASF51
 1913 0383 08       		.byte	0x8
 1914 0384 5D       		.byte	0x5d
 1915 0385 89030000 		.4byte	0x389
 1916 0389 05       		.uleb128 0x5
 1917 038a 4C020000 		.4byte	.LASF51
 1918 038e 14       		.byte	0x14
 1919 038f 08       		.byte	0x8
 1920 0390 64       		.byte	0x64
 1921 0391 DC030000 		.4byte	0x3dc
 1922 0395 06       		.uleb128 0x6
 1923 0396 1A020000 		.4byte	.LASF52
 1924 039a 08       		.byte	0x8
 1925 039b 65       		.byte	0x65
 1926 039c DC030000 		.4byte	0x3dc
 1927 03a0 02       		.byte	0x2
 1928 03a1 23       		.byte	0x23
 1929 03a2 00       		.uleb128 0
 1930 03a3 06       		.uleb128 0x6
 1931 03a4 DA010000 		.4byte	.LASF53
 1932 03a8 08       		.byte	0x8
 1933 03a9 67       		.byte	0x67
 1934 03aa DC030000 		.4byte	0x3dc
 1935 03ae 02       		.byte	0x2
 1936 03af 23       		.byte	0x23
 1937 03b0 04       		.uleb128 0x4
 1938 03b1 06       		.uleb128 0x6
 1939 03b2 F1020000 		.4byte	.LASF54
 1940 03b6 08       		.byte	0x8
 1941 03b7 69       		.byte	0x69
 1942 03b8 05010000 		.4byte	0x105
 1943 03bc 02       		.byte	0x2
 1944 03bd 23       		.byte	0x23
ARM GAS  /tmp/ccHMNvMF.s 			page 37


 1945 03be 08       		.uleb128 0x8
 1946 03bf 06       		.uleb128 0x6
 1947 03c0 0E030000 		.4byte	.LASF55
 1948 03c4 08       		.byte	0x8
 1949 03c5 6A       		.byte	0x6a
 1950 03c6 61030000 		.4byte	0x361
 1951 03ca 02       		.byte	0x2
 1952 03cb 23       		.byte	0x23
 1953 03cc 0C       		.uleb128 0xc
 1954 03cd 06       		.uleb128 0x6
 1955 03ce 18050000 		.4byte	.LASF56
 1956 03d2 08       		.byte	0x8
 1957 03d3 6C       		.byte	0x6c
 1958 03d4 A3020000 		.4byte	0x2a3
 1959 03d8 02       		.byte	0x2
 1960 03d9 23       		.byte	0x23
 1961 03da 10       		.uleb128 0x10
 1962 03db 00       		.byte	0
 1963 03dc 09       		.uleb128 0x9
 1964 03dd 04       		.byte	0x4
 1965 03de 7E030000 		.4byte	0x37e
 1966 03e2 08       		.uleb128 0x8
 1967 03e3 10       		.byte	0x10
 1968 03e4 08       		.byte	0x8
 1969 03e5 76       		.byte	0x76
 1970 03e6 23040000 		.4byte	0x423
 1971 03ea 06       		.uleb128 0x6
 1972 03eb 1A020000 		.4byte	.LASF52
 1973 03ef 08       		.byte	0x8
 1974 03f0 77       		.byte	0x77
 1975 03f1 DC030000 		.4byte	0x3dc
 1976 03f5 02       		.byte	0x2
 1977 03f6 23       		.byte	0x23
 1978 03f7 00       		.uleb128 0
 1979 03f8 06       		.uleb128 0x6
 1980 03f9 DA010000 		.4byte	.LASF53
 1981 03fd 08       		.byte	0x8
 1982 03fe 79       		.byte	0x79
 1983 03ff DC030000 		.4byte	0x3dc
 1984 0403 02       		.byte	0x2
 1985 0404 23       		.byte	0x23
 1986 0405 04       		.uleb128 0x4
 1987 0406 06       		.uleb128 0x6
 1988 0407 F1020000 		.4byte	.LASF54
 1989 040b 08       		.byte	0x8
 1990 040c 7B       		.byte	0x7b
 1991 040d 05010000 		.4byte	0x105
 1992 0411 02       		.byte	0x2
 1993 0412 23       		.byte	0x23
 1994 0413 08       		.uleb128 0x8
 1995 0414 06       		.uleb128 0x6
 1996 0415 8A050000 		.4byte	.LASF57
 1997 0419 08       		.byte	0x8
 1998 041a 7C       		.byte	0x7c
 1999 041b 23040000 		.4byte	0x423
 2000 041f 02       		.byte	0x2
 2001 0420 23       		.byte	0x23
ARM GAS  /tmp/ccHMNvMF.s 			page 38


 2002 0421 0C       		.uleb128 0xc
 2003 0422 00       		.byte	0
 2004 0423 0F       		.uleb128 0xf
 2005 0424 05010000 		.4byte	0x105
 2006 0428 03       		.uleb128 0x3
 2007 0429 A1050000 		.4byte	.LASF58
 2008 042d 08       		.byte	0x8
 2009 042e 7D       		.byte	0x7d
 2010 042f E2030000 		.4byte	0x3e2
 2011 0433 08       		.uleb128 0x8
 2012 0434 1C       		.byte	0x1c
 2013 0435 09       		.byte	0x9
 2014 0436 5E       		.byte	0x5e
 2015 0437 90040000 		.4byte	0x490
 2016 043b 06       		.uleb128 0x6
 2017 043c 9A040000 		.4byte	.LASF59
 2018 0440 09       		.byte	0x9
 2019 0441 5F       		.byte	0x5f
 2020 0442 6B020000 		.4byte	0x26b
 2021 0446 02       		.byte	0x2
 2022 0447 23       		.byte	0x23
 2023 0448 00       		.uleb128 0
 2024 0449 06       		.uleb128 0x6
 2025 044a EA020000 		.4byte	.LASF60
 2026 044e 09       		.byte	0x9
 2027 044f 60       		.byte	0x60
 2028 0450 E4000000 		.4byte	0xe4
 2029 0454 02       		.byte	0x2
 2030 0455 23       		.byte	0x23
 2031 0456 08       		.uleb128 0x8
 2032 0457 06       		.uleb128 0x6
 2033 0458 39030000 		.4byte	.LASF61
 2034 045c 09       		.byte	0x9
 2035 045d 62       		.byte	0x62
 2036 045e 3E030000 		.4byte	0x33e
 2037 0462 02       		.byte	0x2
 2038 0463 23       		.byte	0x23
 2039 0464 0C       		.uleb128 0xc
 2040 0465 06       		.uleb128 0x6
 2041 0466 C9010000 		.4byte	.LASF62
 2042 046a 09       		.byte	0x9
 2043 046b 65       		.byte	0x65
 2044 046c 65020000 		.4byte	0x265
 2045 0470 02       		.byte	0x2
 2046 0471 23       		.byte	0x23
 2047 0472 10       		.uleb128 0x10
 2048 0473 06       		.uleb128 0x6
 2049 0474 78030000 		.4byte	.LASF63
 2050 0478 09       		.byte	0x9
 2051 0479 66       		.byte	0x66
 2052 047a 65020000 		.4byte	0x265
 2053 047e 02       		.byte	0x2
 2054 047f 23       		.byte	0x23
 2055 0480 14       		.uleb128 0x14
 2056 0481 06       		.uleb128 0x6
 2057 0482 6E030000 		.4byte	.LASF64
 2058 0486 09       		.byte	0x9
ARM GAS  /tmp/ccHMNvMF.s 			page 39


 2059 0487 69       		.byte	0x69
 2060 0488 65020000 		.4byte	0x265
 2061 048c 02       		.byte	0x2
 2062 048d 23       		.byte	0x23
 2063 048e 18       		.uleb128 0x18
 2064 048f 00       		.byte	0
 2065 0490 03       		.uleb128 0x3
 2066 0491 3A050000 		.4byte	.LASF65
 2067 0495 09       		.byte	0x9
 2068 0496 6B       		.byte	0x6b
 2069 0497 33040000 		.4byte	0x433
 2070 049b 05       		.uleb128 0x5
 2071 049c 16030000 		.4byte	.LASF66
 2072 04a0 10       		.byte	0x10
 2073 04a1 0A       		.byte	0xa
 2074 04a2 2C       		.byte	0x2c
 2075 04a3 D2040000 		.4byte	0x4d2
 2076 04a7 06       		.uleb128 0x6
 2077 04a8 D7000000 		.4byte	.LASF67
 2078 04ac 0A       		.byte	0xa
 2079 04ad 2D       		.byte	0x2d
 2080 04ae 6B020000 		.4byte	0x26b
 2081 04b2 02       		.byte	0x2
 2082 04b3 23       		.byte	0x23
 2083 04b4 00       		.uleb128 0
 2084 04b5 06       		.uleb128 0x6
 2085 04b6 A8050000 		.4byte	.LASF68
 2086 04ba 0A       		.byte	0xa
 2087 04bb 2F       		.byte	0x2f
 2088 04bc 65020000 		.4byte	0x265
 2089 04c0 02       		.byte	0x2
 2090 04c1 23       		.byte	0x23
 2091 04c2 08       		.uleb128 0x8
 2092 04c3 06       		.uleb128 0x6
 2093 04c4 D9040000 		.4byte	.LASF69
 2094 04c8 0A       		.byte	0xa
 2095 04c9 31       		.byte	0x31
 2096 04ca D2040000 		.4byte	0x4d2
 2097 04ce 02       		.byte	0x2
 2098 04cf 23       		.byte	0x23
 2099 04d0 0C       		.uleb128 0xc
 2100 04d1 00       		.byte	0
 2101 04d2 09       		.uleb128 0x9
 2102 04d3 04       		.byte	0x4
 2103 04d4 9B040000 		.4byte	0x49b
 2104 04d8 03       		.uleb128 0x3
 2105 04d9 16030000 		.4byte	.LASF66
 2106 04dd 0A       		.byte	0xa
 2107 04de 33       		.byte	0x33
 2108 04df 9B040000 		.4byte	0x49b
 2109 04e3 10       		.uleb128 0x10
 2110 04e4 04       		.byte	0x4
 2111 04e5 06       		.byte	0x6
 2112 04e6 96       		.byte	0x96
 2113 04e7 18050000 		.4byte	0x518
 2114 04eb 11       		.uleb128 0x11
 2115 04ec 16000000 		.4byte	.LASF70
ARM GAS  /tmp/ccHMNvMF.s 			page 40


 2116 04f0 06       		.byte	0x6
 2117 04f1 9D       		.byte	0x9d
 2118 04f2 EF000000 		.4byte	0xef
 2119 04f6 11       		.uleb128 0x11
 2120 04f7 69000000 		.4byte	.LASF71
 2121 04fb 06       		.byte	0x6
 2122 04fc A4       		.byte	0xa4
 2123 04fd EF000000 		.4byte	0xef
 2124 0501 11       		.uleb128 0x11
 2125 0502 76050000 		.4byte	.LASF72
 2126 0506 06       		.byte	0x6
 2127 0507 AB       		.byte	0xab
 2128 0508 A3020000 		.4byte	0x2a3
 2129 050c 11       		.uleb128 0x11
 2130 050d 3D040000 		.4byte	.LASF73
 2131 0511 06       		.byte	0x6
 2132 0512 B2       		.byte	0xb2
 2133 0513 FA000000 		.4byte	0xfa
 2134 0517 00       		.byte	0
 2135 0518 09       		.uleb128 0x9
 2136 0519 04       		.byte	0x4
 2137 051a 1E050000 		.4byte	0x51e
 2138 051e 12       		.uleb128 0x12
 2139 051f 23050000 		.4byte	0x523
 2140 0523 04       		.uleb128 0x4
 2141 0524 01       		.byte	0x1
 2142 0525 08       		.byte	0x8
 2143 0526 C0040000 		.4byte	.LASF74
 2144 052a 09       		.uleb128 0x9
 2145 052b 04       		.byte	0x4
 2146 052c D8040000 		.4byte	0x4d8
 2147 0530 09       		.uleb128 0x9
 2148 0531 04       		.byte	0x4
 2149 0532 36050000 		.4byte	0x536
 2150 0536 13       		.uleb128 0x13
 2151 0537 01       		.byte	0x1
 2152 0538 EF000000 		.4byte	0xef
 2153 053c 46050000 		.4byte	0x546
 2154 0540 0E       		.uleb128 0xe
 2155 0541 A3020000 		.4byte	0x2a3
 2156 0545 00       		.byte	0
 2157 0546 09       		.uleb128 0x9
 2158 0547 04       		.byte	0x4
 2159 0548 49000000 		.4byte	0x49
 2160 054c 05       		.uleb128 0x5
 2161 054d 4B040000 		.4byte	.LASF75
 2162 0551 10       		.byte	0x10
 2163 0552 0B       		.byte	0xb
 2164 0553 48       		.byte	0x48
 2165 0554 91050000 		.4byte	0x591
 2166 0558 06       		.uleb128 0x6
 2167 0559 E4020000 		.4byte	.LASF76
 2168 055d 0B       		.byte	0xb
 2169 055e 49       		.byte	0x49
 2170 055f B6050000 		.4byte	0x5b6
 2171 0563 02       		.byte	0x2
 2172 0564 23       		.byte	0x23
ARM GAS  /tmp/ccHMNvMF.s 			page 41


 2173 0565 00       		.uleb128 0
 2174 0566 06       		.uleb128 0x6
 2175 0567 96030000 		.4byte	.LASF77
 2176 056b 0B       		.byte	0xb
 2177 056c 49       		.byte	0x49
 2178 056d D6050000 		.4byte	0x5d6
 2179 0571 02       		.byte	0x2
 2180 0572 23       		.byte	0x23
 2181 0573 04       		.uleb128 0x4
 2182 0574 07       		.uleb128 0x7
 2183 0575 70757400 		.ascii	"put\000"
 2184 0579 0B       		.byte	0xb
 2185 057a 49       		.byte	0x49
 2186 057b F1050000 		.4byte	0x5f1
 2187 057f 02       		.byte	0x2
 2188 0580 23       		.byte	0x23
 2189 0581 08       		.uleb128 0x8
 2190 0582 07       		.uleb128 0x7
 2191 0583 67657400 		.ascii	"get\000"
 2192 0587 0B       		.byte	0xb
 2193 0588 49       		.byte	0x49
 2194 0589 30050000 		.4byte	0x530
 2195 058d 02       		.byte	0x2
 2196 058e 23       		.byte	0x23
 2197 058f 0C       		.uleb128 0xc
 2198 0590 00       		.byte	0
 2199 0591 13       		.uleb128 0x13
 2200 0592 01       		.byte	0x1
 2201 0593 30000000 		.4byte	0x30
 2202 0597 AB050000 		.4byte	0x5ab
 2203 059b 0E       		.uleb128 0xe
 2204 059c A3020000 		.4byte	0x2a3
 2205 05a0 0E       		.uleb128 0xe
 2206 05a1 AB050000 		.4byte	0x5ab
 2207 05a5 0E       		.uleb128 0xe
 2208 05a6 30000000 		.4byte	0x30
 2209 05aa 00       		.byte	0
 2210 05ab 09       		.uleb128 0x9
 2211 05ac 04       		.byte	0x4
 2212 05ad B1050000 		.4byte	0x5b1
 2213 05b1 12       		.uleb128 0x12
 2214 05b2 49000000 		.4byte	0x49
 2215 05b6 09       		.uleb128 0x9
 2216 05b7 04       		.byte	0x4
 2217 05b8 91050000 		.4byte	0x591
 2218 05bc 13       		.uleb128 0x13
 2219 05bd 01       		.byte	0x1
 2220 05be 30000000 		.4byte	0x30
 2221 05c2 D6050000 		.4byte	0x5d6
 2222 05c6 0E       		.uleb128 0xe
 2223 05c7 A3020000 		.4byte	0x2a3
 2224 05cb 0E       		.uleb128 0xe
 2225 05cc 46050000 		.4byte	0x546
 2226 05d0 0E       		.uleb128 0xe
 2227 05d1 30000000 		.4byte	0x30
 2228 05d5 00       		.byte	0
 2229 05d6 09       		.uleb128 0x9
ARM GAS  /tmp/ccHMNvMF.s 			page 42


 2230 05d7 04       		.byte	0x4
 2231 05d8 BC050000 		.4byte	0x5bc
 2232 05dc 13       		.uleb128 0x13
 2233 05dd 01       		.byte	0x1
 2234 05de EF000000 		.4byte	0xef
 2235 05e2 F1050000 		.4byte	0x5f1
 2236 05e6 0E       		.uleb128 0xe
 2237 05e7 A3020000 		.4byte	0x2a3
 2238 05eb 0E       		.uleb128 0xe
 2239 05ec 49000000 		.4byte	0x49
 2240 05f0 00       		.byte	0
 2241 05f1 09       		.uleb128 0x9
 2242 05f2 04       		.byte	0x4
 2243 05f3 DC050000 		.4byte	0x5dc
 2244 05f7 08       		.uleb128 0x8
 2245 05f8 04       		.byte	0x4
 2246 05f9 0B       		.byte	0xb
 2247 05fa 51       		.byte	0x51
 2248 05fb 0E060000 		.4byte	0x60e
 2249 05ff 07       		.uleb128 0x7
 2250 0600 766D7400 		.ascii	"vmt\000"
 2251 0604 0B       		.byte	0xb
 2252 0605 53       		.byte	0x53
 2253 0606 0E060000 		.4byte	0x60e
 2254 060a 02       		.byte	0x2
 2255 060b 23       		.byte	0x23
 2256 060c 00       		.uleb128 0
 2257 060d 00       		.byte	0
 2258 060e 09       		.uleb128 0x9
 2259 060f 04       		.byte	0x4
 2260 0610 14060000 		.4byte	0x614
 2261 0614 12       		.uleb128 0x12
 2262 0615 4C050000 		.4byte	0x54c
 2263 0619 03       		.uleb128 0x3
 2264 061a EB010000 		.4byte	.LASF78
 2265 061e 0B       		.byte	0xb
 2266 061f 55       		.byte	0x55
 2267 0620 F7050000 		.4byte	0x5f7
 2268 0624 0F       		.uleb128 0xf
 2269 0625 69000000 		.4byte	0x69
 2270 0629 05       		.uleb128 0x5
 2271 062a 7D040000 		.4byte	.LASF79
 2272 062e 10       		.byte	0x10
 2273 062f 0C       		.byte	0xc
 2274 0630 3B       		.byte	0x3b
 2275 0631 6E060000 		.4byte	0x66e
 2276 0635 06       		.uleb128 0x6
 2277 0636 47020000 		.4byte	.LASF80
 2278 063a 0C       		.byte	0xc
 2279 063b 3C       		.byte	0x3c
 2280 063c 18050000 		.4byte	0x518
 2281 0640 02       		.byte	0x2
 2282 0641 23       		.byte	0x23
 2283 0642 00       		.uleb128 0
 2284 0643 06       		.uleb128 0x6
 2285 0644 52030000 		.4byte	.LASF81
 2286 0648 0C       		.byte	0xc
ARM GAS  /tmp/ccHMNvMF.s 			page 43


 2287 0649 3D       		.byte	0x3d
 2288 064a 70060000 		.4byte	0x670
 2289 064e 02       		.byte	0x2
 2290 064f 23       		.byte	0x23
 2291 0650 04       		.uleb128 0x4
 2292 0651 06       		.uleb128 0x6
 2293 0652 8B000000 		.4byte	.LASF82
 2294 0656 0C       		.byte	0xc
 2295 0657 3E       		.byte	0x3e
 2296 0658 70060000 		.4byte	0x670
 2297 065c 02       		.byte	0x2
 2298 065d 23       		.byte	0x23
 2299 065e 08       		.uleb128 0x8
 2300 065f 06       		.uleb128 0x6
 2301 0660 B0030000 		.4byte	.LASF83
 2302 0664 0C       		.byte	0xc
 2303 0665 3F       		.byte	0x3f
 2304 0666 70060000 		.4byte	0x670
 2305 066a 02       		.byte	0x2
 2306 066b 23       		.byte	0x23
 2307 066c 0C       		.uleb128 0xc
 2308 066d 00       		.byte	0
 2309 066e 14       		.uleb128 0x14
 2310 066f 01       		.byte	0x1
 2311 0670 09       		.uleb128 0x9
 2312 0671 04       		.byte	0x4
 2313 0672 6E060000 		.4byte	0x66e
 2314 0676 15       		.uleb128 0x15
 2315 0677 F005     		.2byte	0x5f0
 2316 0679 0C       		.byte	0xc
 2317 067a 44       		.byte	0x44
 2318 067b C5060000 		.4byte	0x6c5
 2319 067f 07       		.uleb128 0x7
 2320 0680 543000   		.ascii	"T0\000"
 2321 0683 0C       		.byte	0xc
 2322 0684 45       		.byte	0x45
 2323 0685 C5060000 		.4byte	0x6c5
 2324 0689 02       		.byte	0x2
 2325 068a 23       		.byte	0x23
 2326 068b 00       		.uleb128 0
 2327 068c 07       		.uleb128 0x7
 2328 068d 543100   		.ascii	"T1\000"
 2329 0690 0C       		.byte	0xc
 2330 0691 46       		.byte	0x46
 2331 0692 C5060000 		.4byte	0x6c5
 2332 0696 03       		.byte	0x3
 2333 0697 23       		.byte	0x23
 2334 0698 B002     		.uleb128 0x130
 2335 069a 07       		.uleb128 0x7
 2336 069b 543200   		.ascii	"T2\000"
 2337 069e 0C       		.byte	0xc
 2338 069f 47       		.byte	0x47
 2339 06a0 C5060000 		.4byte	0x6c5
 2340 06a4 03       		.byte	0x3
 2341 06a5 23       		.byte	0x23
 2342 06a6 E004     		.uleb128 0x260
 2343 06a8 07       		.uleb128 0x7
ARM GAS  /tmp/ccHMNvMF.s 			page 44


 2344 06a9 543300   		.ascii	"T3\000"
 2345 06ac 0C       		.byte	0xc
 2346 06ad 48       		.byte	0x48
 2347 06ae C5060000 		.4byte	0x6c5
 2348 06b2 03       		.byte	0x3
 2349 06b3 23       		.byte	0x23
 2350 06b4 9007     		.uleb128 0x390
 2351 06b6 07       		.uleb128 0x7
 2352 06b7 543400   		.ascii	"T4\000"
 2353 06ba 0C       		.byte	0xc
 2354 06bb 49       		.byte	0x49
 2355 06bc C5060000 		.4byte	0x6c5
 2356 06c0 03       		.byte	0x3
 2357 06c1 23       		.byte	0x23
 2358 06c2 C009     		.uleb128 0x4c0
 2359 06c4 00       		.byte	0
 2360 06c5 16       		.uleb128 0x16
 2361 06c6 A5020000 		.4byte	0x2a5
 2362 06ca D5060000 		.4byte	0x6d5
 2363 06ce 17       		.uleb128 0x17
 2364 06cf 3B000000 		.4byte	0x3b
 2365 06d3 25       		.byte	0x25
 2366 06d4 00       		.byte	0
 2367 06d5 18       		.uleb128 0x18
 2368 06d6 1F050000 		.4byte	.LASF133
 2369 06da F005     		.2byte	0x5f0
 2370 06dc 0C       		.byte	0xc
 2371 06dd 43       		.byte	0x43
 2372 06de F8060000 		.4byte	0x6f8
 2373 06e2 19       		.uleb128 0x19
 2374 06e3 776100   		.ascii	"wa\000"
 2375 06e6 0C       		.byte	0xc
 2376 06e7 4A       		.byte	0x4a
 2377 06e8 76060000 		.4byte	0x676
 2378 06ec 11       		.uleb128 0x11
 2379 06ed A9010000 		.4byte	.LASF84
 2380 06f1 0C       		.byte	0xc
 2381 06f2 4B       		.byte	0x4b
 2382 06f3 F8060000 		.4byte	0x6f8
 2383 06f7 00       		.byte	0
 2384 06f8 16       		.uleb128 0x16
 2385 06f9 49000000 		.4byte	0x49
 2386 06fd 09070000 		.4byte	0x709
 2387 0701 1A       		.uleb128 0x1a
 2388 0702 3B000000 		.4byte	0x3b
 2389 0706 EF05     		.2byte	0x5ef
 2390 0708 00       		.byte	0
 2391 0709 1B       		.uleb128 0x1b
 2392 070a 01       		.byte	0x1
 2393 070b A2040000 		.4byte	.LASF134
 2394 070f 01       		.byte	0x1
 2395 0710 5B       		.byte	0x5b
 2396 0711 01       		.byte	0x1
 2397 0712 01       		.byte	0x1
 2398 0713 35070000 		.4byte	0x735
 2399 0717 1C       		.uleb128 0x1c
 2400 0718 6E00     		.ascii	"n\000"
ARM GAS  /tmp/ccHMNvMF.s 			page 45


 2401 071a 01       		.byte	0x1
 2402 071b 5B       		.byte	0x5b
 2403 071c 7B000000 		.4byte	0x7b
 2404 0720 1D       		.uleb128 0x1d
 2405 0721 62756600 		.ascii	"buf\000"
 2406 0725 01       		.byte	0x1
 2407 0726 5C       		.byte	0x5c
 2408 0727 35070000 		.4byte	0x735
 2409 072b 1D       		.uleb128 0x1d
 2410 072c 7000     		.ascii	"p\000"
 2411 072e 01       		.byte	0x1
 2412 072f 5C       		.byte	0x5c
 2413 0730 45070000 		.4byte	0x745
 2414 0734 00       		.byte	0
 2415 0735 16       		.uleb128 0x16
 2416 0736 23050000 		.4byte	0x523
 2417 073a 45070000 		.4byte	0x745
 2418 073e 17       		.uleb128 0x17
 2419 073f 3B000000 		.4byte	0x3b
 2420 0743 0F       		.byte	0xf
 2421 0744 00       		.byte	0
 2422 0745 09       		.uleb128 0x9
 2423 0746 04       		.byte	0x4
 2424 0747 23050000 		.4byte	0x523
 2425 074b 1E       		.uleb128 0x1e
 2426 074c 01       		.byte	0x1
 2427 074d 94020000 		.4byte	.LASF86
 2428 0751 01       		.byte	0x1
 2429 0752 9D       		.byte	0x9d
 2430 0753 01       		.byte	0x1
 2431 0754 A6000000 		.4byte	0xa6
 2432 0758 01       		.byte	0x1
 2433 0759 69070000 		.4byte	0x769
 2434 075d 1F       		.uleb128 0x1f
 2435 075e 22020000 		.4byte	.LASF85
 2436 0762 01       		.byte	0x1
 2437 0763 9D       		.byte	0x9d
 2438 0764 3B000000 		.4byte	0x3b
 2439 0768 00       		.byte	0
 2440 0769 20       		.uleb128 0x20
 2441 076a 69050000 		.4byte	.LASF135
 2442 076e 01       		.byte	0x1
 2443 076f 82       		.byte	0x82
 2444 0770 01       		.byte	0x1
 2445 0771 01       		.byte	0x1
 2446 0772 1E       		.uleb128 0x1e
 2447 0773 01       		.byte	0x1
 2448 0774 7D050000 		.4byte	.LASF87
 2449 0778 01       		.byte	0x1
 2450 0779 A5       		.byte	0xa5
 2451 077a 01       		.byte	0x1
 2452 077b A6000000 		.4byte	0xa6
 2453 077f 01       		.byte	0x1
 2454 0780 9B070000 		.4byte	0x79b
 2455 0784 1F       		.uleb128 0x1f
 2456 0785 22020000 		.4byte	.LASF85
 2457 0789 01       		.byte	0x1
ARM GAS  /tmp/ccHMNvMF.s 			page 46


 2458 078a A5       		.byte	0xa5
 2459 078b 3B000000 		.4byte	0x3b
 2460 078f 1F       		.uleb128 0x1f
 2461 0790 5F000000 		.4byte	.LASF88
 2462 0794 01       		.byte	0x1
 2463 0795 A5       		.byte	0xa5
 2464 0796 A6000000 		.4byte	0xa6
 2465 079a 00       		.byte	0
 2466 079b 21       		.uleb128 0x21
 2467 079c 44050000 		.4byte	.LASF89
 2468 07a0 01       		.byte	0x1
 2469 07a1 1A01     		.2byte	0x11a
 2470 07a3 01       		.byte	0x1
 2471 07a4 01       		.byte	0x1
 2472 07a5 C0070000 		.4byte	0x7c0
 2473 07a9 22       		.uleb128 0x22
 2474 07aa 74637000 		.ascii	"tcp\000"
 2475 07ae 01       		.byte	0x1
 2476 07af 1A01     		.2byte	0x11a
 2477 07b1 C0070000 		.4byte	0x7c0
 2478 07b5 23       		.uleb128 0x23
 2479 07b6 6900     		.ascii	"i\000"
 2480 07b8 01       		.byte	0x1
 2481 07b9 1B01     		.2byte	0x11b
 2482 07bb 29000000 		.4byte	0x29
 2483 07bf 00       		.byte	0
 2484 07c0 09       		.uleb128 0x9
 2485 07c1 04       		.byte	0x4
 2486 07c2 C6070000 		.4byte	0x7c6
 2487 07c6 12       		.uleb128 0x12
 2488 07c7 29060000 		.4byte	0x629
 2489 07cb 24       		.uleb128 0x24
 2490 07cc 00020000 		.4byte	.LASF90
 2491 07d0 01       		.byte	0x1
 2492 07d1 87       		.byte	0x87
 2493 07d2 01       		.byte	0x1
 2494 07d3 01       		.byte	0x1
 2495 07d4 E3070000 		.4byte	0x7e3
 2496 07d8 1D       		.uleb128 0x1d
 2497 07d9 637000   		.ascii	"cp\000"
 2498 07dc 01       		.byte	0x1
 2499 07dd 88       		.byte	0x88
 2500 07de 45070000 		.4byte	0x745
 2501 07e2 00       		.byte	0
 2502 07e3 25       		.uleb128 0x25
 2503 07e4 746D7200 		.ascii	"tmr\000"
 2504 07e8 01       		.byte	0x1
 2505 07e9 0501     		.2byte	0x105
 2506 07eb 01       		.byte	0x1
 2507 07ec 00000000 		.4byte	.LFB132
 2508 07f0 0E000000 		.4byte	.LFE132
 2509 07f4 02       		.byte	0x2
 2510 07f5 7D       		.byte	0x7d
 2511 07f6 00       		.sleb128 0
 2512 07f7 08080000 		.4byte	0x808
 2513 07fb 26       		.uleb128 0x26
 2514 07fc 7000     		.ascii	"p\000"
ARM GAS  /tmp/ccHMNvMF.s 			page 47


 2515 07fe 01       		.byte	0x1
 2516 07ff 0501     		.2byte	0x105
 2517 0801 A3020000 		.4byte	0x2a3
 2518 0805 01       		.byte	0x1
 2519 0806 50       		.byte	0x50
 2520 0807 00       		.byte	0
 2521 0808 27       		.uleb128 0x27
 2522 0809 1C030000 		.4byte	.LASF91
 2523 080d 01       		.byte	0x1
 2524 080e 2C01     		.2byte	0x12c
 2525 0810 01       		.byte	0x1
 2526 0811 00000000 		.4byte	.LFB135
 2527 0815 2C000000 		.4byte	.LFE135
 2528 0819 00000000 		.4byte	.LLST0
 2529 081d 30080000 		.4byte	0x830
 2530 0821 28       		.uleb128 0x28
 2531 0822 6900     		.ascii	"i\000"
 2532 0824 01       		.byte	0x1
 2533 0825 2D01     		.2byte	0x12d
 2534 0827 3B000000 		.4byte	0x3b
 2535 082b 20000000 		.4byte	.LLST1
 2536 082f 00       		.byte	0
 2537 0830 29       		.uleb128 0x29
 2538 0831 09070000 		.4byte	0x709
 2539 0835 00000000 		.4byte	.LFB118
 2540 0839 64000000 		.4byte	.LFE118
 2541 083d 34000000 		.4byte	.LLST2
 2542 0841 85080000 		.4byte	0x885
 2543 0845 2A       		.uleb128 0x2a
 2544 0846 17070000 		.4byte	0x717
 2545 084a 60000000 		.4byte	.LLST3
 2546 084e 2B       		.uleb128 0x2b
 2547 084f 20070000 		.4byte	0x720
 2548 0853 02       		.byte	0x2
 2549 0854 91       		.byte	0x91
 2550 0855 60       		.sleb128 -32
 2551 0856 2C       		.uleb128 0x2c
 2552 0857 2B070000 		.4byte	0x72b
 2553 085b 89000000 		.4byte	.LLST4
 2554 085f 2D       		.uleb128 0x2d
 2555 0860 09070000 		.4byte	0x709
 2556 0864 0C000000 		.4byte	.LBB24
 2557 0868 00000000 		.4byte	.Ldebug_ranges0+0
 2558 086c 01       		.byte	0x1
 2559 086d 5B       		.byte	0x5b
 2560 086e 2E       		.uleb128 0x2e
 2561 086f 18000000 		.4byte	.Ldebug_ranges0+0x18
 2562 0873 2F       		.uleb128 0x2f
 2563 0874 20070000 		.4byte	0x720
 2564 0878 2F       		.uleb128 0x2f
 2565 0879 2B070000 		.4byte	0x72b
 2566 087d 30       		.uleb128 0x30
 2567 087e 17070000 		.4byte	0x717
 2568 0882 00       		.byte	0
 2569 0883 00       		.byte	0
 2570 0884 00       		.byte	0
 2571 0885 31       		.uleb128 0x31
ARM GAS  /tmp/ccHMNvMF.s 			page 48


 2572 0886 01       		.byte	0x1
 2573 0887 D9020000 		.4byte	.LASF93
 2574 088b 01       		.byte	0x1
 2575 088c 6E       		.byte	0x6e
 2576 088d 01       		.byte	0x1
 2577 088e 00000000 		.4byte	.LFB119
 2578 0892 20000000 		.4byte	.LFE119
 2579 0896 9C000000 		.4byte	.LLST5
 2580 089a AE080000 		.4byte	0x8ae
 2581 089e 32       		.uleb128 0x32
 2582 089f C9020000 		.4byte	.LASF92
 2583 08a3 01       		.byte	0x1
 2584 08a4 6E       		.byte	0x6e
 2585 08a5 18050000 		.4byte	0x518
 2586 08a9 BC000000 		.4byte	.LLST6
 2587 08ad 00       		.byte	0
 2588 08ae 31       		.uleb128 0x31
 2589 08af 01       		.byte	0x1
 2590 08b0 EF000000 		.4byte	.LASF94
 2591 08b4 01       		.byte	0x1
 2592 08b5 79       		.byte	0x79
 2593 08b6 01       		.byte	0x1
 2594 08b7 00000000 		.4byte	.LFB120
 2595 08bb 22000000 		.4byte	.LFE120
 2596 08bf CF000000 		.4byte	.LLST7
 2597 08c3 D7080000 		.4byte	0x8d7
 2598 08c7 32       		.uleb128 0x32
 2599 08c8 C9020000 		.4byte	.LASF92
 2600 08cc 01       		.byte	0x1
 2601 08cd 79       		.byte	0x79
 2602 08ce 18050000 		.4byte	0x518
 2603 08d2 EF000000 		.4byte	.LLST8
 2604 08d6 00       		.byte	0
 2605 08d7 33       		.uleb128 0x33
 2606 08d8 01       		.byte	0x1
 2607 08d9 DF000000 		.4byte	.LASF95
 2608 08dd 01       		.byte	0x1
 2609 08de 93       		.byte	0x93
 2610 08df 01       		.byte	0x1
 2611 08e0 00000000 		.4byte	.LFB123
 2612 08e4 1E000000 		.4byte	.LFE123
 2613 08e8 02       		.byte	0x2
 2614 08e9 7D       		.byte	0x7d
 2615 08ea 00       		.sleb128 0
 2616 08eb 2F090000 		.4byte	0x92f
 2617 08ef 34       		.uleb128 0x34
 2618 08f0 9B030000 		.4byte	.LASF96
 2619 08f4 01       		.byte	0x1
 2620 08f5 93       		.byte	0x93
 2621 08f6 23050000 		.4byte	0x523
 2622 08fa 01       		.byte	0x1
 2623 08fb 50       		.byte	0x50
 2624 08fc 35       		.uleb128 0x35
 2625 08fd 00000000 		.4byte	.LBB28
 2626 0901 06000000 		.4byte	.LBE28
 2627 0905 19090000 		.4byte	0x919
 2628 0909 36       		.uleb128 0x36
ARM GAS  /tmp/ccHMNvMF.s 			page 49


 2629 090a 746D7000 		.ascii	"tmp\000"
 2630 090e 01       		.byte	0x1
 2631 090f 95       		.byte	0x95
 2632 0910 7B000000 		.4byte	0x7b
 2633 0914 02010000 		.4byte	.LLST9
 2634 0918 00       		.byte	0
 2635 0919 2E       		.uleb128 0x2e
 2636 091a 30000000 		.4byte	.Ldebug_ranges0+0x30
 2637 091e 36       		.uleb128 0x36
 2638 091f 746D7000 		.ascii	"tmp\000"
 2639 0923 01       		.byte	0x1
 2640 0924 97       		.byte	0x97
 2641 0925 7B000000 		.4byte	0x7b
 2642 0929 15010000 		.4byte	.LLST10
 2643 092d 00       		.byte	0
 2644 092e 00       		.byte	0
 2645 092f 29       		.uleb128 0x29
 2646 0930 4B070000 		.4byte	0x74b
 2647 0934 00000000 		.4byte	.LFB124
 2648 0938 28000000 		.4byte	.LFE124
 2649 093c 28010000 		.4byte	.LLST11
 2650 0940 4E090000 		.4byte	0x94e
 2651 0944 2A       		.uleb128 0x2a
 2652 0945 5D070000 		.4byte	0x75d
 2653 0949 48010000 		.4byte	.LLST12
 2654 094d 00       		.byte	0
 2655 094e 37       		.uleb128 0x37
 2656 094f 72070000 		.4byte	0x772
 2657 0953 00000000 		.4byte	.LFB125
 2658 0957 24000000 		.4byte	.LFE125
 2659 095b 02       		.byte	0x2
 2660 095c 7D       		.byte	0x7d
 2661 095d 00       		.sleb128 0
 2662 095e 8C090000 		.4byte	0x98c
 2663 0962 2A       		.uleb128 0x2a
 2664 0963 84070000 		.4byte	0x784
 2665 0967 6A010000 		.4byte	.LLST13
 2666 096b 38       		.uleb128 0x38
 2667 096c 8F070000 		.4byte	0x78f
 2668 0970 01       		.byte	0x1
 2669 0971 51       		.byte	0x51
 2670 0972 39       		.uleb128 0x39
 2671 0973 4B070000 		.4byte	0x74b
 2672 0977 02000000 		.4byte	.LBB31
 2673 097b 10000000 		.4byte	.LBE31
 2674 097f 01       		.byte	0x1
 2675 0980 A8       		.byte	0xa8
 2676 0981 2A       		.uleb128 0x2a
 2677 0982 5D070000 		.4byte	0x75d
 2678 0986 97010000 		.4byte	.LLST14
 2679 098a 00       		.byte	0
 2680 098b 00       		.byte	0
 2681 098c 3A       		.uleb128 0x3a
 2682 098d 01       		.byte	0x1
 2683 098e 58030000 		.4byte	.LASF98
 2684 0992 01       		.byte	0x1
 2685 0993 AC       		.byte	0xac
ARM GAS  /tmp/ccHMNvMF.s 			page 50


 2686 0994 01       		.byte	0x1
 2687 0995 A6000000 		.4byte	0xa6
 2688 0999 00000000 		.4byte	.LFB126
 2689 099d 54000000 		.4byte	.LFE126
 2690 09a1 B9010000 		.4byte	.LLST15
 2691 09a5 FC090000 		.4byte	0x9fc
 2692 09a9 32       		.uleb128 0x32
 2693 09aa 22020000 		.4byte	.LASF85
 2694 09ae 01       		.byte	0x1
 2695 09af AC       		.byte	0xac
 2696 09b0 3B000000 		.4byte	0x3b
 2697 09b4 D9010000 		.4byte	.LLST16
 2698 09b8 34       		.uleb128 0x34
 2699 09b9 33020000 		.4byte	.LASF97
 2700 09bd 01       		.byte	0x1
 2701 09be AC       		.byte	0xac
 2702 09bf 45070000 		.4byte	0x745
 2703 09c3 01       		.byte	0x1
 2704 09c4 51       		.byte	0x51
 2705 09c5 36       		.uleb128 0x36
 2706 09c6 637000   		.ascii	"cp\000"
 2707 09c9 01       		.byte	0x1
 2708 09ca AD       		.byte	0xad
 2709 09cb 45070000 		.4byte	0x745
 2710 09cf F7010000 		.4byte	.LLST17
 2711 09d3 3B       		.uleb128 0x3b
 2712 09d4 69070000 		.4byte	0x769
 2713 09d8 24000000 		.4byte	.LBB33
 2714 09dc 26000000 		.4byte	.LBE33
 2715 09e0 01       		.byte	0x1
 2716 09e1 B4       		.byte	0xb4
 2717 09e2 39       		.uleb128 0x39
 2718 09e3 4B070000 		.4byte	0x74b
 2719 09e7 2A000000 		.4byte	.LBB35
 2720 09eb 38000000 		.4byte	.LBE35
 2721 09ef 01       		.byte	0x1
 2722 09f0 B3       		.byte	0xb3
 2723 09f1 2A       		.uleb128 0x2a
 2724 09f2 5D070000 		.4byte	0x75d
 2725 09f6 0F020000 		.4byte	.LLST18
 2726 09fa 00       		.byte	0
 2727 09fb 00       		.byte	0
 2728 09fc 3A       		.uleb128 0x3a
 2729 09fd 01       		.byte	0x1
 2730 09fe 6D010000 		.4byte	.LASF99
 2731 0a02 01       		.byte	0x1
 2732 0a03 B8       		.byte	0xb8
 2733 0a04 01       		.byte	0x1
 2734 0a05 A6000000 		.4byte	0xa6
 2735 0a09 00000000 		.4byte	.LFB127
 2736 0a0d 30000000 		.4byte	.LFE127
 2737 0a11 22020000 		.4byte	.LLST19
 2738 0a15 800A0000 		.4byte	0xa80
 2739 0a19 32       		.uleb128 0x32
 2740 0a1a 22020000 		.4byte	.LASF85
 2741 0a1e 01       		.byte	0x1
 2742 0a1f B8       		.byte	0xb8
ARM GAS  /tmp/ccHMNvMF.s 			page 51


 2743 0a20 3B000000 		.4byte	0x3b
 2744 0a24 42020000 		.4byte	.LLST20
 2745 0a28 32       		.uleb128 0x32
 2746 0a29 9B050000 		.4byte	.LASF100
 2747 0a2d 01       		.byte	0x1
 2748 0a2e B8       		.byte	0xb8
 2749 0a2f 05010000 		.4byte	0x105
 2750 0a33 60020000 		.4byte	.LLST21
 2751 0a37 3C       		.uleb128 0x3c
 2752 0a38 656E6400 		.ascii	"end\000"
 2753 0a3c 01       		.byte	0x1
 2754 0a3d B8       		.byte	0xb8
 2755 0a3e 05010000 		.4byte	0x105
 2756 0a42 7E020000 		.4byte	.LLST22
 2757 0a46 39       		.uleb128 0x39
 2758 0a47 72070000 		.4byte	0x772
 2759 0a4b 0C000000 		.4byte	.LBB37
 2760 0a4f 20000000 		.4byte	.LBE37
 2761 0a53 01       		.byte	0x1
 2762 0a54 BA       		.byte	0xba
 2763 0a55 2A       		.uleb128 0x2a
 2764 0a56 8F070000 		.4byte	0x78f
 2765 0a5a 91020000 		.4byte	.LLST23
 2766 0a5e 38       		.uleb128 0x38
 2767 0a5f 84070000 		.4byte	0x784
 2768 0a63 01       		.byte	0x1
 2769 0a64 54       		.byte	0x54
 2770 0a65 39       		.uleb128 0x39
 2771 0a66 4B070000 		.4byte	0x74b
 2772 0a6a 0E000000 		.4byte	.LBB39
 2773 0a6e 1E000000 		.4byte	.LBE39
 2774 0a72 01       		.byte	0x1
 2775 0a73 A8       		.byte	0xa8
 2776 0a74 2A       		.uleb128 0x2a
 2777 0a75 5D070000 		.4byte	0x75d
 2778 0a79 AF020000 		.4byte	.LLST24
 2779 0a7d 00       		.byte	0
 2780 0a7e 00       		.byte	0
 2781 0a7f 00       		.byte	0
 2782 0a80 31       		.uleb128 0x31
 2783 0a81 01       		.byte	0x1
 2784 0a82 86010000 		.4byte	.LASF101
 2785 0a86 01       		.byte	0x1
 2786 0a87 C4       		.byte	0xc4
 2787 0a88 01       		.byte	0x1
 2788 0a89 00000000 		.4byte	.LFB128
 2789 0a8d 20000000 		.4byte	.LFE128
 2790 0a91 C2020000 		.4byte	.LLST25
 2791 0a95 A70A0000 		.4byte	0xaa7
 2792 0a99 36       		.uleb128 0x36
 2793 0a9a 6900     		.ascii	"i\000"
 2794 0a9c 01       		.byte	0x1
 2795 0a9d C5       		.byte	0xc5
 2796 0a9e 29000000 		.4byte	0x29
 2797 0aa2 E2020000 		.4byte	.LLST26
 2798 0aa6 00       		.byte	0
 2799 0aa7 31       		.uleb128 0x31
ARM GAS  /tmp/ccHMNvMF.s 			page 52


 2800 0aa8 01       		.byte	0x1
 2801 0aa9 27030000 		.4byte	.LASF102
 2802 0aad 01       		.byte	0x1
 2803 0aae CF       		.byte	0xcf
 2804 0aaf 01       		.byte	0x1
 2805 0ab0 00000000 		.4byte	.LFB129
 2806 0ab4 24000000 		.4byte	.LFE129
 2807 0ab8 F6020000 		.4byte	.LLST27
 2808 0abc CE0A0000 		.4byte	0xace
 2809 0ac0 36       		.uleb128 0x36
 2810 0ac1 6900     		.ascii	"i\000"
 2811 0ac3 01       		.byte	0x1
 2812 0ac4 D0       		.byte	0xd0
 2813 0ac5 29000000 		.4byte	0x29
 2814 0ac9 16030000 		.4byte	.LLST28
 2815 0acd 00       		.byte	0
 2816 0ace 31       		.uleb128 0x31
 2817 0acf 01       		.byte	0x1
 2818 0ad0 00000000 		.4byte	.LASF103
 2819 0ad4 01       		.byte	0x1
 2820 0ad5 E0       		.byte	0xe0
 2821 0ad6 01       		.byte	0x1
 2822 0ad7 00000000 		.4byte	.LFB130
 2823 0adb 5C000000 		.4byte	.LFE130
 2824 0adf 2A030000 		.4byte	.LLST29
 2825 0ae3 1E0B0000 		.4byte	0xb1e
 2826 0ae7 32       		.uleb128 0x32
 2827 0ae8 E2010000 		.4byte	.LASF104
 2828 0aec 01       		.byte	0x1
 2829 0aed E0       		.byte	0xe0
 2830 0aee 3B000000 		.4byte	0x3b
 2831 0af2 4A030000 		.4byte	.LLST30
 2832 0af6 3D       		.uleb128 0x3d
 2833 0af7 9B050000 		.4byte	.LASF100
 2834 0afb 01       		.byte	0x1
 2835 0afc E1       		.byte	0xe1
 2836 0afd 05010000 		.4byte	0x105
 2837 0b01 01       		.byte	0x1
 2838 0b02 53       		.byte	0x53
 2839 0b03 3E       		.uleb128 0x3e
 2840 0b04 656E6400 		.ascii	"end\000"
 2841 0b08 01       		.byte	0x1
 2842 0b09 E1       		.byte	0xe1
 2843 0b0a 05010000 		.4byte	0x105
 2844 0b0e 01       		.byte	0x1
 2845 0b0f 50       		.byte	0x50
 2846 0b10 3E       		.uleb128 0x3e
 2847 0b11 6E6F7700 		.ascii	"now\000"
 2848 0b15 01       		.byte	0x1
 2849 0b16 E1       		.byte	0xe1
 2850 0b17 05010000 		.4byte	0x105
 2851 0b1b 01       		.byte	0x1
 2852 0b1c 51       		.byte	0x51
 2853 0b1d 00       		.byte	0
 2854 0b1e 3F       		.uleb128 0x3f
 2855 0b1f 01       		.byte	0x1
 2856 0b20 E7030000 		.4byte	.LASF136
ARM GAS  /tmp/ccHMNvMF.s 			page 53


 2857 0b24 01       		.byte	0x1
 2858 0b25 F5       		.byte	0xf5
 2859 0b26 01       		.byte	0x1
 2860 0b27 05010000 		.4byte	0x105
 2861 0b2b 00000000 		.4byte	.LFB131
 2862 0b2f 14000000 		.4byte	.LFE131
 2863 0b33 5D030000 		.4byte	.LLST31
 2864 0b37 40       		.uleb128 0x40
 2865 0b38 01       		.byte	0x1
 2866 0b39 B8010000 		.4byte	.LASF105
 2867 0b3d 01       		.byte	0x1
 2868 0b3e 1001     		.2byte	0x110
 2869 0b40 01       		.byte	0x1
 2870 0b41 00000000 		.4byte	.LFB133
 2871 0b45 4C000000 		.4byte	.LFE133
 2872 0b49 7D030000 		.4byte	.LLST32
 2873 0b4d A50B0000 		.4byte	0xba5
 2874 0b51 41       		.uleb128 0x41
 2875 0b52 6D7300   		.ascii	"ms\000"
 2876 0b55 01       		.byte	0x1
 2877 0b56 1001     		.2byte	0x110
 2878 0b58 3B000000 		.4byte	0x3b
 2879 0b5c 9D030000 		.4byte	.LLST33
 2880 0b60 42       		.uleb128 0x42
 2881 0b61 E2010000 		.4byte	.LASF104
 2882 0b65 01       		.byte	0x1
 2883 0b66 1201     		.2byte	0x112
 2884 0b68 05010000 		.4byte	0x105
 2885 0b6c 35       		.uleb128 0x35
 2886 0b6d 0E000000 		.4byte	.LBB41
 2887 0b71 14000000 		.4byte	.LBE41
 2888 0b75 8A0B0000 		.4byte	0xb8a
 2889 0b79 28       		.uleb128 0x28
 2890 0b7a 746D7000 		.ascii	"tmp\000"
 2891 0b7e 01       		.byte	0x1
 2892 0b7f 1401     		.2byte	0x114
 2893 0b81 7B000000 		.4byte	0x7b
 2894 0b85 B0030000 		.4byte	.LLST34
 2895 0b89 00       		.byte	0
 2896 0b8a 43       		.uleb128 0x43
 2897 0b8b 44000000 		.4byte	.LBB42
 2898 0b8f 4A000000 		.4byte	.LBE42
 2899 0b93 28       		.uleb128 0x28
 2900 0b94 746D7000 		.ascii	"tmp\000"
 2901 0b98 01       		.byte	0x1
 2902 0b99 1401     		.2byte	0x114
 2903 0b9b 7B000000 		.4byte	0x7b
 2904 0b9f C3030000 		.4byte	.LLST35
 2905 0ba3 00       		.byte	0
 2906 0ba4 00       		.byte	0
 2907 0ba5 44       		.uleb128 0x44
 2908 0ba6 01       		.byte	0x1
 2909 0ba7 DC030000 		.4byte	.LASF106
 2910 0bab 01       		.byte	0x1
 2911 0bac 3A01     		.2byte	0x13a
 2912 0bae 01       		.byte	0x1
 2913 0baf EF000000 		.4byte	0xef
ARM GAS  /tmp/ccHMNvMF.s 			page 54


 2914 0bb3 00000000 		.4byte	.LFB136
 2915 0bb7 44020000 		.4byte	.LFE136
 2916 0bbb D6030000 		.4byte	.LLST36
 2917 0bbf 4F0C0000 		.4byte	0xc4f
 2918 0bc3 41       		.uleb128 0x41
 2919 0bc4 7000     		.ascii	"p\000"
 2920 0bc6 01       		.byte	0x1
 2921 0bc7 3A01     		.2byte	0x13a
 2922 0bc9 A3020000 		.4byte	0x2a3
 2923 0bcd 02040000 		.4byte	.LLST37
 2924 0bd1 28       		.uleb128 0x28
 2925 0bd2 6900     		.ascii	"i\000"
 2926 0bd4 01       		.byte	0x1
 2927 0bd5 3B01     		.2byte	0x13b
 2928 0bd7 29000000 		.4byte	0x29
 2929 0bdb 24040000 		.4byte	.LLST38
 2930 0bdf 28       		.uleb128 0x28
 2931 0be0 6A00     		.ascii	"j\000"
 2932 0be2 01       		.byte	0x1
 2933 0be3 3B01     		.2byte	0x13b
 2934 0be5 29000000 		.4byte	0x29
 2935 0be9 42040000 		.4byte	.LLST39
 2936 0bed 45       		.uleb128 0x45
 2937 0bee 9B070000 		.4byte	0x79b
 2938 0bf2 10000000 		.4byte	.LBB43
 2939 0bf6 48000000 		.4byte	.Ldebug_ranges0+0x48
 2940 0bfa 01       		.byte	0x1
 2941 0bfb 6D01     		.2byte	0x16d
 2942 0bfd 2A0C0000 		.4byte	0xc2a
 2943 0c01 2A       		.uleb128 0x2a
 2944 0c02 A9070000 		.4byte	0x7a9
 2945 0c06 85040000 		.4byte	.LLST40
 2946 0c0a 2E       		.uleb128 0x2e
 2947 0c0b 70000000 		.4byte	.Ldebug_ranges0+0x70
 2948 0c0f 2C       		.uleb128 0x2c
 2949 0c10 B5070000 		.4byte	0x7b5
 2950 0c14 99040000 		.4byte	.LLST41
 2951 0c18 46       		.uleb128 0x46
 2952 0c19 69070000 		.4byte	0x769
 2953 0c1d 10000000 		.4byte	.LBB45
 2954 0c21 98000000 		.4byte	.Ldebug_ranges0+0x98
 2955 0c25 01       		.byte	0x1
 2956 0c26 1E01     		.2byte	0x11e
 2957 0c28 00       		.byte	0
 2958 0c29 00       		.byte	0
 2959 0c2a 47       		.uleb128 0x47
 2960 0c2b CB070000 		.4byte	0x7cb
 2961 0c2f 3A010000 		.4byte	.LBB55
 2962 0c33 54010000 		.4byte	.LBE55
 2963 0c37 01       		.byte	0x1
 2964 0c38 7201     		.2byte	0x172
 2965 0c3a 43       		.uleb128 0x43
 2966 0c3b 3A010000 		.4byte	.LBB56
 2967 0c3f 54010000 		.4byte	.LBE56
 2968 0c43 2C       		.uleb128 0x2c
 2969 0c44 D8070000 		.4byte	0x7d8
 2970 0c48 B9040000 		.4byte	.LLST42
ARM GAS  /tmp/ccHMNvMF.s 			page 55


 2971 0c4c 00       		.byte	0
 2972 0c4d 00       		.byte	0
 2973 0c4e 00       		.byte	0
 2974 0c4f 48       		.uleb128 0x48
 2975 0c50 26000000 		.4byte	.LASF107
 2976 0c54 08       		.byte	0x8
 2977 0c55 DB       		.byte	0xdb
 2978 0c56 28040000 		.4byte	0x428
 2979 0c5a 01       		.byte	0x1
 2980 0c5b 01       		.byte	0x1
 2981 0c5c 48       		.uleb128 0x48
 2982 0c5d 51050000 		.4byte	.LASF108
 2983 0c61 09       		.byte	0x9
 2984 0c62 6F       		.byte	0x6f
 2985 0c63 90040000 		.4byte	0x490
 2986 0c67 01       		.byte	0x1
 2987 0c68 01       		.byte	0x1
 2988 0c69 49       		.uleb128 0x49
 2989 0c6a 77000000 		.4byte	.LASF109
 2990 0c6e 0D       		.byte	0xd
 2991 0c6f 9806     		.2byte	0x698
 2992 0c71 24060000 		.4byte	0x624
 2993 0c75 01       		.byte	0x1
 2994 0c76 01       		.byte	0x1
 2995 0c77 16       		.uleb128 0x16
 2996 0c78 65020000 		.4byte	0x265
 2997 0c7c 870C0000 		.4byte	0xc87
 2998 0c80 17       		.uleb128 0x17
 2999 0c81 3B000000 		.4byte	0x3b
 3000 0c85 04       		.byte	0x4
 3001 0c86 00       		.byte	0
 3002 0c87 48       		.uleb128 0x48
 3003 0c88 1D040000 		.4byte	.LASF110
 3004 0c8c 0C       		.byte	0xc
 3005 0c8d A5       		.byte	0xa5
 3006 0c8e 770C0000 		.4byte	0xc77
 3007 0c92 01       		.byte	0x1
 3008 0c93 01       		.byte	0x1
 3009 0c94 48       		.uleb128 0x48
 3010 0c95 72000000 		.4byte	.LASF111
 3011 0c99 0C       		.byte	0xc
 3012 0c9a A6       		.byte	0xa6
 3013 0c9b D5060000 		.4byte	0x6d5
 3014 0c9f 01       		.byte	0x1
 3015 0ca0 01       		.byte	0x1
 3016 0ca1 48       		.uleb128 0x48
 3017 0ca2 2D040000 		.4byte	.LASF112
 3018 0ca6 0C       		.byte	0xc
 3019 0ca7 A8       		.byte	0xa8
 3020 0ca8 A6000000 		.4byte	0xa6
 3021 0cac 01       		.byte	0x1
 3022 0cad 01       		.byte	0x1
 3023 0cae 16       		.uleb128 0x16
 3024 0caf C0070000 		.4byte	0x7c0
 3025 0cb3 B90C0000 		.4byte	0xcb9
 3026 0cb7 4A       		.uleb128 0x4a
 3027 0cb8 00       		.byte	0
ARM GAS  /tmp/ccHMNvMF.s 			page 56


 3028 0cb9 48       		.uleb128 0x48
 3029 0cba CE040000 		.4byte	.LASF113
 3030 0cbe 0E       		.byte	0xe
 3031 0cbf 14       		.byte	0x14
 3032 0cc0 C60C0000 		.4byte	0xcc6
 3033 0cc4 01       		.byte	0x1
 3034 0cc5 01       		.byte	0x1
 3035 0cc6 12       		.uleb128 0x12
 3036 0cc7 AE0C0000 		.4byte	0xcae
 3037 0ccb 48       		.uleb128 0x48
 3038 0ccc 80030000 		.4byte	.LASF114
 3039 0cd0 0F       		.byte	0xf
 3040 0cd1 14       		.byte	0x14
 3041 0cd2 D80C0000 		.4byte	0xcd8
 3042 0cd6 01       		.byte	0x1
 3043 0cd7 01       		.byte	0x1
 3044 0cd8 12       		.uleb128 0x12
 3045 0cd9 AE0C0000 		.4byte	0xcae
 3046 0cdd 48       		.uleb128 0x48
 3047 0cde F6030000 		.4byte	.LASF115
 3048 0ce2 10       		.byte	0x10
 3049 0ce3 14       		.byte	0x14
 3050 0ce4 EA0C0000 		.4byte	0xcea
 3051 0ce8 01       		.byte	0x1
 3052 0ce9 01       		.byte	0x1
 3053 0cea 12       		.uleb128 0x12
 3054 0ceb AE0C0000 		.4byte	0xcae
 3055 0cef 48       		.uleb128 0x48
 3056 0cf0 03030000 		.4byte	.LASF116
 3057 0cf4 11       		.byte	0x11
 3058 0cf5 14       		.byte	0x14
 3059 0cf6 FC0C0000 		.4byte	0xcfc
 3060 0cfa 01       		.byte	0x1
 3061 0cfb 01       		.byte	0x1
 3062 0cfc 12       		.uleb128 0x12
 3063 0cfd AE0C0000 		.4byte	0xcae
 3064 0d01 48       		.uleb128 0x48
 3065 0d02 B0050000 		.4byte	.LASF117
 3066 0d06 12       		.byte	0x12
 3067 0d07 14       		.byte	0x14
 3068 0d08 0E0D0000 		.4byte	0xd0e
 3069 0d0c 01       		.byte	0x1
 3070 0d0d 01       		.byte	0x1
 3071 0d0e 12       		.uleb128 0x12
 3072 0d0f AE0C0000 		.4byte	0xcae
 3073 0d13 48       		.uleb128 0x48
 3074 0d14 3C020000 		.4byte	.LASF118
 3075 0d18 13       		.byte	0x13
 3076 0d19 14       		.byte	0x14
 3077 0d1a 200D0000 		.4byte	0xd20
 3078 0d1e 01       		.byte	0x1
 3079 0d1f 01       		.byte	0x1
 3080 0d20 12       		.uleb128 0x12
 3081 0d21 AE0C0000 		.4byte	0xcae
 3082 0d25 48       		.uleb128 0x48
 3083 0d26 94000000 		.4byte	.LASF119
 3084 0d2a 14       		.byte	0x14
ARM GAS  /tmp/ccHMNvMF.s 			page 57


 3085 0d2b 14       		.byte	0x14
 3086 0d2c 320D0000 		.4byte	0xd32
 3087 0d30 01       		.byte	0x1
 3088 0d31 01       		.byte	0x1
 3089 0d32 12       		.uleb128 0x12
 3090 0d33 AE0C0000 		.4byte	0xcae
 3091 0d37 48       		.uleb128 0x48
 3092 0d38 3B000000 		.4byte	.LASF120
 3093 0d3c 15       		.byte	0x15
 3094 0d3d 14       		.byte	0x14
 3095 0d3e 440D0000 		.4byte	0xd44
 3096 0d42 01       		.byte	0x1
 3097 0d43 01       		.byte	0x1
 3098 0d44 12       		.uleb128 0x12
 3099 0d45 AE0C0000 		.4byte	0xcae
 3100 0d49 48       		.uleb128 0x48
 3101 0d4a FE040000 		.4byte	.LASF121
 3102 0d4e 16       		.byte	0x16
 3103 0d4f 14       		.byte	0x14
 3104 0d50 560D0000 		.4byte	0xd56
 3105 0d54 01       		.byte	0x1
 3106 0d55 01       		.byte	0x1
 3107 0d56 12       		.uleb128 0x12
 3108 0d57 AE0C0000 		.4byte	0xcae
 3109 0d5b 48       		.uleb128 0x48
 3110 0d5c 2D000000 		.4byte	.LASF122
 3111 0d60 17       		.byte	0x17
 3112 0d61 14       		.byte	0x14
 3113 0d62 680D0000 		.4byte	0xd68
 3114 0d66 01       		.byte	0x1
 3115 0d67 01       		.byte	0x1
 3116 0d68 12       		.uleb128 0x12
 3117 0d69 AE0C0000 		.4byte	0xcae
 3118 0d6d 48       		.uleb128 0x48
 3119 0d6e 6B040000 		.4byte	.LASF123
 3120 0d72 18       		.byte	0x18
 3121 0d73 14       		.byte	0x14
 3122 0d74 7A0D0000 		.4byte	0xd7a
 3123 0d78 01       		.byte	0x1
 3124 0d79 01       		.byte	0x1
 3125 0d7a 12       		.uleb128 0x12
 3126 0d7b AE0C0000 		.4byte	0xcae
 3127 0d7f 16       		.uleb128 0x16
 3128 0d80 8F0D0000 		.4byte	0xd8f
 3129 0d84 8F0D0000 		.4byte	0xd8f
 3130 0d88 17       		.uleb128 0x17
 3131 0d89 3B000000 		.4byte	0x3b
 3132 0d8d 0B       		.byte	0xb
 3133 0d8e 00       		.byte	0
 3134 0d8f 09       		.uleb128 0x9
 3135 0d90 04       		.byte	0x4
 3136 0d91 950D0000 		.4byte	0xd95
 3137 0d95 12       		.uleb128 0x12
 3138 0d96 C0070000 		.4byte	0x7c0
 3139 0d9a 3D       		.uleb128 0x3d
 3140 0d9b C5040000 		.4byte	.LASF124
 3141 0d9f 01       		.byte	0x1
ARM GAS  /tmp/ccHMNvMF.s 			page 58


 3142 0da0 2C       		.byte	0x2c
 3143 0da1 AB0D0000 		.4byte	0xdab
 3144 0da5 05       		.byte	0x5
 3145 0da6 03       		.byte	0x3
 3146 0da7 00000000 		.4byte	patterns
 3147 0dab 12       		.uleb128 0x12
 3148 0dac 7F0D0000 		.4byte	0xd7f
 3149 0db0 3D       		.uleb128 0x3d
 3150 0db1 8B030000 		.4byte	.LASF125
 3151 0db5 01       		.byte	0x1
 3152 0db6 3B       		.byte	0x3b
 3153 0db7 A6000000 		.4byte	0xa6
 3154 0dbb 05       		.byte	0x5
 3155 0dbc 03       		.byte	0x3
 3156 0dbd 00000000 		.4byte	local_fail
 3157 0dc1 3D       		.uleb128 0x3d
 3158 0dc2 58010000 		.4byte	.LASF126
 3159 0dc6 01       		.byte	0x1
 3160 0dc7 3B       		.byte	0x3b
 3161 0dc8 A6000000 		.4byte	0xa6
 3162 0dcc 05       		.byte	0x5
 3163 0dcd 03       		.byte	0x3
 3164 0dce 00000000 		.4byte	global_fail
 3165 0dd2 3D       		.uleb128 0x3d
 3166 0dd3 5F050000 		.4byte	.LASF127
 3167 0dd7 01       		.byte	0x1
 3168 0dd8 3C       		.byte	0x3c
 3169 0dd9 3B000000 		.4byte	0x3b
 3170 0ddd 05       		.byte	0x5
 3171 0dde 03       		.byte	0x3
 3172 0ddf 00000000 		.4byte	failpoint
 3173 0de3 3D       		.uleb128 0x3d
 3174 0de4 A0000000 		.4byte	.LASF128
 3175 0de8 01       		.byte	0x1
 3176 0de9 3D       		.byte	0x3d
 3177 0dea 35070000 		.4byte	0x735
 3178 0dee 05       		.byte	0x5
 3179 0def 03       		.byte	0x3
 3180 0df0 00000000 		.4byte	tokens_buffer
 3181 0df4 3D       		.uleb128 0x3d
 3182 0df5 A4010000 		.4byte	.LASF129
 3183 0df9 01       		.byte	0x1
 3184 0dfa 3E       		.byte	0x3e
 3185 0dfb 45070000 		.4byte	0x745
 3186 0dff 05       		.byte	0x5
 3187 0e00 03       		.byte	0x3
 3188 0e01 00000000 		.4byte	tokp
 3189 0e05 3E       		.uleb128 0x3e
 3190 0e06 63687000 		.ascii	"chp\000"
 3191 0e0a 01       		.byte	0x1
 3192 0e0b 54       		.byte	0x54
 3193 0e0c 160E0000 		.4byte	0xe16
 3194 0e10 05       		.byte	0x5
 3195 0e11 03       		.byte	0x3
 3196 0e12 00000000 		.4byte	chp
 3197 0e16 09       		.uleb128 0x9
 3198 0e17 04       		.byte	0x4
ARM GAS  /tmp/ccHMNvMF.s 			page 59


 3199 0e18 19060000 		.4byte	0x619
 3200 0e1c 4B       		.uleb128 0x4b
 3201 0e1d 767400   		.ascii	"vt\000"
 3202 0e20 01       		.byte	0x1
 3203 0e21 0401     		.2byte	0x104
 3204 0e23 7E030000 		.4byte	0x37e
 3205 0e27 05       		.byte	0x5
 3206 0e28 03       		.byte	0x3
 3207 0e29 00000000 		.4byte	vt
 3208 0e2d 48       		.uleb128 0x48
 3209 0e2e 26000000 		.4byte	.LASF107
 3210 0e32 08       		.byte	0x8
 3211 0e33 DB       		.byte	0xdb
 3212 0e34 28040000 		.4byte	0x428
 3213 0e38 01       		.byte	0x1
 3214 0e39 01       		.byte	0x1
 3215 0e3a 48       		.uleb128 0x48
 3216 0e3b 51050000 		.4byte	.LASF108
 3217 0e3f 09       		.byte	0x9
 3218 0e40 6F       		.byte	0x6f
 3219 0e41 90040000 		.4byte	0x490
 3220 0e45 01       		.byte	0x1
 3221 0e46 01       		.byte	0x1
 3222 0e47 49       		.uleb128 0x49
 3223 0e48 77000000 		.4byte	.LASF109
 3224 0e4c 0D       		.byte	0xd
 3225 0e4d 9806     		.2byte	0x698
 3226 0e4f 24060000 		.4byte	0x624
 3227 0e53 01       		.byte	0x1
 3228 0e54 01       		.byte	0x1
 3229 0e55 4C       		.uleb128 0x4c
 3230 0e56 1D040000 		.4byte	.LASF110
 3231 0e5a 01       		.byte	0x1
 3232 0e5b 49       		.byte	0x49
 3233 0e5c 770C0000 		.4byte	0xc77
 3234 0e60 01       		.byte	0x1
 3235 0e61 05       		.byte	0x5
 3236 0e62 03       		.byte	0x3
 3237 0e63 00000000 		.4byte	threads
 3238 0e67 4C       		.uleb128 0x4c
 3239 0e68 72000000 		.4byte	.LASF111
 3240 0e6c 01       		.byte	0x1
 3241 0e6d 44       		.byte	0x44
 3242 0e6e D5060000 		.4byte	0x6d5
 3243 0e72 01       		.byte	0x1
 3244 0e73 05       		.byte	0x5
 3245 0e74 03       		.byte	0x3
 3246 0e75 00000000 		.4byte	test
 3247 0e79 16       		.uleb128 0x16
 3248 0e7a A3020000 		.4byte	0x2a3
 3249 0e7e 890E0000 		.4byte	0xe89
 3250 0e82 17       		.uleb128 0x17
 3251 0e83 3B000000 		.4byte	0x3b
 3252 0e87 04       		.byte	0x4
 3253 0e88 00       		.byte	0
 3254 0e89 4D       		.uleb128 0x4d
 3255 0e8a 776100   		.ascii	"wa\000"
ARM GAS  /tmp/ccHMNvMF.s 			page 60


 3256 0e8d 01       		.byte	0x1
 3257 0e8e 4E       		.byte	0x4e
 3258 0e8f 9A0E0000 		.4byte	0xe9a
 3259 0e93 01       		.byte	0x1
 3260 0e94 05       		.byte	0x5
 3261 0e95 03       		.byte	0x3
 3262 0e96 00000000 		.4byte	wa
 3263 0e9a 12       		.uleb128 0x12
 3264 0e9b 790E0000 		.4byte	0xe79
 3265 0e9f 4E       		.uleb128 0x4e
 3266 0ea0 2D040000 		.4byte	.LASF112
 3267 0ea4 01       		.byte	0x1
 3268 0ea5 0201     		.2byte	0x102
 3269 0ea7 A6000000 		.4byte	0xa6
 3270 0eab 01       		.byte	0x1
 3271 0eac 05       		.byte	0x5
 3272 0ead 03       		.byte	0x3
 3273 0eae 00000000 		.4byte	test_timer_done
 3274 0eb2 48       		.uleb128 0x48
 3275 0eb3 CE040000 		.4byte	.LASF113
 3276 0eb7 0E       		.byte	0xe
 3277 0eb8 14       		.byte	0x14
 3278 0eb9 BF0E0000 		.4byte	0xebf
 3279 0ebd 01       		.byte	0x1
 3280 0ebe 01       		.byte	0x1
 3281 0ebf 12       		.uleb128 0x12
 3282 0ec0 AE0C0000 		.4byte	0xcae
 3283 0ec4 48       		.uleb128 0x48
 3284 0ec5 80030000 		.4byte	.LASF114
 3285 0ec9 0F       		.byte	0xf
 3286 0eca 14       		.byte	0x14
 3287 0ecb D10E0000 		.4byte	0xed1
 3288 0ecf 01       		.byte	0x1
 3289 0ed0 01       		.byte	0x1
 3290 0ed1 12       		.uleb128 0x12
 3291 0ed2 AE0C0000 		.4byte	0xcae
 3292 0ed6 48       		.uleb128 0x48
 3293 0ed7 F6030000 		.4byte	.LASF115
 3294 0edb 10       		.byte	0x10
 3295 0edc 14       		.byte	0x14
 3296 0edd E30E0000 		.4byte	0xee3
 3297 0ee1 01       		.byte	0x1
 3298 0ee2 01       		.byte	0x1
 3299 0ee3 12       		.uleb128 0x12
 3300 0ee4 AE0C0000 		.4byte	0xcae
 3301 0ee8 48       		.uleb128 0x48
 3302 0ee9 03030000 		.4byte	.LASF116
 3303 0eed 11       		.byte	0x11
 3304 0eee 14       		.byte	0x14
 3305 0eef F50E0000 		.4byte	0xef5
 3306 0ef3 01       		.byte	0x1
 3307 0ef4 01       		.byte	0x1
 3308 0ef5 12       		.uleb128 0x12
 3309 0ef6 AE0C0000 		.4byte	0xcae
 3310 0efa 48       		.uleb128 0x48
 3311 0efb B0050000 		.4byte	.LASF117
 3312 0eff 12       		.byte	0x12
ARM GAS  /tmp/ccHMNvMF.s 			page 61


 3313 0f00 14       		.byte	0x14
 3314 0f01 070F0000 		.4byte	0xf07
 3315 0f05 01       		.byte	0x1
 3316 0f06 01       		.byte	0x1
 3317 0f07 12       		.uleb128 0x12
 3318 0f08 AE0C0000 		.4byte	0xcae
 3319 0f0c 48       		.uleb128 0x48
 3320 0f0d 3C020000 		.4byte	.LASF118
 3321 0f11 13       		.byte	0x13
 3322 0f12 14       		.byte	0x14
 3323 0f13 190F0000 		.4byte	0xf19
 3324 0f17 01       		.byte	0x1
 3325 0f18 01       		.byte	0x1
 3326 0f19 12       		.uleb128 0x12
 3327 0f1a AE0C0000 		.4byte	0xcae
 3328 0f1e 48       		.uleb128 0x48
 3329 0f1f 94000000 		.4byte	.LASF119
 3330 0f23 14       		.byte	0x14
 3331 0f24 14       		.byte	0x14
 3332 0f25 2B0F0000 		.4byte	0xf2b
 3333 0f29 01       		.byte	0x1
 3334 0f2a 01       		.byte	0x1
 3335 0f2b 12       		.uleb128 0x12
 3336 0f2c AE0C0000 		.4byte	0xcae
 3337 0f30 48       		.uleb128 0x48
 3338 0f31 3B000000 		.4byte	.LASF120
 3339 0f35 15       		.byte	0x15
 3340 0f36 14       		.byte	0x14
 3341 0f37 3D0F0000 		.4byte	0xf3d
 3342 0f3b 01       		.byte	0x1
 3343 0f3c 01       		.byte	0x1
 3344 0f3d 12       		.uleb128 0x12
 3345 0f3e AE0C0000 		.4byte	0xcae
 3346 0f42 48       		.uleb128 0x48
 3347 0f43 FE040000 		.4byte	.LASF121
 3348 0f47 16       		.byte	0x16
 3349 0f48 14       		.byte	0x14
 3350 0f49 4F0F0000 		.4byte	0xf4f
 3351 0f4d 01       		.byte	0x1
 3352 0f4e 01       		.byte	0x1
 3353 0f4f 12       		.uleb128 0x12
 3354 0f50 AE0C0000 		.4byte	0xcae
 3355 0f54 48       		.uleb128 0x48
 3356 0f55 2D000000 		.4byte	.LASF122
 3357 0f59 17       		.byte	0x17
 3358 0f5a 14       		.byte	0x14
 3359 0f5b 610F0000 		.4byte	0xf61
 3360 0f5f 01       		.byte	0x1
 3361 0f60 01       		.byte	0x1
 3362 0f61 12       		.uleb128 0x12
 3363 0f62 AE0C0000 		.4byte	0xcae
 3364 0f66 48       		.uleb128 0x48
 3365 0f67 6B040000 		.4byte	.LASF123
 3366 0f6b 18       		.byte	0x18
 3367 0f6c 14       		.byte	0x14
 3368 0f6d 730F0000 		.4byte	0xf73
 3369 0f71 01       		.byte	0x1
ARM GAS  /tmp/ccHMNvMF.s 			page 62


 3370 0f72 01       		.byte	0x1
 3371 0f73 12       		.uleb128 0x12
 3372 0f74 AE0C0000 		.4byte	0xcae
 3373 0f78 00       		.byte	0
 3374              		.section	.debug_abbrev,"",%progbits
 3375              	.Ldebug_abbrev0:
 3376 0000 01       		.uleb128 0x1
 3377 0001 11       		.uleb128 0x11
 3378 0002 01       		.byte	0x1
 3379 0003 25       		.uleb128 0x25
 3380 0004 0E       		.uleb128 0xe
 3381 0005 13       		.uleb128 0x13
 3382 0006 0B       		.uleb128 0xb
 3383 0007 03       		.uleb128 0x3
 3384 0008 0E       		.uleb128 0xe
 3385 0009 1B       		.uleb128 0x1b
 3386 000a 0E       		.uleb128 0xe
 3387 000b 11       		.uleb128 0x11
 3388 000c 01       		.uleb128 0x1
 3389 000d 52       		.uleb128 0x52
 3390 000e 01       		.uleb128 0x1
 3391 000f 55       		.uleb128 0x55
 3392 0010 06       		.uleb128 0x6
 3393 0011 10       		.uleb128 0x10
 3394 0012 06       		.uleb128 0x6
 3395 0013 00       		.byte	0
 3396 0014 00       		.byte	0
 3397 0015 02       		.uleb128 0x2
 3398 0016 24       		.uleb128 0x24
 3399 0017 00       		.byte	0
 3400 0018 0B       		.uleb128 0xb
 3401 0019 0B       		.uleb128 0xb
 3402 001a 3E       		.uleb128 0x3e
 3403 001b 0B       		.uleb128 0xb
 3404 001c 03       		.uleb128 0x3
 3405 001d 08       		.uleb128 0x8
 3406 001e 00       		.byte	0
 3407 001f 00       		.byte	0
 3408 0020 03       		.uleb128 0x3
 3409 0021 16       		.uleb128 0x16
 3410 0022 00       		.byte	0
 3411 0023 03       		.uleb128 0x3
 3412 0024 0E       		.uleb128 0xe
 3413 0025 3A       		.uleb128 0x3a
 3414 0026 0B       		.uleb128 0xb
 3415 0027 3B       		.uleb128 0x3b
 3416 0028 0B       		.uleb128 0xb
 3417 0029 49       		.uleb128 0x49
 3418 002a 13       		.uleb128 0x13
 3419 002b 00       		.byte	0
 3420 002c 00       		.byte	0
 3421 002d 04       		.uleb128 0x4
 3422 002e 24       		.uleb128 0x24
 3423 002f 00       		.byte	0
 3424 0030 0B       		.uleb128 0xb
 3425 0031 0B       		.uleb128 0xb
 3426 0032 3E       		.uleb128 0x3e
ARM GAS  /tmp/ccHMNvMF.s 			page 63


 3427 0033 0B       		.uleb128 0xb
 3428 0034 03       		.uleb128 0x3
 3429 0035 0E       		.uleb128 0xe
 3430 0036 00       		.byte	0
 3431 0037 00       		.byte	0
 3432 0038 05       		.uleb128 0x5
 3433 0039 13       		.uleb128 0x13
 3434 003a 01       		.byte	0x1
 3435 003b 03       		.uleb128 0x3
 3436 003c 0E       		.uleb128 0xe
 3437 003d 0B       		.uleb128 0xb
 3438 003e 0B       		.uleb128 0xb
 3439 003f 3A       		.uleb128 0x3a
 3440 0040 0B       		.uleb128 0xb
 3441 0041 3B       		.uleb128 0x3b
 3442 0042 0B       		.uleb128 0xb
 3443 0043 01       		.uleb128 0x1
 3444 0044 13       		.uleb128 0x13
 3445 0045 00       		.byte	0
 3446 0046 00       		.byte	0
 3447 0047 06       		.uleb128 0x6
 3448 0048 0D       		.uleb128 0xd
 3449 0049 00       		.byte	0
 3450 004a 03       		.uleb128 0x3
 3451 004b 0E       		.uleb128 0xe
 3452 004c 3A       		.uleb128 0x3a
 3453 004d 0B       		.uleb128 0xb
 3454 004e 3B       		.uleb128 0x3b
 3455 004f 0B       		.uleb128 0xb
 3456 0050 49       		.uleb128 0x49
 3457 0051 13       		.uleb128 0x13
 3458 0052 38       		.uleb128 0x38
 3459 0053 0A       		.uleb128 0xa
 3460 0054 00       		.byte	0
 3461 0055 00       		.byte	0
 3462 0056 07       		.uleb128 0x7
 3463 0057 0D       		.uleb128 0xd
 3464 0058 00       		.byte	0
 3465 0059 03       		.uleb128 0x3
 3466 005a 08       		.uleb128 0x8
 3467 005b 3A       		.uleb128 0x3a
 3468 005c 0B       		.uleb128 0xb
 3469 005d 3B       		.uleb128 0x3b
 3470 005e 0B       		.uleb128 0xb
 3471 005f 49       		.uleb128 0x49
 3472 0060 13       		.uleb128 0x13
 3473 0061 38       		.uleb128 0x38
 3474 0062 0A       		.uleb128 0xa
 3475 0063 00       		.byte	0
 3476 0064 00       		.byte	0
 3477 0065 08       		.uleb128 0x8
 3478 0066 13       		.uleb128 0x13
 3479 0067 01       		.byte	0x1
 3480 0068 0B       		.uleb128 0xb
 3481 0069 0B       		.uleb128 0xb
 3482 006a 3A       		.uleb128 0x3a
 3483 006b 0B       		.uleb128 0xb
ARM GAS  /tmp/ccHMNvMF.s 			page 64


 3484 006c 3B       		.uleb128 0x3b
 3485 006d 0B       		.uleb128 0xb
 3486 006e 01       		.uleb128 0x1
 3487 006f 13       		.uleb128 0x13
 3488 0070 00       		.byte	0
 3489 0071 00       		.byte	0
 3490 0072 09       		.uleb128 0x9
 3491 0073 0F       		.uleb128 0xf
 3492 0074 00       		.byte	0
 3493 0075 0B       		.uleb128 0xb
 3494 0076 0B       		.uleb128 0xb
 3495 0077 49       		.uleb128 0x49
 3496 0078 13       		.uleb128 0x13
 3497 0079 00       		.byte	0
 3498 007a 00       		.byte	0
 3499 007b 0A       		.uleb128 0xa
 3500 007c 0F       		.uleb128 0xf
 3501 007d 00       		.byte	0
 3502 007e 0B       		.uleb128 0xb
 3503 007f 0B       		.uleb128 0xb
 3504 0080 00       		.byte	0
 3505 0081 00       		.byte	0
 3506 0082 0B       		.uleb128 0xb
 3507 0083 13       		.uleb128 0x13
 3508 0084 01       		.byte	0x1
 3509 0085 03       		.uleb128 0x3
 3510 0086 0E       		.uleb128 0xe
 3511 0087 0B       		.uleb128 0xb
 3512 0088 0B       		.uleb128 0xb
 3513 0089 3A       		.uleb128 0x3a
 3514 008a 0B       		.uleb128 0xb
 3515 008b 3B       		.uleb128 0x3b
 3516 008c 05       		.uleb128 0x5
 3517 008d 01       		.uleb128 0x1
 3518 008e 13       		.uleb128 0x13
 3519 008f 00       		.byte	0
 3520 0090 00       		.byte	0
 3521 0091 0C       		.uleb128 0xc
 3522 0092 0D       		.uleb128 0xd
 3523 0093 00       		.byte	0
 3524 0094 03       		.uleb128 0x3
 3525 0095 08       		.uleb128 0x8
 3526 0096 3A       		.uleb128 0x3a
 3527 0097 0B       		.uleb128 0xb
 3528 0098 3B       		.uleb128 0x3b
 3529 0099 05       		.uleb128 0x5
 3530 009a 49       		.uleb128 0x49
 3531 009b 13       		.uleb128 0x13
 3532 009c 38       		.uleb128 0x38
 3533 009d 0A       		.uleb128 0xa
 3534 009e 00       		.byte	0
 3535 009f 00       		.byte	0
 3536 00a0 0D       		.uleb128 0xd
 3537 00a1 15       		.uleb128 0x15
 3538 00a2 01       		.byte	0x1
 3539 00a3 27       		.uleb128 0x27
 3540 00a4 0C       		.uleb128 0xc
ARM GAS  /tmp/ccHMNvMF.s 			page 65


 3541 00a5 01       		.uleb128 0x1
 3542 00a6 13       		.uleb128 0x13
 3543 00a7 00       		.byte	0
 3544 00a8 00       		.byte	0
 3545 00a9 0E       		.uleb128 0xe
 3546 00aa 05       		.uleb128 0x5
 3547 00ab 00       		.byte	0
 3548 00ac 49       		.uleb128 0x49
 3549 00ad 13       		.uleb128 0x13
 3550 00ae 00       		.byte	0
 3551 00af 00       		.byte	0
 3552 00b0 0F       		.uleb128 0xf
 3553 00b1 35       		.uleb128 0x35
 3554 00b2 00       		.byte	0
 3555 00b3 49       		.uleb128 0x49
 3556 00b4 13       		.uleb128 0x13
 3557 00b5 00       		.byte	0
 3558 00b6 00       		.byte	0
 3559 00b7 10       		.uleb128 0x10
 3560 00b8 17       		.uleb128 0x17
 3561 00b9 01       		.byte	0x1
 3562 00ba 0B       		.uleb128 0xb
 3563 00bb 0B       		.uleb128 0xb
 3564 00bc 3A       		.uleb128 0x3a
 3565 00bd 0B       		.uleb128 0xb
 3566 00be 3B       		.uleb128 0x3b
 3567 00bf 0B       		.uleb128 0xb
 3568 00c0 01       		.uleb128 0x1
 3569 00c1 13       		.uleb128 0x13
 3570 00c2 00       		.byte	0
 3571 00c3 00       		.byte	0
 3572 00c4 11       		.uleb128 0x11
 3573 00c5 0D       		.uleb128 0xd
 3574 00c6 00       		.byte	0
 3575 00c7 03       		.uleb128 0x3
 3576 00c8 0E       		.uleb128 0xe
 3577 00c9 3A       		.uleb128 0x3a
 3578 00ca 0B       		.uleb128 0xb
 3579 00cb 3B       		.uleb128 0x3b
 3580 00cc 0B       		.uleb128 0xb
 3581 00cd 49       		.uleb128 0x49
 3582 00ce 13       		.uleb128 0x13
 3583 00cf 00       		.byte	0
 3584 00d0 00       		.byte	0
 3585 00d1 12       		.uleb128 0x12
 3586 00d2 26       		.uleb128 0x26
 3587 00d3 00       		.byte	0
 3588 00d4 49       		.uleb128 0x49
 3589 00d5 13       		.uleb128 0x13
 3590 00d6 00       		.byte	0
 3591 00d7 00       		.byte	0
 3592 00d8 13       		.uleb128 0x13
 3593 00d9 15       		.uleb128 0x15
 3594 00da 01       		.byte	0x1
 3595 00db 27       		.uleb128 0x27
 3596 00dc 0C       		.uleb128 0xc
 3597 00dd 49       		.uleb128 0x49
ARM GAS  /tmp/ccHMNvMF.s 			page 66


 3598 00de 13       		.uleb128 0x13
 3599 00df 01       		.uleb128 0x1
 3600 00e0 13       		.uleb128 0x13
 3601 00e1 00       		.byte	0
 3602 00e2 00       		.byte	0
 3603 00e3 14       		.uleb128 0x14
 3604 00e4 15       		.uleb128 0x15
 3605 00e5 00       		.byte	0
 3606 00e6 27       		.uleb128 0x27
 3607 00e7 0C       		.uleb128 0xc
 3608 00e8 00       		.byte	0
 3609 00e9 00       		.byte	0
 3610 00ea 15       		.uleb128 0x15
 3611 00eb 13       		.uleb128 0x13
 3612 00ec 01       		.byte	0x1
 3613 00ed 0B       		.uleb128 0xb
 3614 00ee 05       		.uleb128 0x5
 3615 00ef 3A       		.uleb128 0x3a
 3616 00f0 0B       		.uleb128 0xb
 3617 00f1 3B       		.uleb128 0x3b
 3618 00f2 0B       		.uleb128 0xb
 3619 00f3 01       		.uleb128 0x1
 3620 00f4 13       		.uleb128 0x13
 3621 00f5 00       		.byte	0
 3622 00f6 00       		.byte	0
 3623 00f7 16       		.uleb128 0x16
 3624 00f8 01       		.uleb128 0x1
 3625 00f9 01       		.byte	0x1
 3626 00fa 49       		.uleb128 0x49
 3627 00fb 13       		.uleb128 0x13
 3628 00fc 01       		.uleb128 0x1
 3629 00fd 13       		.uleb128 0x13
 3630 00fe 00       		.byte	0
 3631 00ff 00       		.byte	0
 3632 0100 17       		.uleb128 0x17
 3633 0101 21       		.uleb128 0x21
 3634 0102 00       		.byte	0
 3635 0103 49       		.uleb128 0x49
 3636 0104 13       		.uleb128 0x13
 3637 0105 2F       		.uleb128 0x2f
 3638 0106 0B       		.uleb128 0xb
 3639 0107 00       		.byte	0
 3640 0108 00       		.byte	0
 3641 0109 18       		.uleb128 0x18
 3642 010a 17       		.uleb128 0x17
 3643 010b 01       		.byte	0x1
 3644 010c 03       		.uleb128 0x3
 3645 010d 0E       		.uleb128 0xe
 3646 010e 0B       		.uleb128 0xb
 3647 010f 05       		.uleb128 0x5
 3648 0110 3A       		.uleb128 0x3a
 3649 0111 0B       		.uleb128 0xb
 3650 0112 3B       		.uleb128 0x3b
 3651 0113 0B       		.uleb128 0xb
 3652 0114 01       		.uleb128 0x1
 3653 0115 13       		.uleb128 0x13
 3654 0116 00       		.byte	0
ARM GAS  /tmp/ccHMNvMF.s 			page 67


 3655 0117 00       		.byte	0
 3656 0118 19       		.uleb128 0x19
 3657 0119 0D       		.uleb128 0xd
 3658 011a 00       		.byte	0
 3659 011b 03       		.uleb128 0x3
 3660 011c 08       		.uleb128 0x8
 3661 011d 3A       		.uleb128 0x3a
 3662 011e 0B       		.uleb128 0xb
 3663 011f 3B       		.uleb128 0x3b
 3664 0120 0B       		.uleb128 0xb
 3665 0121 49       		.uleb128 0x49
 3666 0122 13       		.uleb128 0x13
 3667 0123 00       		.byte	0
 3668 0124 00       		.byte	0
 3669 0125 1A       		.uleb128 0x1a
 3670 0126 21       		.uleb128 0x21
 3671 0127 00       		.byte	0
 3672 0128 49       		.uleb128 0x49
 3673 0129 13       		.uleb128 0x13
 3674 012a 2F       		.uleb128 0x2f
 3675 012b 05       		.uleb128 0x5
 3676 012c 00       		.byte	0
 3677 012d 00       		.byte	0
 3678 012e 1B       		.uleb128 0x1b
 3679 012f 2E       		.uleb128 0x2e
 3680 0130 01       		.byte	0x1
 3681 0131 3F       		.uleb128 0x3f
 3682 0132 0C       		.uleb128 0xc
 3683 0133 03       		.uleb128 0x3
 3684 0134 0E       		.uleb128 0xe
 3685 0135 3A       		.uleb128 0x3a
 3686 0136 0B       		.uleb128 0xb
 3687 0137 3B       		.uleb128 0x3b
 3688 0138 0B       		.uleb128 0xb
 3689 0139 27       		.uleb128 0x27
 3690 013a 0C       		.uleb128 0xc
 3691 013b 20       		.uleb128 0x20
 3692 013c 0B       		.uleb128 0xb
 3693 013d 01       		.uleb128 0x1
 3694 013e 13       		.uleb128 0x13
 3695 013f 00       		.byte	0
 3696 0140 00       		.byte	0
 3697 0141 1C       		.uleb128 0x1c
 3698 0142 05       		.uleb128 0x5
 3699 0143 00       		.byte	0
 3700 0144 03       		.uleb128 0x3
 3701 0145 08       		.uleb128 0x8
 3702 0146 3A       		.uleb128 0x3a
 3703 0147 0B       		.uleb128 0xb
 3704 0148 3B       		.uleb128 0x3b
 3705 0149 0B       		.uleb128 0xb
 3706 014a 49       		.uleb128 0x49
 3707 014b 13       		.uleb128 0x13
 3708 014c 00       		.byte	0
 3709 014d 00       		.byte	0
 3710 014e 1D       		.uleb128 0x1d
 3711 014f 34       		.uleb128 0x34
ARM GAS  /tmp/ccHMNvMF.s 			page 68


 3712 0150 00       		.byte	0
 3713 0151 03       		.uleb128 0x3
 3714 0152 08       		.uleb128 0x8
 3715 0153 3A       		.uleb128 0x3a
 3716 0154 0B       		.uleb128 0xb
 3717 0155 3B       		.uleb128 0x3b
 3718 0156 0B       		.uleb128 0xb
 3719 0157 49       		.uleb128 0x49
 3720 0158 13       		.uleb128 0x13
 3721 0159 00       		.byte	0
 3722 015a 00       		.byte	0
 3723 015b 1E       		.uleb128 0x1e
 3724 015c 2E       		.uleb128 0x2e
 3725 015d 01       		.byte	0x1
 3726 015e 3F       		.uleb128 0x3f
 3727 015f 0C       		.uleb128 0xc
 3728 0160 03       		.uleb128 0x3
 3729 0161 0E       		.uleb128 0xe
 3730 0162 3A       		.uleb128 0x3a
 3731 0163 0B       		.uleb128 0xb
 3732 0164 3B       		.uleb128 0x3b
 3733 0165 0B       		.uleb128 0xb
 3734 0166 27       		.uleb128 0x27
 3735 0167 0C       		.uleb128 0xc
 3736 0168 49       		.uleb128 0x49
 3737 0169 13       		.uleb128 0x13
 3738 016a 20       		.uleb128 0x20
 3739 016b 0B       		.uleb128 0xb
 3740 016c 01       		.uleb128 0x1
 3741 016d 13       		.uleb128 0x13
 3742 016e 00       		.byte	0
 3743 016f 00       		.byte	0
 3744 0170 1F       		.uleb128 0x1f
 3745 0171 05       		.uleb128 0x5
 3746 0172 00       		.byte	0
 3747 0173 03       		.uleb128 0x3
 3748 0174 0E       		.uleb128 0xe
 3749 0175 3A       		.uleb128 0x3a
 3750 0176 0B       		.uleb128 0xb
 3751 0177 3B       		.uleb128 0x3b
 3752 0178 0B       		.uleb128 0xb
 3753 0179 49       		.uleb128 0x49
 3754 017a 13       		.uleb128 0x13
 3755 017b 00       		.byte	0
 3756 017c 00       		.byte	0
 3757 017d 20       		.uleb128 0x20
 3758 017e 2E       		.uleb128 0x2e
 3759 017f 00       		.byte	0
 3760 0180 03       		.uleb128 0x3
 3761 0181 0E       		.uleb128 0xe
 3762 0182 3A       		.uleb128 0x3a
 3763 0183 0B       		.uleb128 0xb
 3764 0184 3B       		.uleb128 0x3b
 3765 0185 0B       		.uleb128 0xb
 3766 0186 27       		.uleb128 0x27
 3767 0187 0C       		.uleb128 0xc
 3768 0188 20       		.uleb128 0x20
ARM GAS  /tmp/ccHMNvMF.s 			page 69


 3769 0189 0B       		.uleb128 0xb
 3770 018a 00       		.byte	0
 3771 018b 00       		.byte	0
 3772 018c 21       		.uleb128 0x21
 3773 018d 2E       		.uleb128 0x2e
 3774 018e 01       		.byte	0x1
 3775 018f 03       		.uleb128 0x3
 3776 0190 0E       		.uleb128 0xe
 3777 0191 3A       		.uleb128 0x3a
 3778 0192 0B       		.uleb128 0xb
 3779 0193 3B       		.uleb128 0x3b
 3780 0194 05       		.uleb128 0x5
 3781 0195 27       		.uleb128 0x27
 3782 0196 0C       		.uleb128 0xc
 3783 0197 20       		.uleb128 0x20
 3784 0198 0B       		.uleb128 0xb
 3785 0199 01       		.uleb128 0x1
 3786 019a 13       		.uleb128 0x13
 3787 019b 00       		.byte	0
 3788 019c 00       		.byte	0
 3789 019d 22       		.uleb128 0x22
 3790 019e 05       		.uleb128 0x5
 3791 019f 00       		.byte	0
 3792 01a0 03       		.uleb128 0x3
 3793 01a1 08       		.uleb128 0x8
 3794 01a2 3A       		.uleb128 0x3a
 3795 01a3 0B       		.uleb128 0xb
 3796 01a4 3B       		.uleb128 0x3b
 3797 01a5 05       		.uleb128 0x5
 3798 01a6 49       		.uleb128 0x49
 3799 01a7 13       		.uleb128 0x13
 3800 01a8 00       		.byte	0
 3801 01a9 00       		.byte	0
 3802 01aa 23       		.uleb128 0x23
 3803 01ab 34       		.uleb128 0x34
 3804 01ac 00       		.byte	0
 3805 01ad 03       		.uleb128 0x3
 3806 01ae 08       		.uleb128 0x8
 3807 01af 3A       		.uleb128 0x3a
 3808 01b0 0B       		.uleb128 0xb
 3809 01b1 3B       		.uleb128 0x3b
 3810 01b2 05       		.uleb128 0x5
 3811 01b3 49       		.uleb128 0x49
 3812 01b4 13       		.uleb128 0x13
 3813 01b5 00       		.byte	0
 3814 01b6 00       		.byte	0
 3815 01b7 24       		.uleb128 0x24
 3816 01b8 2E       		.uleb128 0x2e
 3817 01b9 01       		.byte	0x1
 3818 01ba 03       		.uleb128 0x3
 3819 01bb 0E       		.uleb128 0xe
 3820 01bc 3A       		.uleb128 0x3a
 3821 01bd 0B       		.uleb128 0xb
 3822 01be 3B       		.uleb128 0x3b
 3823 01bf 0B       		.uleb128 0xb
 3824 01c0 27       		.uleb128 0x27
 3825 01c1 0C       		.uleb128 0xc
ARM GAS  /tmp/ccHMNvMF.s 			page 70


 3826 01c2 20       		.uleb128 0x20
 3827 01c3 0B       		.uleb128 0xb
 3828 01c4 01       		.uleb128 0x1
 3829 01c5 13       		.uleb128 0x13
 3830 01c6 00       		.byte	0
 3831 01c7 00       		.byte	0
 3832 01c8 25       		.uleb128 0x25
 3833 01c9 2E       		.uleb128 0x2e
 3834 01ca 01       		.byte	0x1
 3835 01cb 03       		.uleb128 0x3
 3836 01cc 08       		.uleb128 0x8
 3837 01cd 3A       		.uleb128 0x3a
 3838 01ce 0B       		.uleb128 0xb
 3839 01cf 3B       		.uleb128 0x3b
 3840 01d0 05       		.uleb128 0x5
 3841 01d1 27       		.uleb128 0x27
 3842 01d2 0C       		.uleb128 0xc
 3843 01d3 11       		.uleb128 0x11
 3844 01d4 01       		.uleb128 0x1
 3845 01d5 12       		.uleb128 0x12
 3846 01d6 01       		.uleb128 0x1
 3847 01d7 40       		.uleb128 0x40
 3848 01d8 0A       		.uleb128 0xa
 3849 01d9 01       		.uleb128 0x1
 3850 01da 13       		.uleb128 0x13
 3851 01db 00       		.byte	0
 3852 01dc 00       		.byte	0
 3853 01dd 26       		.uleb128 0x26
 3854 01de 05       		.uleb128 0x5
 3855 01df 00       		.byte	0
 3856 01e0 03       		.uleb128 0x3
 3857 01e1 08       		.uleb128 0x8
 3858 01e2 3A       		.uleb128 0x3a
 3859 01e3 0B       		.uleb128 0xb
 3860 01e4 3B       		.uleb128 0x3b
 3861 01e5 05       		.uleb128 0x5
 3862 01e6 49       		.uleb128 0x49
 3863 01e7 13       		.uleb128 0x13
 3864 01e8 02       		.uleb128 0x2
 3865 01e9 0A       		.uleb128 0xa
 3866 01ea 00       		.byte	0
 3867 01eb 00       		.byte	0
 3868 01ec 27       		.uleb128 0x27
 3869 01ed 2E       		.uleb128 0x2e
 3870 01ee 01       		.byte	0x1
 3871 01ef 03       		.uleb128 0x3
 3872 01f0 0E       		.uleb128 0xe
 3873 01f1 3A       		.uleb128 0x3a
 3874 01f2 0B       		.uleb128 0xb
 3875 01f3 3B       		.uleb128 0x3b
 3876 01f4 05       		.uleb128 0x5
 3877 01f5 27       		.uleb128 0x27
 3878 01f6 0C       		.uleb128 0xc
 3879 01f7 11       		.uleb128 0x11
 3880 01f8 01       		.uleb128 0x1
 3881 01f9 12       		.uleb128 0x12
 3882 01fa 01       		.uleb128 0x1
ARM GAS  /tmp/ccHMNvMF.s 			page 71


 3883 01fb 40       		.uleb128 0x40
 3884 01fc 06       		.uleb128 0x6
 3885 01fd 01       		.uleb128 0x1
 3886 01fe 13       		.uleb128 0x13
 3887 01ff 00       		.byte	0
 3888 0200 00       		.byte	0
 3889 0201 28       		.uleb128 0x28
 3890 0202 34       		.uleb128 0x34
 3891 0203 00       		.byte	0
 3892 0204 03       		.uleb128 0x3
 3893 0205 08       		.uleb128 0x8
 3894 0206 3A       		.uleb128 0x3a
 3895 0207 0B       		.uleb128 0xb
 3896 0208 3B       		.uleb128 0x3b
 3897 0209 05       		.uleb128 0x5
 3898 020a 49       		.uleb128 0x49
 3899 020b 13       		.uleb128 0x13
 3900 020c 02       		.uleb128 0x2
 3901 020d 06       		.uleb128 0x6
 3902 020e 00       		.byte	0
 3903 020f 00       		.byte	0
 3904 0210 29       		.uleb128 0x29
 3905 0211 2E       		.uleb128 0x2e
 3906 0212 01       		.byte	0x1
 3907 0213 31       		.uleb128 0x31
 3908 0214 13       		.uleb128 0x13
 3909 0215 11       		.uleb128 0x11
 3910 0216 01       		.uleb128 0x1
 3911 0217 12       		.uleb128 0x12
 3912 0218 01       		.uleb128 0x1
 3913 0219 40       		.uleb128 0x40
 3914 021a 06       		.uleb128 0x6
 3915 021b 01       		.uleb128 0x1
 3916 021c 13       		.uleb128 0x13
 3917 021d 00       		.byte	0
 3918 021e 00       		.byte	0
 3919 021f 2A       		.uleb128 0x2a
 3920 0220 05       		.uleb128 0x5
 3921 0221 00       		.byte	0
 3922 0222 31       		.uleb128 0x31
 3923 0223 13       		.uleb128 0x13
 3924 0224 02       		.uleb128 0x2
 3925 0225 06       		.uleb128 0x6
 3926 0226 00       		.byte	0
 3927 0227 00       		.byte	0
 3928 0228 2B       		.uleb128 0x2b
 3929 0229 34       		.uleb128 0x34
 3930 022a 00       		.byte	0
 3931 022b 31       		.uleb128 0x31
 3932 022c 13       		.uleb128 0x13
 3933 022d 02       		.uleb128 0x2
 3934 022e 0A       		.uleb128 0xa
 3935 022f 00       		.byte	0
 3936 0230 00       		.byte	0
 3937 0231 2C       		.uleb128 0x2c
 3938 0232 34       		.uleb128 0x34
 3939 0233 00       		.byte	0
ARM GAS  /tmp/ccHMNvMF.s 			page 72


 3940 0234 31       		.uleb128 0x31
 3941 0235 13       		.uleb128 0x13
 3942 0236 02       		.uleb128 0x2
 3943 0237 06       		.uleb128 0x6
 3944 0238 00       		.byte	0
 3945 0239 00       		.byte	0
 3946 023a 2D       		.uleb128 0x2d
 3947 023b 1D       		.uleb128 0x1d
 3948 023c 01       		.byte	0x1
 3949 023d 31       		.uleb128 0x31
 3950 023e 13       		.uleb128 0x13
 3951 023f 52       		.uleb128 0x52
 3952 0240 01       		.uleb128 0x1
 3953 0241 55       		.uleb128 0x55
 3954 0242 06       		.uleb128 0x6
 3955 0243 58       		.uleb128 0x58
 3956 0244 0B       		.uleb128 0xb
 3957 0245 59       		.uleb128 0x59
 3958 0246 0B       		.uleb128 0xb
 3959 0247 00       		.byte	0
 3960 0248 00       		.byte	0
 3961 0249 2E       		.uleb128 0x2e
 3962 024a 0B       		.uleb128 0xb
 3963 024b 01       		.byte	0x1
 3964 024c 55       		.uleb128 0x55
 3965 024d 06       		.uleb128 0x6
 3966 024e 00       		.byte	0
 3967 024f 00       		.byte	0
 3968 0250 2F       		.uleb128 0x2f
 3969 0251 34       		.uleb128 0x34
 3970 0252 00       		.byte	0
 3971 0253 31       		.uleb128 0x31
 3972 0254 13       		.uleb128 0x13
 3973 0255 00       		.byte	0
 3974 0256 00       		.byte	0
 3975 0257 30       		.uleb128 0x30
 3976 0258 05       		.uleb128 0x5
 3977 0259 00       		.byte	0
 3978 025a 31       		.uleb128 0x31
 3979 025b 13       		.uleb128 0x13
 3980 025c 00       		.byte	0
 3981 025d 00       		.byte	0
 3982 025e 31       		.uleb128 0x31
 3983 025f 2E       		.uleb128 0x2e
 3984 0260 01       		.byte	0x1
 3985 0261 3F       		.uleb128 0x3f
 3986 0262 0C       		.uleb128 0xc
 3987 0263 03       		.uleb128 0x3
 3988 0264 0E       		.uleb128 0xe
 3989 0265 3A       		.uleb128 0x3a
 3990 0266 0B       		.uleb128 0xb
 3991 0267 3B       		.uleb128 0x3b
 3992 0268 0B       		.uleb128 0xb
 3993 0269 27       		.uleb128 0x27
 3994 026a 0C       		.uleb128 0xc
 3995 026b 11       		.uleb128 0x11
 3996 026c 01       		.uleb128 0x1
ARM GAS  /tmp/ccHMNvMF.s 			page 73


 3997 026d 12       		.uleb128 0x12
 3998 026e 01       		.uleb128 0x1
 3999 026f 40       		.uleb128 0x40
 4000 0270 06       		.uleb128 0x6
 4001 0271 01       		.uleb128 0x1
 4002 0272 13       		.uleb128 0x13
 4003 0273 00       		.byte	0
 4004 0274 00       		.byte	0
 4005 0275 32       		.uleb128 0x32
 4006 0276 05       		.uleb128 0x5
 4007 0277 00       		.byte	0
 4008 0278 03       		.uleb128 0x3
 4009 0279 0E       		.uleb128 0xe
 4010 027a 3A       		.uleb128 0x3a
 4011 027b 0B       		.uleb128 0xb
 4012 027c 3B       		.uleb128 0x3b
 4013 027d 0B       		.uleb128 0xb
 4014 027e 49       		.uleb128 0x49
 4015 027f 13       		.uleb128 0x13
 4016 0280 02       		.uleb128 0x2
 4017 0281 06       		.uleb128 0x6
 4018 0282 00       		.byte	0
 4019 0283 00       		.byte	0
 4020 0284 33       		.uleb128 0x33
 4021 0285 2E       		.uleb128 0x2e
 4022 0286 01       		.byte	0x1
 4023 0287 3F       		.uleb128 0x3f
 4024 0288 0C       		.uleb128 0xc
 4025 0289 03       		.uleb128 0x3
 4026 028a 0E       		.uleb128 0xe
 4027 028b 3A       		.uleb128 0x3a
 4028 028c 0B       		.uleb128 0xb
 4029 028d 3B       		.uleb128 0x3b
 4030 028e 0B       		.uleb128 0xb
 4031 028f 27       		.uleb128 0x27
 4032 0290 0C       		.uleb128 0xc
 4033 0291 11       		.uleb128 0x11
 4034 0292 01       		.uleb128 0x1
 4035 0293 12       		.uleb128 0x12
 4036 0294 01       		.uleb128 0x1
 4037 0295 40       		.uleb128 0x40
 4038 0296 0A       		.uleb128 0xa
 4039 0297 01       		.uleb128 0x1
 4040 0298 13       		.uleb128 0x13
 4041 0299 00       		.byte	0
 4042 029a 00       		.byte	0
 4043 029b 34       		.uleb128 0x34
 4044 029c 05       		.uleb128 0x5
 4045 029d 00       		.byte	0
 4046 029e 03       		.uleb128 0x3
 4047 029f 0E       		.uleb128 0xe
 4048 02a0 3A       		.uleb128 0x3a
 4049 02a1 0B       		.uleb128 0xb
 4050 02a2 3B       		.uleb128 0x3b
 4051 02a3 0B       		.uleb128 0xb
 4052 02a4 49       		.uleb128 0x49
 4053 02a5 13       		.uleb128 0x13
ARM GAS  /tmp/ccHMNvMF.s 			page 74


 4054 02a6 02       		.uleb128 0x2
 4055 02a7 0A       		.uleb128 0xa
 4056 02a8 00       		.byte	0
 4057 02a9 00       		.byte	0
 4058 02aa 35       		.uleb128 0x35
 4059 02ab 0B       		.uleb128 0xb
 4060 02ac 01       		.byte	0x1
 4061 02ad 11       		.uleb128 0x11
 4062 02ae 01       		.uleb128 0x1
 4063 02af 12       		.uleb128 0x12
 4064 02b0 01       		.uleb128 0x1
 4065 02b1 01       		.uleb128 0x1
 4066 02b2 13       		.uleb128 0x13
 4067 02b3 00       		.byte	0
 4068 02b4 00       		.byte	0
 4069 02b5 36       		.uleb128 0x36
 4070 02b6 34       		.uleb128 0x34
 4071 02b7 00       		.byte	0
 4072 02b8 03       		.uleb128 0x3
 4073 02b9 08       		.uleb128 0x8
 4074 02ba 3A       		.uleb128 0x3a
 4075 02bb 0B       		.uleb128 0xb
 4076 02bc 3B       		.uleb128 0x3b
 4077 02bd 0B       		.uleb128 0xb
 4078 02be 49       		.uleb128 0x49
 4079 02bf 13       		.uleb128 0x13
 4080 02c0 02       		.uleb128 0x2
 4081 02c1 06       		.uleb128 0x6
 4082 02c2 00       		.byte	0
 4083 02c3 00       		.byte	0
 4084 02c4 37       		.uleb128 0x37
 4085 02c5 2E       		.uleb128 0x2e
 4086 02c6 01       		.byte	0x1
 4087 02c7 31       		.uleb128 0x31
 4088 02c8 13       		.uleb128 0x13
 4089 02c9 11       		.uleb128 0x11
 4090 02ca 01       		.uleb128 0x1
 4091 02cb 12       		.uleb128 0x12
 4092 02cc 01       		.uleb128 0x1
 4093 02cd 40       		.uleb128 0x40
 4094 02ce 0A       		.uleb128 0xa
 4095 02cf 01       		.uleb128 0x1
 4096 02d0 13       		.uleb128 0x13
 4097 02d1 00       		.byte	0
 4098 02d2 00       		.byte	0
 4099 02d3 38       		.uleb128 0x38
 4100 02d4 05       		.uleb128 0x5
 4101 02d5 00       		.byte	0
 4102 02d6 31       		.uleb128 0x31
 4103 02d7 13       		.uleb128 0x13
 4104 02d8 02       		.uleb128 0x2
 4105 02d9 0A       		.uleb128 0xa
 4106 02da 00       		.byte	0
 4107 02db 00       		.byte	0
 4108 02dc 39       		.uleb128 0x39
 4109 02dd 1D       		.uleb128 0x1d
 4110 02de 01       		.byte	0x1
ARM GAS  /tmp/ccHMNvMF.s 			page 75


 4111 02df 31       		.uleb128 0x31
 4112 02e0 13       		.uleb128 0x13
 4113 02e1 11       		.uleb128 0x11
 4114 02e2 01       		.uleb128 0x1
 4115 02e3 12       		.uleb128 0x12
 4116 02e4 01       		.uleb128 0x1
 4117 02e5 58       		.uleb128 0x58
 4118 02e6 0B       		.uleb128 0xb
 4119 02e7 59       		.uleb128 0x59
 4120 02e8 0B       		.uleb128 0xb
 4121 02e9 00       		.byte	0
 4122 02ea 00       		.byte	0
 4123 02eb 3A       		.uleb128 0x3a
 4124 02ec 2E       		.uleb128 0x2e
 4125 02ed 01       		.byte	0x1
 4126 02ee 3F       		.uleb128 0x3f
 4127 02ef 0C       		.uleb128 0xc
 4128 02f0 03       		.uleb128 0x3
 4129 02f1 0E       		.uleb128 0xe
 4130 02f2 3A       		.uleb128 0x3a
 4131 02f3 0B       		.uleb128 0xb
 4132 02f4 3B       		.uleb128 0x3b
 4133 02f5 0B       		.uleb128 0xb
 4134 02f6 27       		.uleb128 0x27
 4135 02f7 0C       		.uleb128 0xc
 4136 02f8 49       		.uleb128 0x49
 4137 02f9 13       		.uleb128 0x13
 4138 02fa 11       		.uleb128 0x11
 4139 02fb 01       		.uleb128 0x1
 4140 02fc 12       		.uleb128 0x12
 4141 02fd 01       		.uleb128 0x1
 4142 02fe 40       		.uleb128 0x40
 4143 02ff 06       		.uleb128 0x6
 4144 0300 01       		.uleb128 0x1
 4145 0301 13       		.uleb128 0x13
 4146 0302 00       		.byte	0
 4147 0303 00       		.byte	0
 4148 0304 3B       		.uleb128 0x3b
 4149 0305 1D       		.uleb128 0x1d
 4150 0306 00       		.byte	0
 4151 0307 31       		.uleb128 0x31
 4152 0308 13       		.uleb128 0x13
 4153 0309 11       		.uleb128 0x11
 4154 030a 01       		.uleb128 0x1
 4155 030b 12       		.uleb128 0x12
 4156 030c 01       		.uleb128 0x1
 4157 030d 58       		.uleb128 0x58
 4158 030e 0B       		.uleb128 0xb
 4159 030f 59       		.uleb128 0x59
 4160 0310 0B       		.uleb128 0xb
 4161 0311 00       		.byte	0
 4162 0312 00       		.byte	0
 4163 0313 3C       		.uleb128 0x3c
 4164 0314 05       		.uleb128 0x5
 4165 0315 00       		.byte	0
 4166 0316 03       		.uleb128 0x3
 4167 0317 08       		.uleb128 0x8
ARM GAS  /tmp/ccHMNvMF.s 			page 76


 4168 0318 3A       		.uleb128 0x3a
 4169 0319 0B       		.uleb128 0xb
 4170 031a 3B       		.uleb128 0x3b
 4171 031b 0B       		.uleb128 0xb
 4172 031c 49       		.uleb128 0x49
 4173 031d 13       		.uleb128 0x13
 4174 031e 02       		.uleb128 0x2
 4175 031f 06       		.uleb128 0x6
 4176 0320 00       		.byte	0
 4177 0321 00       		.byte	0
 4178 0322 3D       		.uleb128 0x3d
 4179 0323 34       		.uleb128 0x34
 4180 0324 00       		.byte	0
 4181 0325 03       		.uleb128 0x3
 4182 0326 0E       		.uleb128 0xe
 4183 0327 3A       		.uleb128 0x3a
 4184 0328 0B       		.uleb128 0xb
 4185 0329 3B       		.uleb128 0x3b
 4186 032a 0B       		.uleb128 0xb
 4187 032b 49       		.uleb128 0x49
 4188 032c 13       		.uleb128 0x13
 4189 032d 02       		.uleb128 0x2
 4190 032e 0A       		.uleb128 0xa
 4191 032f 00       		.byte	0
 4192 0330 00       		.byte	0
 4193 0331 3E       		.uleb128 0x3e
 4194 0332 34       		.uleb128 0x34
 4195 0333 00       		.byte	0
 4196 0334 03       		.uleb128 0x3
 4197 0335 08       		.uleb128 0x8
 4198 0336 3A       		.uleb128 0x3a
 4199 0337 0B       		.uleb128 0xb
 4200 0338 3B       		.uleb128 0x3b
 4201 0339 0B       		.uleb128 0xb
 4202 033a 49       		.uleb128 0x49
 4203 033b 13       		.uleb128 0x13
 4204 033c 02       		.uleb128 0x2
 4205 033d 0A       		.uleb128 0xa
 4206 033e 00       		.byte	0
 4207 033f 00       		.byte	0
 4208 0340 3F       		.uleb128 0x3f
 4209 0341 2E       		.uleb128 0x2e
 4210 0342 00       		.byte	0
 4211 0343 3F       		.uleb128 0x3f
 4212 0344 0C       		.uleb128 0xc
 4213 0345 03       		.uleb128 0x3
 4214 0346 0E       		.uleb128 0xe
 4215 0347 3A       		.uleb128 0x3a
 4216 0348 0B       		.uleb128 0xb
 4217 0349 3B       		.uleb128 0x3b
 4218 034a 0B       		.uleb128 0xb
 4219 034b 27       		.uleb128 0x27
 4220 034c 0C       		.uleb128 0xc
 4221 034d 49       		.uleb128 0x49
 4222 034e 13       		.uleb128 0x13
 4223 034f 11       		.uleb128 0x11
 4224 0350 01       		.uleb128 0x1
ARM GAS  /tmp/ccHMNvMF.s 			page 77


 4225 0351 12       		.uleb128 0x12
 4226 0352 01       		.uleb128 0x1
 4227 0353 40       		.uleb128 0x40
 4228 0354 06       		.uleb128 0x6
 4229 0355 00       		.byte	0
 4230 0356 00       		.byte	0
 4231 0357 40       		.uleb128 0x40
 4232 0358 2E       		.uleb128 0x2e
 4233 0359 01       		.byte	0x1
 4234 035a 3F       		.uleb128 0x3f
 4235 035b 0C       		.uleb128 0xc
 4236 035c 03       		.uleb128 0x3
 4237 035d 0E       		.uleb128 0xe
 4238 035e 3A       		.uleb128 0x3a
 4239 035f 0B       		.uleb128 0xb
 4240 0360 3B       		.uleb128 0x3b
 4241 0361 05       		.uleb128 0x5
 4242 0362 27       		.uleb128 0x27
 4243 0363 0C       		.uleb128 0xc
 4244 0364 11       		.uleb128 0x11
 4245 0365 01       		.uleb128 0x1
 4246 0366 12       		.uleb128 0x12
 4247 0367 01       		.uleb128 0x1
 4248 0368 40       		.uleb128 0x40
 4249 0369 06       		.uleb128 0x6
 4250 036a 01       		.uleb128 0x1
 4251 036b 13       		.uleb128 0x13
 4252 036c 00       		.byte	0
 4253 036d 00       		.byte	0
 4254 036e 41       		.uleb128 0x41
 4255 036f 05       		.uleb128 0x5
 4256 0370 00       		.byte	0
 4257 0371 03       		.uleb128 0x3
 4258 0372 08       		.uleb128 0x8
 4259 0373 3A       		.uleb128 0x3a
 4260 0374 0B       		.uleb128 0xb
 4261 0375 3B       		.uleb128 0x3b
 4262 0376 05       		.uleb128 0x5
 4263 0377 49       		.uleb128 0x49
 4264 0378 13       		.uleb128 0x13
 4265 0379 02       		.uleb128 0x2
 4266 037a 06       		.uleb128 0x6
 4267 037b 00       		.byte	0
 4268 037c 00       		.byte	0
 4269 037d 42       		.uleb128 0x42
 4270 037e 34       		.uleb128 0x34
 4271 037f 00       		.byte	0
 4272 0380 03       		.uleb128 0x3
 4273 0381 0E       		.uleb128 0xe
 4274 0382 3A       		.uleb128 0x3a
 4275 0383 0B       		.uleb128 0xb
 4276 0384 3B       		.uleb128 0x3b
 4277 0385 05       		.uleb128 0x5
 4278 0386 49       		.uleb128 0x49
 4279 0387 13       		.uleb128 0x13
 4280 0388 00       		.byte	0
 4281 0389 00       		.byte	0
ARM GAS  /tmp/ccHMNvMF.s 			page 78


 4282 038a 43       		.uleb128 0x43
 4283 038b 0B       		.uleb128 0xb
 4284 038c 01       		.byte	0x1
 4285 038d 11       		.uleb128 0x11
 4286 038e 01       		.uleb128 0x1
 4287 038f 12       		.uleb128 0x12
 4288 0390 01       		.uleb128 0x1
 4289 0391 00       		.byte	0
 4290 0392 00       		.byte	0
 4291 0393 44       		.uleb128 0x44
 4292 0394 2E       		.uleb128 0x2e
 4293 0395 01       		.byte	0x1
 4294 0396 3F       		.uleb128 0x3f
 4295 0397 0C       		.uleb128 0xc
 4296 0398 03       		.uleb128 0x3
 4297 0399 0E       		.uleb128 0xe
 4298 039a 3A       		.uleb128 0x3a
 4299 039b 0B       		.uleb128 0xb
 4300 039c 3B       		.uleb128 0x3b
 4301 039d 05       		.uleb128 0x5
 4302 039e 27       		.uleb128 0x27
 4303 039f 0C       		.uleb128 0xc
 4304 03a0 49       		.uleb128 0x49
 4305 03a1 13       		.uleb128 0x13
 4306 03a2 11       		.uleb128 0x11
 4307 03a3 01       		.uleb128 0x1
 4308 03a4 12       		.uleb128 0x12
 4309 03a5 01       		.uleb128 0x1
 4310 03a6 40       		.uleb128 0x40
 4311 03a7 06       		.uleb128 0x6
 4312 03a8 01       		.uleb128 0x1
 4313 03a9 13       		.uleb128 0x13
 4314 03aa 00       		.byte	0
 4315 03ab 00       		.byte	0
 4316 03ac 45       		.uleb128 0x45
 4317 03ad 1D       		.uleb128 0x1d
 4318 03ae 01       		.byte	0x1
 4319 03af 31       		.uleb128 0x31
 4320 03b0 13       		.uleb128 0x13
 4321 03b1 52       		.uleb128 0x52
 4322 03b2 01       		.uleb128 0x1
 4323 03b3 55       		.uleb128 0x55
 4324 03b4 06       		.uleb128 0x6
 4325 03b5 58       		.uleb128 0x58
 4326 03b6 0B       		.uleb128 0xb
 4327 03b7 59       		.uleb128 0x59
 4328 03b8 05       		.uleb128 0x5
 4329 03b9 01       		.uleb128 0x1
 4330 03ba 13       		.uleb128 0x13
 4331 03bb 00       		.byte	0
 4332 03bc 00       		.byte	0
 4333 03bd 46       		.uleb128 0x46
 4334 03be 1D       		.uleb128 0x1d
 4335 03bf 00       		.byte	0
 4336 03c0 31       		.uleb128 0x31
 4337 03c1 13       		.uleb128 0x13
 4338 03c2 52       		.uleb128 0x52
ARM GAS  /tmp/ccHMNvMF.s 			page 79


 4339 03c3 01       		.uleb128 0x1
 4340 03c4 55       		.uleb128 0x55
 4341 03c5 06       		.uleb128 0x6
 4342 03c6 58       		.uleb128 0x58
 4343 03c7 0B       		.uleb128 0xb
 4344 03c8 59       		.uleb128 0x59
 4345 03c9 05       		.uleb128 0x5
 4346 03ca 00       		.byte	0
 4347 03cb 00       		.byte	0
 4348 03cc 47       		.uleb128 0x47
 4349 03cd 1D       		.uleb128 0x1d
 4350 03ce 01       		.byte	0x1
 4351 03cf 31       		.uleb128 0x31
 4352 03d0 13       		.uleb128 0x13
 4353 03d1 11       		.uleb128 0x11
 4354 03d2 01       		.uleb128 0x1
 4355 03d3 12       		.uleb128 0x12
 4356 03d4 01       		.uleb128 0x1
 4357 03d5 58       		.uleb128 0x58
 4358 03d6 0B       		.uleb128 0xb
 4359 03d7 59       		.uleb128 0x59
 4360 03d8 05       		.uleb128 0x5
 4361 03d9 00       		.byte	0
 4362 03da 00       		.byte	0
 4363 03db 48       		.uleb128 0x48
 4364 03dc 34       		.uleb128 0x34
 4365 03dd 00       		.byte	0
 4366 03de 03       		.uleb128 0x3
 4367 03df 0E       		.uleb128 0xe
 4368 03e0 3A       		.uleb128 0x3a
 4369 03e1 0B       		.uleb128 0xb
 4370 03e2 3B       		.uleb128 0x3b
 4371 03e3 0B       		.uleb128 0xb
 4372 03e4 49       		.uleb128 0x49
 4373 03e5 13       		.uleb128 0x13
 4374 03e6 3F       		.uleb128 0x3f
 4375 03e7 0C       		.uleb128 0xc
 4376 03e8 3C       		.uleb128 0x3c
 4377 03e9 0C       		.uleb128 0xc
 4378 03ea 00       		.byte	0
 4379 03eb 00       		.byte	0
 4380 03ec 49       		.uleb128 0x49
 4381 03ed 34       		.uleb128 0x34
 4382 03ee 00       		.byte	0
 4383 03ef 03       		.uleb128 0x3
 4384 03f0 0E       		.uleb128 0xe
 4385 03f1 3A       		.uleb128 0x3a
 4386 03f2 0B       		.uleb128 0xb
 4387 03f3 3B       		.uleb128 0x3b
 4388 03f4 05       		.uleb128 0x5
 4389 03f5 49       		.uleb128 0x49
 4390 03f6 13       		.uleb128 0x13
 4391 03f7 3F       		.uleb128 0x3f
 4392 03f8 0C       		.uleb128 0xc
 4393 03f9 3C       		.uleb128 0x3c
 4394 03fa 0C       		.uleb128 0xc
 4395 03fb 00       		.byte	0
ARM GAS  /tmp/ccHMNvMF.s 			page 80


 4396 03fc 00       		.byte	0
 4397 03fd 4A       		.uleb128 0x4a
 4398 03fe 21       		.uleb128 0x21
 4399 03ff 00       		.byte	0
 4400 0400 00       		.byte	0
 4401 0401 00       		.byte	0
 4402 0402 4B       		.uleb128 0x4b
 4403 0403 34       		.uleb128 0x34
 4404 0404 00       		.byte	0
 4405 0405 03       		.uleb128 0x3
 4406 0406 08       		.uleb128 0x8
 4407 0407 3A       		.uleb128 0x3a
 4408 0408 0B       		.uleb128 0xb
 4409 0409 3B       		.uleb128 0x3b
 4410 040a 05       		.uleb128 0x5
 4411 040b 49       		.uleb128 0x49
 4412 040c 13       		.uleb128 0x13
 4413 040d 02       		.uleb128 0x2
 4414 040e 0A       		.uleb128 0xa
 4415 040f 00       		.byte	0
 4416 0410 00       		.byte	0
 4417 0411 4C       		.uleb128 0x4c
 4418 0412 34       		.uleb128 0x34
 4419 0413 00       		.byte	0
 4420 0414 03       		.uleb128 0x3
 4421 0415 0E       		.uleb128 0xe
 4422 0416 3A       		.uleb128 0x3a
 4423 0417 0B       		.uleb128 0xb
 4424 0418 3B       		.uleb128 0x3b
 4425 0419 0B       		.uleb128 0xb
 4426 041a 49       		.uleb128 0x49
 4427 041b 13       		.uleb128 0x13
 4428 041c 3F       		.uleb128 0x3f
 4429 041d 0C       		.uleb128 0xc
 4430 041e 02       		.uleb128 0x2
 4431 041f 0A       		.uleb128 0xa
 4432 0420 00       		.byte	0
 4433 0421 00       		.byte	0
 4434 0422 4D       		.uleb128 0x4d
 4435 0423 34       		.uleb128 0x34
 4436 0424 00       		.byte	0
 4437 0425 03       		.uleb128 0x3
 4438 0426 08       		.uleb128 0x8
 4439 0427 3A       		.uleb128 0x3a
 4440 0428 0B       		.uleb128 0xb
 4441 0429 3B       		.uleb128 0x3b
 4442 042a 0B       		.uleb128 0xb
 4443 042b 49       		.uleb128 0x49
 4444 042c 13       		.uleb128 0x13
 4445 042d 3F       		.uleb128 0x3f
 4446 042e 0C       		.uleb128 0xc
 4447 042f 02       		.uleb128 0x2
 4448 0430 0A       		.uleb128 0xa
 4449 0431 00       		.byte	0
 4450 0432 00       		.byte	0
 4451 0433 4E       		.uleb128 0x4e
 4452 0434 34       		.uleb128 0x34
ARM GAS  /tmp/ccHMNvMF.s 			page 81


 4453 0435 00       		.byte	0
 4454 0436 03       		.uleb128 0x3
 4455 0437 0E       		.uleb128 0xe
 4456 0438 3A       		.uleb128 0x3a
 4457 0439 0B       		.uleb128 0xb
 4458 043a 3B       		.uleb128 0x3b
 4459 043b 05       		.uleb128 0x5
 4460 043c 49       		.uleb128 0x49
 4461 043d 13       		.uleb128 0x13
 4462 043e 3F       		.uleb128 0x3f
 4463 043f 0C       		.uleb128 0xc
 4464 0440 02       		.uleb128 0x2
 4465 0441 0A       		.uleb128 0xa
 4466 0442 00       		.byte	0
 4467 0443 00       		.byte	0
 4468 0444 00       		.byte	0
 4469              		.section	.debug_loc,"",%progbits
 4470              	.Ldebug_loc0:
 4471              	.LLST0:
 4472 0000 00000000 		.4byte	.LFB135
 4473 0004 02000000 		.4byte	.LCFI0
 4474 0008 0200     		.2byte	0x2
 4475 000a 7D       		.byte	0x7d
 4476 000b 00       		.sleb128 0
 4477 000c 02000000 		.4byte	.LCFI0
 4478 0010 2C000000 		.4byte	.LFE135
 4479 0014 0200     		.2byte	0x2
 4480 0016 7D       		.byte	0x7d
 4481 0017 10       		.sleb128 16
 4482 0018 00000000 		.4byte	0
 4483 001c 00000000 		.4byte	0
 4484              	.LLST1:
 4485 0020 00000000 		.4byte	.LVL1
 4486 0024 06000000 		.4byte	.LVL2
 4487 0028 0200     		.2byte	0x2
 4488 002a 30       		.byte	0x30
 4489 002b 9F       		.byte	0x9f
 4490 002c 00000000 		.4byte	0
 4491 0030 00000000 		.4byte	0
 4492              	.LLST2:
 4493 0034 00000000 		.4byte	.LFB118
 4494 0038 02000000 		.4byte	.LCFI1
 4495 003c 0200     		.2byte	0x2
 4496 003e 7D       		.byte	0x7d
 4497 003f 00       		.sleb128 0
 4498 0040 02000000 		.4byte	.LCFI1
 4499 0044 04000000 		.4byte	.LCFI2
 4500 0048 0200     		.2byte	0x2
 4501 004a 7D       		.byte	0x7d
 4502 004b 10       		.sleb128 16
 4503 004c 04000000 		.4byte	.LCFI2
 4504 0050 64000000 		.4byte	.LFE118
 4505 0054 0200     		.2byte	0x2
 4506 0056 7D       		.byte	0x7d
 4507 0057 20       		.sleb128 32
 4508 0058 00000000 		.4byte	0
 4509 005c 00000000 		.4byte	0
ARM GAS  /tmp/ccHMNvMF.s 			page 82


 4510              	.LLST3:
 4511 0060 00000000 		.4byte	.LVL3
 4512 0064 14000000 		.4byte	.LVL4
 4513 0068 0100     		.2byte	0x1
 4514 006a 50       		.byte	0x50
 4515 006b 2C000000 		.4byte	.LVL5
 4516 006f 3A000000 		.4byte	.LVL6
 4517 0073 0100     		.2byte	0x1
 4518 0075 53       		.byte	0x53
 4519 0076 50000000 		.4byte	.LVL7
 4520 007a 54000000 		.4byte	.LVL8
 4521 007e 0100     		.2byte	0x1
 4522 0080 50       		.byte	0x50
 4523 0081 00000000 		.4byte	0
 4524 0085 00000000 		.4byte	0
 4525              	.LLST4:
 4526 0089 2C000000 		.4byte	.LVL5
 4527 008d 3A000000 		.4byte	.LVL6
 4528 0091 0100     		.2byte	0x1
 4529 0093 54       		.byte	0x54
 4530 0094 00000000 		.4byte	0
 4531 0098 00000000 		.4byte	0
 4532              	.LLST5:
 4533 009c 00000000 		.4byte	.LFB119
 4534 00a0 02000000 		.4byte	.LCFI3
 4535 00a4 0200     		.2byte	0x2
 4536 00a6 7D       		.byte	0x7d
 4537 00a7 00       		.sleb128 0
 4538 00a8 02000000 		.4byte	.LCFI3
 4539 00ac 20000000 		.4byte	.LFE119
 4540 00b0 0200     		.2byte	0x2
 4541 00b2 7D       		.byte	0x7d
 4542 00b3 10       		.sleb128 16
 4543 00b4 00000000 		.4byte	0
 4544 00b8 00000000 		.4byte	0
 4545              	.LLST6:
 4546 00bc 00000000 		.4byte	.LVL9
 4547 00c0 0A000000 		.4byte	.LVL10
 4548 00c4 0100     		.2byte	0x1
 4549 00c6 50       		.byte	0x50
 4550 00c7 00000000 		.4byte	0
 4551 00cb 00000000 		.4byte	0
 4552              	.LLST7:
 4553 00cf 00000000 		.4byte	.LFB120
 4554 00d3 02000000 		.4byte	.LCFI4
 4555 00d7 0200     		.2byte	0x2
 4556 00d9 7D       		.byte	0x7d
 4557 00da 00       		.sleb128 0
 4558 00db 02000000 		.4byte	.LCFI4
 4559 00df 22000000 		.4byte	.LFE120
 4560 00e3 0200     		.2byte	0x2
 4561 00e5 7D       		.byte	0x7d
 4562 00e6 08       		.sleb128 8
 4563 00e7 00000000 		.4byte	0
 4564 00eb 00000000 		.4byte	0
 4565              	.LLST8:
 4566 00ef 00000000 		.4byte	.LVL11
ARM GAS  /tmp/ccHMNvMF.s 			page 83


 4567 00f3 05000000 		.4byte	.LVL12-1
 4568 00f7 0100     		.2byte	0x1
 4569 00f9 50       		.byte	0x50
 4570 00fa 00000000 		.4byte	0
 4571 00fe 00000000 		.4byte	0
 4572              	.LLST9:
 4573 0102 06000000 		.4byte	.LVL15
 4574 0106 10000000 		.4byte	.LVL16
 4575 010a 0100     		.2byte	0x1
 4576 010c 53       		.byte	0x53
 4577 010d 00000000 		.4byte	0
 4578 0111 00000000 		.4byte	0
 4579              	.LLST10:
 4580 0115 1C000000 		.4byte	.LVL17
 4581 0119 1E000000 		.4byte	.LFE123
 4582 011d 0100     		.2byte	0x1
 4583 011f 53       		.byte	0x53
 4584 0120 00000000 		.4byte	0
 4585 0124 00000000 		.4byte	0
 4586              	.LLST11:
 4587 0128 00000000 		.4byte	.LFB124
 4588 012c 02000000 		.4byte	.LCFI5
 4589 0130 0200     		.2byte	0x2
 4590 0132 7D       		.byte	0x7d
 4591 0133 00       		.sleb128 0
 4592 0134 02000000 		.4byte	.LCFI5
 4593 0138 28000000 		.4byte	.LFE124
 4594 013c 0200     		.2byte	0x2
 4595 013e 7D       		.byte	0x7d
 4596 013f 04       		.sleb128 4
 4597 0140 00000000 		.4byte	0
 4598 0144 00000000 		.4byte	0
 4599              	.LLST12:
 4600 0148 00000000 		.4byte	.LVL18
 4601 014c 24000000 		.4byte	.LVL19
 4602 0150 0100     		.2byte	0x1
 4603 0152 50       		.byte	0x50
 4604 0153 24000000 		.4byte	.LVL19
 4605 0157 28000000 		.4byte	.LFE124
 4606 015b 0500     		.2byte	0x5
 4607 015d 03       		.byte	0x3
 4608 015e 00000000 		.4byte	failpoint
 4609 0162 00000000 		.4byte	0
 4610 0166 00000000 		.4byte	0
 4611              	.LLST13:
 4612 016a 00000000 		.4byte	.LVL20
 4613 016e 12000000 		.4byte	.LVL22
 4614 0172 0100     		.2byte	0x1
 4615 0174 50       		.byte	0x50
 4616 0175 12000000 		.4byte	.LVL22
 4617 0179 14000000 		.4byte	.LVL23
 4618 017d 0500     		.2byte	0x5
 4619 017f 03       		.byte	0x3
 4620 0180 00000000 		.4byte	failpoint
 4621 0184 14000000 		.4byte	.LVL23
 4622 0188 16000000 		.4byte	.LVL24
 4623 018c 0100     		.2byte	0x1
ARM GAS  /tmp/ccHMNvMF.s 			page 84


 4624 018e 50       		.byte	0x50
 4625 018f 00000000 		.4byte	0
 4626 0193 00000000 		.4byte	0
 4627              	.LLST14:
 4628 0197 02000000 		.4byte	.LVL21
 4629 019b 12000000 		.4byte	.LVL22
 4630 019f 0100     		.2byte	0x1
 4631 01a1 50       		.byte	0x50
 4632 01a2 12000000 		.4byte	.LVL22
 4633 01a6 14000000 		.4byte	.LVL23
 4634 01aa 0500     		.2byte	0x5
 4635 01ac 03       		.byte	0x3
 4636 01ad 00000000 		.4byte	failpoint
 4637 01b1 00000000 		.4byte	0
 4638 01b5 00000000 		.4byte	0
 4639              	.LLST15:
 4640 01b9 00000000 		.4byte	.LFB126
 4641 01bd 02000000 		.4byte	.LCFI6
 4642 01c1 0200     		.2byte	0x2
 4643 01c3 7D       		.byte	0x7d
 4644 01c4 00       		.sleb128 0
 4645 01c5 02000000 		.4byte	.LCFI6
 4646 01c9 54000000 		.4byte	.LFE126
 4647 01cd 0200     		.2byte	0x2
 4648 01cf 7D       		.byte	0x7d
 4649 01d0 10       		.sleb128 16
 4650 01d1 00000000 		.4byte	0
 4651 01d5 00000000 		.4byte	0
 4652              	.LLST16:
 4653 01d9 00000000 		.4byte	.LVL25
 4654 01dd 28000000 		.4byte	.LVL28
 4655 01e1 0100     		.2byte	0x1
 4656 01e3 50       		.byte	0x50
 4657 01e4 2A000000 		.4byte	.LVL29
 4658 01e8 3A000000 		.4byte	.LVL30
 4659 01ec 0100     		.2byte	0x1
 4660 01ee 50       		.byte	0x50
 4661 01ef 00000000 		.4byte	0
 4662 01f3 00000000 		.4byte	0
 4663              	.LLST17:
 4664 01f7 00000000 		.4byte	.LVL25
 4665 01fb 0C000000 		.4byte	.LVL26
 4666 01ff 0600     		.2byte	0x6
 4667 0201 03       		.byte	0x3
 4668 0202 00000000 		.4byte	tokens_buffer
 4669 0206 9F       		.byte	0x9f
 4670 0207 00000000 		.4byte	0
 4671 020b 00000000 		.4byte	0
 4672              	.LLST18:
 4673 020f 2A000000 		.4byte	.LVL29
 4674 0213 3A000000 		.4byte	.LVL30
 4675 0217 0100     		.2byte	0x1
 4676 0219 50       		.byte	0x50
 4677 021a 00000000 		.4byte	0
 4678 021e 00000000 		.4byte	0
 4679              	.LLST19:
 4680 0222 00000000 		.4byte	.LFB127
ARM GAS  /tmp/ccHMNvMF.s 			page 85


 4681 0226 02000000 		.4byte	.LCFI7
 4682 022a 0200     		.2byte	0x2
 4683 022c 7D       		.byte	0x7d
 4684 022d 00       		.sleb128 0
 4685 022e 02000000 		.4byte	.LCFI7
 4686 0232 30000000 		.4byte	.LFE127
 4687 0236 0200     		.2byte	0x2
 4688 0238 7D       		.byte	0x7d
 4689 0239 08       		.sleb128 8
 4690 023a 00000000 		.4byte	0
 4691 023e 00000000 		.4byte	0
 4692              	.LLST20:
 4693 0242 00000000 		.4byte	.LVL31
 4694 0246 06000000 		.4byte	.LVL32
 4695 024a 0100     		.2byte	0x1
 4696 024c 50       		.byte	0x50
 4697 024d 06000000 		.4byte	.LVL32
 4698 0251 30000000 		.4byte	.LFE127
 4699 0255 0100     		.2byte	0x1
 4700 0257 54       		.byte	0x54
 4701 0258 00000000 		.4byte	0
 4702 025c 00000000 		.4byte	0
 4703              	.LLST21:
 4704 0260 00000000 		.4byte	.LVL31
 4705 0264 08000000 		.4byte	.LVL33
 4706 0268 0100     		.2byte	0x1
 4707 026a 51       		.byte	0x51
 4708 026b 08000000 		.4byte	.LVL33
 4709 026f 0B000000 		.4byte	.LVL34-1
 4710 0273 0100     		.2byte	0x1
 4711 0275 50       		.byte	0x50
 4712 0276 00000000 		.4byte	0
 4713 027a 00000000 		.4byte	0
 4714              	.LLST22:
 4715 027e 00000000 		.4byte	.LVL31
 4716 0282 0B000000 		.4byte	.LVL34-1
 4717 0286 0100     		.2byte	0x1
 4718 0288 52       		.byte	0x52
 4719 0289 00000000 		.4byte	0
 4720 028d 00000000 		.4byte	0
 4721              	.LLST23:
 4722 0291 0C000000 		.4byte	.LVL34
 4723 0295 12000000 		.4byte	.LVL36
 4724 0299 0100     		.2byte	0x1
 4725 029b 50       		.byte	0x50
 4726 029c 1E000000 		.4byte	.LVL37
 4727 02a0 20000000 		.4byte	.LVL38
 4728 02a4 0100     		.2byte	0x1
 4729 02a6 50       		.byte	0x50
 4730 02a7 00000000 		.4byte	0
 4731 02ab 00000000 		.4byte	0
 4732              	.LLST24:
 4733 02af 0E000000 		.4byte	.LVL35
 4734 02b3 1E000000 		.4byte	.LVL37
 4735 02b7 0100     		.2byte	0x1
 4736 02b9 54       		.byte	0x54
 4737 02ba 00000000 		.4byte	0
ARM GAS  /tmp/ccHMNvMF.s 			page 86


 4738 02be 00000000 		.4byte	0
 4739              	.LLST25:
 4740 02c2 00000000 		.4byte	.LFB128
 4741 02c6 02000000 		.4byte	.LCFI8
 4742 02ca 0200     		.2byte	0x2
 4743 02cc 7D       		.byte	0x7d
 4744 02cd 00       		.sleb128 0
 4745 02ce 02000000 		.4byte	.LCFI8
 4746 02d2 20000000 		.4byte	.LFE128
 4747 02d6 0200     		.2byte	0x2
 4748 02d8 7D       		.byte	0x7d
 4749 02d9 10       		.sleb128 16
 4750 02da 00000000 		.4byte	0
 4751 02de 00000000 		.4byte	0
 4752              	.LLST26:
 4753 02e2 00000000 		.4byte	.LVL39
 4754 02e6 08000000 		.4byte	.LVL40
 4755 02ea 0200     		.2byte	0x2
 4756 02ec 30       		.byte	0x30
 4757 02ed 9F       		.byte	0x9f
 4758 02ee 00000000 		.4byte	0
 4759 02f2 00000000 		.4byte	0
 4760              	.LLST27:
 4761 02f6 00000000 		.4byte	.LFB129
 4762 02fa 02000000 		.4byte	.LCFI9
 4763 02fe 0200     		.2byte	0x2
 4764 0300 7D       		.byte	0x7d
 4765 0301 00       		.sleb128 0
 4766 0302 02000000 		.4byte	.LCFI9
 4767 0306 24000000 		.4byte	.LFE129
 4768 030a 0200     		.2byte	0x2
 4769 030c 7D       		.byte	0x7d
 4770 030d 10       		.sleb128 16
 4771 030e 00000000 		.4byte	0
 4772 0312 00000000 		.4byte	0
 4773              	.LLST28:
 4774 0316 00000000 		.4byte	.LVL41
 4775 031a 0A000000 		.4byte	.LVL42
 4776 031e 0200     		.2byte	0x2
 4777 0320 30       		.byte	0x30
 4778 0321 9F       		.byte	0x9f
 4779 0322 00000000 		.4byte	0
 4780 0326 00000000 		.4byte	0
 4781              	.LLST29:
 4782 032a 00000000 		.4byte	.LFB130
 4783 032e 0A000000 		.4byte	.LCFI10
 4784 0332 0200     		.2byte	0x2
 4785 0334 7D       		.byte	0x7d
 4786 0335 00       		.sleb128 0
 4787 0336 0A000000 		.4byte	.LCFI10
 4788 033a 5C000000 		.4byte	.LFE130
 4789 033e 0200     		.2byte	0x2
 4790 0340 7D       		.byte	0x7d
 4791 0341 08       		.sleb128 8
 4792 0342 00000000 		.4byte	0
 4793 0346 00000000 		.4byte	0
 4794              	.LLST30:
ARM GAS  /tmp/ccHMNvMF.s 			page 87


 4795 034a 00000000 		.4byte	.LVL43
 4796 034e 0E000000 		.4byte	.LVL44
 4797 0352 0100     		.2byte	0x1
 4798 0354 50       		.byte	0x50
 4799 0355 00000000 		.4byte	0
 4800 0359 00000000 		.4byte	0
 4801              	.LLST31:
 4802 035d 00000000 		.4byte	.LFB131
 4803 0361 02000000 		.4byte	.LCFI11
 4804 0365 0200     		.2byte	0x2
 4805 0367 7D       		.byte	0x7d
 4806 0368 00       		.sleb128 0
 4807 0369 02000000 		.4byte	.LCFI11
 4808 036d 14000000 		.4byte	.LFE131
 4809 0371 0200     		.2byte	0x2
 4810 0373 7D       		.byte	0x7d
 4811 0374 08       		.sleb128 8
 4812 0375 00000000 		.4byte	0
 4813 0379 00000000 		.4byte	0
 4814              	.LLST32:
 4815 037d 00000000 		.4byte	.LFB133
 4816 0381 0A000000 		.4byte	.LCFI12
 4817 0385 0200     		.2byte	0x2
 4818 0387 7D       		.byte	0x7d
 4819 0388 00       		.sleb128 0
 4820 0389 0A000000 		.4byte	.LCFI12
 4821 038d 4C000000 		.4byte	.LFE133
 4822 0391 0200     		.2byte	0x2
 4823 0393 7D       		.byte	0x7d
 4824 0394 08       		.sleb128 8
 4825 0395 00000000 		.4byte	0
 4826 0399 00000000 		.4byte	0
 4827              	.LLST33:
 4828 039d 00000000 		.4byte	.LVL48
 4829 03a1 30000000 		.4byte	.LVL53
 4830 03a5 0100     		.2byte	0x1
 4831 03a7 50       		.byte	0x50
 4832 03a8 00000000 		.4byte	0
 4833 03ac 00000000 		.4byte	0
 4834              	.LLST34:
 4835 03b0 14000000 		.4byte	.LVL51
 4836 03b4 20000000 		.4byte	.LVL52
 4837 03b8 0100     		.2byte	0x1
 4838 03ba 53       		.byte	0x53
 4839 03bb 00000000 		.4byte	0
 4840 03bf 00000000 		.4byte	0
 4841              	.LLST35:
 4842 03c3 4A000000 		.4byte	.LVL55
 4843 03c7 4C000000 		.4byte	.LFE133
 4844 03cb 0100     		.2byte	0x1
 4845 03cd 53       		.byte	0x53
 4846 03ce 00000000 		.4byte	0
 4847 03d2 00000000 		.4byte	0
 4848              	.LLST36:
 4849 03d6 00000000 		.4byte	.LFB136
 4850 03da 04000000 		.4byte	.LCFI13
 4851 03de 0200     		.2byte	0x2
ARM GAS  /tmp/ccHMNvMF.s 			page 88


 4852 03e0 7D       		.byte	0x7d
 4853 03e1 00       		.sleb128 0
 4854 03e2 04000000 		.4byte	.LCFI13
 4855 03e6 0E000000 		.4byte	.LCFI14
 4856 03ea 0200     		.2byte	0x2
 4857 03ec 7D       		.byte	0x7d
 4858 03ed 24       		.sleb128 36
 4859 03ee 0E000000 		.4byte	.LCFI14
 4860 03f2 44020000 		.4byte	.LFE136
 4861 03f6 0200     		.2byte	0x2
 4862 03f8 7D       		.byte	0x7d
 4863 03f9 30       		.sleb128 48
 4864 03fa 00000000 		.4byte	0
 4865 03fe 00000000 		.4byte	0
 4866              	.LLST37:
 4867 0402 00000000 		.4byte	.LVL56
 4868 0406 10000000 		.4byte	.LVL57
 4869 040a 0100     		.2byte	0x1
 4870 040c 50       		.byte	0x50
 4871 040d 10000000 		.4byte	.LVL57
 4872 0411 1B000000 		.4byte	.LVL58-1
 4873 0415 0500     		.2byte	0x5
 4874 0417 03       		.byte	0x3
 4875 0418 00000000 		.4byte	chp
 4876 041c 00000000 		.4byte	0
 4877 0420 00000000 		.4byte	0
 4878              	.LLST38:
 4879 0424 62010000 		.4byte	.LVL71
 4880 0428 9C010000 		.4byte	.LVL72
 4881 042c 0100     		.2byte	0x1
 4882 042e 5A       		.byte	0x5a
 4883 042f A4010000 		.4byte	.LVL73
 4884 0433 44020000 		.4byte	.LFE136
 4885 0437 0100     		.2byte	0x1
 4886 0439 5A       		.byte	0x5a
 4887 043a 00000000 		.4byte	0
 4888 043e 00000000 		.4byte	0
 4889              	.LLST39:
 4890 0442 A6000000 		.4byte	.LVL60
 4891 0446 C4000000 		.4byte	.LVL61
 4892 044a 0100     		.2byte	0x1
 4893 044c 58       		.byte	0x58
 4894 044d C4000000 		.4byte	.LVL61
 4895 0451 5A010000 		.4byte	.LVL70
 4896 0455 0300     		.2byte	0x3
 4897 0457 78       		.byte	0x78
 4898 0458 7F       		.sleb128 -1
 4899 0459 9F       		.byte	0x9f
 4900 045a 5A010000 		.4byte	.LVL70
 4901 045e 9C010000 		.4byte	.LVL72
 4902 0462 0100     		.2byte	0x1
 4903 0464 58       		.byte	0x58
 4904 0465 9C010000 		.4byte	.LVL72
 4905 0469 A4010000 		.4byte	.LVL73
 4906 046d 0300     		.2byte	0x3
 4907 046f 78       		.byte	0x78
 4908 0470 7F       		.sleb128 -1
ARM GAS  /tmp/ccHMNvMF.s 			page 89


 4909 0471 9F       		.byte	0x9f
 4910 0472 A4010000 		.4byte	.LVL73
 4911 0476 44020000 		.4byte	.LFE136
 4912 047a 0100     		.2byte	0x1
 4913 047c 58       		.byte	0x58
 4914 047d 00000000 		.4byte	0
 4915 0481 00000000 		.4byte	0
 4916              	.LLST40:
 4917 0485 F2000000 		.4byte	.LVL62
 4918 0489 0B010000 		.4byte	.LVL64-1
 4919 048d 0200     		.2byte	0x2
 4920 048f 77       		.byte	0x77
 4921 0490 7C       		.sleb128 -4
 4922 0491 00000000 		.4byte	0
 4923 0495 00000000 		.4byte	0
 4924              	.LLST41:
 4925 0499 06010000 		.4byte	.LVL63
 4926 049d 62010000 		.4byte	.LVL71
 4927 04a1 0200     		.2byte	0x2
 4928 04a3 35       		.byte	0x35
 4929 04a4 9F       		.byte	0x9f
 4930 04a5 9C010000 		.4byte	.LVL72
 4931 04a9 A4010000 		.4byte	.LVL73
 4932 04ad 0200     		.2byte	0x2
 4933 04af 35       		.byte	0x35
 4934 04b0 9F       		.byte	0x9f
 4935 04b1 00000000 		.4byte	0
 4936 04b5 00000000 		.4byte	0
 4937              	.LLST42:
 4938 04b9 3A010000 		.4byte	.LVL65
 4939 04bd 42010000 		.4byte	.LVL66
 4940 04c1 0600     		.2byte	0x6
 4941 04c3 03       		.byte	0x3
 4942 04c4 00000000 		.4byte	tokens_buffer
 4943 04c8 9F       		.byte	0x9f
 4944 04c9 42010000 		.4byte	.LVL66
 4945 04cd 48010000 		.4byte	.LVL67
 4946 04d1 0100     		.2byte	0x1
 4947 04d3 54       		.byte	0x54
 4948 04d4 48010000 		.4byte	.LVL67
 4949 04d8 4E010000 		.4byte	.LVL68
 4950 04dc 0300     		.2byte	0x3
 4951 04de 74       		.byte	0x74
 4952 04df 7F       		.sleb128 -1
 4953 04e0 9F       		.byte	0x9f
 4954 04e1 4E010000 		.4byte	.LVL68
 4955 04e5 54010000 		.4byte	.LVL69
 4956 04e9 0100     		.2byte	0x1
 4957 04eb 54       		.byte	0x54
 4958 04ec 00000000 		.4byte	0
 4959 04f0 00000000 		.4byte	0
 4960              		.section	.debug_aranges,"",%progbits
 4961 0000 94000000 		.4byte	0x94
 4962 0004 0200     		.2byte	0x2
 4963 0006 00000000 		.4byte	.Ldebug_info0
 4964 000a 04       		.byte	0x4
 4965 000b 00       		.byte	0
ARM GAS  /tmp/ccHMNvMF.s 			page 90


 4966 000c 0000     		.2byte	0
 4967 000e 0000     		.2byte	0
 4968 0010 00000000 		.4byte	.LFB132
 4969 0014 0E000000 		.4byte	.LFE132-.LFB132
 4970 0018 00000000 		.4byte	.LFB135
 4971 001c 2C000000 		.4byte	.LFE135-.LFB135
 4972 0020 00000000 		.4byte	.LFB118
 4973 0024 64000000 		.4byte	.LFE118-.LFB118
 4974 0028 00000000 		.4byte	.LFB119
 4975 002c 20000000 		.4byte	.LFE119-.LFB119
 4976 0030 00000000 		.4byte	.LFB120
 4977 0034 22000000 		.4byte	.LFE120-.LFB120
 4978 0038 00000000 		.4byte	.LFB123
 4979 003c 1E000000 		.4byte	.LFE123-.LFB123
 4980 0040 00000000 		.4byte	.LFB124
 4981 0044 28000000 		.4byte	.LFE124-.LFB124
 4982 0048 00000000 		.4byte	.LFB125
 4983 004c 24000000 		.4byte	.LFE125-.LFB125
 4984 0050 00000000 		.4byte	.LFB126
 4985 0054 54000000 		.4byte	.LFE126-.LFB126
 4986 0058 00000000 		.4byte	.LFB127
 4987 005c 30000000 		.4byte	.LFE127-.LFB127
 4988 0060 00000000 		.4byte	.LFB128
 4989 0064 20000000 		.4byte	.LFE128-.LFB128
 4990 0068 00000000 		.4byte	.LFB129
 4991 006c 24000000 		.4byte	.LFE129-.LFB129
 4992 0070 00000000 		.4byte	.LFB130
 4993 0074 5C000000 		.4byte	.LFE130-.LFB130
 4994 0078 00000000 		.4byte	.LFB131
 4995 007c 14000000 		.4byte	.LFE131-.LFB131
 4996 0080 00000000 		.4byte	.LFB133
 4997 0084 4C000000 		.4byte	.LFE133-.LFB133
 4998 0088 00000000 		.4byte	.LFB136
 4999 008c 44020000 		.4byte	.LFE136-.LFB136
 5000 0090 00000000 		.4byte	0
 5001 0094 00000000 		.4byte	0
 5002              		.section	.debug_ranges,"",%progbits
 5003              	.Ldebug_ranges0:
 5004 0000 0C000000 		.4byte	.LBB24
 5005 0004 0E000000 		.4byte	.LBE24
 5006 0008 50000000 		.4byte	.LBB27
 5007 000c 64000000 		.4byte	.LBE27
 5008 0010 00000000 		.4byte	0
 5009 0014 00000000 		.4byte	0
 5010 0018 0C000000 		.4byte	.LBB25
 5011 001c 0E000000 		.4byte	.LBE25
 5012 0020 50000000 		.4byte	.LBB26
 5013 0024 64000000 		.4byte	.LBE26
 5014 0028 00000000 		.4byte	0
 5015 002c 00000000 		.4byte	0
 5016 0030 0E000000 		.4byte	.LBB29
 5017 0034 10000000 		.4byte	.LBE29
 5018 0038 18000000 		.4byte	.LBB30
 5019 003c 1C000000 		.4byte	.LBE30
 5020 0040 00000000 		.4byte	0
 5021 0044 00000000 		.4byte	0
 5022 0048 10000000 		.4byte	.LBB43
ARM GAS  /tmp/ccHMNvMF.s 			page 91


 5023 004c 16000000 		.4byte	.LBE43
 5024 0050 B4000000 		.4byte	.LBB52
 5025 0054 B6000000 		.4byte	.LBE52
 5026 0058 EC000000 		.4byte	.LBB53
 5027 005c EE000000 		.4byte	.LBE53
 5028 0060 F2000000 		.4byte	.LBB54
 5029 0064 20010000 		.4byte	.LBE54
 5030 0068 00000000 		.4byte	0
 5031 006c 00000000 		.4byte	0
 5032 0070 10000000 		.4byte	.LBB44
 5033 0074 16000000 		.4byte	.LBE44
 5034 0078 B4000000 		.4byte	.LBB49
 5035 007c B6000000 		.4byte	.LBE49
 5036 0080 EC000000 		.4byte	.LBB50
 5037 0084 EE000000 		.4byte	.LBE50
 5038 0088 F2000000 		.4byte	.LBB51
 5039 008c 20010000 		.4byte	.LBE51
 5040 0090 00000000 		.4byte	0
 5041 0094 00000000 		.4byte	0
 5042 0098 10000000 		.4byte	.LBB45
 5043 009c 16000000 		.4byte	.LBE45
 5044 00a0 F2000000 		.4byte	.LBB48
 5045 00a4 F6000000 		.4byte	.LBE48
 5046 00a8 00000000 		.4byte	0
 5047 00ac 00000000 		.4byte	0
 5048 00b0 00000000 		.4byte	.LFB132
 5049 00b4 0E000000 		.4byte	.LFE132
 5050 00b8 00000000 		.4byte	.LFB135
 5051 00bc 2C000000 		.4byte	.LFE135
 5052 00c0 00000000 		.4byte	.LFB118
 5053 00c4 64000000 		.4byte	.LFE118
 5054 00c8 00000000 		.4byte	.LFB119
 5055 00cc 20000000 		.4byte	.LFE119
 5056 00d0 00000000 		.4byte	.LFB120
 5057 00d4 22000000 		.4byte	.LFE120
 5058 00d8 00000000 		.4byte	.LFB123
 5059 00dc 1E000000 		.4byte	.LFE123
 5060 00e0 00000000 		.4byte	.LFB124
 5061 00e4 28000000 		.4byte	.LFE124
 5062 00e8 00000000 		.4byte	.LFB125
 5063 00ec 24000000 		.4byte	.LFE125
 5064 00f0 00000000 		.4byte	.LFB126
 5065 00f4 54000000 		.4byte	.LFE126
 5066 00f8 00000000 		.4byte	.LFB127
 5067 00fc 30000000 		.4byte	.LFE127
 5068 0100 00000000 		.4byte	.LFB128
 5069 0104 20000000 		.4byte	.LFE128
 5070 0108 00000000 		.4byte	.LFB129
 5071 010c 24000000 		.4byte	.LFE129
 5072 0110 00000000 		.4byte	.LFB130
 5073 0114 5C000000 		.4byte	.LFE130
 5074 0118 00000000 		.4byte	.LFB131
 5075 011c 14000000 		.4byte	.LFE131
 5076 0120 00000000 		.4byte	.LFB133
 5077 0124 4C000000 		.4byte	.LFE133
 5078 0128 00000000 		.4byte	.LFB136
 5079 012c 44020000 		.4byte	.LFE136
ARM GAS  /tmp/ccHMNvMF.s 			page 92


 5080 0130 00000000 		.4byte	0
 5081 0134 00000000 		.4byte	0
 5082              		.section	.debug_line,"",%progbits
 5083              	.Ldebug_line0:
 5084 0000 9C040000 		.section	.debug_str,"MS",%progbits,1
 5084      02004E02 
 5084      00000201 
 5084      FB0E0D00 
 5084      01010101 
 5085              	.LASF103:
 5086 0000 74657374 		.ascii	"test_cpu_pulse\000"
 5086      5F637075 
 5086      5F70756C 
 5086      736500
 5087              	.LASF2:
 5088 000f 73697A65 		.ascii	"size_t\000"
 5088      5F7400
 5089              	.LASF70:
 5090 0016 7264796D 		.ascii	"rdymsg\000"
 5090      736700
 5091              	.LASF12:
 5092 001d 75696E74 		.ascii	"uint64_t\000"
 5092      36345F74 
 5092      00
 5093              	.LASF107:
 5094 0026 76746C69 		.ascii	"vtlist\000"
 5094      737400
 5095              	.LASF122:
 5096 002d 70617474 		.ascii	"patternqueues\000"
 5096      65726E71 
 5096      75657565 
 5096      7300
 5097              	.LASF120:
 5098 003b 70617474 		.ascii	"patternpools\000"
 5098      65726E70 
 5098      6F6F6C73 
 5098      00
 5099              	.LASF13:
 5100 0048 6C6F6E67 		.ascii	"long long unsigned int\000"
 5100      206C6F6E 
 5100      6720756E 
 5100      7369676E 
 5100      65642069 
 5101              	.LASF88:
 5102 005f 636F6E64 		.ascii	"condition\000"
 5102      6974696F 
 5102      6E00
 5103              	.LASF71:
 5104 0069 65786974 		.ascii	"exitcode\000"
 5104      636F6465 
 5104      00
 5105              	.LASF111:
 5106 0072 74657374 		.ascii	"test\000"
 5106      00
 5107              	.LASF109:
 5108 0077 49544D5F 		.ascii	"ITM_RxBuffer\000"
 5108      52784275 
ARM GAS  /tmp/ccHMNvMF.s 			page 93


 5108      66666572 
 5108      00
 5109              	.LASF27:
 5110 0084 705F7072 		.ascii	"p_prio\000"
 5110      696F00
 5111              	.LASF82:
 5112 008b 74656172 		.ascii	"teardown\000"
 5112      646F776E 
 5112      00
 5113              	.LASF119:
 5114 0094 70617474 		.ascii	"patternheap\000"
 5114      65726E68 
 5114      65617000 
 5115              	.LASF128:
 5116 00a0 746F6B65 		.ascii	"tokens_buffer\000"
 5116      6E735F62 
 5116      75666665 
 5116      7200
 5117              	.LASF11:
 5118 00ae 6C6F6E67 		.ascii	"long long int\000"
 5118      206C6F6E 
 5118      6720696E 
 5118      7400
 5119              	.LASF1:
 5120 00bc 7369676E 		.ascii	"signed char\000"
 5120      65642063 
 5120      68617200 
 5121              	.LASF43:
 5122 00c8 705F6D70 		.ascii	"p_mpool\000"
 5122      6F6F6C00 
 5123              	.LASF14:
 5124 00d0 626F6F6C 		.ascii	"bool_t\000"
 5124      5F7400
 5125              	.LASF67:
 5126 00d7 6D5F7175 		.ascii	"m_queue\000"
 5126      65756500 
 5127              	.LASF95:
 5128 00df 74657374 		.ascii	"test_emit_token\000"
 5128      5F656D69 
 5128      745F746F 
 5128      6B656E00 
 5129              	.LASF94:
 5130 00ef 74657374 		.ascii	"test_println\000"
 5130      5F707269 
 5130      6E746C6E 
 5130      00
 5131              	.LASF19:
 5132 00fc 74736C69 		.ascii	"tslices_t\000"
 5132      6365735F 
 5132      7400
 5133              	.LASF132:
 5134 0106 2F686F6D 		.ascii	"/home/aggieair/workspace/ChibiOS_2.6.1/demos/ARMCM4"
 5134      652F6167 
 5134      67696561 
 5134      69722F77 
 5134      6F726B73 
 5135 0139 2D53544D 		.ascii	"-STM32F407-DISCOVERY/\000"
ARM GAS  /tmp/ccHMNvMF.s 			page 94


 5135      33324634 
 5135      30372D44 
 5135      4953434F 
 5135      56455259 
 5136              	.LASF8:
 5137 014f 6C6F6E67 		.ascii	"long int\000"
 5137      20696E74 
 5137      00
 5138              	.LASF126:
 5139 0158 676C6F62 		.ascii	"global_fail\000"
 5139      616C5F66 
 5139      61696C00 
 5140              	.LASF17:
 5141 0164 74737461 		.ascii	"tstate_t\000"
 5141      74655F74 
 5141      00
 5142              	.LASF99:
 5143 016d 5F746573 		.ascii	"_test_assert_time_window\000"
 5143      745F6173 
 5143      73657274 
 5143      5F74696D 
 5143      655F7769 
 5144              	.LASF101:
 5145 0186 74657374 		.ascii	"test_terminate_threads\000"
 5145      5F746572 
 5145      6D696E61 
 5145      74655F74 
 5145      68726561 
 5146              	.LASF36:
 5147 019d 705F7469 		.ascii	"p_time\000"
 5147      6D6500
 5148              	.LASF129:
 5149 01a4 746F6B70 		.ascii	"tokp\000"
 5149      00
 5150              	.LASF84:
 5151 01a9 62756666 		.ascii	"buffer\000"
 5151      657200
 5152              	.LASF29:
 5153 01b0 705F6E65 		.ascii	"p_newer\000"
 5153      77657200 
 5154              	.LASF105:
 5155 01b8 74657374 		.ascii	"test_start_timer\000"
 5155      5F737461 
 5155      72745F74 
 5155      696D6572 
 5155      00
 5156              	.LASF62:
 5157 01c9 725F6E65 		.ascii	"r_newer\000"
 5157      77657200 
 5158              	.LASF46:
 5159 01d1 72656761 		.ascii	"regarm_t\000"
 5159      726D5F74 
 5159      00
 5160              	.LASF53:
 5161 01da 76745F70 		.ascii	"vt_prev\000"
 5161      72657600 
 5162              	.LASF104:
ARM GAS  /tmp/ccHMNvMF.s 			page 95


 5163 01e2 64757261 		.ascii	"duration\000"
 5163      74696F6E 
 5163      00
 5164              	.LASF78:
 5165 01eb 42617365 		.ascii	"BaseSequentialStream\000"
 5165      53657175 
 5165      656E7469 
 5165      616C5374 
 5165      7265616D 
 5166              	.LASF90:
 5167 0200 7072696E 		.ascii	"print_tokens\000"
 5167      745F746F 
 5167      6B656E73 
 5167      00
 5168              	.LASF0:
 5169 020d 756E7369 		.ascii	"unsigned int\000"
 5169      676E6564 
 5169      20696E74 
 5169      00
 5170              	.LASF52:
 5171 021a 76745F6E 		.ascii	"vt_next\000"
 5171      65787400 
 5172              	.LASF85:
 5173 0222 706F696E 		.ascii	"point\000"
 5173      7400
 5174              	.LASF38:
 5175 0228 705F6D73 		.ascii	"p_msgqueue\000"
 5175      67717565 
 5175      756500
 5176              	.LASF97:
 5177 0233 65787065 		.ascii	"expected\000"
 5177      63746564 
 5177      00
 5178              	.LASF118:
 5179 023c 70617474 		.ascii	"patternevt\000"
 5179      65726E65 
 5179      767400
 5180              	.LASF80:
 5181 0247 6E616D65 		.ascii	"name\000"
 5181      00
 5182              	.LASF51:
 5183 024c 56697274 		.ascii	"VirtualTimer\000"
 5183      75616C54 
 5183      696D6572 
 5183      00
 5184              	.LASF6:
 5185 0259 73686F72 		.ascii	"short unsigned int\000"
 5185      7420756E 
 5185      7369676E 
 5185      65642069 
 5185      6E7400
 5186              	.LASF130:
 5187 026c 474E5520 		.ascii	"GNU C 4.6.2 20110908 (prerelease)\000"
 5187      4320342E 
 5187      362E3220 
 5187      32303131 
 5187      30393038 
ARM GAS  /tmp/ccHMNvMF.s 			page 96


 5188              	.LASF21:
 5189 028e 6D73675F 		.ascii	"msg_t\000"
 5189      7400
 5190              	.LASF86:
 5191 0294 5F746573 		.ascii	"_test_fail\000"
 5191      745F6661 
 5191      696C00
 5192              	.LASF16:
 5193 029f 746D6F64 		.ascii	"tmode_t\000"
 5193      655F7400 
 5194              	.LASF45:
 5195 02a7 54687265 		.ascii	"ThreadsList\000"
 5195      6164734C 
 5195      69737400 
 5196              	.LASF41:
 5197 02b3 705F6D74 		.ascii	"p_mtxlist\000"
 5197      786C6973 
 5197      7400
 5198              	.LASF22:
 5199 02bd 6576656E 		.ascii	"eventmask_t\000"
 5199      746D6173 
 5199      6B5F7400 
 5200              	.LASF92:
 5201 02c9 6D736770 		.ascii	"msgp\000"
 5201      00
 5202              	.LASF47:
 5203 02ce 73746B61 		.ascii	"stkalign_t\000"
 5203      6C69676E 
 5203      5F7400
 5204              	.LASF93:
 5205 02d9 74657374 		.ascii	"test_print\000"
 5205      5F707269 
 5205      6E7400
 5206              	.LASF76:
 5207 02e4 77726974 		.ascii	"write\000"
 5207      6500
 5208              	.LASF60:
 5209 02ea 725F7072 		.ascii	"r_prio\000"
 5209      696F00
 5210              	.LASF54:
 5211 02f1 76745F74 		.ascii	"vt_time\000"
 5211      696D6500 
 5212              	.LASF37:
 5213 02f9 705F7761 		.ascii	"p_waiting\000"
 5213      6974696E 
 5213      6700
 5214              	.LASF116:
 5215 0303 70617474 		.ascii	"patternmsg\000"
 5215      65726E6D 
 5215      736700
 5216              	.LASF55:
 5217 030e 76745F66 		.ascii	"vt_func\000"
 5217      756E6300 
 5218              	.LASF66:
 5219 0316 4D757465 		.ascii	"Mutex\000"
 5219      7800
 5220              	.LASF91:
ARM GAS  /tmp/ccHMNvMF.s 			page 97


 5221 031c 7072696E 		.ascii	"print_line\000"
 5221      745F6C69 
 5221      6E6500
 5222              	.LASF102:
 5223 0327 74657374 		.ascii	"test_wait_threads\000"
 5223      5F776169 
 5223      745F7468 
 5223      72656164 
 5223      7300
 5224              	.LASF61:
 5225 0339 725F6374 		.ascii	"r_ctx\000"
 5225      7800
 5226              	.LASF44:
 5227 033f 54687265 		.ascii	"ThreadsQueue\000"
 5227      61647351 
 5227      75657565 
 5227      00
 5228              	.LASF28:
 5229 034c 705F6374 		.ascii	"p_ctx\000"
 5229      7800
 5230              	.LASF81:
 5231 0352 73657475 		.ascii	"setup\000"
 5231      7000
 5232              	.LASF98:
 5233 0358 5F746573 		.ascii	"_test_assert_sequence\000"
 5233      745F6173 
 5233      73657274 
 5233      5F736571 
 5233      75656E63 
 5234              	.LASF64:
 5235 036e 725F6375 		.ascii	"r_current\000"
 5235      7272656E 
 5235      7400
 5236              	.LASF63:
 5237 0378 725F6F6C 		.ascii	"r_older\000"
 5237      64657200 
 5238              	.LASF114:
 5239 0380 70617474 		.ascii	"patternsem\000"
 5239      65726E73 
 5239      656D00
 5240              	.LASF125:
 5241 038b 6C6F6361 		.ascii	"local_fail\000"
 5241      6C5F6661 
 5241      696C00
 5242              	.LASF77:
 5243 0396 72656164 		.ascii	"read\000"
 5243      00
 5244              	.LASF96:
 5245 039b 746F6B65 		.ascii	"token\000"
 5245      6E00
 5246              	.LASF18:
 5247 03a1 74726566 		.ascii	"trefs_t\000"
 5247      735F7400 
 5248              	.LASF26:
 5249 03a9 705F7072 		.ascii	"p_prev\000"
 5249      657600
 5250              	.LASF83:
ARM GAS  /tmp/ccHMNvMF.s 			page 98


 5251 03b0 65786563 		.ascii	"execute\000"
 5251      75746500 
 5252              	.LASF20:
 5253 03b8 74707269 		.ascii	"tprio_t\000"
 5253      6F5F7400 
 5254              	.LASF15:
 5255 03c0 5F426F6F 		.ascii	"_Bool\000"
 5255      6C00
 5256              	.LASF7:
 5257 03c6 696E7433 		.ascii	"int32_t\000"
 5257      325F7400 
 5258              	.LASF4:
 5259 03ce 756E7369 		.ascii	"unsigned char\000"
 5259      676E6564 
 5259      20636861 
 5259      7200
 5260              	.LASF106:
 5261 03dc 54657374 		.ascii	"TestThread\000"
 5261      54687265 
 5261      616400
 5262              	.LASF136:
 5263 03e7 74657374 		.ascii	"test_wait_tick\000"
 5263      5F776169 
 5263      745F7469 
 5263      636B00
 5264              	.LASF115:
 5265 03f6 70617474 		.ascii	"patternmtx\000"
 5265      65726E6D 
 5265      747800
 5266              	.LASF5:
 5267 0401 73686F72 		.ascii	"short int\000"
 5267      7420696E 
 5267      7400
 5268              	.LASF32:
 5269 040b 705F7374 		.ascii	"p_state\000"
 5269      61746500 
 5270              	.LASF35:
 5271 0413 705F7072 		.ascii	"p_preempt\000"
 5271      65656D70 
 5271      7400
 5272              	.LASF110:
 5273 041d 74687265 		.ascii	"threads\000"
 5273      61647300 
 5274              	.LASF30:
 5275 0425 705F6F6C 		.ascii	"p_older\000"
 5275      64657200 
 5276              	.LASF112:
 5277 042d 74657374 		.ascii	"test_timer_done\000"
 5277      5F74696D 
 5277      65725F64 
 5277      6F6E6500 
 5278              	.LASF73:
 5279 043d 65776D61 		.ascii	"ewmask\000"
 5279      736B00
 5280              	.LASF25:
 5281 0444 705F6E65 		.ascii	"p_next\000"
 5281      787400
ARM GAS  /tmp/ccHMNvMF.s 			page 99


 5282              	.LASF75:
 5283 044b 42617365 		.ascii	"BaseSequentialStreamVMT\000"
 5283      53657175 
 5283      656E7469 
 5283      616C5374 
 5283      7265616D 
 5284              	.LASF33:
 5285 0463 705F666C 		.ascii	"p_flags\000"
 5285      61677300 
 5286              	.LASF123:
 5287 046b 70617474 		.ascii	"patternbmk\000"
 5287      65726E62 
 5287      6D6B00
 5288              	.LASF24:
 5289 0476 54687265 		.ascii	"Thread\000"
 5289      616400
 5290              	.LASF79:
 5291 047d 74657374 		.ascii	"testcase\000"
 5291      63617365 
 5291      00
 5292              	.LASF40:
 5293 0486 705F6570 		.ascii	"p_epending\000"
 5293      656E6469 
 5293      6E6700
 5294              	.LASF9:
 5295 0491 75696E74 		.ascii	"uint32_t\000"
 5295      33325F74 
 5295      00
 5296              	.LASF59:
 5297 049a 725F7175 		.ascii	"r_queue\000"
 5297      65756500 
 5298              	.LASF134:
 5299 04a2 74657374 		.ascii	"test_printn\000"
 5299      5F707269 
 5299      6E746E00 
 5300              	.LASF10:
 5301 04ae 6C6F6E67 		.ascii	"long unsigned int\000"
 5301      20756E73 
 5301      69676E65 
 5301      6420696E 
 5301      7400
 5302              	.LASF74:
 5303 04c0 63686172 		.ascii	"char\000"
 5303      00
 5304              	.LASF124:
 5305 04c5 70617474 		.ascii	"patterns\000"
 5305      65726E73 
 5305      00
 5306              	.LASF113:
 5307 04ce 70617474 		.ascii	"patternthd\000"
 5307      65726E74 
 5307      686400
 5308              	.LASF69:
 5309 04d9 6D5F6E65 		.ascii	"m_next\000"
 5309      787400
 5310              	.LASF23:
 5311 04e0 73797374 		.ascii	"systime_t\000"
ARM GAS  /tmp/ccHMNvMF.s 			page 100


 5311      696D655F 
 5311      7400
 5312              	.LASF42:
 5313 04ea 705F7265 		.ascii	"p_realprio\000"
 5313      616C7072 
 5313      696F00
 5314              	.LASF50:
 5315 04f5 76746675 		.ascii	"vtfunc_t\000"
 5315      6E635F74 
 5315      00
 5316              	.LASF121:
 5317 04fe 70617474 		.ascii	"patterndyn\000"
 5317      65726E64 
 5317      796E00
 5318              	.LASF49:
 5319 0509 636F6E74 		.ascii	"context\000"
 5319      65787400 
 5320              	.LASF48:
 5321 0511 696E7463 		.ascii	"intctx\000"
 5321      747800
 5322              	.LASF56:
 5323 0518 76745F70 		.ascii	"vt_par\000"
 5323      617200
 5324              	.LASF133:
 5325 051f 74657374 		.ascii	"test_buffers\000"
 5325      5F627566 
 5325      66657273 
 5325      00
 5326              	.LASF31:
 5327 052c 705F6E61 		.ascii	"p_name\000"
 5327      6D6500
 5328              	.LASF34:
 5329 0533 705F7265 		.ascii	"p_refs\000"
 5329      667300
 5330              	.LASF65:
 5331 053a 52656164 		.ascii	"ReadyList\000"
 5331      794C6973 
 5331      7400
 5332              	.LASF89:
 5333 0544 65786563 		.ascii	"execute_test\000"
 5333      7574655F 
 5333      74657374 
 5333      00
 5334              	.LASF108:
 5335 0551 726C6973 		.ascii	"rlist\000"
 5335      7400
 5336              	.LASF3:
 5337 0557 75696E74 		.ascii	"uint8_t\000"
 5337      385F7400 
 5338              	.LASF127:
 5339 055f 6661696C 		.ascii	"failpoint\000"
 5339      706F696E 
 5339      7400
 5340              	.LASF135:
 5341 0569 636C6561 		.ascii	"clear_tokens\000"
 5341      725F746F 
 5341      6B656E73 
ARM GAS  /tmp/ccHMNvMF.s 			page 101


 5341      00
 5342              	.LASF72:
 5343 0576 77746F62 		.ascii	"wtobjp\000"
 5343      6A7000
 5344              	.LASF87:
 5345 057d 5F746573 		.ascii	"_test_assert\000"
 5345      745F6173 
 5345      73657274 
 5345      00
 5346              	.LASF57:
 5347 058a 76745F73 		.ascii	"vt_systime\000"
 5347      79737469 
 5347      6D6500
 5348              	.LASF39:
 5349 0595 705F6D73 		.ascii	"p_msg\000"
 5349      6700
 5350              	.LASF100:
 5351 059b 73746172 		.ascii	"start\000"
 5351      7400
 5352              	.LASF58:
 5353 05a1 56544C69 		.ascii	"VTList\000"
 5353      737400
 5354              	.LASF68:
 5355 05a8 6D5F6F77 		.ascii	"m_owner\000"
 5355      6E657200 
 5356              	.LASF117:
 5357 05b0 70617474 		.ascii	"patternmbox\000"
 5357      65726E6D 
 5357      626F7800 
 5358              	.LASF131:
 5359 05bc 2E2E2F2E 		.ascii	"../../test/test.c\000"
 5359      2E2F7465 
 5359      73742F74 
 5359      6573742E 
 5359      6300
 5360              		.ident	"GCC: (Linaro GCC 4.6-2011.09-1) 4.6.2 20110908 (prerelease)"
ARM GAS  /tmp/ccHMNvMF.s 			page 102


DEFINED SYMBOLS
                            *ABS*:0000000000000000 test.c
     /tmp/ccHMNvMF.s:18     .text.tmr:0000000000000000 $t
     /tmp/ccHMNvMF.s:23     .text.tmr:0000000000000000 tmr
     /tmp/ccHMNvMF.s:1249   .bss.test_timer_done:0000000000000000 .LANCHOR0
     /tmp/ccHMNvMF.s:43     .text.print_line:0000000000000000 $t
     /tmp/ccHMNvMF.s:48     .text.print_line:0000000000000000 print_line
     /tmp/ccHMNvMF.s:89     .text.print_line:0000000000000024 $d
     /tmp/ccHMNvMF.s:95     .text.test_printn:0000000000000000 $t
     /tmp/ccHMNvMF.s:101    .text.test_printn:0000000000000000 test_printn
     /tmp/ccHMNvMF.s:190    .text.test_printn:0000000000000060 $d
     /tmp/ccHMNvMF.s:197    .text.test_print:0000000000000000 $t
     /tmp/ccHMNvMF.s:203    .text.test_print:0000000000000000 test_print
     /tmp/ccHMNvMF.s:238    .text.test_print:000000000000001c $d
     /tmp/ccHMNvMF.s:243    .text.test_println:0000000000000000 $t
     /tmp/ccHMNvMF.s:249    .text.test_println:0000000000000000 test_println
     /tmp/ccHMNvMF.s:1401   .bss.chp:0000000000000000 .LANCHOR1
     /tmp/ccHMNvMF.s:1279   .rodata.str1.4:0000000000000000 .LC0
     /tmp/ccHMNvMF.s:280    .text.test_emit_token:0000000000000000 $t
     /tmp/ccHMNvMF.s:286    .text.test_emit_token:0000000000000000 test_emit_token
     /tmp/ccHMNvMF.s:1266   .bss.tokp:0000000000000000 .LANCHOR2
     /tmp/ccHMNvMF.s:330    .text._test_fail:0000000000000000 $t
     /tmp/ccHMNvMF.s:336    .text._test_fail:0000000000000000 _test_fail
     /tmp/ccHMNvMF.s:1243   .bss.local_fail:0000000000000000 .LANCHOR3
     /tmp/ccHMNvMF.s:1272   .bss.global_fail:0000000000000000 .LANCHOR4
     /tmp/ccHMNvMF.s:1237   .bss.failpoint:0000000000000000 .LANCHOR5
     /tmp/ccHMNvMF.s:377    .text._test_assert:0000000000000000 $t
     /tmp/ccHMNvMF.s:383    .text._test_assert:0000000000000000 _test_assert
     /tmp/ccHMNvMF.s:422    .text._test_assert:0000000000000018 $d
     /tmp/ccHMNvMF.s:429    .text._test_assert_sequence:0000000000000000 $t
     /tmp/ccHMNvMF.s:435    .text._test_assert_sequence:0000000000000000 _test_assert_sequence
     /tmp/ccHMNvMF.s:515    .text._test_assert_sequence:0000000000000040 $d
     /tmp/ccHMNvMF.s:524    .text._test_assert_time_window:0000000000000000 $t
     /tmp/ccHMNvMF.s:530    .text._test_assert_time_window:0000000000000000 _test_assert_time_window
     /tmp/ccHMNvMF.s:584    .text._test_assert_time_window:0000000000000024 $d
     /tmp/ccHMNvMF.s:591    .text.test_terminate_threads:0000000000000000 $t
     /tmp/ccHMNvMF.s:597    .text.test_terminate_threads:0000000000000000 test_terminate_threads
     /tmp/ccHMNvMF.s:633    .text.test_terminate_threads:000000000000001c $d
     /tmp/ccHMNvMF.s:638    .text.test_wait_threads:0000000000000000 $t
     /tmp/ccHMNvMF.s:644    .text.test_wait_threads:0000000000000000 test_wait_threads
     /tmp/ccHMNvMF.s:685    .text.test_wait_threads:0000000000000020 $d
     /tmp/ccHMNvMF.s:690    .text.test_cpu_pulse:0000000000000000 $t
     /tmp/ccHMNvMF.s:696    .text.test_cpu_pulse:0000000000000000 test_cpu_pulse
     /tmp/ccHMNvMF.s:769    .text.test_cpu_pulse:0000000000000058 $d
     /tmp/ccHMNvMF.s:774    .text.test_wait_tick:0000000000000000 $t
     /tmp/ccHMNvMF.s:780    .text.test_wait_tick:0000000000000000 test_wait_tick
     /tmp/ccHMNvMF.s:804    .text.test_start_timer:0000000000000000 $t
     /tmp/ccHMNvMF.s:810    .text.test_start_timer:0000000000000000 test_start_timer
     /tmp/ccHMNvMF.s:1369   .bss.vt:0000000000000000 .LANCHOR8
     /tmp/ccHMNvMF.s:873    .text.TestThread:0000000000000000 $t
     /tmp/ccHMNvMF.s:879    .text.TestThread:0000000000000000 TestThread
     /tmp/ccHMNvMF.s:1184   .text.TestThread:00000000000001ac $d
     /tmp/ccHMNvMF.s:1252   .bss.test_timer_done:0000000000000000 test_timer_done
     /tmp/ccHMNvMF.s:1258   .rodata.wa:0000000000000000 wa
     /tmp/ccHMNvMF.s:1379   .bss.threads:0000000000000000 threads
     /tmp/ccHMNvMF.s:1233   .bss.test:0000000000000000 test
     /tmp/ccHMNvMF.s:1230   .bss.test:0000000000000000 $d
ARM GAS  /tmp/ccHMNvMF.s 			page 103


     /tmp/ccHMNvMF.s:1236   .bss.failpoint:0000000000000000 $d
     /tmp/ccHMNvMF.s:1240   .bss.failpoint:0000000000000000 failpoint
     /tmp/ccHMNvMF.s:1246   .bss.local_fail:0000000000000000 local_fail
     /tmp/ccHMNvMF.s:1247   .bss.local_fail:0000000000000000 $d
     /tmp/ccHMNvMF.s:1253   .bss.test_timer_done:0000000000000000 $d
     /tmp/ccHMNvMF.s:1255   .rodata.wa:0000000000000000 $d
     /tmp/ccHMNvMF.s:1265   .bss.tokp:0000000000000000 $d
     /tmp/ccHMNvMF.s:1269   .bss.tokp:0000000000000000 tokp
     /tmp/ccHMNvMF.s:1275   .bss.global_fail:0000000000000000 global_fail
     /tmp/ccHMNvMF.s:1276   .bss.global_fail:0000000000000000 $d
     /tmp/ccHMNvMF.s:1278   .rodata.str1.4:0000000000000000 $d
     /tmp/ccHMNvMF.s:1368   .bss.vt:0000000000000000 $d
     /tmp/ccHMNvMF.s:1372   .bss.vt:0000000000000000 vt
     /tmp/ccHMNvMF.s:1375   .bss.threads:0000000000000000 $d
     /tmp/ccHMNvMF.s:1382   .rodata.patterns:0000000000000000 $d
     /tmp/ccHMNvMF.s:1386   .rodata.patterns:0000000000000000 patterns
     /tmp/ccHMNvMF.s:1400   .bss.chp:0000000000000000 $d
     /tmp/ccHMNvMF.s:1404   .bss.chp:0000000000000000 chp
     /tmp/ccHMNvMF.s:1407   .bss.tokens_buffer:0000000000000000 $d
     /tmp/ccHMNvMF.s:1411   .bss.tokens_buffer:0000000000000000 tokens_buffer
                     .debug_frame:0000000000000010 $d
     /tmp/ccHMNvMF.s:94     .text.print_line:000000000000002c $t
     /tmp/ccHMNvMF.s:196    .text.test_printn:0000000000000064 $t
     /tmp/ccHMNvMF.s:428    .text._test_assert:0000000000000024 $t
     /tmp/ccHMNvMF.s:523    .text._test_assert_sequence:0000000000000054 $t
     /tmp/ccHMNvMF.s:689    .text.test_wait_threads:0000000000000024 $t
     /tmp/ccHMNvMF.s:773    .text.test_cpu_pulse:000000000000005c $t
     /tmp/ccHMNvMF.s:1229   .text.TestThread:0000000000000244 $t

UNDEFINED SYMBOLS
chTimeIsWithin
chThdTerminate
chThdWait
rlist
chThdSleep
vtlist
chVTSetI
patternthd
patternsem
patternmtx
patternmsg
patternmbox
patternevt
patternheap
patternpools
patterndyn
patternqueues
patternbmk
