ARM GAS  /tmp/cc0s66dp.s 			page 1


   1              		.syntax unified
   2              		.cpu cortex-m4
   3              		.fpu softvfp
   4              		.eabi_attribute 20, 1
   5              		.eabi_attribute 21, 1
   6              		.eabi_attribute 23, 3
   7              		.eabi_attribute 24, 1
   8              		.eabi_attribute 25, 1
   9              		.eabi_attribute 26, 1
  10              		.eabi_attribute 30, 2
  11              		.eabi_attribute 18, 4
  12              		.thumb
  13              		.file	"testmsg.c"
  14              		.text
  15              	.Ltext0:
  16              		.cfi_sections	.debug_frame
  17              		.section	.text.msg1_execute,"ax",%progbits
  18              		.align	2
  19              		.p2align 4,,15
  20              		.thumb
  21              		.thumb_func
  22              		.type	msg1_execute, %function
  23              	msg1_execute:
  24              	.LFB8:
  25              		.file 1 "../../test/testmsg.c"
  26              		.loc 1 67 0
  27              		.cfi_startproc
  28              		@ args = 0, pretend = 0, frame = 0
  29              		@ frame_needed = 0, uses_anonymous_args = 0
  30 0000 10B5     		push	{r4, lr}
  31              	.LCFI0:
  32              		.cfi_def_cfa_offset 8
  33              		.cfi_offset 14, -4
  34              		.cfi_offset 4, -8
  35              		.loc 1 74 0
  36 0002 40F20002 		movw	r2, #:lower16:rlist
  37 0006 C0F20002 		movt	r2, #:upper16:rlist
  38 000a 40F20003 		movw	r3, #:lower16:wa
  39 000e 9169     		ldr	r1, [r2, #24]
  40 0010 C0F20003 		movt	r3, #:upper16:wa
  41              		.loc 1 67 0
  42 0014 82B0     		sub	sp, sp, #8
  43              	.LCFI1:
  44              		.cfi_def_cfa_offset 16
  45              		.loc 1 74 0
  46 0016 8A68     		ldr	r2, [r1, #8]
  47 0018 1868     		ldr	r0, [r3, #0]
  48 001a 0091     		str	r1, [sp, #0]
  49 001c 40F20003 		movw	r3, #:lower16:thread
  50 0020 0132     		adds	r2, r2, #1
  51 0022 4FF49871 		mov	r1, #304
  52 0026 C0F20003 		movt	r3, #:upper16:thread
  53 002a FFF7FEFF 		bl	chThdCreateStatic
  54 002e 40F20003 		movw	r3, #:lower16:threads
  55 0032 C0F20003 		movt	r3, #:upper16:threads
  56 0036 1860     		str	r0, [r3, #0]
  57              		.loc 1 76 0
ARM GAS  /tmp/cc0s66dp.s 			page 2


  58 0038 FFF7FEFF 		bl	chMsgWait
  59              	.LVL0:
  60              		.loc 1 77 0
  61 003c 446B     		ldr	r4, [r0, #52]
  62              	.LVL1:
  63              		.loc 1 78 0
  64 003e 2146     		mov	r1, r4
  65 0040 FFF7FEFF 		bl	chMsgRelease
  66              	.LVL2:
  67              		.loc 1 79 0
  68 0044 E0B2     		uxtb	r0, r4
  69 0046 FFF7FEFF 		bl	test_emit_token
  70              		.loc 1 80 0
  71 004a FFF7FEFF 		bl	chMsgWait
  72              	.LVL3:
  73              		.loc 1 81 0
  74 004e 446B     		ldr	r4, [r0, #52]
  75              	.LVL4:
  76              		.loc 1 82 0
  77 0050 2146     		mov	r1, r4
  78 0052 FFF7FEFF 		bl	chMsgRelease
  79              	.LVL5:
  80              		.loc 1 83 0
  81 0056 E0B2     		uxtb	r0, r4
  82 0058 FFF7FEFF 		bl	test_emit_token
  83              		.loc 1 84 0
  84 005c FFF7FEFF 		bl	chMsgWait
  85              	.LVL6:
  86              		.loc 1 85 0
  87 0060 446B     		ldr	r4, [r0, #52]
  88              	.LVL7:
  89              		.loc 1 86 0
  90 0062 2146     		mov	r1, r4
  91 0064 FFF7FEFF 		bl	chMsgRelease
  92              	.LVL8:
  93              		.loc 1 87 0
  94 0068 E0B2     		uxtb	r0, r4
  95 006a FFF7FEFF 		bl	test_emit_token
  96              		.loc 1 88 0
  97 006e 40F20001 		movw	r1, #:lower16:.LC0
  98 0072 0120     		movs	r0, #1
  99 0074 C0F20001 		movt	r1, #:upper16:.LC0
 100              		.loc 1 89 0
 101 0078 02B0     		add	sp, sp, #8
 102 007a BDE81040 		pop	{r4, lr}
 103              		.loc 1 88 0
 104 007e FFF7FEBF 		b	_test_assert_sequence
 105              		.cfi_endproc
 106              	.LFE8:
 107              		.size	msg1_execute, .-msg1_execute
 108 0082 00BFAFF3 		.section	.text.thread,"ax",%progbits
 108      0080AFF3 
 108      0080AFF3 
 108      0080
 109              		.align	2
 110              		.p2align 4,,15
 111              		.thumb
ARM GAS  /tmp/cc0s66dp.s 			page 3


 112              		.thumb_func
 113              		.type	thread, %function
 114              	thread:
 115              	.LFB7:
 116              		.loc 1 59 0
 117              		.cfi_startproc
 118              		@ args = 0, pretend = 0, frame = 0
 119              		@ frame_needed = 0, uses_anonymous_args = 0
 120              	.LVL9:
 121 0000 10B5     		push	{r4, lr}
 122              	.LCFI2:
 123              		.cfi_def_cfa_offset 8
 124              		.cfi_offset 14, -4
 125              		.cfi_offset 4, -8
 126              		.loc 1 61 0
 127 0002 4121     		movs	r1, #65
 128              		.loc 1 59 0
 129 0004 0446     		mov	r4, r0
 130              		.loc 1 61 0
 131 0006 FFF7FEFF 		bl	chMsgSend
 132              	.LVL10:
 133              		.loc 1 62 0
 134 000a 4221     		movs	r1, #66
 135 000c 2046     		mov	r0, r4
 136 000e FFF7FEFF 		bl	chMsgSend
 137              		.loc 1 63 0
 138 0012 2046     		mov	r0, r4
 139 0014 4321     		movs	r1, #67
 140 0016 FFF7FEFF 		bl	chMsgSend
 141              		.loc 1 65 0
 142 001a 0020     		movs	r0, #0
 143 001c 10BD     		pop	{r4, pc}
 144              		.cfi_endproc
 145              	.LFE7:
 146              		.size	thread, .-thread
 147              		.global	patternmsg
 148              		.global	testmsg1
 149 001e 00BF     		.section	.rodata.testmsg1,"a",%progbits
 150              		.align	2
 151              		.type	testmsg1, %object
 152              		.size	testmsg1, 16
 153              	testmsg1:
 154 0000 04000000 		.word	.LC1
 155 0004 00000000 		.word	0
 156 0008 00000000 		.word	0
 157 000c 00000000 		.word	msg1_execute
 158              		.section	.rodata.str1.4,"aMS",%progbits,1
 159              		.align	2
 160              	.LC0:
 161 0000 41424300 		.ascii	"ABC\000"
 162              	.LC1:
 163 0004 4D657373 		.ascii	"Messages, loop\000"
 163      61676573 
 163      2C206C6F 
 163      6F7000
 164 0013 00       		.section	.rodata.patternmsg,"a",%progbits
 165              		.align	2
ARM GAS  /tmp/cc0s66dp.s 			page 4


 166              		.type	patternmsg, %object
 167              		.size	patternmsg, 8
 168              	patternmsg:
 169 0000 00000000 		.word	testmsg1
 170 0004 00000000 		.word	0
 171              		.text
 172              	.Letext0:
 173              		.file 2 "/opt/paparazzi/arm-multilib/lib/gcc/arm-none-eabi/4.6.2/../../../../arm-none-eabi/include
 174              		.file 3 "../../os/ports/GCC/ARMCMx/chtypes.h"
 175              		.file 4 "../../os/kernel/include/chlists.h"
 176              		.file 5 "../../os/kernel/include/chthreads.h"
 177              		.file 6 "../../os/ports/GCC/ARMCMx/chcore_v7m.h"
 178              		.file 7 "../../os/kernel/include/chschd.h"
 179              		.file 8 "../../os/kernel/include/chmtx.h"
 180              		.file 9 "../../test/test.h"