ARM GAS  /tmp/ccuWE9t2.s 			page 1


   1              		.syntax unified
   2              		.cpu cortex-m3
   3              		.fpu softvfp
   4              		.eabi_attribute 20, 1
   5              		.eabi_attribute 21, 1
   6              		.eabi_attribute 23, 3
   7              		.eabi_attribute 24, 1
   8              		.eabi_attribute 25, 1
   9              		.eabi_attribute 26, 1
  10              		.eabi_attribute 30, 2
  11              		.eabi_attribute 18, 4
  12              		.thumb
  13              		.file	"chdynamic.c"
  14              		.text
  15              	.Ltext0:
  16              		.cfi_sections	.debug_frame
  17              		.section	.text.chThdAddRef,"ax",%progbits
  18              		.align	2
  19              		.p2align 4,,15
  20              		.global	chThdAddRef
  21              		.thumb
  22              		.thumb_func
  23              		.type	chThdAddRef, %function
  24              	chThdAddRef:
  25              	.LFB7:
  26              		.file 1 "../../os/kernel/src/chdynamic.c"
  27              		.loc 1 52 0
  28              		.cfi_startproc
  29              		@ args = 0, pretend = 0, frame = 0
  30              		@ frame_needed = 0, uses_anonymous_args = 0
  31              		@ link register save eliminated.
  32              	.LVL0:
  33              	.LBB2:
  34              		.loc 1 54 0
  35 0000 2023     		movs	r3, #32
  36              	.LVL1:
  37              	@ 54 "../../os/kernel/src/chdynamic.c" 1
  38 0002 83F31188 		msr     BASEPRI, r3
  39              	@ 0 "" 2
  40              	.LVL2:
  41              		.thumb
  42              	.LBE2:
  43              		.loc 1 56 0
  44 0006 817F     		ldrb	r1, [r0, #30]	@ zero_extendqisi2
  45              	.LBB3:
  46              		.loc 1 57 0
  47 0008 0023     		movs	r3, #0
  48              	.LVL3:
  49              	.LBE3:
  50              		.loc 1 56 0
  51 000a 0131     		adds	r1, r1, #1
  52 000c 8177     		strb	r1, [r0, #30]
  53              	.LBB4:
  54              		.loc 1 57 0
  55              	@ 57 "../../os/kernel/src/chdynamic.c" 1
  56 000e 83F31188 		msr     BASEPRI, r3
  57              	@ 0 "" 2
ARM GAS  /tmp/ccuWE9t2.s 			page 2


  58              	.LVL4:
  59              		.thumb
  60              	.LBE4:
  61              		.loc 1 59 0
  62 0012 7047     		bx	lr
  63              		.cfi_endproc
  64              	.LFE7:
  65              		.size	chThdAddRef, .-chThdAddRef
  66 0014 AFF30080 		.section	.text.chThdRelease,"ax",%progbits
  66      AFF30080 
  66      AFF30080 
  67              		.align	2
  68              		.p2align 4,,15
  69              		.global	chThdRelease
  70              		.thumb
  71              		.thumb_func
  72              		.type	chThdRelease, %function
  73              	chThdRelease:
  74              	.LFB8:
  75              		.loc 1 74 0
  76              		.cfi_startproc
  77              		@ args = 0, pretend = 0, frame = 0
  78              		@ frame_needed = 0, uses_anonymous_args = 0
  79              		@ link register save eliminated.
  80              	.LVL5:
  81              		.loc 1 74 0
  82 0000 0146     		mov	r1, r0
  83              	.LBB5:
  84              		.loc 1 77 0
  85 0002 2023     		movs	r3, #32
  86              	.LVL6:
  87              	@ 77 "../../os/kernel/src/chdynamic.c" 1
  88 0004 83F31188 		msr     BASEPRI, r3
  89              	@ 0 "" 2
  90              	.LVL7:
  91              		.thumb
  92              	.LBE5:
  93              		.loc 1 79 0
  94 0008 827F     		ldrb	r2, [r0, #30]	@ zero_extendqisi2
  95              	.LBB6:
  96              		.loc 1 80 0
  97 000a 0023     		movs	r3, #0
  98              	.LVL8:
  99              	.LBE6:
 100              		.loc 1 79 0
 101 000c 013A     		subs	r2, r2, #1
 102 000e D2B2     		uxtb	r2, r2
 103 0010 8277     		strb	r2, [r0, #30]
 104              	.LVL9:
 105              	.LBB7:
 106              		.loc 1 80 0
 107              	@ 80 "../../os/kernel/src/chdynamic.c" 1
 108 0012 83F31188 		msr     BASEPRI, r3
 109              	@ 0 "" 2
 110              	.LVL10:
 111              		.thumb
 112              	.LBE7:
ARM GAS  /tmp/ccuWE9t2.s 			page 3


 113              		.loc 1 85 0
 114 0016 12B9     		cbnz	r2, .L2
 115              		.loc 1 85 0 is_stmt 0 discriminator 1
 116 0018 037F     		ldrb	r3, [r0, #28]	@ zero_extendqisi2
 117              	.LVL11:
 118 001a 0E2B     		cmp	r3, #14
 119 001c 00D0     		beq	.L7
 120              	.LVL12:
 121              	.L2:
 122 001e 7047     		bx	lr
 123              	.LVL13:
 124              	.L7:
 125              		.loc 1 86 0 is_stmt 1
 126 0020 437F     		ldrb	r3, [r0, #29]	@ zero_extendqisi2
 127 0022 03F00303 		and	r3, r3, #3
 128 0026 012B     		cmp	r3, #1
 129 0028 09D0     		beq	.L4
 130 002a 022B     		cmp	r3, #2
 131 002c F7D1     		bne	.L2
 132              		.loc 1 98 0
 133 002e 4369     		ldr	r3, [r0, #20]
 134 0030 0269     		ldr	r2, [r0, #16]
 135              	.LVL14:
 136              		.loc 1 100 0
 137 0032 406C     		ldr	r0, [r0, #68]
 138              	.LVL15:
 139              		.loc 1 98 0
 140 0034 1A61     		str	r2, [r3, #16]
 141 0036 0A69     		ldr	r2, [r1, #16]
 142 0038 5361     		str	r3, [r2, #20]
 143              		.loc 1 105 0
 144              		.loc 1 100 0
 145 003a FFF7FEBF 		b	chPoolFree
 146              	.LVL16:
 147              	.L4:
 148              		.loc 1 90 0
 149 003e 4369     		ldr	r3, [r0, #20]
 150 0040 0269     		ldr	r2, [r0, #16]
 151              	.LVL17:
 152 0042 1A61     		str	r2, [r3, #16]
 153 0044 0269     		ldr	r2, [r0, #16]
 154 0046 5361     		str	r3, [r2, #20]
 155              		.loc 1 105 0
 156              		.loc 1 92 0
 157 0048 FFF7FEBF 		b	chHeapFree
 158              	.LVL18:
 159              		.cfi_endproc
 160              	.LFE8:
 161              		.size	chThdRelease, .-chThdRelease
 162 004c AFF30080 		.section	.text.chThdCreateFromHeap,"ax",%progbits
 163              		.align	2
 164              		.p2align 4,,15
 165              		.global	chThdCreateFromHeap
 166              		.thumb
 167              		.thumb_func
 168              		.type	chThdCreateFromHeap, %function
 169              	chThdCreateFromHeap:
ARM GAS  /tmp/ccuWE9t2.s 			page 4


 170              	.LFB9:
 171              		.loc 1 131 0
 172              		.cfi_startproc
 173              		@ args = 4, pretend = 0, frame = 0
 174              		@ frame_needed = 0, uses_anonymous_args = 0
 175              	.LVL19:
 176 0000 70B5     		push	{r4, r5, r6, lr}
 177              	.LCFI0:
 178              		.cfi_def_cfa_offset 16
 179              		.cfi_offset 14, -4
 180              		.cfi_offset 6, -8
 181              		.cfi_offset 5, -12
 182              		.cfi_offset 4, -16
 183 0002 82B0     		sub	sp, sp, #8
 184              	.LCFI1:
 185              		.cfi_def_cfa_offset 24
 186              		.loc 1 131 0
 187 0004 0C46     		mov	r4, r1
 188 0006 1546     		mov	r5, r2
 189 0008 1E46     		mov	r6, r3
 190              		.loc 1 135 0
 191 000a FFF7FEFF 		bl	chHeapAlloc
 192              	.LVL20:
 193              		.loc 1 136 0
 194 000e A8B1     		cbz	r0, .L10
 195              	.LBB8:
 196              		.loc 1 148 0
 197 0010 2023     		movs	r3, #32
 198              	.LVL21:
 199              	@ 148 "../../os/kernel/src/chdynamic.c" 1
 200 0012 83F31188 		msr     BASEPRI, r3
 201              	@ 0 "" 2
 202              	.LVL22:
 203              		.thumb
 204              	.LBE8:
 205              		.loc 1 149 0
 206 0016 2146     		mov	r1, r4
 207 0018 069C     		ldr	r4, [sp, #24]
 208              	.LVL23:
 209 001a 3346     		mov	r3, r6
 210              	.LVL24:
 211 001c 2A46     		mov	r2, r5
 212 001e 0094     		str	r4, [sp, #0]
 213 0020 FFF7FEFF 		bl	chThdCreateI
 214              	.LVL25:
 215              		.loc 1 150 0
 216 0024 0123     		movs	r3, #1
 217 0026 4377     		strb	r3, [r0, #29]
 218              		.loc 1 151 0
 219 0028 0021     		movs	r1, #0
 220              		.loc 1 149 0
 221 002a 0446     		mov	r4, r0
 222              	.LVL26:
 223              		.loc 1 151 0
 224 002c FFF7FEFF 		bl	chSchWakeupS
 225              	.LVL27:
 226              	.LBB9:
ARM GAS  /tmp/ccuWE9t2.s 			page 5


 227              		.loc 1 152 0
 228 0030 0023     		movs	r3, #0
 229              	.LVL28:
 230              	@ 152 "../../os/kernel/src/chdynamic.c" 1
 231 0032 83F31188 		msr     BASEPRI, r3
 232              	@ 0 "" 2
 233              	.LVL29:
 234              		.thumb
 235              	.L9:
 236              	.LBE9:
 237              		.loc 1 154 0
 238 0036 2046     		mov	r0, r4
 239 0038 02B0     		add	sp, sp, #8
 240 003a 70BD     		pop	{r4, r5, r6, pc}
 241              	.LVL30:
 242              	.L10:
 243              		.loc 1 137 0
 244 003c 0446     		mov	r4, r0
 245              	.LVL31:
 246 003e FAE7     		b	.L9
 247              		.cfi_endproc
 248              	.LFE9:
 249              		.size	chThdCreateFromHeap, .-chThdCreateFromHeap
 250              		.section	.text.chThdCreateFromMemoryPool,"ax",%progbits
 251              		.align	2
 252              		.p2align 4,,15
 253              		.global	chThdCreateFromMemoryPool
 254              		.thumb
 255              		.thumb_func
 256              		.type	chThdCreateFromMemoryPool, %function
 257              	chThdCreateFromMemoryPool:
 258              	.LFB10:
 259              		.loc 1 180 0
 260              		.cfi_startproc
 261              		@ args = 0, pretend = 0, frame = 0
 262              		@ frame_needed = 0, uses_anonymous_args = 0
 263              	.LVL32:
 264 0000 F0B5     		push	{r4, r5, r6, r7, lr}
 265              	.LCFI2:
 266              		.cfi_def_cfa_offset 20
 267              		.cfi_offset 14, -4
 268              		.cfi_offset 7, -8
 269              		.cfi_offset 6, -12
 270              		.cfi_offset 5, -16
 271              		.cfi_offset 4, -20
 272 0002 83B0     		sub	sp, sp, #12
 273              	.LCFI3:
 274              		.cfi_def_cfa_offset 32
 275              		.loc 1 180 0
 276 0004 0446     		mov	r4, r0
 277 0006 0E46     		mov	r6, r1
 278 0008 1746     		mov	r7, r2
 279 000a 1D46     		mov	r5, r3
 280              		.loc 1 186 0
 281 000c FFF7FEFF 		bl	chPoolAlloc
 282              	.LVL33:
 283              		.loc 1 187 0
ARM GAS  /tmp/ccuWE9t2.s 			page 6


 284 0010 A8B1     		cbz	r0, .L13
 285              	.LBB10:
 286              		.loc 1 199 0
 287 0012 2023     		movs	r3, #32
 288              	.LVL34:
 289              	@ 199 "../../os/kernel/src/chdynamic.c" 1
 290 0014 83F31188 		msr     BASEPRI, r3
 291              	@ 0 "" 2
 292              	.LVL35:
 293              		.thumb
 294              	.LBE10:
 295              		.loc 1 200 0
 296 0018 6168     		ldr	r1, [r4, #4]
 297 001a 3B46     		mov	r3, r7
 298              	.LVL36:
 299 001c 3246     		mov	r2, r6
 300 001e 0095     		str	r5, [sp, #0]
 301 0020 FFF7FEFF 		bl	chThdCreateI
 302              	.LVL37:
 303              		.loc 1 201 0
 304 0024 0223     		movs	r3, #2
 305 0026 4377     		strb	r3, [r0, #29]
 306              		.loc 1 202 0
 307 0028 4464     		str	r4, [r0, #68]
 308              		.loc 1 203 0
 309 002a 0021     		movs	r1, #0
 310              		.loc 1 200 0
 311 002c 0546     		mov	r5, r0
 312              	.LVL38:
 313              		.loc 1 203 0
 314 002e FFF7FEFF 		bl	chSchWakeupS
 315              	.LVL39:
 316              	.LBB11:
 317              		.loc 1 204 0
 318 0032 0023     		movs	r3, #0
 319              	.LVL40:
 320              	@ 204 "../../os/kernel/src/chdynamic.c" 1
 321 0034 83F31188 		msr     BASEPRI, r3
 322              	@ 0 "" 2
 323              	.LVL41:
 324              		.thumb
 325              	.L12:
 326              	.LBE11:
 327              		.loc 1 206 0
 328 0038 2846     		mov	r0, r5
 329 003a 03B0     		add	sp, sp, #12
 330 003c F0BD     		pop	{r4, r5, r6, r7, pc}
 331              	.LVL42:
 332              	.L13:
 333              		.loc 1 188 0
 334 003e 0546     		mov	r5, r0
 335              	.LVL43:
 336 0040 FAE7     		b	.L12
 337              		.cfi_endproc
 338              	.LFE10:
 339              		.size	chThdCreateFromMemoryPool, .-chThdCreateFromMemoryPool
 340 0042 00BFAFF3 		.text
ARM GAS  /tmp/ccuWE9t2.s 			page 7


 340      0080AFF3 
 340      0080AFF3 
 340      0080
 341              	.Letext0:
 342              		.file 2 "/opt/paparazzi/arm-multilib/lib/gcc/arm-none-eabi/4.6.2/include/stddef.h"
 343              		.file 3 "/opt/paparazzi/arm-multilib/lib/gcc/arm-none-eabi/4.6.2/../../../../arm-none-eabi/include
 344              		.file 4 "../../os/ports/GCC/ARMCMx/chtypes.h"
 345              		.file 5 "../../os/kernel/include/chlists.h"
 346              		.file 6 "../../os/kernel/include/chthreads.h"
 347              		.file 7 "../../os/ports/GCC/ARMCMx/chcore_v7m.h"
 348              		.file 8 "../../os/kernel/include/chmtx.h"
 349              		.file 9 "../../os/kernel/include/chmemcore.h"
 350              		.file 10 "../../os/kernel/include/chheap.h"
 351              		.file 11 "../../os/kernel/include/chmempools.h"