ARM GAS  /tmp/cczAfI18.s 			page 1


   1              		.syntax unified
   2              		.cpu cortex-m3
   3              		.fpu softvfp
   4              		.eabi_attribute 20, 1
   5              		.eabi_attribute 21, 1
   6              		.eabi_attribute 23, 3
   7              		.eabi_attribute 24, 1
   8              		.eabi_attribute 25, 1
   9              		.eabi_attribute 26, 1
  10              		.eabi_attribute 30, 2
  11              		.eabi_attribute 18, 4
  12              		.thumb
  13              		.file	"chsem.c"
  14              		.text
  15              	.Ltext0:
  16              		.cfi_sections	.debug_frame
  17              		.section	.text.chSemInit,"ax",%progbits
  18              		.align	2
  19              		.p2align 4,,15
  20              		.global	chSemInit
  21              		.thumb
  22              		.thumb_func
  23              		.type	chSemInit, %function
  24              	chSemInit:
  25              	.LFB7:
  26              		.file 1 "../../os/kernel/src/chsem.c"
  27              		.loc 1 86 0
  28              		.cfi_startproc
  29              		@ args = 0, pretend = 0, frame = 0
  30              		@ frame_needed = 0, uses_anonymous_args = 0
  31              		@ link register save eliminated.
  32              	.LVL0:
  33              		.loc 1 90 0
  34 0000 4060     		str	r0, [r0, #4]
  35 0002 0060     		str	r0, [r0, #0]
  36              		.loc 1 91 0
  37 0004 8160     		str	r1, [r0, #8]
  38              		.loc 1 92 0
  39 0006 7047     		bx	lr
  40              		.cfi_endproc
  41              	.LFE7:
  42              		.size	chSemInit, .-chSemInit
  43 0008 AFF30080 		.section	.text.chSemResetI,"ax",%progbits
  43      AFF30080 
  44              		.align	2
  45              		.p2align 4,,15
  46              		.global	chSemResetI
  47              		.thumb
  48              		.thumb_func
  49              		.type	chSemResetI, %function
  50              	chSemResetI:
  51              	.LFB9:
  52              		.loc 1 136 0
  53              		.cfi_startproc
  54              		@ args = 0, pretend = 0, frame = 0
  55              		@ frame_needed = 0, uses_anonymous_args = 0
  56              	.LVL1:
ARM GAS  /tmp/cczAfI18.s 			page 2


  57 0000 70B5     		push	{r4, r5, r6, lr}
  58              	.LCFI0:
  59              		.cfi_def_cfa_offset 16
  60              		.cfi_offset 14, -4
  61              		.cfi_offset 6, -8
  62              		.cfi_offset 5, -12
  63              		.cfi_offset 4, -16
  64              		.loc 1 146 0
  65 0002 8568     		ldr	r5, [r0, #8]
  66              	.LVL2:
  67              		.loc 1 136 0
  68 0004 0446     		mov	r4, r0
  69              		.loc 1 148 0
  70 0006 0135     		adds	r5, r5, #1
  71 0008 002D     		cmp	r5, #0
  72              		.loc 1 147 0
  73 000a 8160     		str	r1, [r0, #8]
  74              	.LVL3:
  75              		.loc 1 148 0
  76 000c 0BDC     		bgt	.L2
  77              		.loc 1 149 0
  78 000e 6FF00106 		mvn	r6, #1
  79              	.LVL4:
  80              	.L5:
  81              	.LBB24:
  82              	.LBB25:
  83              		.file 2 "../../os/kernel/include/chinline.h"
  84              		.loc 2 67 0
  85 0012 6068     		ldr	r0, [r4, #4]
  86              	.LVL5:
  87              	.LBE25:
  88              	.LBE24:
  89              		.loc 1 148 0
  90 0014 0135     		adds	r5, r5, #1
  91              	.LVL6:
  92              	.LBB27:
  93              	.LBB26:
  94              		.loc 2 69 0
  95 0016 4368     		ldr	r3, [r0, #4]
  96 0018 6360     		str	r3, [r4, #4]
  97 001a 1C60     		str	r4, [r3, #0]
  98              	.LBE26:
  99              	.LBE27:
 100              		.loc 1 149 0
 101 001c FFF7FEFF 		bl	chSchReadyI
 102              	.LVL7:
 103              		.loc 1 148 0
 104 0020 012D     		cmp	r5, #1
 105              		.loc 1 149 0
 106 0022 4662     		str	r6, [r0, #36]
 107              	.LVL8:
 108              		.loc 1 148 0
 109 0024 F5D1     		bne	.L5
 110              	.LVL9:
 111              	.L2:
 112 0026 70BD     		pop	{r4, r5, r6, pc}
 113              		.cfi_endproc
ARM GAS  /tmp/cczAfI18.s 			page 3


 114              	.LFE9:
 115              		.size	chSemResetI, .-chSemResetI
 116 0028 AFF30080 		.section	.text.chSemReset,"ax",%progbits
 116      AFF30080 
 117              		.align	2
 118              		.p2align 4,,15
 119              		.global	chSemReset
 120              		.thumb
 121              		.thumb_func
 122              		.type	chSemReset, %function
 123              	chSemReset:
 124              	.LFB8:
 125              		.loc 1 109 0
 126              		.cfi_startproc
 127              		@ args = 0, pretend = 0, frame = 0
 128              		@ frame_needed = 0, uses_anonymous_args = 0
 129              	.LVL10:
 130 0000 08B5     		push	{r3, lr}
 131              	.LCFI1:
 132              		.cfi_def_cfa_offset 8
 133              		.cfi_offset 14, -4
 134              		.cfi_offset 3, -8
 135              	.LBB28:
 136              		.loc 1 111 0
 137 0002 2023     		movs	r3, #32
 138              	.LVL11:
 139              	@ 111 "../../os/kernel/src/chsem.c" 1
 140 0004 83F31188 		msr     BASEPRI, r3
 141              	@ 0 "" 2
 142              	.LVL12:
 143              		.thumb
 144              	.LBE28:
 145              		.loc 1 112 0
 146 0008 FFF7FEFF 		bl	chSemResetI
 147              	.LVL13:
 148              		.loc 1 113 0
 149 000c FFF7FEFF 		bl	chSchRescheduleS
 150              	.LBB29:
 151              		.loc 1 114 0
 152 0010 0023     		movs	r3, #0
 153              	.LVL14:
 154              	@ 114 "../../os/kernel/src/chsem.c" 1
 155 0012 83F31188 		msr     BASEPRI, r3
 156              	@ 0 "" 2
 157              	.LVL15:
 158              		.thumb
 159              	.LBE29:
 160              		.loc 1 115 0
 161 0016 08BD     		pop	{r3, pc}
 162              		.cfi_endproc
 163              	.LFE8:
 164              		.size	chSemReset, .-chSemReset
 165 0018 AFF30080 		.section	.text.chSemWaitS,"ax",%progbits
 165      AFF30080 
 166              		.align	2
 167              		.p2align 4,,15
 168              		.global	chSemWaitS
ARM GAS  /tmp/cczAfI18.s 			page 4


 169              		.thumb
 170              		.thumb_func
 171              		.type	chSemWaitS, %function
 172              	chSemWaitS:
 173              	.LFB11:
 174              		.loc 1 185 0
 175              		.cfi_startproc
 176              		@ args = 0, pretend = 0, frame = 0
 177              		@ frame_needed = 0, uses_anonymous_args = 0
 178              	.LVL16:
 179              		.loc 1 194 0
 180 0000 8268     		ldr	r2, [r0, #8]
 181              		.loc 1 185 0
 182 0002 10B5     		push	{r4, lr}
 183              	.LCFI2:
 184              		.cfi_def_cfa_offset 8
 185              		.cfi_offset 14, -4
 186              		.cfi_offset 4, -8
 187              		.loc 1 194 0
 188 0004 013A     		subs	r2, r2, #1
 189 0006 002A     		cmp	r2, #0
 190              		.loc 1 185 0
 191 0008 0346     		mov	r3, r0
 192              		.loc 1 194 0
 193 000a 8260     		str	r2, [r0, #8]
 194 000c 01DB     		blt	.L12
 195              		.loc 1 200 0
 196 000e 0020     		movs	r0, #0
 197              	.LVL17:
 198              		.loc 1 201 0
 199 0010 10BD     		pop	{r4, pc}
 200              	.L12:
 201              		.loc 1 195 0
 202 0012 074C     		ldr	r4, .L13
 203              		.loc 1 197 0
 204 0014 0320     		movs	r0, #3
 205              		.loc 1 195 0
 206 0016 A269     		ldr	r2, [r4, #24]
 207 0018 5362     		str	r3, [r2, #36]
 208              	.LVL18:
 209              	.LBB30:
 210              	.LBB31:
 211              		.loc 2 55 0
 212 001a 5968     		ldr	r1, [r3, #4]
 213              		.loc 2 54 0
 214 001c 1360     		str	r3, [r2, #0]
 215              		.loc 2 55 0
 216 001e 5160     		str	r1, [r2, #4]
 217              		.loc 2 56 0
 218 0020 5A60     		str	r2, [r3, #4]
 219 0022 0A60     		str	r2, [r1, #0]
 220              	.LBE31:
 221              	.LBE30:
 222              		.loc 1 197 0
 223 0024 FFF7FEFF 		bl	chSchGoSleepS
 224              	.LVL19:
 225              		.loc 1 198 0
ARM GAS  /tmp/cczAfI18.s 			page 5


 226 0028 A369     		ldr	r3, [r4, #24]
 227 002a 586A     		ldr	r0, [r3, #36]
 228 002c 10BD     		pop	{r4, pc}
 229              	.L14:
 230 002e 00BF     		.align	2
 231              	.L13:
 232 0030 00000000 		.word	rlist
 233              		.cfi_endproc
 234              	.LFE11:
 235              		.size	chSemWaitS, .-chSemWaitS
 236 0034 AFF30080 		.section	.text.chSemWait,"ax",%progbits
 236      AFF30080 
 236      AFF30080 
 237              		.align	2
 238              		.p2align 4,,15
 239              		.global	chSemWait
 240              		.thumb
 241              		.thumb_func
 242              		.type	chSemWait, %function
 243              	chSemWait:
 244              	.LFB10:
 245              		.loc 1 164 0
 246              		.cfi_startproc
 247              		@ args = 0, pretend = 0, frame = 0
 248              		@ frame_needed = 0, uses_anonymous_args = 0
 249              	.LVL20:
 250 0000 08B5     		push	{r3, lr}
 251              	.LCFI3:
 252              		.cfi_def_cfa_offset 8
 253              		.cfi_offset 14, -4
 254              		.cfi_offset 3, -8
 255              	.LBB32:
 256              		.loc 1 167 0
 257 0002 2023     		movs	r3, #32
 258              	.LVL21:
 259              	@ 167 "../../os/kernel/src/chsem.c" 1
 260 0004 83F31188 		msr     BASEPRI, r3
 261              	@ 0 "" 2
 262              	.LVL22:
 263              		.thumb
 264              	.LBE32:
 265              		.loc 1 168 0
 266 0008 FFF7FEFF 		bl	chSemWaitS
 267              	.LVL23:
 268              	.LBB33:
 269              		.loc 1 169 0
 270 000c 0023     		movs	r3, #0
 271              	.LVL24:
 272              	@ 169 "../../os/kernel/src/chsem.c" 1
 273 000e 83F31188 		msr     BASEPRI, r3
 274              	@ 0 "" 2
 275              	.LVL25:
 276              		.thumb
 277              	.LBE33:
 278              		.loc 1 171 0
 279 0012 08BD     		pop	{r3, pc}
 280              		.cfi_endproc
ARM GAS  /tmp/cczAfI18.s 			page 6


 281              	.LFE10:
 282              		.size	chSemWait, .-chSemWait
 283 0014 AFF30080 		.section	.text.chSemWaitTimeoutS,"ax",%progbits
 283      AFF30080 
 283      AFF30080 
 284              		.align	2
 285              		.p2align 4,,15
 286              		.global	chSemWaitTimeoutS
 287              		.thumb
 288              		.thumb_func
 289              		.type	chSemWaitTimeoutS, %function
 290              	chSemWaitTimeoutS:
 291              	.LFB13:
 292              		.loc 1 250 0
 293              		.cfi_startproc
 294              		@ args = 0, pretend = 0, frame = 0
 295              		@ frame_needed = 0, uses_anonymous_args = 0
 296              		@ link register save eliminated.
 297              	.LVL26:
 298 0000 0346     		mov	r3, r0
 299              		.loc 1 259 0
 300 0002 8068     		ldr	r0, [r0, #8]
 301              	.LVL27:
 302              		.loc 1 250 0
 303 0004 10B4     		push	{r4}
 304              	.LCFI4:
 305              		.cfi_def_cfa_offset 4
 306              		.cfi_offset 4, -4
 307              		.loc 1 259 0
 308 0006 421E     		subs	r2, r0, #1
 309 0008 002A     		cmp	r2, #0
 310              		.loc 1 250 0
 311 000a 0C46     		mov	r4, r1
 312              		.loc 1 259 0
 313 000c 9A60     		str	r2, [r3, #8]
 314 000e 02DB     		blt	.L20
 315              		.loc 1 268 0
 316 0010 0020     		movs	r0, #0
 317              	.L17:
 318              		.loc 1 269 0
 319 0012 10BC     		pop	{r4}
 320 0014 7047     		bx	lr
 321              	.L20:
 322              		.loc 1 260 0
 323 0016 59B1     		cbz	r1, .L21
 324              		.loc 1 264 0
 325 0018 074A     		ldr	r2, .L22
 326              		.loc 1 266 0
 327 001a 0320     		movs	r0, #3
 328              		.loc 1 264 0
 329 001c 9269     		ldr	r2, [r2, #24]
 330 001e 5362     		str	r3, [r2, #36]
 331              	.LVL28:
 332              	.LBB34:
 333              	.LBB35:
 334              		.loc 2 55 0
 335 0020 5C68     		ldr	r4, [r3, #4]
ARM GAS  /tmp/cczAfI18.s 			page 7


 336 0022 82E81800 		stmia	r2, {r3, r4}
 337              		.loc 2 56 0
 338 0026 5A60     		str	r2, [r3, #4]
 339 0028 2260     		str	r2, [r4, #0]
 340              	.LBE35:
 341              	.LBE34:
 342              		.loc 1 269 0
 343 002a 10BC     		pop	{r4}
 344              		.loc 1 266 0
 345 002c FFF7FEBF 		b	chSchGoSleepTimeoutS
 346              	.LVL29:
 347              	.L21:
 348              		.loc 1 261 0
 349 0030 9860     		str	r0, [r3, #8]
 350              		.loc 1 262 0
 351 0032 4FF0FF30 		mov	r0, #-1
 352 0036 ECE7     		b	.L17
 353              	.L23:
 354              		.align	2
 355              	.L22:
 356 0038 00000000 		.word	rlist
 357              		.cfi_endproc
 358              	.LFE13:
 359              		.size	chSemWaitTimeoutS, .-chSemWaitTimeoutS
 360 003c AFF30080 		.section	.text.chSemWaitTimeout,"ax",%progbits
 361              		.align	2
 362              		.p2align 4,,15
 363              		.global	chSemWaitTimeout
 364              		.thumb
 365              		.thumb_func
 366              		.type	chSemWaitTimeout, %function
 367              	chSemWaitTimeout:
 368              	.LFB12:
 369              		.loc 1 222 0
 370              		.cfi_startproc
 371              		@ args = 0, pretend = 0, frame = 0
 372              		@ frame_needed = 0, uses_anonymous_args = 0
 373              	.LVL30:
 374 0000 08B5     		push	{r3, lr}
 375              	.LCFI5:
 376              		.cfi_def_cfa_offset 8
 377              		.cfi_offset 14, -4
 378              		.cfi_offset 3, -8
 379              	.LBB36:
 380              		.loc 1 225 0
 381 0002 2023     		movs	r3, #32
 382              	.LVL31:
 383              	@ 225 "../../os/kernel/src/chsem.c" 1
 384 0004 83F31188 		msr     BASEPRI, r3
 385              	@ 0 "" 2
 386              	.LVL32:
 387              		.thumb
 388              	.LBE36:
 389              		.loc 1 226 0
 390 0008 FFF7FEFF 		bl	chSemWaitTimeoutS
 391              	.LVL33:
 392              	.LBB37:
ARM GAS  /tmp/cczAfI18.s 			page 8


 393              		.loc 1 227 0
 394 000c 0023     		movs	r3, #0
 395              	.LVL34:
 396              	@ 227 "../../os/kernel/src/chsem.c" 1
 397 000e 83F31188 		msr     BASEPRI, r3
 398              	@ 0 "" 2
 399              	.LVL35:
 400              		.thumb
 401              	.LBE37:
 402              		.loc 1 229 0
 403 0012 08BD     		pop	{r3, pc}
 404              		.cfi_endproc
 405              	.LFE12:
 406              		.size	chSemWaitTimeout, .-chSemWaitTimeout
 407 0014 AFF30080 		.section	.text.chSemSignal,"ax",%progbits
 407      AFF30080 
 407      AFF30080 
 408              		.align	2
 409              		.p2align 4,,15
 410              		.global	chSemSignal
 411              		.thumb
 412              		.thumb_func
 413              		.type	chSemSignal, %function
 414              	chSemSignal:
 415              	.LFB14:
 416              		.loc 1 278 0
 417              		.cfi_startproc
 418              		@ args = 0, pretend = 0, frame = 0
 419              		@ frame_needed = 0, uses_anonymous_args = 0
 420              	.LVL36:
 421 0000 08B5     		push	{r3, lr}
 422              	.LCFI6:
 423              		.cfi_def_cfa_offset 8
 424              		.cfi_offset 14, -4
 425              		.cfi_offset 3, -8
 426              		.loc 1 278 0
 427 0002 0246     		mov	r2, r0
 428              	.LBB38:
 429              		.loc 1 286 0
 430 0004 2023     		movs	r3, #32
 431              	.LVL37:
 432              	@ 286 "../../os/kernel/src/chsem.c" 1
 433 0006 83F31188 		msr     BASEPRI, r3
 434              	@ 0 "" 2
 435              	.LVL38:
 436              		.thumb
 437              	.LBE38:
 438              		.loc 1 287 0
 439 000a 8368     		ldr	r3, [r0, #8]
 440              	.LVL39:
 441 000c 0133     		adds	r3, r3, #1
 442 000e 002B     		cmp	r3, #0
 443 0010 8360     		str	r3, [r0, #8]
 444 0012 03DD     		ble	.L27
 445              	.LVL40:
 446              	.L26:
 447              	.LBB39:
ARM GAS  /tmp/cczAfI18.s 			page 9


 448              		.loc 1 289 0
 449 0014 0023     		movs	r3, #0
 450              	.LVL41:
 451              	@ 289 "../../os/kernel/src/chsem.c" 1
 452 0016 83F31188 		msr     BASEPRI, r3
 453              	@ 0 "" 2
 454              	.LVL42:
 455              		.thumb
 456              	.LBE39:
 457              		.loc 1 290 0
 458 001a 08BD     		pop	{r3, pc}
 459              	.LVL43:
 460              	.L27:
 461              	.LBB40:
 462              	.LBB41:
 463              		.loc 2 60 0
 464 001c 0068     		ldr	r0, [r0, #0]
 465              	.LVL44:
 466              	.LBE41:
 467              	.LBE40:
 468              		.loc 1 288 0
 469 001e 0021     		movs	r1, #0
 470              	.LBB43:
 471              	.LBB42:
 472              		.loc 2 62 0
 473 0020 0368     		ldr	r3, [r0, #0]
 474 0022 1360     		str	r3, [r2, #0]
 475 0024 5A60     		str	r2, [r3, #4]
 476              	.LBE42:
 477              	.LBE43:
 478              		.loc 1 288 0
 479 0026 FFF7FEFF 		bl	chSchWakeupS
 480              	.LVL45:
 481 002a F3E7     		b	.L26
 482              		.cfi_endproc
 483              	.LFE14:
 484              		.size	chSemSignal, .-chSemSignal
 485 002c AFF30080 		.section	.text.chSemSignalI,"ax",%progbits
 486              		.align	2
 487              		.p2align 4,,15
 488              		.global	chSemSignalI
 489              		.thumb
 490              		.thumb_func
 491              		.type	chSemSignalI, %function
 492              	chSemSignalI:
 493              	.LFB15:
 494              		.loc 1 303 0
 495              		.cfi_startproc
 496              		@ args = 0, pretend = 0, frame = 0
 497              		@ frame_needed = 0, uses_anonymous_args = 0
 498              		@ link register save eliminated.
 499              	.LVL46:
 500              		.loc 1 312 0
 501 0000 8268     		ldr	r2, [r0, #8]
 502              		.loc 1 303 0
 503 0002 0346     		mov	r3, r0
 504              		.loc 1 312 0
ARM GAS  /tmp/cczAfI18.s 			page 10


 505 0004 0132     		adds	r2, r2, #1
 506 0006 002A     		cmp	r2, #0
 507 0008 8260     		str	r2, [r0, #8]
 508 000a 00DD     		ble	.L30
 509 000c 7047     		bx	lr
 510              	.L30:
 511              	.LVL47:
 512              	.LBB44:
 513              	.LBB45:
 514              	.LBB46:
 515              		.loc 2 60 0
 516 000e 0268     		ldr	r2, [r0, #0]
 517              	.LVL48:
 518              		.loc 2 62 0
 519 0010 1168     		ldr	r1, [r2, #0]
 520              	.LBE46:
 521              	.LBE45:
 522              		.loc 1 317 0
 523 0012 1046     		mov	r0, r2
 524              	.LVL49:
 525              	.LBB48:
 526              	.LBB47:
 527              		.loc 2 62 0
 528 0014 1960     		str	r1, [r3, #0]
 529 0016 4B60     		str	r3, [r1, #4]
 530              	.LBE47:
 531              	.LBE48:
 532              		.loc 1 316 0
 533 0018 0023     		movs	r3, #0
 534              	.LVL50:
 535 001a 5362     		str	r3, [r2, #36]
 536              	.LBE44:
 537              		.loc 1 319 0
 538              	.LBB49:
 539              		.loc 1 317 0
 540 001c FFF7FEBF 		b	chSchReadyI
 541              	.LVL51:
 542              	.LVL52:
 543              	.LBE49:
 544              		.cfi_endproc
 545              	.LFE15:
 546              		.size	chSemSignalI, .-chSemSignalI
 547              		.section	.text.chSemAddCounterI,"ax",%progbits
 548              		.align	2
 549              		.p2align 4,,15
 550              		.global	chSemAddCounterI
 551              		.thumb
 552              		.thumb_func
 553              		.type	chSemAddCounterI, %function
 554              	chSemAddCounterI:
 555              	.LFB16:
 556              		.loc 1 334 0
 557              		.cfi_startproc
 558              		@ args = 0, pretend = 0, frame = 0
 559              		@ frame_needed = 0, uses_anonymous_args = 0
 560              	.LVL53:
 561 0000 70B5     		push	{r4, r5, r6, lr}
ARM GAS  /tmp/cczAfI18.s 			page 11


 562              	.LCFI7:
 563              		.cfi_def_cfa_offset 16
 564              		.cfi_offset 14, -4
 565              		.cfi_offset 6, -8
 566              		.cfi_offset 5, -12
 567              		.cfi_offset 4, -16
 568              		.loc 1 343 0
 569 0002 0D1E     		subs	r5, r1, #0
 570              		.loc 1 334 0
 571 0004 0446     		mov	r4, r0
 572              		.loc 1 343 0
 573 0006 11DD     		ble	.L31
 574              		.loc 1 345 0
 575 0008 0026     		movs	r6, #0
 576 000a 01E0     		b	.L35
 577              	.LVL54:
 578              	.L33:
 579              		.loc 1 343 0
 580 000c 013D     		subs	r5, r5, #1
 581              	.LVL55:
 582 000e 0DD0     		beq	.L31
 583              	.LVL56:
 584              	.L35:
 585              		.loc 1 344 0
 586 0010 A368     		ldr	r3, [r4, #8]
 587 0012 0133     		adds	r3, r3, #1
 588 0014 002B     		cmp	r3, #0
 589 0016 A360     		str	r3, [r4, #8]
 590 0018 F8DC     		bgt	.L33
 591              	.LVL57:
 592              	.LBB50:
 593              	.LBB51:
 594              		.loc 2 60 0
 595 001a 2068     		ldr	r0, [r4, #0]
 596              	.LVL58:
 597              		.loc 2 62 0
 598 001c 0368     		ldr	r3, [r0, #0]
 599 001e 2360     		str	r3, [r4, #0]
 600 0020 5C60     		str	r4, [r3, #4]
 601              	.LBE51:
 602              	.LBE50:
 603              		.loc 1 345 0
 604 0022 FFF7FEFF 		bl	chSchReadyI
 605              	.LVL59:
 606              		.loc 1 343 0
 607 0026 013D     		subs	r5, r5, #1
 608              		.loc 1 345 0
 609 0028 4662     		str	r6, [r0, #36]
 610              		.loc 1 343 0
 611 002a F1D1     		bne	.L35
 612              	.LVL60:
 613              	.L31:
 614 002c 70BD     		pop	{r4, r5, r6, pc}
 615              		.cfi_endproc
 616              	.LFE16:
 617              		.size	chSemAddCounterI, .-chSemAddCounterI
 618 002e 00BF     		.section	.text.chSemSignalWait,"ax",%progbits
ARM GAS  /tmp/cczAfI18.s 			page 12


 619              		.align	2
 620              		.p2align 4,,15
 621              		.global	chSemSignalWait
 622              		.thumb
 623              		.thumb_func
 624              		.type	chSemSignalWait, %function
 625              	chSemSignalWait:
 626              	.LFB17:
 627              		.loc 1 366 0
 628              		.cfi_startproc
 629              		@ args = 0, pretend = 0, frame = 8
 630              		@ frame_needed = 0, uses_anonymous_args = 0
 631              	.LVL61:
 632 0000 10B5     		push	{r4, lr}
 633              	.LCFI8:
 634              		.cfi_def_cfa_offset 8
 635              		.cfi_offset 14, -4
 636              		.cfi_offset 4, -8
 637 0002 0246     		mov	r2, r0
 638 0004 82B0     		sub	sp, sp, #8
 639              	.LCFI9:
 640              		.cfi_def_cfa_offset 16
 641              	.LBB52:
 642              		.loc 1 379 0
 643 0006 2023     		movs	r3, #32
 644              	.LVL62:
 645              	@ 379 "../../os/kernel/src/chsem.c" 1
 646 0008 83F31188 		msr     BASEPRI, r3
 647              	@ 0 "" 2
 648              	.LVL63:
 649              		.thumb
 650              	.LBE52:
 651              		.loc 1 380 0
 652 000c 8368     		ldr	r3, [r0, #8]
 653              	.LVL64:
 654 000e 0133     		adds	r3, r3, #1
 655 0010 002B     		cmp	r3, #0
 656 0012 8360     		str	r3, [r0, #8]
 657 0014 19DD     		ble	.L41
 658              	.LVL65:
 659              	.L38:
 660              		.loc 1 382 0
 661 0016 8B68     		ldr	r3, [r1, #8]
 662 0018 013B     		subs	r3, r3, #1
 663 001a 002B     		cmp	r3, #0
 664 001c 8B60     		str	r3, [r1, #8]
 665 001e 07DB     		blt	.L42
 666              		.loc 1 390 0
 667 0020 FFF7FEFF 		bl	chSchRescheduleS
 668              	.LVL66:
 669              		.loc 1 391 0
 670 0024 0020     		movs	r0, #0
 671              	.LVL67:
 672              	.L40:
 673              	.LBB53:
 674              		.loc 1 393 0
 675 0026 0023     		movs	r3, #0
ARM GAS  /tmp/cczAfI18.s 			page 13


 676              	.LVL68:
 677              	@ 393 "../../os/kernel/src/chsem.c" 1
 678 0028 83F31188 		msr     BASEPRI, r3
 679              	@ 0 "" 2
 680              	.LVL69:
 681              		.thumb
 682              	.LBE53:
 683              		.loc 1 395 0
 684 002c 02B0     		add	sp, sp, #8
 685 002e 10BD     		pop	{r4, pc}
 686              	.LVL70:
 687              	.L42:
 688              	.LBB54:
 689              		.loc 1 383 0
 690 0030 0B4A     		ldr	r2, .L43
 691              	.LBB55:
 692              	.LBB56:
 693              		.loc 2 55 0
 694 0032 4B68     		ldr	r3, [r1, #4]
 695              	.LBE56:
 696              	.LBE55:
 697              		.loc 1 383 0
 698 0034 9469     		ldr	r4, [r2, #24]
 699              	.LVL71:
 700              		.loc 1 386 0
 701 0036 0320     		movs	r0, #3
 702              	.LBB58:
 703              	.LBB57:
 704              		.loc 2 55 0
 705 0038 84E80A00 		stmia	r4, {r1, r3}
 706              		.loc 2 56 0
 707 003c 4C60     		str	r4, [r1, #4]
 708 003e 1C60     		str	r4, [r3, #0]
 709              	.LBE57:
 710              	.LBE58:
 711              		.loc 1 385 0
 712 0040 6162     		str	r1, [r4, #36]
 713              		.loc 1 386 0
 714 0042 FFF7FEFF 		bl	chSchGoSleepS
 715              	.LVL72:
 716              		.loc 1 387 0
 717 0046 606A     		ldr	r0, [r4, #36]
 718              	.LVL73:
 719 0048 EDE7     		b	.L40
 720              	.LVL74:
 721              	.L41:
 722              	.LBE54:
 723              	.LBB59:
 724              	.LBB60:
 725              		.loc 2 60 0
 726 004a 0068     		ldr	r0, [r0, #0]
 727              	.LVL75:
 728              		.loc 2 62 0
 729 004c 0368     		ldr	r3, [r0, #0]
 730 004e 1360     		str	r3, [r2, #0]
 731 0050 5A60     		str	r2, [r3, #4]
 732              	.LBE60:
ARM GAS  /tmp/cczAfI18.s 			page 14


 733              	.LBE59:
 734              		.loc 1 381 0
 735 0052 0191     		str	r1, [sp, #4]
 736 0054 FFF7FEFF 		bl	chSchReadyI
 737              	.LVL76:
 738 0058 0023     		movs	r3, #0
 739 005a 4362     		str	r3, [r0, #36]
 740 005c 0199     		ldr	r1, [sp, #4]
 741 005e DAE7     		b	.L38
 742              	.L44:
 743              		.align	2
 744              	.L43:
 745 0060 00000000 		.word	rlist
 746              		.cfi_endproc
 747              	.LFE17:
 748              		.size	chSemSignalWait, .-chSemSignalWait
 749 0064 AFF30080 		.text
 749      AFF30080 
 749      AFF30080 
 750              	.Letext0:
 751              		.file 3 "/opt/paparazzi/arm-multilib/lib/gcc/arm-none-eabi/4.6.2/../../../../arm-none-eabi/include
 752              		.file 4 "../../os/ports/GCC/ARMCMx/chtypes.h"
 753              		.file 5 "../../os/kernel/include/chlists.h"
 754              		.file 6 "../../os/kernel/include/chthreads.h"
 755              		.file 7 "../../os/ports/GCC/ARMCMx/chcore_v7m.h"
 756              		.file 8 "../../os/kernel/include/chschd.h"
 757              		.file 9 "../../os/kernel/include/chsem.h"
 758              		.file 10 "../../os/kernel/include/chmtx.h"