ARM GAS  /tmp/cchg1o4H.s 			page 1


   1              		.syntax unified
   2              		.cpu cortex-m3
   3              		.fpu softvfp
   4              		.eabi_attribute 20, 1
   5              		.eabi_attribute 21, 1
   6              		.eabi_attribute 23, 3
   7              		.eabi_attribute 24, 1
   8              		.eabi_attribute 25, 1
   9              		.eabi_attribute 26, 1
  10              		.eabi_attribute 30, 2
  11              		.eabi_attribute 18, 4
  12              		.thumb
  13              		.file	"chvt.c"
  14              		.text
  15              	.Ltext0:
  16              		.cfi_sections	.debug_frame
  17              		.section	.text._vt_init,"ax",%progbits
  18              		.align	2
  19              		.p2align 4,,15
  20              		.global	_vt_init
  21              		.thumb
  22              		.thumb_func
  23              		.type	_vt_init, %function
  24              	_vt_init:
  25              	.LFB7:
  26              		.file 1 "../../os/kernel/src/chvt.c"
  27              		.loc 1 50 0
  28              		.cfi_startproc
  29              		@ args = 0, pretend = 0, frame = 0
  30              		@ frame_needed = 0, uses_anonymous_args = 0
  31              		@ link register save eliminated.
  32              		.loc 1 52 0
  33 0000 40F20003 		movw	r3, #:lower16:.LANCHOR0
  34 0004 C0F20003 		movt	r3, #:upper16:.LANCHOR0
  35              		.loc 1 53 0
  36 0008 4FF0FF32 		mov	r2, #-1
  37 000c 9A60     		str	r2, [r3, #8]
  38              		.loc 1 54 0
  39 000e 0022     		movs	r2, #0
  40              		.loc 1 52 0
  41 0010 5B60     		str	r3, [r3, #4]
  42 0012 1B60     		str	r3, [r3, #0]
  43              		.loc 1 54 0
  44 0014 DA60     		str	r2, [r3, #12]
  45              		.loc 1 55 0
  46 0016 7047     		bx	lr
  47              		.cfi_endproc
  48              	.LFE7:
  49              		.size	_vt_init, .-_vt_init
  50 0018 AFF30080 		.section	.text.chVTSetI,"ax",%progbits
  50      AFF30080 
  51              		.align	2
  52              		.p2align 4,,15
  53              		.global	chVTSetI
  54              		.thumb
  55              		.thumb_func
  56              		.type	chVTSetI, %function
ARM GAS  /tmp/cchg1o4H.s 			page 2


  57              	chVTSetI:
  58              	.LFB8:
  59              		.loc 1 76 0
  60              		.cfi_startproc
  61              		@ args = 0, pretend = 0, frame = 0
  62              		@ frame_needed = 0, uses_anonymous_args = 0
  63              		@ link register save eliminated.
  64              	.LVL0:
  65 0000 70B4     		push	{r4, r5, r6}
  66              	.LCFI0:
  67              		.cfi_def_cfa_offset 12
  68              		.cfi_offset 6, -4
  69              		.cfi_offset 5, -8
  70              		.cfi_offset 4, -12
  71              		.loc 1 85 0
  72 0002 0D4C     		ldr	r4, .L9
  73              		.loc 1 83 0
  74 0004 0361     		str	r3, [r0, #16]
  75              		.loc 1 85 0
  76 0006 2568     		ldr	r5, [r4, #0]
  77              	.LVL1:
  78              		.loc 1 84 0
  79 0008 C260     		str	r2, [r0, #12]
  80              		.loc 1 86 0
  81 000a AE68     		ldr	r6, [r5, #8]
  82 000c B142     		cmp	r1, r6
  83 000e 04D9     		bls	.L3
  84              	.LVL2:
  85              	.L6:
  86              		.loc 1 88 0
  87 0010 2D68     		ldr	r5, [r5, #0]
  88              	.LVL3:
  89              		.loc 1 87 0
  90 0012 891B     		subs	r1, r1, r6
  91              	.LVL4:
  92              		.loc 1 86 0
  93 0014 AE68     		ldr	r6, [r5, #8]
  94 0016 8E42     		cmp	r6, r1
  95 0018 FAD3     		bcc	.L6
  96              	.L3:
  97              		.loc 1 91 0
  98 001a 6B68     		ldr	r3, [r5, #4]
  99              	.LVL5:
 100              		.loc 1 93 0
 101 001c 8160     		str	r1, [r0, #8]
 102              		.loc 1 94 0
 103 001e A542     		cmp	r5, r4
 104              		.loc 1 91 0
 105 0020 4360     		str	r3, [r0, #4]
 106 0022 0560     		str	r5, [r0, #0]
 107              		.loc 1 92 0
 108 0024 1860     		str	r0, [r3, #0]
 109              		.loc 1 95 0
 110 0026 18BF     		it	ne
 111 0028 AB68     		ldrne	r3, [r5, #8]
 112              		.loc 1 92 0
 113 002a 6860     		str	r0, [r5, #4]
ARM GAS  /tmp/cchg1o4H.s 			page 3


 114              		.loc 1 95 0
 115 002c 1CBF     		itt	ne
 116 002e C1EB0301 		rsbne	r1, r1, r3
 117              	.LVL6:
 118 0032 A960     		strne	r1, [r5, #8]
 119              		.loc 1 96 0
 120 0034 70BC     		pop	{r4, r5, r6}
 121 0036 7047     		bx	lr
 122              	.L10:
 123              		.align	2
 124              	.L9:
 125 0038 00000000 		.word	.LANCHOR0
 126              		.cfi_endproc
 127              	.LFE8:
 128              		.size	chVTSetI, .-chVTSetI
 129 003c AFF30080 		.section	.text.chVTResetI,"ax",%progbits
 130              		.align	2
 131              		.p2align 4,,15
 132              		.global	chVTResetI
 133              		.thumb
 134              		.thumb_func
 135              		.type	chVTResetI, %function
 136              	chVTResetI:
 137              	.LFB9:
 138              		.loc 1 106 0
 139              		.cfi_startproc
 140              		@ args = 0, pretend = 0, frame = 0
 141              		@ frame_needed = 0, uses_anonymous_args = 0
 142              		@ link register save eliminated.
 143              	.LVL7:
 144              		.loc 1 114 0
 145 0000 0368     		ldr	r3, [r0, #0]
 146 0002 074A     		ldr	r2, .L13
 147 0004 9342     		cmp	r3, r2
 148              		.loc 1 115 0
 149 0006 1FBF     		itttt	ne
 150 0008 9968     		ldrne	r1, [r3, #8]
 151 000a 8268     		ldrne	r2, [r0, #8]
 152 000c 8A18     		addne	r2, r1, r2
 153 000e 9A60     		strne	r2, [r3, #8]
 154              		.loc 1 116 0
 155 0010 4268     		ldr	r2, [r0, #4]
 156              		.loc 1 118 0
 157 0012 0021     		movs	r1, #0
 158              		.loc 1 116 0
 159 0014 1360     		str	r3, [r2, #0]
 160              		.loc 1 117 0
 161 0016 0368     		ldr	r3, [r0, #0]
 162              		.loc 1 118 0
 163 0018 C160     		str	r1, [r0, #12]
 164              		.loc 1 117 0
 165 001a 5A60     		str	r2, [r3, #4]
 166              		.loc 1 119 0
 167 001c 7047     		bx	lr
 168              	.L14:
 169 001e 00BF     		.align	2
 170              	.L13:
ARM GAS  /tmp/cchg1o4H.s 			page 4


 171 0020 00000000 		.word	.LANCHOR0
 172              		.cfi_endproc
 173              	.LFE9:
 174              		.size	chVTResetI, .-chVTResetI
 175 0024 AFF30080 		.section	.text.chTimeIsWithin,"ax",%progbits
 175      AFF30080 
 175      AFF30080 
 176              		.align	2
 177              		.p2align 4,,15
 178              		.global	chTimeIsWithin
 179              		.thumb
 180              		.thumb_func
 181              		.type	chTimeIsWithin, %function
 182              	chTimeIsWithin:
 183              	.LFB10:
 184              		.loc 1 134 0
 185              		.cfi_startproc
 186              		@ args = 0, pretend = 0, frame = 0
 187              		@ frame_needed = 0, uses_anonymous_args = 0
 188              		@ link register save eliminated.
 189              	.LVL8:
 190              		.loc 1 136 0
 191 0000 0B4A     		ldr	r2, .L19
 192              		.loc 1 137 0
 193 0002 8142     		cmp	r1, r0
 194              		.loc 1 134 0
 195 0004 0346     		mov	r3, r0
 196              		.loc 1 136 0
 197 0006 D268     		ldr	r2, [r2, #12]
 198              	.LVL9:
 199              		.loc 1 137 0
 200 0008 09D8     		bhi	.L18
 201              		.loc 1 138 0 discriminator 2
 202 000a 8242     		cmp	r2, r0
 203 000c 34BF     		ite	cc
 204 000e 0023     		movcc	r3, #0
 205 0010 0123     		movcs	r3, #1
 206              		.loc 1 137 0 discriminator 2
 207 0012 8A42     		cmp	r2, r1
 208 0014 2CBF     		ite	cs
 209 0016 1846     		movcs	r0, r3
 210 0018 43F00100 		orrcc	r0, r3, #1
 211              	.LVL10:
 212              		.loc 1 139 0 discriminator 2
 213 001c 7047     		bx	lr
 214              	.LVL11:
 215              	.L18:
 216              		.loc 1 137 0 discriminator 1
 217 001e 8A42     		cmp	r2, r1
 218 0020 2CBF     		ite	cs
 219 0022 0020     		movcs	r0, #0
 220              	.LVL12:
 221 0024 0120     		movcc	r0, #1
 222 0026 9A42     		cmp	r2, r3
 223 0028 38BF     		it	cc
 224 002a 0020     		movcc	r0, #0
 225 002c 7047     		bx	lr
ARM GAS  /tmp/cchg1o4H.s 			page 5


 226              	.L20:
 227 002e 00BF     		.align	2
 228              	.L19:
 229 0030 00000000 		.word	.LANCHOR0
 230              		.cfi_endproc
 231              	.LFE10:
 232              		.size	chTimeIsWithin, .-chTimeIsWithin
 233              		.global	vtlist
 234 0034 AFF30080 		.section	.bss.vtlist,"aw",%nobits
 234      AFF30080 
 234      AFF30080 
 235              		.align	2
 236              		.set	.LANCHOR0,. + 0
 237              		.type	vtlist, %object
 238              		.size	vtlist, 16
 239              	vtlist:
 240 0000 00000000 		.space	16
 240      00000000 
 240      00000000 
 240      00000000 
 241              		.text
 242              	.Letext0:
 243              		.file 2 "/opt/paparazzi/arm-multilib/lib/gcc/arm-none-eabi/4.6.2/../../../../arm-none-eabi/include
 244              		.file 3 "../../os/ports/GCC/ARMCMx/chtypes.h"
 245              		.file 4 "../../os/kernel/include/chvt.h"