ARM GAS  /tmp/ccTduy6F.s 			page 1


   1              		.syntax unified
   2              		.cpu cortex-m3
   3              		.fpu softvfp
   4              		.eabi_attribute 20, 1
   5              		.eabi_attribute 21, 1
   6              		.eabi_attribute 23, 3
   7              		.eabi_attribute 24, 1
   8              		.eabi_attribute 25, 1
   9              		.eabi_attribute 26, 1
  10              		.eabi_attribute 30, 2
  11              		.eabi_attribute 18, 4
  12              		.thumb
  13              		.file	"hal.c"
  14              		.text
  15              	.Ltext0:
  16              		.cfi_sections	.debug_frame
  17              		.section	.text.halInit,"ax",%progbits
  18              		.align	2
  19              		.p2align 4,,15
  20              		.global	halInit
  21              		.thumb
  22              		.thumb_func
  23              		.type	halInit, %function
  24              	halInit:
  25              	.LFB63:
  26              		.file 1 "../../os/hal/src/hal.c"
  27              		.loc 1 68 0
  28              		.cfi_startproc
  29              		@ args = 0, pretend = 0, frame = 0
  30              		@ frame_needed = 0, uses_anonymous_args = 0
  31 0000 08B5     		push	{r3, lr}
  32              	.LCFI0:
  33              		.cfi_def_cfa_offset 8
  34              		.cfi_offset 14, -4
  35              		.cfi_offset 3, -8
  36              		.loc 1 70 0
  37 0002 FFF7FEFF 		bl	hal_lld_init
  38              		.loc 1 73 0
  39 0006 FFF7FEFF 		bl	tmInit
  40              		.loc 1 76 0
  41 000a 40F20000 		movw	r0, #:lower16:pal_default_config
  42 000e C0F20000 		movt	r0, #:upper16:pal_default_config
  43 0012 FFF7FEFF 		bl	_pal_lld_init
  44              		.loc 1 103 0
  45 0016 FFF7FEFF 		bl	sdInit
  46              		.loc 1 128 0
  47 001a BDE80840 		pop	{r3, lr}
  48              		.loc 1 127 0
  49 001e FFF7FEBF 		b	boardInit
  50              		.cfi_endproc
  51              	.LFE63:
  52              		.size	halInit, .-halInit
  53 0022 00BFAFF3 		.section	.text.halIsCounterWithin,"ax",%progbits
  53      0080AFF3 
  53      0080AFF3 
  53      0080
  54              		.align	2
ARM GAS  /tmp/ccTduy6F.s 			page 2


  55              		.p2align 4,,15
  56              		.global	halIsCounterWithin
  57              		.thumb
  58              		.thumb_func
  59              		.type	halIsCounterWithin, %function
  60              	halIsCounterWithin:
  61              	.LFB64:
  62              		.loc 1 174 0
  63              		.cfi_startproc
  64              		@ args = 0, pretend = 0, frame = 0
  65              		@ frame_needed = 0, uses_anonymous_args = 0
  66              		@ link register save eliminated.
  67              	.LVL0:
  68              		.loc 1 175 0
  69 0000 4FF48053 		mov	r3, #4096
  70 0004 CEF20003 		movt	r3, 57344
  71              		.loc 1 177 0
  72 0008 8142     		cmp	r1, r0
  73              		.loc 1 174 0
  74 000a 0246     		mov	r2, r0
  75              		.loc 1 175 0
  76 000c 5B68     		ldr	r3, [r3, #4]
  77              	.LVL1:
  78              		.loc 1 177 0
  79 000e 09D8     		bhi	.L6
  80              		.loc 1 178 0 discriminator 2
  81 0010 8342     		cmp	r3, r0
  82 0012 34BF     		ite	cc
  83 0014 0022     		movcc	r2, #0
  84 0016 0122     		movcs	r2, #1
  85              		.loc 1 177 0 discriminator 2
  86 0018 8B42     		cmp	r3, r1
  87 001a 2CBF     		ite	cs
  88 001c 1046     		movcs	r0, r2
  89 001e 42F00100 		orrcc	r0, r2, #1
  90              	.LVL2:
  91              		.loc 1 179 0 discriminator 2
  92 0022 7047     		bx	lr
  93              	.LVL3:
  94              	.L6:
  95              		.loc 1 177 0 discriminator 1
  96 0024 8B42     		cmp	r3, r1
  97 0026 2CBF     		ite	cs
  98 0028 0020     		movcs	r0, #0
  99              	.LVL4:
 100 002a 0120     		movcc	r0, #1
 101 002c 9342     		cmp	r3, r2
 102 002e 38BF     		it	cc
 103 0030 0020     		movcc	r0, #0
 104 0032 7047     		bx	lr
 105              		.cfi_endproc
 106              	.LFE64:
 107              		.size	halIsCounterWithin, .-halIsCounterWithin
 108 0034 AFF30080 		.section	.text.halPolledDelay,"ax",%progbits
 108      AFF30080 
 108      AFF30080 
 109              		.align	2
ARM GAS  /tmp/ccTduy6F.s 			page 3


 110              		.p2align 4,,15
 111              		.global	halPolledDelay
 112              		.thumb
 113              		.thumb_func
 114              		.type	halPolledDelay, %function
 115              	halPolledDelay:
 116              	.LFB65:
 117              		.loc 1 193 0
 118              		.cfi_startproc
 119              		@ args = 0, pretend = 0, frame = 0
 120              		@ frame_needed = 0, uses_anonymous_args = 0
 121              		@ link register save eliminated.
 122              	.LVL5:
 123              		.loc 1 194 0
 124 0000 4FF48052 		mov	r2, #4096
 125              		.loc 1 193 0
 126 0004 10B4     		push	{r4}
 127              	.LCFI1:
 128              		.cfi_def_cfa_offset 4
 129              		.cfi_offset 4, -4
 130              		.loc 1 194 0
 131 0006 CEF20002 		movt	r2, 57344
 132 000a 5368     		ldr	r3, [r2, #4]
 133              	.LVL6:
 134              		.loc 1 195 0
 135 000c C018     		adds	r0, r0, r3
 136              	.LVL7:
 137              	.L10:
 138              	.LBB4:
 139              	.LBB5:
 140              		.loc 1 177 0 discriminator 1
 141 000e 8342     		cmp	r3, r0
 142              		.loc 1 175 0 discriminator 1
 143 0010 5168     		ldr	r1, [r2, #4]
 144              	.LVL8:
 145              		.loc 1 177 0 discriminator 1
 146 0012 0AD2     		bcs	.L8
 147              		.loc 1 177 0 is_stmt 0
 148 0014 8842     		cmp	r0, r1
 149 0016 94BF     		ite	ls
 150 0018 0024     		movls	r4, #0
 151 001a 0124     		movhi	r4, #1
 152 001c 8B42     		cmp	r3, r1
 153 001e 88BF     		it	hi
 154 0020 0024     		movhi	r4, #0
 155              	.LBE5:
 156              	.LBE4:
 157              		.loc 1 196 0 is_stmt 1
 158 0022 002C     		cmp	r4, #0
 159 0024 F3D1     		bne	.L10
 160              	.L12:
 161              		.loc 1 198 0
 162 0026 10BC     		pop	{r4}
 163 0028 7047     		bx	lr
 164              	.L8:
 165              	.LBB7:
 166              	.LBB6:
ARM GAS  /tmp/ccTduy6F.s 			page 4


 167              		.loc 1 178 0
 168 002a 8B42     		cmp	r3, r1
 169 002c 8CBF     		ite	hi
 170 002e 0024     		movhi	r4, #0
 171 0030 0124     		movls	r4, #1
 172              		.loc 1 177 0
 173 0032 8842     		cmp	r0, r1
 174 0034 88BF     		it	hi
 175 0036 44F00104 		orrhi	r4, r4, #1
 176              	.LBE6:
 177              	.LBE7:
 178              		.loc 1 196 0
 179 003a 002C     		cmp	r4, #0
 180 003c E7D1     		bne	.L10
 181 003e F2E7     		b	.L12
 182              		.cfi_endproc
 183              	.LFE65:
 184              		.size	halPolledDelay, .-halPolledDelay
 185              		.text
 186              	.Letext0:
 187              		.file 2 "/opt/paparazzi/arm-multilib/lib/gcc/arm-none-eabi/4.6.2/../../../../arm-none-eabi/include
 188              		.file 3 "../../os/ports/GCC/ARMCMx/chtypes.h"
 189              		.file 4 "../../os/ports/common/ARMCMx/nvic.h"
 190              		.file 5 "../../os/hal/platforms/STM32F1xx/hal_lld.h"
 191              		.file 6 "../../os/hal/platforms/STM32/GPIOv1/pal_lld.h"
 192              		.file 7 "../../os/ports/common/ARMCMx/CMSIS/include/core_cm3.h"