ARM GAS  /tmp/cckqoN2D.s 			page 1


   1              		.syntax unified
   2              		.cpu cortex-m3
   3              		.fpu softvfp
   4              		.eabi_attribute 20, 1
   5              		.eabi_attribute 21, 1
   6              		.eabi_attribute 23, 3
   7              		.eabi_attribute 24, 1
   8              		.eabi_attribute 25, 1
   9              		.eabi_attribute 26, 1
  10              		.eabi_attribute 30, 2
  11              		.eabi_attribute 18, 4
  12              		.thumb
  13              		.file	"nvic.c"
  14              		.text
  15              	.Ltext0:
  16              		.cfi_sections	.debug_frame
  17              		.section	.text.nvicEnableVector,"ax",%progbits
  18              		.align	2
  19              		.p2align 4,,15
  20              		.global	nvicEnableVector
  21              		.thumb
  22              		.thumb_func
  23              		.type	nvicEnableVector, %function
  24              	nvicEnableVector:
  25              	.LFB7:
  26              		.file 1 "../../os/ports/common/ARMCMx/nvic.c"
  27              		.loc 1 46 0
  28              		.cfi_startproc
  29              		@ args = 0, pretend = 0, frame = 0
  30              		@ frame_needed = 0, uses_anonymous_args = 0
  31              		@ link register save eliminated.
  32              	.LVL0:
  33              		.loc 1 47 0
  34 0000 00F00303 		and	r3, r0, #3
  35 0004 DB00     		lsls	r3, r3, #3
  36              		.loc 1 49 0
  37 0006 FF22     		movs	r2, #255
  38 0008 9A40     		lsls	r2, r2, r3
  39              		.loc 1 46 0
  40 000a F0B4     		push	{r4, r5, r6, r7}
  41              	.LCFI0:
  42              		.cfi_def_cfa_offset 16
  43              		.cfi_offset 7, -4
  44              		.cfi_offset 6, -8
  45              		.cfi_offset 5, -12
  46              		.cfi_offset 4, -16
  47              		.loc 1 49 0
  48 000c 9940     		lsls	r1, r1, r3
  49              	.LVL1:
  50              		.loc 1 50 0
  51 000e 0125     		movs	r5, #1
  52 0010 00F01F03 		and	r3, r0, #31
  53 0014 9D40     		lsls	r5, r5, r3
  54              		.loc 1 49 0
  55 0016 8608     		lsrs	r6, r0, #2
  56 0018 4FF46144 		mov	r4, #57600
  57 001c CEF20004 		movt	r4, 57344
ARM GAS  /tmp/cckqoN2D.s 			page 2


  58 0020 C036     		adds	r6, r6, #192
  59 0022 54F82630 		ldr	r3, [r4, r6, lsl #2]
  60              		.loc 1 50 0
  61 0026 4009     		lsrs	r0, r0, #5
  62              	.LVL2:
  63              		.loc 1 49 0
  64 0028 23EA0203 		bic	r3, r3, r2
  65 002c 0B43     		orrs	r3, r3, r1
  66              		.loc 1 50 0
  67 002e 00F16007 		add	r7, r0, #96
  68              		.loc 1 49 0
  69 0032 44F82630 		str	r3, [r4, r6, lsl #2]
  70              		.loc 1 50 0
  71 0036 44F82750 		str	r5, [r4, r7, lsl #2]
  72              		.loc 1 51 0
  73 003a 44F82050 		str	r5, [r4, r0, lsl #2]
  74              		.loc 1 52 0
  75 003e F0BC     		pop	{r4, r5, r6, r7}
  76 0040 7047     		bx	lr
  77              		.cfi_endproc
  78              	.LFE7:
  79              		.size	nvicEnableVector, .-nvicEnableVector
  80 0042 00BFAFF3 		.section	.text.nvicDisableVector,"ax",%progbits
  80      0080AFF3 
  80      0080AFF3 
  80      0080
  81              		.align	2
  82              		.p2align 4,,15
  83              		.global	nvicDisableVector
  84              		.thumb
  85              		.thumb_func
  86              		.type	nvicDisableVector, %function
  87              	nvicDisableVector:
  88              	.LFB8:
  89              		.loc 1 60 0
  90              		.cfi_startproc
  91              		@ args = 0, pretend = 0, frame = 0
  92              		@ frame_needed = 0, uses_anonymous_args = 0
  93              		@ link register save eliminated.
  94              	.LVL3:
  95 0000 10B4     		push	{r4}
  96              	.LCFI1:
  97              		.cfi_def_cfa_offset 4
  98              		.cfi_offset 4, -4
  99              		.loc 1 63 0
 100 0002 00F01F03 		and	r3, r0, #31
 101 0006 0124     		movs	r4, #1
 102 0008 9C40     		lsls	r4, r4, r3
 103              		.loc 1 61 0
 104 000a 00F00302 		and	r2, r0, #3
 105              		.loc 1 64 0
 106 000e FF23     		movs	r3, #255
 107              		.loc 1 61 0
 108 0010 D200     		lsls	r2, r2, #3
 109              		.loc 1 64 0
 110 0012 13FA02F2 		lsls	r2, r3, r2
 111              		.loc 1 63 0
ARM GAS  /tmp/cckqoN2D.s 			page 3


 112 0016 4109     		lsrs	r1, r0, #5
 113 0018 4FF46143 		mov	r3, #57600
 114 001c CEF20003 		movt	r3, 57344
 115 0020 2031     		adds	r1, r1, #32
 116              		.loc 1 64 0
 117 0022 8008     		lsrs	r0, r0, #2
 118              	.LVL4:
 119              		.loc 1 63 0
 120 0024 43F82140 		str	r4, [r3, r1, lsl #2]
 121              		.loc 1 64 0
 122 0028 C030     		adds	r0, r0, #192
 123 002a 53F82010 		ldr	r1, [r3, r0, lsl #2]
 124 002e 21EA0202 		bic	r2, r1, r2
 125 0032 43F82020 		str	r2, [r3, r0, lsl #2]
 126              		.loc 1 65 0
 127 0036 10BC     		pop	{r4}
 128 0038 7047     		bx	lr
 129              		.cfi_endproc
 130              	.LFE8:
 131              		.size	nvicDisableVector, .-nvicDisableVector
 132 003a 00BFAFF3 		.section	.text.nvicSetSystemHandlerPriority,"ax",%progbits
 132      0080
 133              		.align	2
 134              		.p2align 4,,15
 135              		.global	nvicSetSystemHandlerPriority
 136              		.thumb
 137              		.thumb_func
 138              		.type	nvicSetSystemHandlerPriority, %function
 139              	nvicSetSystemHandlerPriority:
 140              	.LFB9:
 141              		.loc 1 74 0
 142              		.cfi_startproc
 143              		@ args = 0, pretend = 0, frame = 0
 144              		@ frame_needed = 0, uses_anonymous_args = 0
 145              		@ link register save eliminated.
 146              	.LVL5:
 147              		.loc 1 75 0
 148 0000 00F00303 		and	r3, r0, #3
 149 0004 DB00     		lsls	r3, r3, #3
 150              		.loc 1 78 0
 151 0006 FF22     		movs	r2, #255
 152 0008 9A40     		lsls	r2, r2, r3
 153 000a 9940     		lsls	r1, r1, r3
 154              	.LVL6:
 155              		.loc 1 74 0
 156 000c 10B4     		push	{r4}
 157              	.LCFI2:
 158              		.cfi_def_cfa_offset 4
 159              		.cfi_offset 4, -4
 160              		.loc 1 77 0
 161 000e 8008     		lsrs	r0, r0, #2
 162              	.LVL7:
 163 0010 4FF46D44 		mov	r4, #60672
 164 0014 CEF20004 		movt	r4, 57344
 165 0018 0630     		adds	r0, r0, #6
 166 001a 54F82030 		ldr	r3, [r4, r0, lsl #2]
 167 001e 23EA0203 		bic	r3, r3, r2
ARM GAS  /tmp/cckqoN2D.s 			page 4


 168              		.loc 1 78 0
 169 0022 0B43     		orrs	r3, r3, r1
 170              		.loc 1 77 0
 171 0024 44F82030 		str	r3, [r4, r0, lsl #2]
 172              		.loc 1 79 0
 173 0028 10BC     		pop	{r4}
 174 002a 7047     		bx	lr
 175              		.cfi_endproc
 176              	.LFE9:
 177              		.size	nvicSetSystemHandlerPriority, .-nvicSetSystemHandlerPriority
 178 002c AFF30080 		.text
 179              	.Letext0:
 180              		.file 2 "../../os/ports/common/ARMCMx/nvic.h"
 181              		.file 3 "/opt/paparazzi/arm-multilib/lib/gcc/arm-none-eabi/4.6.2/../../../../arm-none-eabi/include