ARM GAS  /tmp/ccAOcgjr.s 			page 1


   1              		.syntax unified
   2              		.cpu cortex-m3
   3              		.fpu softvfp
   4              		.eabi_attribute 20, 1
   5              		.eabi_attribute 21, 1
   6              		.eabi_attribute 23, 3
   7              		.eabi_attribute 24, 1
   8              		.eabi_attribute 25, 1
   9              		.eabi_attribute 26, 1
  10              		.eabi_attribute 30, 2
  11              		.eabi_attribute 18, 4
  12              		.thumb
  13              		.file	"pal_lld.c"
  14              		.text
  15              	.Ltext0:
  16              		.cfi_sections	.debug_frame
  17              		.section	.text._pal_lld_init,"ax",%progbits
  18              		.align	2
  19              		.p2align 4,,15
  20              		.global	_pal_lld_init
  21              		.thumb
  22              		.thumb_func
  23              		.type	_pal_lld_init, %function
  24              	_pal_lld_init:
  25              	.LFB63:
  26              		.file 1 "../../os/hal/platforms/STM32/GPIOv1/pal_lld.c"
  27              		.loc 1 77 0
  28              		.cfi_startproc
  29              		@ args = 0, pretend = 0, frame = 0
  30              		@ frame_needed = 0, uses_anonymous_args = 0
  31              		@ link register save eliminated.
  32              	.LVL0:
  33              		.loc 1 82 0
  34 0000 4FF48053 		mov	r3, #4096
  35 0004 C4F20203 		movt	r3, 16386
  36 0008 9A69     		ldr	r2, [r3, #24]
  37              		.loc 1 77 0
  38 000a 10B4     		push	{r4}
  39              	.LCFI0:
  40              		.cfi_def_cfa_offset 4
  41              		.cfi_offset 4, -4
  42              		.loc 1 82 0
  43 000c 42F07D02 		orr	r2, r2, #125
  44 0010 9A61     		str	r2, [r3, #24]
  45              		.loc 1 87 0
  46 0012 0368     		ldr	r3, [r0, #0]
  47 0014 4FF40062 		mov	r2, #2048
  48 0018 C4F20102 		movt	r2, 16385
  49 001c D360     		str	r3, [r2, #12]
  50              		.loc 1 88 0
  51 001e 8168     		ldr	r1, [r0, #8]
  52              		.loc 1 90 0
  53 0020 4FF44063 		mov	r3, #3072
  54              		.loc 1 88 0
  55 0024 5160     		str	r1, [r2, #4]
  56              		.loc 1 89 0
  57 0026 4168     		ldr	r1, [r0, #4]
ARM GAS  /tmp/ccAOcgjr.s 			page 2


  58              		.loc 1 90 0
  59 0028 C4F20103 		movt	r3, 16385
  60              		.loc 1 89 0
  61 002c 1160     		str	r1, [r2, #0]
  62              		.loc 1 90 0
  63 002e C268     		ldr	r2, [r0, #12]
  64              		.loc 1 93 0
  65 0030 4FF48051 		mov	r1, #4096
  66              		.loc 1 90 0
  67 0034 DA60     		str	r2, [r3, #12]
  68              		.loc 1 91 0
  69 0036 4269     		ldr	r2, [r0, #20]
  70              		.loc 1 93 0
  71 0038 C4F20101 		movt	r1, 16385
  72              		.loc 1 91 0
  73 003c 5A60     		str	r2, [r3, #4]
  74              		.loc 1 92 0
  75 003e 0469     		ldr	r4, [r0, #16]
  76              		.loc 1 96 0
  77 0040 4FF4A052 		mov	r2, #5120
  78              		.loc 1 92 0
  79 0044 1C60     		str	r4, [r3, #0]
  80              		.loc 1 93 0
  81 0046 8369     		ldr	r3, [r0, #24]
  82              		.loc 1 96 0
  83 0048 C4F20102 		movt	r2, 16385
  84              		.loc 1 93 0
  85 004c CB60     		str	r3, [r1, #12]
  86              		.loc 1 94 0
  87 004e 046A     		ldr	r4, [r0, #32]
  88              		.loc 1 100 0
  89 0050 4FF4C053 		mov	r3, #6144
  90              		.loc 1 94 0
  91 0054 4C60     		str	r4, [r1, #4]
  92              		.loc 1 95 0
  93 0056 C469     		ldr	r4, [r0, #28]
  94              		.loc 1 100 0
  95 0058 C4F20103 		movt	r3, 16385
  96              		.loc 1 95 0
  97 005c 0C60     		str	r4, [r1, #0]
  98              		.loc 1 96 0
  99 005e 416A     		ldr	r1, [r0, #36]
 100 0060 D160     		str	r1, [r2, #12]
 101              		.loc 1 97 0
 102 0062 C16A     		ldr	r1, [r0, #44]
 103 0064 5160     		str	r1, [r2, #4]
 104              		.loc 1 98 0
 105 0066 816A     		ldr	r1, [r0, #40]
 106 0068 1160     		str	r1, [r2, #0]
 107              		.loc 1 100 0
 108 006a 026B     		ldr	r2, [r0, #48]
 109 006c DA60     		str	r2, [r3, #12]
 110              		.loc 1 101 0
 111 006e 826B     		ldr	r2, [r0, #56]
 112 0070 5A60     		str	r2, [r3, #4]
 113              		.loc 1 102 0
 114 0072 426B     		ldr	r2, [r0, #52]
ARM GAS  /tmp/ccAOcgjr.s 			page 3


 115 0074 1A60     		str	r2, [r3, #0]
 116              		.loc 1 114 0
 117 0076 10BC     		pop	{r4}
 118 0078 7047     		bx	lr
 119              		.cfi_endproc
 120              	.LFE63:
 121              		.size	_pal_lld_init, .-_pal_lld_init
 122 007a 00BFAFF3 		.section	.text._pal_lld_setgroupmode,"ax",%progbits
 122      0080
 123              		.align	2
 124              		.p2align 4,,15
 125              		.global	_pal_lld_setgroupmode
 126              		.thumb
 127              		.thumb_func
 128              		.type	_pal_lld_setgroupmode, %function
 129              	_pal_lld_setgroupmode:
 130              	.LFB64:
 131              		.loc 1 133 0
 132              		.cfi_startproc
 133              		@ args = 0, pretend = 0, frame = 0
 134              		@ frame_needed = 0, uses_anonymous_args = 0
 135              		@ link register save eliminated.
 136              	.LVL1:
 137              		.loc 1 157 0
 138 0000 032A     		cmp	r2, #3
 139              		.loc 1 133 0
 140 0002 F0B4     		push	{r4, r5, r6, r7}
 141              	.LCFI1:
 142              		.cfi_def_cfa_offset 16
 143              		.cfi_offset 7, -4
 144              		.cfi_offset 6, -8
 145              		.cfi_offset 5, -12
 146              		.cfi_offset 4, -16
 147              		.loc 1 158 0
 148 0004 08BF     		it	eq
 149 0006 0161     		streq	r1, [r0, #16]
 150              		.loc 1 157 0
 151 0008 02D0     		beq	.L4
 152              		.loc 1 159 0
 153 000a 042A     		cmp	r2, #4
 154              		.loc 1 160 0
 155 000c 08BF     		it	eq
 156 000e 4161     		streq	r1, [r0, #20]
 157              	.L4:
 158              		.loc 1 161 0
 159 0010 114C     		ldr	r4, .L12
 160              		.loc 1 162 0
 161 0012 0023     		movs	r3, #0
 162              		.loc 1 161 0
 163 0014 A75C     		ldrb	r7, [r4, r2]	@ zero_extendqisi2
 164              	.LVL2:
 165 0016 0826     		movs	r6, #8
 166              		.loc 1 162 0
 167 0018 1C46     		mov	r4, r3
 168 001a 1A46     		mov	r2, r3
 169              	.LVL3:
 170 001c 1D46     		mov	r5, r3
ARM GAS  /tmp/ccAOcgjr.s 			page 4


 171              	.LVL4:
 172              	.L9:
 173              		.loc 1 167 0
 174 001e 2401     		lsls	r4, r4, #4
 175              		.loc 1 164 0
 176 0020 1201     		lsls	r2, r2, #4
 177              	.LVL5:
 178              		.loc 1 165 0
 179 0022 2D01     		lsls	r5, r5, #4
 180              	.LVL6:
 181              		.loc 1 166 0
 182 0024 1B01     		lsls	r3, r3, #4
 183              	.LVL7:
 184              		.loc 1 168 0
 185 0026 11F0800F 		tst	r1, #128
 186              		.loc 1 169 0
 187 002a 0CBF     		ite	eq
 188 002c 42F00F02 		orreq	r2, r2, #15
 189              	.LVL8:
 190              		.loc 1 171 0
 191 0030 3B43     		orrne	r3, r3, r7
 192              	.LVL9:
 193              		.loc 1 172 0
 194 0032 11F4004F 		tst	r1, #32768
 195              		.loc 1 173 0
 196 0036 0CBF     		ite	eq
 197 0038 45F00F05 		orreq	r5, r5, #15
 198              	.LVL10:
 199              		.loc 1 175 0
 200 003c 3C43     		orrne	r4, r4, r7
 201              	.LVL11:
 202              		.loc 1 176 0
 203 003e 4900     		lsls	r1, r1, #1
 204              	.LVL12:
 205              		.loc 1 163 0
 206 0040 013E     		subs	r6, r6, #1
 207 0042 ECD1     		bne	.L9
 208              		.loc 1 178 0
 209 0044 4168     		ldr	r1, [r0, #4]
 210              	.LVL13:
 211 0046 0D40     		ands	r5, r5, r1
 212              	.LVL14:
 213 0048 2C43     		orrs	r4, r4, r5
 214              	.LVL15:
 215 004a 4460     		str	r4, [r0, #4]
 216              		.loc 1 179 0
 217 004c 0168     		ldr	r1, [r0, #0]
 218 004e 0A40     		ands	r2, r2, r1
 219              	.LVL16:
 220 0050 1343     		orrs	r3, r3, r2
 221              	.LVL17:
 222 0052 0360     		str	r3, [r0, #0]
 223              		.loc 1 180 0
 224 0054 F0BC     		pop	{r4, r5, r6, r7}
 225 0056 7047     		bx	lr
 226              	.L13:
 227              		.align	2
ARM GAS  /tmp/ccAOcgjr.s 			page 5


 228              	.L12:
 229 0058 00000000 		.word	.LANCHOR0
 230              		.cfi_endproc
 231              	.LFE64:
 232              		.size	_pal_lld_setgroupmode, .-_pal_lld_setgroupmode
 233 005c AFF30080 		.section	.rodata.cfgtab.3245,"a",%progbits
 234              		.align	2
 235              		.set	.LANCHOR0,. + 0
 236              		.type	cfgtab.3245, %object
 237              		.size	cfgtab.3245, 18
 238              	cfgtab.3245:
 239 0000 04       		.byte	4
 240 0001 02       		.byte	2
 241 0002 04       		.byte	4
 242 0003 08       		.byte	8
 243 0004 08       		.byte	8
 244 0005 00       		.byte	0
 245 0006 03       		.byte	3
 246 0007 07       		.byte	7
 247 0008 08       		.byte	8
 248 0009 08       		.byte	8
 249 000a 08       		.byte	8
 250 000b 08       		.byte	8
 251 000c 08       		.byte	8
 252 000d 08       		.byte	8
 253 000e 08       		.byte	8
 254 000f 08       		.byte	8
 255 0010 0B       		.byte	11
 256 0011 0F       		.byte	15
 257 0012 0000     		.text
 258              	.Letext0:
 259              		.file 2 "/opt/paparazzi/arm-multilib/lib/gcc/arm-none-eabi/4.6.2/../../../../arm-none-eabi/include
 260              		.file 3 "../../os/hal/platforms/STM32F1xx/stm32f10x.h"
 261              		.file 4 "../../os/hal/platforms/STM32/GPIOv1/pal_lld.h"
 262              		.file 5 "../../os/ports/common/ARMCMx/CMSIS/include/core_cm3.h"