ARM GAS  /tmp/cckzztz6.s 			page 1


   1              		.syntax unified
   2              		.cpu cortex-m3
   3              		.fpu softvfp
   4              		.eabi_attribute 20, 1
   5              		.eabi_attribute 21, 1
   6              		.eabi_attribute 23, 3
   7              		.eabi_attribute 24, 1
   8              		.eabi_attribute 25, 1
   9              		.eabi_attribute 26, 1
  10              		.eabi_attribute 30, 2
  11              		.eabi_attribute 18, 4
  12              		.thumb
  13              		.file	"testthd.c"
  14              		.text
  15              	.Ltext0:
  16              		.cfi_sections	.debug_frame
  17              		.section	.text.thd3_execute,"ax",%progbits
  18              		.align	2
  19              		.p2align 4,,15
  20              		.thumb
  21              		.thumb_func
  22              		.type	thd3_execute, %function
  23              	thd3_execute:
  24              	.LFB10:
  25              		.file 1 "../../test/testthd.c"
  26              		.loc 1 126 0
  27              		.cfi_startproc
  28              		@ args = 0, pretend = 0, frame = 0
  29              		@ frame_needed = 0, uses_anonymous_args = 0
  30 0000 F8B5     		push	{r3, r4, r5, r6, r7, lr}
  31              	.LCFI0:
  32              		.cfi_def_cfa_offset 24
  33              		.cfi_offset 14, -4
  34              		.cfi_offset 7, -8
  35              		.cfi_offset 6, -12
  36              		.cfi_offset 5, -16
  37              		.cfi_offset 4, -20
  38              		.cfi_offset 3, -24
  39              		.loc 1 129 0
  40 0002 504E     		ldr	r6, .L5
  41 0004 B369     		ldr	r3, [r6, #24]
  42 0006 9C68     		ldr	r4, [r3, #8]
  43              	.LVL0:
  44              		.loc 1 130 0
  45 0008 651C     		adds	r5, r4, #1
  46 000a 2846     		mov	r0, r5
  47 000c FFF7FEFF 		bl	chThdSetPriority
  48              	.LVL1:
  49              		.loc 1 131 0
  50 0010 021B     		subs	r2, r0, r4
  51 0012 5142     		rsbs	r1, r2, #0
  52 0014 41EB0201 		adc	r1, r1, r2
  53              		.loc 1 130 0
  54 0018 0746     		mov	r7, r0
  55              	.LVL2:
  56              		.loc 1 131 0
  57 001a 0120     		movs	r0, #1
ARM GAS  /tmp/cckzztz6.s 			page 2


  58              	.LVL3:
  59 001c FFF7FEFF 		bl	_test_assert
  60 0020 00B1     		cbz	r0, .L4
  61              	.LVL4:
  62              	.L1:
  63 0022 F8BD     		pop	{r3, r4, r5, r6, r7, pc}
  64              	.LVL5:
  65              	.L4:
  66              		.loc 1 133 0
  67 0024 B369     		ldr	r3, [r6, #24]
  68 0026 0220     		movs	r0, #2
  69 0028 9968     		ldr	r1, [r3, #8]
  70 002a 6B1A     		subs	r3, r5, r1
  71 002c 5942     		rsbs	r1, r3, #0
  72 002e 41EB0301 		adc	r1, r1, r3
  73 0032 FFF7FEFF 		bl	_test_assert
  74 0036 0028     		cmp	r0, #0
  75 0038 F3D1     		bne	.L1
  76              		.loc 1 135 0
  77 003a 3846     		mov	r0, r7
  78 003c FFF7FEFF 		bl	chThdSetPriority
  79              	.LVL6:
  80              		.loc 1 136 0
  81 0040 C0EB050C 		rsb	ip, r0, r5
  82 0044 DCF10001 		rsbs	r1, ip, #0
  83 0048 41EB0C01 		adc	r1, r1, ip
  84 004c 0320     		movs	r0, #3
  85              	.LVL7:
  86 004e FFF7FEFF 		bl	_test_assert
  87 0052 0028     		cmp	r0, #0
  88 0054 E5D1     		bne	.L1
  89              		.loc 1 138 0
  90 0056 B369     		ldr	r3, [r6, #24]
  91 0058 0420     		movs	r0, #4
  92 005a 9968     		ldr	r1, [r3, #8]
  93 005c C4EB010E 		rsb	lr, r4, r1
  94 0060 DEF10001 		rsbs	r1, lr, #0
  95 0064 41EB0E01 		adc	r1, r1, lr
  96 0068 FFF7FEFF 		bl	_test_assert
  97 006c 0028     		cmp	r0, #0
  98 006e D8D1     		bne	.L1
  99              	.LBB2:
 100              		.loc 1 143 0
 101 0070 2023     		movs	r3, #32
 102              	.LVL8:
 103              	@ 143 "../../test/testthd.c" 1
 104 0072 83F31188 		msr     BASEPRI, r3
 105              	@ 0 "" 2
 106              	.LVL9:
 107              		.thumb
 108              	.LBE2:
 109              		.loc 1 144 0
 110 0076 B269     		ldr	r2, [r6, #24]
 111              	.LBB3:
 112              		.loc 1 145 0
 113 0078 0346     		mov	r3, r0
 114              	.LVL10:
ARM GAS  /tmp/cckzztz6.s 			page 3


 115              	.LBE3:
 116              		.loc 1 144 0
 117 007a 9168     		ldr	r1, [r2, #8]
 118 007c 0231     		adds	r1, r1, #2
 119 007e 9160     		str	r1, [r2, #8]
 120              	.LBB4:
 121              		.loc 1 145 0
 122              	@ 145 "../../test/testthd.c" 1
 123 0080 83F31188 		msr     BASEPRI, r3
 124              	@ 0 "" 2
 125              	.LVL11:
 126              		.thumb
 127              	.LBE4:
 128              		.loc 1 146 0
 129 0084 B369     		ldr	r3, [r6, #24]
 130              	.LVL12:
 131 0086 A71C     		adds	r7, r4, #2
 132 0088 9968     		ldr	r1, [r3, #8]
 133 008a 0520     		movs	r0, #5
 134 008c CA1B     		subs	r2, r1, r7
 135 008e 5142     		rsbs	r1, r2, #0
 136 0090 41EB0201 		adc	r1, r1, r2
 137 0094 FFF7FEFF 		bl	_test_assert
 138 0098 0028     		cmp	r0, #0
 139 009a C2D1     		bne	.L1
 140              		.loc 1 150 0
 141 009c 2846     		mov	r0, r5
 142 009e FFF7FEFF 		bl	chThdSetPriority
 143              	.LVL13:
 144              		.loc 1 151 0
 145 00a2 031B     		subs	r3, r0, r4
 146 00a4 5942     		rsbs	r1, r3, #0
 147 00a6 41EB0301 		adc	r1, r1, r3
 148 00aa 0620     		movs	r0, #6
 149              	.LVL14:
 150 00ac FFF7FEFF 		bl	_test_assert
 151 00b0 0028     		cmp	r0, #0
 152 00b2 B6D1     		bne	.L1
 153              		.loc 1 153 0
 154 00b4 B369     		ldr	r3, [r6, #24]
 155 00b6 0720     		movs	r0, #7
 156 00b8 9968     		ldr	r1, [r3, #8]
 157 00ba C1EB070C 		rsb	ip, r1, r7
 158 00be DCF10001 		rsbs	r1, ip, #0
 159 00c2 41EB0C01 		adc	r1, r1, ip
 160 00c6 FFF7FEFF 		bl	_test_assert
 161 00ca 0028     		cmp	r0, #0
 162 00cc A9D1     		bne	.L1
 163              		.loc 1 155 0
 164 00ce B369     		ldr	r3, [r6, #24]
 165 00d0 0820     		movs	r0, #8
 166 00d2 196C     		ldr	r1, [r3, #64]
 167 00d4 C1EB050E 		rsb	lr, r1, r5
 168 00d8 DEF10001 		rsbs	r1, lr, #0
 169 00dc 41EB0E01 		adc	r1, r1, lr
 170 00e0 FFF7FEFF 		bl	_test_assert
 171 00e4 0028     		cmp	r0, #0
ARM GAS  /tmp/cckzztz6.s 			page 4


 172 00e6 9CD1     		bne	.L1
 173              		.loc 1 159 0
 174 00e8 E71C     		adds	r7, r4, #3
 175 00ea 3846     		mov	r0, r7
 176 00ec FFF7FEFF 		bl	chThdSetPriority
 177              	.LVL15:
 178              		.loc 1 160 0
 179 00f0 281A     		subs	r0, r5, r0
 180              	.LVL16:
 181 00f2 4142     		rsbs	r1, r0, #0
 182 00f4 41EB0001 		adc	r1, r1, r0
 183 00f8 0920     		movs	r0, #9
 184 00fa FFF7FEFF 		bl	_test_assert
 185 00fe 0028     		cmp	r0, #0
 186 0100 8FD1     		bne	.L1
 187              		.loc 1 162 0
 188 0102 B369     		ldr	r3, [r6, #24]
 189 0104 0A20     		movs	r0, #10
 190 0106 9968     		ldr	r1, [r3, #8]
 191 0108 7A1A     		subs	r2, r7, r1
 192 010a 5142     		rsbs	r1, r2, #0
 193 010c 41EB0201 		adc	r1, r1, r2
 194 0110 FFF7FEFF 		bl	_test_assert
 195 0114 0028     		cmp	r0, #0
 196 0116 84D1     		bne	.L1
 197              		.loc 1 164 0
 198 0118 B369     		ldr	r3, [r6, #24]
 199 011a 0B20     		movs	r0, #11
 200 011c 196C     		ldr	r1, [r3, #64]
 201 011e 7B1A     		subs	r3, r7, r1
 202 0120 5942     		rsbs	r1, r3, #0
 203 0122 41EB0301 		adc	r1, r1, r3
 204 0126 FFF7FEFF 		bl	_test_assert
 205 012a 0028     		cmp	r0, #0
 206 012c 7FF479AF 		bne	.L1
 207              	.LBB5:
 208              		.loc 1 167 0
 209 0130 2023     		movs	r3, #32
 210              	.LVL17:
 211              	@ 167 "../../test/testthd.c" 1
 212 0132 83F31188 		msr     BASEPRI, r3
 213              	@ 0 "" 2
 214              	.LVL18:
 215              		.thumb
 216              	.LBE5:
 217              		.loc 1 168 0
 218 0136 B269     		ldr	r2, [r6, #24]
 219              	.LBB6:
 220              		.loc 1 170 0
 221 0138 0346     		mov	r3, r0
 222              	.LVL19:
 223              	.LBE6:
 224              		.loc 1 168 0
 225 013a 9460     		str	r4, [r2, #8]
 226              		.loc 1 169 0
 227 013c 1464     		str	r4, [r2, #64]
 228              	.LBB7:
ARM GAS  /tmp/cckzztz6.s 			page 5


 229              		.loc 1 170 0
 230              	@ 170 "../../test/testthd.c" 1
 231 013e 83F31188 		msr     BASEPRI, r3
 232              	@ 0 "" 2
 233              	.LVL20:
 234              		.thumb
 235 0142 6EE7     		b	.L1
 236              	.L6:
 237              		.align	2
 238              	.L5:
 239 0144 00000000 		.word	rlist
 240              	.LBE7:
 241              		.cfi_endproc
 242              	.LFE10:
 243              		.size	thd3_execute, .-thd3_execute
 244 0148 AFF30080 		.section	.text.thd2_execute,"ax",%progbits
 244      AFF30080 
 245              		.align	2
 246              		.p2align 4,,15
 247              		.thumb
 248              		.thumb_func
 249              		.type	thd2_execute, %function
 250              	thd2_execute:
 251              	.LFB9:
 252              		.loc 1 94 0
 253              		.cfi_startproc
 254              		@ args = 0, pretend = 0, frame = 0
 255              		@ frame_needed = 0, uses_anonymous_args = 0
 256 0000 F0B5     		push	{r4, r5, r6, r7, lr}
 257              	.LCFI1:
 258              		.cfi_def_cfa_offset 20
 259              		.cfi_offset 14, -4
 260              		.cfi_offset 7, -8
 261              		.cfi_offset 6, -12
 262              		.cfi_offset 5, -16
 263              		.cfi_offset 4, -20
 264              		.loc 1 96 0
 265 0002 40F20007 		movw	r7, #:lower16:rlist
 266 0006 C0F20007 		movt	r7, #:upper16:rlist
 267 000a BB69     		ldr	r3, [r7, #24]
 268 000c 40F20006 		movw	r6, #:lower16:wa
 269 0010 9A68     		ldr	r2, [r3, #8]
 270 0012 40F20005 		movw	r5, #:lower16:thread
 271 0016 C0F20006 		movt	r6, #:upper16:wa
 272 001a C0F20005 		movt	r5, #:upper16:thread
 273 001e 40F20004 		movw	r4, #:lower16:.LC0
 274              		.loc 1 94 0
 275 0022 83B0     		sub	sp, sp, #12
 276              	.LCFI2:
 277              		.cfi_def_cfa_offset 32
 278              		.loc 1 96 0
 279 0024 043A     		subs	r2, r2, #4
 280 0026 2B46     		mov	r3, r5
 281 0028 7068     		ldr	r0, [r6, #4]
 282 002a 4FF49871 		mov	r1, #304
 283 002e C0F20004 		movt	r4, #:upper16:.LC0
 284 0032 0094     		str	r4, [sp, #0]
ARM GAS  /tmp/cckzztz6.s 			page 6


 285 0034 FFF7FEFF 		bl	chThdCreateStatic
 286              		.loc 1 97 0
 287 0038 BB69     		ldr	r3, [r7, #24]
 288 003a 3168     		ldr	r1, [r6, #0]
 289 003c 9A68     		ldr	r2, [r3, #8]
 290              		.loc 1 96 0
 291 003e 40F20004 		movw	r4, #:lower16:threads
 292 0042 C0F20004 		movt	r4, #:upper16:threads
 293              		.loc 1 97 0
 294 0046 40F2000E 		movw	lr, #:lower16:.LC1
 295              		.loc 1 96 0
 296 004a 6060     		str	r0, [r4, #4]
 297              		.loc 1 97 0
 298 004c 053A     		subs	r2, r2, #5
 299 004e 2B46     		mov	r3, r5
 300 0050 C0F2000E 		movt	lr, #:upper16:.LC1
 301 0054 0846     		mov	r0, r1
 302 0056 4FF49871 		mov	r1, #304
 303 005a CDF800E0 		str	lr, [sp, #0]
 304 005e FFF7FEFF 		bl	chThdCreateStatic
 305              		.loc 1 98 0
 306 0062 BB69     		ldr	r3, [r7, #24]
 307 0064 3169     		ldr	r1, [r6, #16]
 308 0066 9A68     		ldr	r2, [r3, #8]
 309 0068 40F2000E 		movw	lr, #:lower16:.LC2
 310              		.loc 1 97 0
 311 006c 2060     		str	r0, [r4, #0]
 312              		.loc 1 98 0
 313 006e 013A     		subs	r2, r2, #1
 314 0070 2B46     		mov	r3, r5
 315 0072 C0F2000E 		movt	lr, #:upper16:.LC2
 316 0076 0846     		mov	r0, r1
 317 0078 4FF49871 		mov	r1, #304
 318 007c CDF800E0 		str	lr, [sp, #0]
 319 0080 FFF7FEFF 		bl	chThdCreateStatic
 320              		.loc 1 99 0
 321 0084 BB69     		ldr	r3, [r7, #24]
 322 0086 F168     		ldr	r1, [r6, #12]
 323 0088 9A68     		ldr	r2, [r3, #8]
 324 008a 40F2000E 		movw	lr, #:lower16:.LC3
 325              		.loc 1 98 0
 326 008e 2061     		str	r0, [r4, #16]
 327              		.loc 1 99 0
 328 0090 2B46     		mov	r3, r5
 329 0092 C0F2000E 		movt	lr, #:upper16:.LC3
 330 0096 0846     		mov	r0, r1
 331 0098 023A     		subs	r2, r2, #2
 332 009a 4FF49871 		mov	r1, #304
 333 009e CDF800E0 		str	lr, [sp, #0]
 334 00a2 FFF7FEFF 		bl	chThdCreateStatic
 335              	.LBB8:
 336              		.loc 1 101 0
 337 00a6 2023     		movs	r3, #32
 338              	.LVL21:
 339              	.LBE8:
 340              		.loc 1 99 0
 341 00a8 E060     		str	r0, [r4, #12]
ARM GAS  /tmp/cckzztz6.s 			page 7


 342              	.LBB9:
 343              		.loc 1 101 0
 344              	@ 101 "../../test/testthd.c" 1
 345 00aa 83F31188 		msr     BASEPRI, r3
 346              	@ 0 "" 2
 347              	.LVL22:
 348              		.thumb
 349              	.LBE9:
 350              		.loc 1 102 0
 351 00ae BB69     		ldr	r3, [r7, #24]
 352              	.LVL23:
 353 00b0 B068     		ldr	r0, [r6, #8]
 354 00b2 9A68     		ldr	r2, [r3, #8]
 355 00b4 2B46     		mov	r3, r5
 356 00b6 40F20005 		movw	r5, #:lower16:.LC4
 357 00ba 4FF49871 		mov	r1, #304
 358 00be 033A     		subs	r2, r2, #3
 359 00c0 C0F20005 		movt	r5, #:upper16:.LC4
 360 00c4 0095     		str	r5, [sp, #0]
 361 00c6 FFF7FEFF 		bl	chThdCreateI
 362 00ca A060     		str	r0, [r4, #8]
 363              	.LBB10:
 364              		.loc 1 103 0
 365 00cc 0023     		movs	r3, #0
 366              	.LVL24:
 367              	@ 103 "../../test/testthd.c" 1
 368 00ce 83F31188 		msr     BASEPRI, r3
 369              	@ 0 "" 2
 370              	.LVL25:
 371              		.thumb
 372              	.LBE10:
 373              		.loc 1 104 0
 374 00d2 A068     		ldr	r0, [r4, #8]
 375 00d4 FFF7FEFF 		bl	chThdResume
 376              	.LVL26:
 377              		.loc 1 105 0
 378 00d8 FFF7FEFF 		bl	test_wait_threads
 379              		.loc 1 106 0
 380 00dc 40F20001 		movw	r1, #:lower16:.LC5
 381 00e0 0120     		movs	r0, #1
 382 00e2 C0F20001 		movt	r1, #:upper16:.LC5
 383              		.loc 1 107 0
 384 00e6 03B0     		add	sp, sp, #12
 385 00e8 BDE8F040 		pop	{r4, r5, r6, r7, lr}
 386              		.loc 1 106 0
 387 00ec FFF7FEBF 		b	_test_assert_sequence
 388              		.cfi_endproc
 389              	.LFE9:
 390              		.size	thd2_execute, .-thd2_execute
 391              		.section	.text.thd1_execute,"ax",%progbits
 392              		.align	2
 393              		.p2align 4,,15
 394              		.thumb
 395              		.thumb_func
 396              		.type	thd1_execute, %function
 397              	thd1_execute:
 398              	.LFB8:
ARM GAS  /tmp/cckzztz6.s 			page 8


 399              		.loc 1 66 0
 400              		.cfi_startproc
 401              		@ args = 0, pretend = 0, frame = 0
 402              		@ frame_needed = 0, uses_anonymous_args = 0
 403 0000 F0B5     		push	{r4, r5, r6, r7, lr}
 404              	.LCFI3:
 405              		.cfi_def_cfa_offset 20
 406              		.cfi_offset 14, -4
 407              		.cfi_offset 7, -8
 408              		.cfi_offset 6, -12
 409              		.cfi_offset 5, -16
 410              		.cfi_offset 4, -20
 411              		.loc 1 68 0
 412 0002 40F20007 		movw	r7, #:lower16:rlist
 413 0006 C0F20007 		movt	r7, #:upper16:rlist
 414 000a BB69     		ldr	r3, [r7, #24]
 415 000c 40F20006 		movw	r6, #:lower16:wa
 416 0010 9A68     		ldr	r2, [r3, #8]
 417 0012 40F20005 		movw	r5, #:lower16:thread
 418 0016 C0F20005 		movt	r5, #:upper16:thread
 419 001a C0F20006 		movt	r6, #:upper16:wa
 420 001e 40F20004 		movw	r4, #:lower16:.LC1
 421              		.loc 1 66 0
 422 0022 83B0     		sub	sp, sp, #12
 423              	.LCFI4:
 424              		.cfi_def_cfa_offset 32
 425              		.loc 1 68 0
 426 0024 053A     		subs	r2, r2, #5
 427 0026 2B46     		mov	r3, r5
 428 0028 3068     		ldr	r0, [r6, #0]
 429 002a 4FF49871 		mov	r1, #304
 430 002e C0F20004 		movt	r4, #:upper16:.LC1
 431 0032 0094     		str	r4, [sp, #0]
 432 0034 FFF7FEFF 		bl	chThdCreateStatic
 433              		.loc 1 69 0
 434 0038 BB69     		ldr	r3, [r7, #24]
 435 003a D6F804E0 		ldr	lr, [r6, #4]
 436              		.loc 1 68 0
 437 003e 40F20004 		movw	r4, #:lower16:threads
 438 0042 C0F20004 		movt	r4, #:upper16:threads
 439              		.loc 1 69 0
 440 0046 9A68     		ldr	r2, [r3, #8]
 441              		.loc 1 68 0
 442 0048 2060     		str	r0, [r4, #0]
 443              		.loc 1 69 0
 444 004a 7046     		mov	r0, lr
 445 004c 40F2000E 		movw	lr, #:lower16:.LC0
 446 0050 043A     		subs	r2, r2, #4
 447 0052 2B46     		mov	r3, r5
 448 0054 C0F2000E 		movt	lr, #:upper16:.LC0
 449 0058 4FF49871 		mov	r1, #304
 450 005c CDF800E0 		str	lr, [sp, #0]
 451 0060 FFF7FEFF 		bl	chThdCreateStatic
 452              		.loc 1 70 0
 453 0064 BB69     		ldr	r3, [r7, #24]
 454 0066 D6F808E0 		ldr	lr, [r6, #8]
 455 006a 9A68     		ldr	r2, [r3, #8]
ARM GAS  /tmp/cckzztz6.s 			page 9


 456              		.loc 1 69 0
 457 006c 6060     		str	r0, [r4, #4]
 458              		.loc 1 70 0
 459 006e 7046     		mov	r0, lr
 460 0070 40F2000E 		movw	lr, #:lower16:.LC4
 461 0074 033A     		subs	r2, r2, #3
 462 0076 2B46     		mov	r3, r5
 463 0078 C0F2000E 		movt	lr, #:upper16:.LC4
 464 007c 4FF49871 		mov	r1, #304
 465 0080 CDF800E0 		str	lr, [sp, #0]
 466 0084 FFF7FEFF 		bl	chThdCreateStatic
 467              		.loc 1 71 0
 468 0088 BB69     		ldr	r3, [r7, #24]
 469 008a D6F80CE0 		ldr	lr, [r6, #12]
 470 008e 9A68     		ldr	r2, [r3, #8]
 471              		.loc 1 70 0
 472 0090 A060     		str	r0, [r4, #8]
 473              		.loc 1 71 0
 474 0092 7046     		mov	r0, lr
 475 0094 40F2000E 		movw	lr, #:lower16:.LC3
 476 0098 C0F2000E 		movt	lr, #:upper16:.LC3
 477 009c 023A     		subs	r2, r2, #2
 478 009e 2B46     		mov	r3, r5
 479 00a0 4FF49871 		mov	r1, #304
 480 00a4 CDF800E0 		str	lr, [sp, #0]
 481 00a8 FFF7FEFF 		bl	chThdCreateStatic
 482              		.loc 1 72 0
 483 00ac BB69     		ldr	r3, [r7, #24]
 484 00ae 3669     		ldr	r6, [r6, #16]
 485 00b0 9A68     		ldr	r2, [r3, #8]
 486 00b2 2B46     		mov	r3, r5
 487 00b4 40F20005 		movw	r5, #:lower16:.LC2
 488              		.loc 1 71 0
 489 00b8 E060     		str	r0, [r4, #12]
 490              		.loc 1 72 0
 491 00ba 4FF49871 		mov	r1, #304
 492 00be 013A     		subs	r2, r2, #1
 493 00c0 3046     		mov	r0, r6
 494 00c2 C0F20005 		movt	r5, #:upper16:.LC2
 495 00c6 0095     		str	r5, [sp, #0]
 496 00c8 FFF7FEFF 		bl	chThdCreateStatic
 497 00cc 2061     		str	r0, [r4, #16]
 498              		.loc 1 73 0
 499 00ce FFF7FEFF 		bl	test_wait_threads
 500              		.loc 1 74 0
 501 00d2 40F20001 		movw	r1, #:lower16:.LC5
 502 00d6 0120     		movs	r0, #1
 503 00d8 C0F20001 		movt	r1, #:upper16:.LC5
 504              		.loc 1 75 0
 505 00dc 03B0     		add	sp, sp, #12
 506 00de BDE8F040 		pop	{r4, r5, r6, r7, lr}
 507              		.loc 1 74 0
 508 00e2 FFF7FEBF 		b	_test_assert_sequence
 509              		.cfi_endproc
 510              	.LFE8:
 511              		.size	thd1_execute, .-thd1_execute
 512 00e6 00BFAFF3 		.section	.text.thread,"ax",%progbits
ARM GAS  /tmp/cckzztz6.s 			page 10


 512      0080AFF3 
 512      0080
 513              		.align	2
 514              		.p2align 4,,15
 515              		.thumb
 516              		.thumb_func
 517              		.type	thread, %function
 518              	thread:
 519              	.LFB7:
 520              		.loc 1 60 0
 521              		.cfi_startproc
 522              		@ args = 0, pretend = 0, frame = 0
 523              		@ frame_needed = 0, uses_anonymous_args = 0
 524              	.LVL27:
 525 0000 08B5     		push	{r3, lr}
 526              	.LCFI5:
 527              		.cfi_def_cfa_offset 8
 528              		.cfi_offset 14, -4
 529              		.cfi_offset 3, -8
 530              		.loc 1 62 0
 531 0002 0078     		ldrb	r0, [r0, #0]	@ zero_extendqisi2
 532              	.LVL28:
 533 0004 FFF7FEFF 		bl	test_emit_token
 534              		.loc 1 64 0
 535 0008 0020     		movs	r0, #0
 536 000a 08BD     		pop	{r3, pc}
 537              		.cfi_endproc
 538              	.LFE7:
 539              		.size	thread, .-thread
 540 000c AFF30080 		.section	.text.thd4_execute,"ax",%progbits
 541              		.align	2
 542              		.p2align 4,,15
 543              		.thumb
 544              		.thumb_func
 545              		.type	thd4_execute, %function
 546              	thd4_execute:
 547              	.LFB11:
 548              		.loc 1 189 0
 549              		.cfi_startproc
 550              		@ args = 0, pretend = 0, frame = 0
 551              		@ frame_needed = 0, uses_anonymous_args = 0
 552 0000 38B5     		push	{r3, r4, r5, lr}
 553              	.LCFI6:
 554              		.cfi_def_cfa_offset 16
 555              		.cfi_offset 14, -4
 556              		.cfi_offset 5, -8
 557              		.cfi_offset 4, -12
 558              		.cfi_offset 3, -16
 559              		.loc 1 195 0
 560 0002 1C4C     		ldr	r4, .L13
 561              		.loc 1 192 0
 562 0004 FFF7FEFF 		bl	test_wait_tick
 563              		.loc 1 195 0
 564 0008 E568     		ldr	r5, [r4, #12]
 565              	.LVL29:
 566              		.loc 1 196 0
 567 000a 6420     		movs	r0, #100
ARM GAS  /tmp/cckzztz6.s 			page 11


 568 000c FFF7FEFF 		bl	chThdSleep
 569              		.loc 1 197 0
 570 0010 0120     		movs	r0, #1
 571 0012 05F16401 		add	r1, r5, #100
 572 0016 05F16502 		add	r2, r5, #101
 573 001a FFF7FEFF 		bl	_test_assert_time_window
 574 001e 00B1     		cbz	r0, .L12
 575              	.LVL30:
 576              	.L10:
 577 0020 38BD     		pop	{r3, r4, r5, pc}
 578              	.LVL31:
 579              	.L12:
 580              		.loc 1 200 0
 581 0022 E568     		ldr	r5, [r4, #12]
 582              	.LVL32:
 583              		.loc 1 201 0
 584 0024 6420     		movs	r0, #100
 585 0026 FFF7FEFF 		bl	chThdSleep
 586              		.loc 1 202 0
 587 002a 0220     		movs	r0, #2
 588 002c 05F16401 		add	r1, r5, #100
 589 0030 05F16502 		add	r2, r5, #101
 590 0034 FFF7FEFF 		bl	_test_assert_time_window
 591 0038 0028     		cmp	r0, #0
 592 003a F1D1     		bne	.L10
 593              	.LBB13:
 594              	.LBB14:
 595              		.loc 1 205 0
 596 003c E568     		ldr	r5, [r4, #12]
 597              	.LVL33:
 598              		.loc 1 206 0
 599 003e 4FF47A70 		mov	r0, #1000
 600 0042 FFF7FEFF 		bl	chThdSleep
 601              		.loc 1 207 0
 602 0046 0320     		movs	r0, #3
 603 0048 05F57A71 		add	r1, r5, #1000
 604 004c 05F2E932 		addw	r2, r5, #1001
 605 0050 FFF7FEFF 		bl	_test_assert_time_window
 606 0054 0028     		cmp	r0, #0
 607 0056 E3D1     		bne	.L10
 608              		.loc 1 210 0
 609 0058 E468     		ldr	r4, [r4, #12]
 610 005a 04F16405 		add	r5, r4, #100
 611              	.LVL34:
 612              		.loc 1 211 0
 613 005e 2846     		mov	r0, r5
 614 0060 FFF7FEFF 		bl	chThdSleepUntil
 615              		.loc 1 212 0
 616 0064 0420     		movs	r0, #4
 617 0066 2946     		mov	r1, r5
 618 0068 04F16502 		add	r2, r4, #101
 619              	.LBE14:
 620              	.LBE13:
 621              		.loc 1 213 0
 622 006c BDE83840 		pop	{r3, r4, r5, lr}
 623              	.LBB16:
 624              	.LBB15:
ARM GAS  /tmp/cckzztz6.s 			page 12


 625              		.loc 1 212 0
 626 0070 FFF7FEBF 		b	_test_assert_time_window
 627              	.L14:
 628              		.align	2
 629              	.L13:
 630 0074 00000000 		.word	vtlist
 631              	.LBE15:
 632              	.LBE16:
 633              		.cfi_endproc
 634              	.LFE11:
 635              		.size	thd4_execute, .-thd4_execute
 636              		.global	patternthd
 637              		.global	testthd4
 638              		.global	testthd3
 639              		.global	testthd2
 640              		.global	testthd1
 641 0078 AFF30080 		.section	.rodata.testthd1,"a",%progbits
 641      AFF30080 
 642              		.align	2
 643              		.type	testthd1, %object
 644              		.size	testthd1, 16
 645              	testthd1:
 646 0000 64000000 		.word	.LC9
 647 0004 00000000 		.word	0
 648 0008 00000000 		.word	0
 649 000c 00000000 		.word	thd1_execute
 650              		.section	.rodata.testthd2,"a",%progbits
 651              		.align	2
 652              		.type	testthd2, %object
 653              		.size	testthd2, 16
 654              	testthd2:
 655 0000 48000000 		.word	.LC8
 656 0004 00000000 		.word	0
 657 0008 00000000 		.word	0
 658 000c 00000000 		.word	thd2_execute
 659              		.section	.rodata.testthd3,"a",%progbits
 660              		.align	2
 661              		.type	testthd3, %object
 662              		.size	testthd3, 16
 663              	testthd3:
 664 0000 2C000000 		.word	.LC7
 665 0004 00000000 		.word	0
 666 0008 00000000 		.word	0
 667 000c 00000000 		.word	thd3_execute
 668              		.section	.rodata.testthd4,"a",%progbits
 669              		.align	2
 670              		.type	testthd4, %object
 671              		.size	testthd4, 16
 672              	testthd4:
 673 0000 1C000000 		.word	.LC6
 674 0004 00000000 		.word	0
 675 0008 00000000 		.word	0
 676 000c 00000000 		.word	thd4_execute
 677              		.section	.rodata.patternthd,"a",%progbits
 678              		.align	2
 679              		.type	patternthd, %object
 680              		.size	patternthd, 20
ARM GAS  /tmp/cckzztz6.s 			page 13


 681              	patternthd:
 682 0000 00000000 		.word	testthd1
 683 0004 00000000 		.word	testthd2
 684 0008 00000000 		.word	testthd3
 685 000c 00000000 		.word	testthd4
 686 0010 00000000 		.word	0
 687              		.section	.rodata.str1.4,"aMS",%progbits,1
 688              		.align	2
 689              	.LC0:
 690 0000 4400     		.ascii	"D\000"
 691 0002 0000     		.space	2
 692              	.LC1:
 693 0004 4500     		.ascii	"E\000"
 694 0006 0000     		.space	2
 695              	.LC2:
 696 0008 4100     		.ascii	"A\000"
 697 000a 0000     		.space	2
 698              	.LC3:
 699 000c 4200     		.ascii	"B\000"
 700 000e 0000     		.space	2
 701              	.LC4:
 702 0010 4300     		.ascii	"C\000"
 703 0012 0000     		.space	2
 704              	.LC5:
 705 0014 41424344 		.ascii	"ABCDE\000"
 705      4500
 706 001a 0000     		.space	2
 707              	.LC6:
 708 001c 54687265 		.ascii	"Threads, delays\000"
 708      6164732C 
 708      2064656C 
 708      61797300 
 709              	.LC7:
 710 002c 54687265 		.ascii	"Threads, priority change\000"
 710      6164732C 
 710      20707269 
 710      6F726974 
 710      79206368 
 711 0045 000000   		.space	3
 712              	.LC8:
 713 0048 54687265 		.ascii	"Threads, enqueuing test #2\000"
 713      6164732C 
 713      20656E71 
 713      75657569 
 713      6E672074 
 714 0063 00       		.space	1
 715              	.LC9:
 716 0064 54687265 		.ascii	"Threads, enqueuing test #1\000"
 716      6164732C 
 716      20656E71 
 716      75657569 
 716      6E672074 
 717 007f 00       		.text
 718              	.Letext0:
 719              		.file 2 "/opt/paparazzi/arm-multilib/lib/gcc/arm-none-eabi/4.6.2/../../../../arm-none-eabi/include
 720              		.file 3 "../../os/ports/GCC/ARMCMx/chtypes.h"
 721              		.file 4 "../../os/kernel/include/chlists.h"
ARM GAS  /tmp/cckzztz6.s 			page 14


 722              		.file 5 "../../os/kernel/include/chthreads.h"
 723              		.file 6 "../../os/ports/GCC/ARMCMx/chcore_v7m.h"
 724              		.file 7 "../../os/kernel/include/chvt.h"
 725              		.file 8 "../../os/kernel/include/chschd.h"
 726              		.file 9 "../../os/kernel/include/chmtx.h"
 727              		.file 10 "../../test/test.h"