ARM GAS  /tmp/ccIJOhmt.s 			page 1


   1              		.syntax unified
   2              		.cpu cortex-m3
   3              		.fpu softvfp
   4              		.eabi_attribute 20, 1
   5              		.eabi_attribute 21, 1
   6              		.eabi_attribute 23, 3
   7              		.eabi_attribute 24, 1
   8              		.eabi_attribute 25, 1
   9              		.eabi_attribute 26, 1
  10              		.eabi_attribute 30, 2
  11              		.eabi_attribute 18, 4
  12              		.thumb
  13              		.file	"testmtx.c"
  14              		.text
  15              	.Ltext0:
  16              		.cfi_sections	.debug_frame
  17              		.section	.text.mtx8_execute,"ax",%progbits
  18              		.align	2
  19              		.p2align 4,,15
  20              		.thumb
  21              		.thumb_func
  22              		.type	mtx8_execute, %function
  23              	mtx8_execute:
  24              	.LFB36:
  25              		.file 1 "../../test/testmtx.c"
  26              		.loc 1 595 0
  27              		.cfi_startproc
  28              		@ args = 0, pretend = 0, frame = 0
  29              		@ frame_needed = 0, uses_anonymous_args = 0
  30              		.loc 1 597 0
  31 0000 40F20003 		movw	r3, #:lower16:rlist
  32              		.loc 1 595 0
  33 0004 F0B5     		push	{r4, r5, r6, r7, lr}
  34              	.LCFI0:
  35              		.cfi_def_cfa_offset 20
  36              		.cfi_offset 14, -4
  37              		.cfi_offset 7, -8
  38              		.cfi_offset 6, -12
  39              		.cfi_offset 5, -16
  40              		.cfi_offset 4, -20
  41              		.loc 1 597 0
  42 0006 C0F20003 		movt	r3, #:upper16:rlist
  43 000a 9B69     		ldr	r3, [r3, #24]
  44              		.loc 1 598 0
  45 000c 40F20005 		movw	r5, #:lower16:wa
  46              		.loc 1 597 0
  47 0010 9E68     		ldr	r6, [r3, #8]
  48              	.LVL0:
  49              		.loc 1 598 0
  50 0012 C0F20005 		movt	r5, #:upper16:wa
  51 0016 40F20003 		movw	r3, #:lower16:thread11
  52 001a 40F20004 		movw	r4, #:lower16:.LC0
  53              		.loc 1 595 0
  54 001e 83B0     		sub	sp, sp, #12
  55              	.LCFI1:
  56              		.cfi_def_cfa_offset 32
  57              		.loc 1 598 0
ARM GAS  /tmp/ccIJOhmt.s 			page 2


  58 0020 721C     		adds	r2, r6, #1
  59 0022 2868     		ldr	r0, [r5, #0]
  60 0024 4FF49871 		mov	r1, #304
  61 0028 C0F20003 		movt	r3, #:upper16:thread11
  62 002c C0F20004 		movt	r4, #:upper16:.LC0
  63 0030 0094     		str	r4, [sp, #0]
  64 0032 FFF7FEFF 		bl	chThdCreateStatic
  65              	.LVL1:
  66 0036 40F20004 		movw	r4, #:lower16:threads
  67              		.loc 1 599 0
  68 003a 6F68     		ldr	r7, [r5, #4]
  69              		.loc 1 598 0
  70 003c C0F20004 		movt	r4, #:upper16:threads
  71 0040 2060     		str	r0, [r4, #0]
  72              		.loc 1 599 0
  73 0042 40F20003 		movw	r3, #:lower16:thread10
  74 0046 3846     		mov	r0, r7
  75 0048 40F20007 		movw	r7, #:lower16:.LC1
  76 004c B21C     		adds	r2, r6, #2
  77 004e 4FF49871 		mov	r1, #304
  78 0052 C0F20003 		movt	r3, #:upper16:thread10
  79 0056 C0F20007 		movt	r7, #:upper16:.LC1
  80 005a 0097     		str	r7, [sp, #0]
  81 005c FFF7FEFF 		bl	chThdCreateStatic
  82              		.loc 1 600 0
  83 0060 AD68     		ldr	r5, [r5, #8]
  84              		.loc 1 599 0
  85 0062 6060     		str	r0, [r4, #4]
  86              		.loc 1 600 0
  87 0064 40F20003 		movw	r3, #:lower16:thread12
  88 0068 2846     		mov	r0, r5
  89 006a 40F20005 		movw	r5, #:lower16:.LC2
  90 006e 4FF49871 		mov	r1, #304
  91 0072 F21C     		adds	r2, r6, #3
  92 0074 C0F20003 		movt	r3, #:upper16:thread12
  93 0078 C0F20005 		movt	r5, #:upper16:.LC2
  94 007c 0095     		str	r5, [sp, #0]
  95 007e FFF7FEFF 		bl	chThdCreateStatic
  96              		.loc 1 601 0
  97 0082 40F20005 		movw	r5, #:lower16:.LANCHOR0
  98 0086 C0F20005 		movt	r5, #:upper16:.LANCHOR0
  99              		.loc 1 600 0
 100 008a A060     		str	r0, [r4, #8]
 101              		.loc 1 601 0
 102 008c 2846     		mov	r0, r5
 103 008e FFF7FEFF 		bl	chCondSignal
 104              		.loc 1 602 0
 105 0092 2846     		mov	r0, r5
 106 0094 FFF7FEFF 		bl	chCondSignal
 107              		.loc 1 603 0
 108 0098 FFF7FEFF 		bl	test_wait_threads
 109              		.loc 1 604 0
 110 009c 40F20001 		movw	r1, #:lower16:.LC3
 111 00a0 0120     		movs	r0, #1
 112 00a2 C0F20001 		movt	r1, #:upper16:.LC3
 113              		.loc 1 605 0
 114 00a6 03B0     		add	sp, sp, #12
ARM GAS  /tmp/ccIJOhmt.s 			page 3


 115 00a8 BDE8F040 		pop	{r4, r5, r6, r7, lr}
 116              		.loc 1 604 0
 117 00ac FFF7FEBF 		b	_test_assert_sequence
 118              		.cfi_endproc
 119              	.LFE36:
 120              		.size	mtx8_execute, .-mtx8_execute
 121              		.section	.text.thread12,"ax",%progbits
 122              		.align	2
 123              		.p2align 4,,15
 124              		.thumb
 125              		.thumb_func
 126              		.type	thread12, %function
 127              	thread12:
 128              	.LFB35:
 129              		.loc 1 587 0
 130              		.cfi_startproc
 131              		@ args = 0, pretend = 0, frame = 0
 132              		@ frame_needed = 0, uses_anonymous_args = 0
 133              	.LVL2:
 134 0000 10B5     		push	{r4, lr}
 135              	.LCFI2:
 136              		.cfi_def_cfa_offset 8
 137              		.cfi_offset 14, -4
 138              		.cfi_offset 4, -8
 139              		.loc 1 587 0
 140 0002 0446     		mov	r4, r0
 141              		.loc 1 589 0
 142 0004 40F20000 		movw	r0, #:lower16:.LANCHOR1
 143              	.LVL3:
 144 0008 C0F20000 		movt	r0, #:upper16:.LANCHOR1
 145 000c FFF7FEFF 		bl	chMtxLock
 146              		.loc 1 590 0
 147 0010 2078     		ldrb	r0, [r4, #0]	@ zero_extendqisi2
 148 0012 FFF7FEFF 		bl	test_emit_token
 149              		.loc 1 591 0
 150 0016 FFF7FEFF 		bl	chMtxUnlock
 151              		.loc 1 593 0
 152 001a 0020     		movs	r0, #0
 153 001c 10BD     		pop	{r4, pc}
 154              		.cfi_endproc
 155              	.LFE35:
 156              		.size	thread12, .-thread12
 157 001e 00BF     		.section	.text.thread1,"ax",%progbits
 158              		.align	2
 159              		.p2align 4,,15
 160              		.thumb
 161              		.thumb_func
 162              		.type	thread1, %function
 163              	thread1:
 164              	.LFB8:
 165              		.loc 1 89 0
 166              		.cfi_startproc
 167              		@ args = 0, pretend = 0, frame = 0
 168              		@ frame_needed = 0, uses_anonymous_args = 0
 169              	.LVL4:
 170 0000 10B5     		push	{r4, lr}
 171              	.LCFI3:
ARM GAS  /tmp/ccIJOhmt.s 			page 4


 172              		.cfi_def_cfa_offset 8
 173              		.cfi_offset 14, -4
 174              		.cfi_offset 4, -8
 175              		.loc 1 89 0
 176 0002 0446     		mov	r4, r0
 177              		.loc 1 91 0
 178 0004 40F20000 		movw	r0, #:lower16:.LANCHOR2
 179              	.LVL5:
 180 0008 C0F20000 		movt	r0, #:upper16:.LANCHOR2
 181 000c FFF7FEFF 		bl	chMtxLock
 182              		.loc 1 92 0
 183 0010 2078     		ldrb	r0, [r4, #0]	@ zero_extendqisi2
 184 0012 FFF7FEFF 		bl	test_emit_token
 185              		.loc 1 93 0
 186 0016 FFF7FEFF 		bl	chMtxUnlock
 187              		.loc 1 95 0
 188 001a 0020     		movs	r0, #0
 189 001c 10BD     		pop	{r4, pc}
 190              		.cfi_endproc
 191              	.LFE8:
 192              		.size	thread1, .-thread1
 193 001e 00BF     		.section	.text.thread10,"ax",%progbits
 194              		.align	2
 195              		.p2align 4,,15
 196              		.thumb
 197              		.thumb_func
 198              		.type	thread10, %function
 199              	thread10:
 200              	.LFB29:
 201              		.loc 1 484 0
 202              		.cfi_startproc
 203              		@ args = 0, pretend = 0, frame = 0
 204              		@ frame_needed = 0, uses_anonymous_args = 0
 205              	.LVL6:
 206 0000 10B5     		push	{r4, lr}
 207              	.LCFI4:
 208              		.cfi_def_cfa_offset 8
 209              		.cfi_offset 14, -4
 210              		.cfi_offset 4, -8
 211              		.loc 1 484 0
 212 0002 0446     		mov	r4, r0
 213              		.loc 1 486 0
 214 0004 40F20000 		movw	r0, #:lower16:.LANCHOR2
 215              	.LVL7:
 216 0008 C0F20000 		movt	r0, #:upper16:.LANCHOR2
 217 000c FFF7FEFF 		bl	chMtxLock
 218              		.loc 1 487 0
 219 0010 40F20000 		movw	r0, #:lower16:.LANCHOR0
 220 0014 C0F20000 		movt	r0, #:upper16:.LANCHOR0
 221 0018 FFF7FEFF 		bl	chCondWait
 222              		.loc 1 488 0
 223 001c 2078     		ldrb	r0, [r4, #0]	@ zero_extendqisi2
 224 001e FFF7FEFF 		bl	test_emit_token
 225              		.loc 1 489 0
 226 0022 FFF7FEFF 		bl	chMtxUnlock
 227              		.loc 1 491 0
 228 0026 0020     		movs	r0, #0
ARM GAS  /tmp/ccIJOhmt.s 			page 5


 229 0028 10BD     		pop	{r4, pc}
 230              		.cfi_endproc
 231              	.LFE29:
 232              		.size	thread10, .-thread10
 233 002a 00BFAFF3 		.section	.text.thread11,"ax",%progbits
 233      0080
 234              		.align	2
 235              		.p2align 4,,15
 236              		.thumb
 237              		.thumb_func
 238              		.type	thread11, %function
 239              	thread11:
 240              	.LFB34:
 241              		.loc 1 572 0
 242              		.cfi_startproc
 243              		@ args = 0, pretend = 0, frame = 0
 244              		@ frame_needed = 0, uses_anonymous_args = 0
 245              	.LVL8:
 246 0000 10B5     		push	{r4, lr}
 247              	.LCFI5:
 248              		.cfi_def_cfa_offset 8
 249              		.cfi_offset 14, -4
 250              		.cfi_offset 4, -8
 251              		.loc 1 572 0
 252 0002 0446     		mov	r4, r0
 253              		.loc 1 574 0
 254 0004 40F20000 		movw	r0, #:lower16:.LANCHOR1
 255              	.LVL9:
 256 0008 C0F20000 		movt	r0, #:upper16:.LANCHOR1
 257 000c FFF7FEFF 		bl	chMtxLock
 258              		.loc 1 575 0
 259 0010 40F20000 		movw	r0, #:lower16:.LANCHOR2
 260 0014 C0F20000 		movt	r0, #:upper16:.LANCHOR2
 261 0018 FFF7FEFF 		bl	chMtxLock
 262              		.loc 1 577 0
 263 001c 40F20000 		movw	r0, #:lower16:.LANCHOR0
 264 0020 4FF0FF31 		mov	r1, #-1
 265 0024 C0F20000 		movt	r0, #:upper16:.LANCHOR0
 266 0028 FFF7FEFF 		bl	chCondWaitTimeout
 267              		.loc 1 581 0
 268 002c 2078     		ldrb	r0, [r4, #0]	@ zero_extendqisi2
 269 002e FFF7FEFF 		bl	test_emit_token
 270              		.loc 1 582 0
 271 0032 FFF7FEFF 		bl	chMtxUnlock
 272              		.loc 1 583 0
 273 0036 FFF7FEFF 		bl	chMtxUnlock
 274              		.loc 1 585 0
 275 003a 0020     		movs	r0, #0
 276 003c 10BD     		pop	{r4, pc}
 277              		.cfi_endproc
 278              	.LFE34:
 279              		.size	thread11, .-thread11
 280 003e 00BF     		.section	.text.mtx8_setup,"ax",%progbits
 281              		.align	2
 282              		.p2align 4,,15
 283              		.thumb
 284              		.thumb_func
ARM GAS  /tmp/ccIJOhmt.s 			page 6


 285              		.type	mtx8_setup, %function
 286              	mtx8_setup:
 287              	.LFB33:
 288              		.loc 1 565 0
 289              		.cfi_startproc
 290              		@ args = 0, pretend = 0, frame = 0
 291              		@ frame_needed = 0, uses_anonymous_args = 0
 292              		.loc 1 567 0
 293 0000 40F20000 		movw	r0, #:lower16:.LANCHOR0
 294              		.loc 1 565 0
 295 0004 08B5     		push	{r3, lr}
 296              	.LCFI6:
 297              		.cfi_def_cfa_offset 8
 298              		.cfi_offset 14, -4
 299              		.cfi_offset 3, -8
 300              		.loc 1 567 0
 301 0006 C0F20000 		movt	r0, #:upper16:.LANCHOR0
 302 000a FFF7FEFF 		bl	chCondInit
 303              		.loc 1 568 0
 304 000e 40F20000 		movw	r0, #:lower16:.LANCHOR2
 305 0012 C0F20000 		movt	r0, #:upper16:.LANCHOR2
 306 0016 FFF7FEFF 		bl	chMtxInit
 307              		.loc 1 569 0
 308 001a 40F20000 		movw	r0, #:lower16:.LANCHOR1
 309 001e C0F20000 		movt	r0, #:upper16:.LANCHOR1
 310              		.loc 1 570 0
 311 0022 BDE80840 		pop	{r3, lr}
 312              		.loc 1 569 0
 313 0026 FFF7FEBF 		b	chMtxInit
 314              		.cfi_endproc
 315              	.LFE33:
 316              		.size	mtx8_setup, .-mtx8_setup
 317 002a 00BFAFF3 		.section	.text.mtx7_setup,"ax",%progbits
 317      0080
 318              		.align	2
 319              		.p2align 4,,15
 320              		.thumb
 321              		.thumb_func
 322              		.type	mtx7_setup, %function
 323              	mtx7_setup:
 324              	.LFB31:
 325              		.loc 1 530 0
 326              		.cfi_startproc
 327              		@ args = 0, pretend = 0, frame = 0
 328              		@ frame_needed = 0, uses_anonymous_args = 0
 329              		.loc 1 532 0
 330 0000 40F20000 		movw	r0, #:lower16:.LANCHOR0
 331              		.loc 1 530 0
 332 0004 08B5     		push	{r3, lr}
 333              	.LCFI7:
 334              		.cfi_def_cfa_offset 8
 335              		.cfi_offset 14, -4
 336              		.cfi_offset 3, -8
 337              		.loc 1 532 0
 338 0006 C0F20000 		movt	r0, #:upper16:.LANCHOR0
 339 000a FFF7FEFF 		bl	chCondInit
 340              		.loc 1 533 0
ARM GAS  /tmp/ccIJOhmt.s 			page 7


 341 000e 40F20000 		movw	r0, #:lower16:.LANCHOR2
 342 0012 C0F20000 		movt	r0, #:upper16:.LANCHOR2
 343              		.loc 1 534 0
 344 0016 BDE80840 		pop	{r3, lr}
 345              		.loc 1 533 0
 346 001a FFF7FEBF 		b	chMtxInit
 347              		.cfi_endproc
 348              	.LFE31:
 349              		.size	mtx7_setup, .-mtx7_setup
 350 001e 00BF     		.section	.text.mtx6_setup,"ax",%progbits
 351              		.align	2
 352              		.p2align 4,,15
 353              		.thumb
 354              		.thumb_func
 355              		.type	mtx6_setup, %function
 356              	mtx6_setup:
 357              	.LFB28:
 358              		.loc 1 478 0
 359              		.cfi_startproc
 360              		@ args = 0, pretend = 0, frame = 0
 361              		@ frame_needed = 0, uses_anonymous_args = 0
 362              		.loc 1 480 0
 363 0000 40F20000 		movw	r0, #:lower16:.LANCHOR0
 364              		.loc 1 478 0
 365 0004 08B5     		push	{r3, lr}
 366              	.LCFI8:
 367              		.cfi_def_cfa_offset 8
 368              		.cfi_offset 14, -4
 369              		.cfi_offset 3, -8
 370              		.loc 1 480 0
 371 0006 C0F20000 		movt	r0, #:upper16:.LANCHOR0
 372 000a FFF7FEFF 		bl	chCondInit
 373              		.loc 1 481 0
 374 000e 40F20000 		movw	r0, #:lower16:.LANCHOR2
 375 0012 C0F20000 		movt	r0, #:upper16:.LANCHOR2
 376              		.loc 1 482 0
 377 0016 BDE80840 		pop	{r3, lr}
 378              		.loc 1 481 0
 379 001a FFF7FEBF 		b	chMtxInit
 380              		.cfi_endproc
 381              	.LFE28:
 382              		.size	mtx6_setup, .-mtx6_setup
 383 001e 00BF     		.section	.text.mtx5_setup,"ax",%progbits
 384              		.align	2
 385              		.p2align 4,,15
 386              		.thumb
 387              		.thumb_func
 388              		.type	mtx5_setup, %function
 389              	mtx5_setup:
 390              	.LFB26:
 391              		.loc 1 428 0
 392              		.cfi_startproc
 393              		@ args = 0, pretend = 0, frame = 0
 394              		@ frame_needed = 0, uses_anonymous_args = 0
 395              		@ link register save eliminated.
 396              		.loc 1 430 0
 397 0000 40F20000 		movw	r0, #:lower16:.LANCHOR2
ARM GAS  /tmp/ccIJOhmt.s 			page 8


 398 0004 C0F20000 		movt	r0, #:upper16:.LANCHOR2
 399              		.loc 1 431 0
 400              		.loc 1 430 0
 401 0008 FFF7FEBF 		b	chMtxInit
 402              		.cfi_endproc
 403              	.LFE26:
 404              		.size	mtx5_setup, .-mtx5_setup
 405 000c AFF30080 		.section	.text.mtx4_setup,"ax",%progbits
 406              		.align	2
 407              		.p2align 4,,15
 408              		.thumb
 409              		.thumb_func
 410              		.type	mtx4_setup, %function
 411              	mtx4_setup:
 412              	.LFB22:
 413              		.loc 1 341 0
 414              		.cfi_startproc
 415              		@ args = 0, pretend = 0, frame = 0
 416              		@ frame_needed = 0, uses_anonymous_args = 0
 417              		.loc 1 343 0
 418 0000 40F20000 		movw	r0, #:lower16:.LANCHOR2
 419              		.loc 1 341 0
 420 0004 08B5     		push	{r3, lr}
 421              	.LCFI9:
 422              		.cfi_def_cfa_offset 8
 423              		.cfi_offset 14, -4
 424              		.cfi_offset 3, -8
 425              		.loc 1 343 0
 426 0006 C0F20000 		movt	r0, #:upper16:.LANCHOR2
 427 000a FFF7FEFF 		bl	chMtxInit
 428              		.loc 1 344 0
 429 000e 40F20000 		movw	r0, #:lower16:.LANCHOR1
 430 0012 C0F20000 		movt	r0, #:upper16:.LANCHOR1
 431              		.loc 1 345 0
 432 0016 BDE80840 		pop	{r3, lr}
 433              		.loc 1 344 0
 434 001a FFF7FEBF 		b	chMtxInit
 435              		.cfi_endproc
 436              	.LFE22:
 437              		.size	mtx4_setup, .-mtx4_setup
 438 001e 00BF     		.section	.text.mtx3_setup,"ax",%progbits
 439              		.align	2
 440              		.p2align 4,,15
 441              		.thumb
 442              		.thumb_func
 443              		.type	mtx3_setup, %function
 444              	mtx3_setup:
 445              	.LFB15:
 446              		.loc 1 241 0
 447              		.cfi_startproc
 448              		@ args = 0, pretend = 0, frame = 0
 449              		@ frame_needed = 0, uses_anonymous_args = 0
 450              		.loc 1 243 0
 451 0000 40F20000 		movw	r0, #:lower16:.LANCHOR2
 452              		.loc 1 241 0
 453 0004 08B5     		push	{r3, lr}
 454              	.LCFI10:
ARM GAS  /tmp/ccIJOhmt.s 			page 9


 455              		.cfi_def_cfa_offset 8
 456              		.cfi_offset 14, -4
 457              		.cfi_offset 3, -8
 458              		.loc 1 243 0
 459 0006 C0F20000 		movt	r0, #:upper16:.LANCHOR2
 460 000a FFF7FEFF 		bl	chMtxInit
 461              		.loc 1 244 0
 462 000e 40F20000 		movw	r0, #:lower16:.LANCHOR1
 463 0012 C0F20000 		movt	r0, #:upper16:.LANCHOR1
 464              		.loc 1 245 0
 465 0016 BDE80840 		pop	{r3, lr}
 466              		.loc 1 244 0
 467 001a FFF7FEBF 		b	chMtxInit
 468              		.cfi_endproc
 469              	.LFE15:
 470              		.size	mtx3_setup, .-mtx3_setup
 471 001e 00BF     		.section	.text.mtx2_setup,"ax",%progbits
 472              		.align	2
 473              		.p2align 4,,15
 474              		.thumb
 475              		.thumb_func
 476              		.type	mtx2_setup, %function
 477              	mtx2_setup:
 478              	.LFB10:
 479              		.loc 1 151 0
 480              		.cfi_startproc
 481              		@ args = 0, pretend = 0, frame = 0
 482              		@ frame_needed = 0, uses_anonymous_args = 0
 483              		@ link register save eliminated.
 484              		.loc 1 153 0
 485 0000 40F20000 		movw	r0, #:lower16:.LANCHOR2
 486 0004 C0F20000 		movt	r0, #:upper16:.LANCHOR2
 487              		.loc 1 154 0
 488              		.loc 1 153 0
 489 0008 FFF7FEBF 		b	chMtxInit
 490              		.cfi_endproc
 491              	.LFE10:
 492              		.size	mtx2_setup, .-mtx2_setup
 493 000c AFF30080 		.section	.text.mtx1_setup,"ax",%progbits
 494              		.align	2
 495              		.p2align 4,,15
 496              		.thumb
 497              		.thumb_func
 498              		.type	mtx1_setup, %function
 499              	mtx1_setup:
 500              	.LFB7:
 501              		.loc 1 84 0
 502              		.cfi_startproc
 503              		@ args = 0, pretend = 0, frame = 0
 504              		@ frame_needed = 0, uses_anonymous_args = 0
 505              		@ link register save eliminated.
 506              		.loc 1 86 0
 507 0000 40F20000 		movw	r0, #:lower16:.LANCHOR2
 508 0004 C0F20000 		movt	r0, #:upper16:.LANCHOR2
 509              		.loc 1 87 0
 510              		.loc 1 86 0
 511 0008 FFF7FEBF 		b	chMtxInit
ARM GAS  /tmp/ccIJOhmt.s 			page 10


 512              		.cfi_endproc
 513              	.LFE7:
 514              		.size	mtx1_setup, .-mtx1_setup
 515 000c AFF30080 		.section	.text.mtx7_execute,"ax",%progbits
 516              		.align	2
 517              		.p2align 4,,15
 518              		.thumb
 519              		.thumb_func
 520              		.type	mtx7_execute, %function
 521              	mtx7_execute:
 522              	.LFB32:
 523              		.loc 1 536 0
 524              		.cfi_startproc
 525              		@ args = 0, pretend = 0, frame = 0
 526              		@ frame_needed = 0, uses_anonymous_args = 0
 527              		.loc 1 538 0
 528 0000 40F20003 		movw	r3, #:lower16:rlist
 529              		.loc 1 536 0
 530 0004 F0B5     		push	{r4, r5, r6, r7, lr}
 531              	.LCFI11:
 532              		.cfi_def_cfa_offset 20
 533              		.cfi_offset 14, -4
 534              		.cfi_offset 7, -8
 535              		.cfi_offset 6, -12
 536              		.cfi_offset 5, -16
 537              		.cfi_offset 4, -20
 538              		.loc 1 538 0
 539 0006 C0F20003 		movt	r3, #:upper16:rlist
 540 000a 9B69     		ldr	r3, [r3, #24]
 541              		.loc 1 539 0
 542 000c 40F20006 		movw	r6, #:lower16:wa
 543              		.loc 1 538 0
 544 0010 9F68     		ldr	r7, [r3, #8]
 545              	.LVL10:
 546              		.loc 1 539 0
 547 0012 40F20005 		movw	r5, #:lower16:thread10
 548 0016 C0F20005 		movt	r5, #:upper16:thread10
 549 001a C0F20006 		movt	r6, #:upper16:wa
 550 001e 40F20004 		movw	r4, #:lower16:.LC4
 551              		.loc 1 536 0
 552 0022 83B0     		sub	sp, sp, #12
 553              	.LCFI12:
 554              		.cfi_def_cfa_offset 32
 555              		.loc 1 539 0
 556 0024 7A1C     		adds	r2, r7, #1
 557 0026 2B46     		mov	r3, r5
 558 0028 3068     		ldr	r0, [r6, #0]
 559 002a 4FF49871 		mov	r1, #304
 560 002e C0F20004 		movt	r4, #:upper16:.LC4
 561 0032 0094     		str	r4, [sp, #0]
 562 0034 FFF7FEFF 		bl	chThdCreateStatic
 563              	.LVL11:
 564 0038 40F20004 		movw	r4, #:lower16:threads
 565              		.loc 1 540 0
 566 003c D6F804E0 		ldr	lr, [r6, #4]
 567              		.loc 1 539 0
 568 0040 C0F20004 		movt	r4, #:upper16:threads
ARM GAS  /tmp/ccIJOhmt.s 			page 11


 569 0044 2060     		str	r0, [r4, #0]
 570              		.loc 1 540 0
 571 0046 7046     		mov	r0, lr
 572 0048 40F2000E 		movw	lr, #:lower16:.LC5
 573 004c BA1C     		adds	r2, r7, #2
 574 004e 2B46     		mov	r3, r5
 575 0050 C0F2000E 		movt	lr, #:upper16:.LC5
 576 0054 4FF49871 		mov	r1, #304
 577 0058 CDF800E0 		str	lr, [sp, #0]
 578 005c FFF7FEFF 		bl	chThdCreateStatic
 579              		.loc 1 541 0
 580 0060 D6F808E0 		ldr	lr, [r6, #8]
 581              		.loc 1 540 0
 582 0064 6060     		str	r0, [r4, #4]
 583              		.loc 1 541 0
 584 0066 7046     		mov	r0, lr
 585 0068 40F2000E 		movw	lr, #:lower16:.LC1
 586 006c FA1C     		adds	r2, r7, #3
 587 006e 2B46     		mov	r3, r5
 588 0070 C0F2000E 		movt	lr, #:upper16:.LC1
 589 0074 4FF49871 		mov	r1, #304
 590 0078 CDF800E0 		str	lr, [sp, #0]
 591 007c FFF7FEFF 		bl	chThdCreateStatic
 592              		.loc 1 542 0
 593 0080 D6F80CE0 		ldr	lr, [r6, #12]
 594              		.loc 1 541 0
 595 0084 A060     		str	r0, [r4, #8]
 596              		.loc 1 542 0
 597 0086 7046     		mov	r0, lr
 598 0088 40F2000E 		movw	lr, #:lower16:.LC2
 599 008c C0F2000E 		movt	lr, #:upper16:.LC2
 600 0090 3A1D     		adds	r2, r7, #4
 601 0092 2B46     		mov	r3, r5
 602 0094 4FF49871 		mov	r1, #304
 603 0098 CDF800E0 		str	lr, [sp, #0]
 604 009c FFF7FEFF 		bl	chThdCreateStatic
 605              		.loc 1 543 0
 606 00a0 3669     		ldr	r6, [r6, #16]
 607 00a2 2B46     		mov	r3, r5
 608 00a4 40F20005 		movw	r5, #:lower16:.LC0
 609 00a8 4FF49871 		mov	r1, #304
 610 00ac 7A1D     		adds	r2, r7, #5
 611              		.loc 1 542 0
 612 00ae E060     		str	r0, [r4, #12]
 613              		.loc 1 543 0
 614 00b0 C0F20005 		movt	r5, #:upper16:.LC0
 615 00b4 3046     		mov	r0, r6
 616 00b6 0095     		str	r5, [sp, #0]
 617 00b8 FFF7FEFF 		bl	chThdCreateStatic
 618 00bc 2061     		str	r0, [r4, #16]
 619              		.loc 1 544 0
 620 00be 40F20000 		movw	r0, #:lower16:.LANCHOR0
 621 00c2 C0F20000 		movt	r0, #:upper16:.LANCHOR0
 622 00c6 FFF7FEFF 		bl	chCondBroadcast
 623              		.loc 1 545 0
 624 00ca FFF7FEFF 		bl	test_wait_threads
 625              		.loc 1 546 0
ARM GAS  /tmp/ccIJOhmt.s 			page 12


 626 00ce 40F20001 		movw	r1, #:lower16:.LC6
 627 00d2 0120     		movs	r0, #1
 628 00d4 C0F20001 		movt	r1, #:upper16:.LC6
 629              		.loc 1 547 0
 630 00d8 03B0     		add	sp, sp, #12
 631 00da BDE8F040 		pop	{r4, r5, r6, r7, lr}
 632              		.loc 1 546 0
 633 00de FFF7FEBF 		b	_test_assert_sequence
 634              		.cfi_endproc
 635              	.LFE32:
 636              		.size	mtx7_execute, .-mtx7_execute
 637 00e2 00BFAFF3 		.section	.text.mtx6_execute,"ax",%progbits
 637      0080AFF3 
 637      0080AFF3 
 637      0080
 638              		.align	2
 639              		.p2align 4,,15
 640              		.thumb
 641              		.thumb_func
 642              		.type	mtx6_execute, %function
 643              	mtx6_execute:
 644              	.LFB30:
 645              		.loc 1 493 0
 646              		.cfi_startproc
 647              		@ args = 0, pretend = 0, frame = 0
 648              		@ frame_needed = 0, uses_anonymous_args = 0
 649              		.loc 1 495 0
 650 0000 40F20003 		movw	r3, #:lower16:rlist
 651              		.loc 1 493 0
 652 0004 F0B5     		push	{r4, r5, r6, r7, lr}
 653              	.LCFI13:
 654              		.cfi_def_cfa_offset 20
 655              		.cfi_offset 14, -4
 656              		.cfi_offset 7, -8
 657              		.cfi_offset 6, -12
 658              		.cfi_offset 5, -16
 659              		.cfi_offset 4, -20
 660              		.loc 1 495 0
 661 0006 C0F20003 		movt	r3, #:upper16:rlist
 662 000a 9B69     		ldr	r3, [r3, #24]
 663              		.loc 1 496 0
 664 000c 40F20006 		movw	r6, #:lower16:wa
 665              		.loc 1 495 0
 666 0010 9F68     		ldr	r7, [r3, #8]
 667              	.LVL12:
 668              		.loc 1 496 0
 669 0012 40F20005 		movw	r5, #:lower16:thread10
 670 0016 C0F20006 		movt	r6, #:upper16:wa
 671 001a C0F20005 		movt	r5, #:upper16:thread10
 672 001e 40F20004 		movw	r4, #:lower16:.LC4
 673              		.loc 1 493 0
 674 0022 83B0     		sub	sp, sp, #12
 675              	.LCFI14:
 676              		.cfi_def_cfa_offset 32
 677              		.loc 1 496 0
 678 0024 7A1C     		adds	r2, r7, #1
 679 0026 2B46     		mov	r3, r5
ARM GAS  /tmp/ccIJOhmt.s 			page 13


 680 0028 3068     		ldr	r0, [r6, #0]
 681 002a 4FF49871 		mov	r1, #304
 682 002e C0F20004 		movt	r4, #:upper16:.LC4
 683 0032 0094     		str	r4, [sp, #0]
 684 0034 FFF7FEFF 		bl	chThdCreateStatic
 685              	.LVL13:
 686 0038 40F20004 		movw	r4, #:lower16:threads
 687              		.loc 1 497 0
 688 003c 7168     		ldr	r1, [r6, #4]
 689              		.loc 1 496 0
 690 003e C0F20004 		movt	r4, #:upper16:threads
 691              		.loc 1 497 0
 692 0042 40F2000E 		movw	lr, #:lower16:.LC5
 693              		.loc 1 496 0
 694 0046 2060     		str	r0, [r4, #0]
 695              		.loc 1 497 0
 696 0048 BA1C     		adds	r2, r7, #2
 697 004a 2B46     		mov	r3, r5
 698 004c C0F2000E 		movt	lr, #:upper16:.LC5
 699 0050 0846     		mov	r0, r1
 700 0052 4FF49871 		mov	r1, #304
 701 0056 CDF800E0 		str	lr, [sp, #0]
 702 005a FFF7FEFF 		bl	chThdCreateStatic
 703              		.loc 1 498 0
 704 005e B168     		ldr	r1, [r6, #8]
 705 0060 40F2000E 		movw	lr, #:lower16:.LC1
 706              		.loc 1 497 0
 707 0064 6060     		str	r0, [r4, #4]
 708              		.loc 1 498 0
 709 0066 FA1C     		adds	r2, r7, #3
 710 0068 2B46     		mov	r3, r5
 711 006a C0F2000E 		movt	lr, #:upper16:.LC1
 712 006e 0846     		mov	r0, r1
 713 0070 4FF49871 		mov	r1, #304
 714 0074 CDF800E0 		str	lr, [sp, #0]
 715 0078 FFF7FEFF 		bl	chThdCreateStatic
 716              		.loc 1 499 0
 717 007c F168     		ldr	r1, [r6, #12]
 718 007e 40F2000E 		movw	lr, #:lower16:.LC2
 719              		.loc 1 498 0
 720 0082 A060     		str	r0, [r4, #8]
 721              		.loc 1 499 0
 722 0084 C0F2000E 		movt	lr, #:upper16:.LC2
 723 0088 3A1D     		adds	r2, r7, #4
 724 008a 2B46     		mov	r3, r5
 725 008c 0846     		mov	r0, r1
 726 008e 4FF49871 		mov	r1, #304
 727 0092 CDF800E0 		str	lr, [sp, #0]
 728 0096 FFF7FEFF 		bl	chThdCreateStatic
 729              		.loc 1 500 0
 730 009a 3269     		ldr	r2, [r6, #16]
 731 009c 2B46     		mov	r3, r5
 732 009e 40F20005 		movw	r5, #:lower16:.LC0
 733              		.loc 1 499 0
 734 00a2 E060     		str	r0, [r4, #12]
 735              		.loc 1 500 0
 736 00a4 4FF49871 		mov	r1, #304
ARM GAS  /tmp/ccIJOhmt.s 			page 14


 737 00a8 1046     		mov	r0, r2
 738 00aa C0F20005 		movt	r5, #:upper16:.LC0
 739 00ae 7A1D     		adds	r2, r7, #5
 740 00b0 0095     		str	r5, [sp, #0]
 741 00b2 FFF7FEFF 		bl	chThdCreateStatic
 742              	.LBB2:
 743              		.loc 1 501 0
 744 00b6 2023     		movs	r3, #32
 745              	.LVL14:
 746              	.LBE2:
 747              		.loc 1 500 0
 748 00b8 2061     		str	r0, [r4, #16]
 749              	.LBB3:
 750              		.loc 1 501 0
 751              	@ 501 "../../test/testmtx.c" 1
 752 00ba 83F31188 		msr     BASEPRI, r3
 753              	@ 0 "" 2
 754              	.LVL15:
 755              		.thumb
 756              	.LBE3:
 757              		.loc 1 502 0
 758 00be 40F20004 		movw	r4, #:lower16:.LANCHOR0
 759 00c2 C0F20004 		movt	r4, #:upper16:.LANCHOR0
 760 00c6 2046     		mov	r0, r4
 761 00c8 FFF7FEFF 		bl	chCondSignalI
 762              	.LVL16:
 763              		.loc 1 503 0
 764 00cc 2046     		mov	r0, r4
 765 00ce FFF7FEFF 		bl	chCondSignalI
 766              		.loc 1 504 0
 767 00d2 2046     		mov	r0, r4
 768 00d4 FFF7FEFF 		bl	chCondSignalI
 769              		.loc 1 505 0
 770 00d8 2046     		mov	r0, r4
 771 00da FFF7FEFF 		bl	chCondSignalI
 772              		.loc 1 506 0
 773 00de 2046     		mov	r0, r4
 774 00e0 FFF7FEFF 		bl	chCondSignalI
 775              		.loc 1 507 0
 776 00e4 FFF7FEFF 		bl	chSchRescheduleS
 777              	.LBB4:
 778              		.loc 1 508 0
 779 00e8 0023     		movs	r3, #0
 780              	.LVL17:
 781              	@ 508 "../../test/testmtx.c" 1
 782 00ea 83F31188 		msr     BASEPRI, r3
 783              	@ 0 "" 2
 784              	.LVL18:
 785              		.thumb
 786              	.LBE4:
 787              		.loc 1 509 0
 788 00ee FFF7FEFF 		bl	test_wait_threads
 789              	.LVL19:
 790              		.loc 1 510 0
 791 00f2 40F20001 		movw	r1, #:lower16:.LC6
 792 00f6 0120     		movs	r0, #1
 793 00f8 C0F20001 		movt	r1, #:upper16:.LC6
ARM GAS  /tmp/ccIJOhmt.s 			page 15


 794              		.loc 1 511 0
 795 00fc 03B0     		add	sp, sp, #12
 796 00fe BDE8F040 		pop	{r4, r5, r6, r7, lr}
 797              		.loc 1 510 0
 798 0102 FFF7FEBF 		b	_test_assert_sequence
 799              		.cfi_endproc
 800              	.LFE30:
 801              		.size	mtx6_execute, .-mtx6_execute
 802 0106 00BFAFF3 		.section	.text.mtx1_execute,"ax",%progbits
 802      0080AFF3 
 802      0080
 803              		.align	2
 804              		.p2align 4,,15
 805              		.thumb
 806              		.thumb_func
 807              		.type	mtx1_execute, %function
 808              	mtx1_execute:
 809              	.LFB9:
 810              		.loc 1 97 0
 811              		.cfi_startproc
 812              		@ args = 0, pretend = 0, frame = 0
 813              		@ frame_needed = 0, uses_anonymous_args = 0
 814 0000 F0B5     		push	{r4, r5, r6, r7, lr}
 815              	.LCFI15:
 816              		.cfi_def_cfa_offset 20
 817              		.cfi_offset 14, -4
 818              		.cfi_offset 7, -8
 819              		.cfi_offset 6, -12
 820              		.cfi_offset 5, -16
 821              		.cfi_offset 4, -20
 822              		.loc 1 99 0
 823 0002 2F4F     		ldr	r7, .L20
 824              		.loc 1 101 0
 825 0004 2F4E     		ldr	r6, .L20+4
 826              		.loc 1 99 0
 827 0006 BB69     		ldr	r3, [r7, #24]
 828              		.loc 1 97 0
 829 0008 83B0     		sub	sp, sp, #12
 830              	.LCFI16:
 831              		.cfi_def_cfa_offset 32
 832              		.loc 1 99 0
 833 000a 9C68     		ldr	r4, [r3, #8]
 834              	.LVL20:
 835              		.loc 1 100 0
 836 000c 2E48     		ldr	r0, .L20+8
 837              		.loc 1 101 0
 838 000e 2F4D     		ldr	r5, .L20+12
 839              		.loc 1 100 0
 840 0010 FFF7FEFF 		bl	chMtxLock
 841              	.LVL21:
 842              		.loc 1 101 0
 843 0014 621C     		adds	r2, r4, #1
 844 0016 3068     		ldr	r0, [r6, #0]
 845 0018 4FF49871 		mov	r1, #304
 846 001c 2C4B     		ldr	r3, .L20+16
 847 001e 0095     		str	r5, [sp, #0]
 848 0020 FFF7FEFF 		bl	chThdCreateStatic
ARM GAS  /tmp/ccIJOhmt.s 			page 16


 849 0024 2B4D     		ldr	r5, .L20+20
 850              		.loc 1 102 0
 851 0026 D6F804E0 		ldr	lr, [r6, #4]
 852              		.loc 1 101 0
 853 002a 2860     		str	r0, [r5, #0]
 854              		.loc 1 102 0
 855 002c 7046     		mov	r0, lr
 856 002e DFF8B0E0 		ldr	lr, .L20+32
 857 0032 A21C     		adds	r2, r4, #2
 858 0034 4FF49871 		mov	r1, #304
 859 0038 254B     		ldr	r3, .L20+16
 860 003a CDF800E0 		str	lr, [sp, #0]
 861 003e FFF7FEFF 		bl	chThdCreateStatic
 862              		.loc 1 103 0
 863 0042 D6F808E0 		ldr	lr, [r6, #8]
 864              		.loc 1 102 0
 865 0046 6860     		str	r0, [r5, #4]
 866              		.loc 1 103 0
 867 0048 7046     		mov	r0, lr
 868 004a DFF898E0 		ldr	lr, .L20+36
 869 004e E21C     		adds	r2, r4, #3
 870 0050 4FF49871 		mov	r1, #304
 871 0054 1E4B     		ldr	r3, .L20+16
 872 0056 CDF800E0 		str	lr, [sp, #0]
 873 005a FFF7FEFF 		bl	chThdCreateStatic
 874              		.loc 1 104 0
 875 005e D6F80CE0 		ldr	lr, [r6, #12]
 876              		.loc 1 103 0
 877 0062 A860     		str	r0, [r5, #8]
 878              		.loc 1 104 0
 879 0064 7046     		mov	r0, lr
 880 0066 DFF880E0 		ldr	lr, .L20+40
 881 006a 221D     		adds	r2, r4, #4
 882 006c 4FF49871 		mov	r1, #304
 883 0070 174B     		ldr	r3, .L20+16
 884 0072 CDF800E0 		str	lr, [sp, #0]
 885 0076 FFF7FEFF 		bl	chThdCreateStatic
 886              		.loc 1 105 0
 887 007a 3669     		ldr	r6, [r6, #16]
 888              		.loc 1 104 0
 889 007c E860     		str	r0, [r5, #12]
 890              		.loc 1 105 0
 891 007e 3046     		mov	r0, r6
 892 0080 154E     		ldr	r6, .L20+24
 893 0082 4FF49871 		mov	r1, #304
 894 0086 621D     		adds	r2, r4, #5
 895 0088 114B     		ldr	r3, .L20+16
 896 008a 0096     		str	r6, [sp, #0]
 897 008c FFF7FEFF 		bl	chThdCreateStatic
 898 0090 2861     		str	r0, [r5, #16]
 899              		.loc 1 106 0
 900 0092 FFF7FEFF 		bl	chMtxUnlock
 901              		.loc 1 107 0
 902 0096 FFF7FEFF 		bl	test_wait_threads
 903              		.loc 1 108 0
 904 009a BB69     		ldr	r3, [r7, #24]
 905 009c 0120     		movs	r0, #1
ARM GAS  /tmp/ccIJOhmt.s 			page 17


 906 009e 9968     		ldr	r1, [r3, #8]
 907 00a0 0B1B     		subs	r3, r1, r4
 908 00a2 5942     		rsbs	r1, r3, #0
 909 00a4 41EB0301 		adc	r1, r1, r3
 910 00a8 FFF7FEFF 		bl	_test_assert
 911 00ac 08B1     		cbz	r0, .L19
 912              		.loc 1 110 0
 913 00ae 03B0     		add	sp, sp, #12
 914 00b0 F0BD     		pop	{r4, r5, r6, r7, pc}
 915              	.L19:
 916              		.loc 1 109 0
 917 00b2 0A49     		ldr	r1, .L20+28
 918 00b4 0220     		movs	r0, #2
 919              		.loc 1 110 0
 920 00b6 03B0     		add	sp, sp, #12
 921 00b8 BDE8F040 		pop	{r4, r5, r6, r7, lr}
 922              		.loc 1 109 0
 923 00bc FFF7FEBF 		b	_test_assert_sequence
 924              	.L21:
 925              		.align	2
 926              	.L20:
 927 00c0 00000000 		.word	rlist
 928 00c4 00000000 		.word	wa
 929 00c8 00000000 		.word	.LANCHOR2
 930 00cc 10000000 		.word	.LC4
 931 00d0 00000000 		.word	thread1
 932 00d4 00000000 		.word	threads
 933 00d8 00000000 		.word	.LC0
 934 00dc 18000000 		.word	.LC6
 935 00e0 14000000 		.word	.LC5
 936 00e4 04000000 		.word	.LC1
 937 00e8 08000000 		.word	.LC2
 938              		.cfi_endproc
 939              	.LFE9:
 940              		.size	mtx1_execute, .-mtx1_execute
 941 00ec AFF30080 		.section	.text.mtx5_execute,"ax",%progbits
 942              		.align	2
 943              		.p2align 4,,15
 944              		.thumb
 945              		.thumb_func
 946              		.type	mtx5_execute, %function
 947              	mtx5_execute:
 948              	.LFB27:
 949              		.loc 1 433 0
 950              		.cfi_startproc
 951              		@ args = 0, pretend = 0, frame = 0
 952              		@ frame_needed = 0, uses_anonymous_args = 0
 953 0000 F8B5     		push	{r3, r4, r5, r6, r7, lr}
 954              	.LCFI17:
 955              		.cfi_def_cfa_offset 24
 956              		.cfi_offset 14, -4
 957              		.cfi_offset 7, -8
 958              		.cfi_offset 6, -12
 959              		.cfi_offset 5, -16
 960              		.cfi_offset 4, -20
 961              		.cfi_offset 3, -24
 962              		.loc 1 437 0
ARM GAS  /tmp/ccIJOhmt.s 			page 18


 963 0002 2F4D     		ldr	r5, .L25
 964              		.loc 1 439 0
 965 0004 2F4C     		ldr	r4, .L25+4
 966              		.loc 1 437 0
 967 0006 AB69     		ldr	r3, [r5, #24]
 968              		.loc 1 439 0
 969 0008 2046     		mov	r0, r4
 970              		.loc 1 437 0
 971 000a 9E68     		ldr	r6, [r3, #8]
 972              	.LVL22:
 973              		.loc 1 439 0
 974 000c FFF7FEFF 		bl	chMtxTryLock
 975              	.LVL23:
 976 0010 0146     		mov	r1, r0
 977              	.LVL24:
 978              		.loc 1 440 0
 979 0012 0120     		movs	r0, #1
 980              	.LVL25:
 981 0014 FFF7FEFF 		bl	_test_assert
 982              	.LVL26:
 983 0018 00B1     		cbz	r0, .L24
 984              	.L22:
 985 001a F8BD     		pop	{r3, r4, r5, r6, r7, pc}
 986              	.L24:
 987              		.loc 1 442 0
 988 001c 2046     		mov	r0, r4
 989 001e FFF7FEFF 		bl	chMtxTryLock
 990              	.LVL27:
 991              		.loc 1 443 0
 992 0022 D0F10101 		rsbs	r1, r0, #1
 993 0026 38BF     		it	cc
 994 0028 0021     		movcc	r1, #0
 995 002a 0220     		movs	r0, #2
 996              	.LVL28:
 997 002c FFF7FEFF 		bl	_test_assert
 998 0030 0746     		mov	r7, r0
 999 0032 0028     		cmp	r0, #0
 1000 0034 F1D1     		bne	.L22
 1001              	.LBB5:
 1002              		.loc 1 445 0
 1003 0036 2023     		movs	r3, #32
 1004              	.LVL29:
 1005              	@ 445 "../../test/testmtx.c" 1
 1006 0038 83F31188 		msr     BASEPRI, r3
 1007              	@ 0 "" 2
 1008              	.LVL30:
 1009              		.thumb
 1010              	.LBE5:
 1011              		.loc 1 446 0
 1012 003c FFF7FEFF 		bl	chMtxUnlockS
 1013              	.LVL31:
 1014              	.LBB6:
 1015              		.loc 1 447 0
 1016 0040 3B46     		mov	r3, r7
 1017              	.LVL32:
 1018              	@ 447 "../../test/testmtx.c" 1
 1019 0042 83F31188 		msr     BASEPRI, r3
ARM GAS  /tmp/ccIJOhmt.s 			page 19


 1020              	@ 0 "" 2
 1021              	.LVL33:
 1022              		.thumb
 1023              	.LBE6:
 1024              		.loc 1 449 0
 1025 0046 2168     		ldr	r1, [r4, #0]
 1026 0048 0320     		movs	r0, #3
 1027 004a C4EB010C 		rsb	ip, r4, r1
 1028 004e DCF10001 		rsbs	r1, ip, #0
 1029 0052 41EB0C01 		adc	r1, r1, ip
 1030 0056 FFF7FEFF 		bl	_test_assert
 1031              	.LVL34:
 1032 005a 0028     		cmp	r0, #0
 1033 005c DDD1     		bne	.L22
 1034              		.loc 1 450 0
 1035 005e A168     		ldr	r1, [r4, #8]
 1036 0060 0420     		movs	r0, #4
 1037 0062 D1F10101 		rsbs	r1, r1, #1
 1038 0066 38BF     		it	cc
 1039 0068 0021     		movcc	r1, #0
 1040 006a FFF7FEFF 		bl	_test_assert
 1041 006e 0028     		cmp	r0, #0
 1042 0070 D3D1     		bne	.L22
 1043              		.loc 1 451 0
 1044 0072 AB69     		ldr	r3, [r5, #24]
 1045 0074 0520     		movs	r0, #5
 1046 0076 9968     		ldr	r1, [r3, #8]
 1047 0078 C6EB010E 		rsb	lr, r6, r1
 1048 007c DEF10001 		rsbs	r1, lr, #0
 1049 0080 41EB0E01 		adc	r1, r1, lr
 1050 0084 FFF7FEFF 		bl	_test_assert
 1051 0088 0028     		cmp	r0, #0
 1052 008a C6D1     		bne	.L22
 1053              		.loc 1 453 0
 1054 008c 2046     		mov	r0, r4
 1055 008e FFF7FEFF 		bl	chMtxLock
 1056              		.loc 1 454 0
 1057 0092 FFF7FEFF 		bl	chMtxUnlockAll
 1058              		.loc 1 455 0
 1059 0096 2168     		ldr	r1, [r4, #0]
 1060 0098 0620     		movs	r0, #6
 1061 009a 0A1B     		subs	r2, r1, r4
 1062 009c 5142     		rsbs	r1, r2, #0
 1063 009e 41EB0201 		adc	r1, r1, r2
 1064 00a2 FFF7FEFF 		bl	_test_assert
 1065 00a6 0028     		cmp	r0, #0
 1066 00a8 B7D1     		bne	.L22
 1067              		.loc 1 456 0
 1068 00aa A168     		ldr	r1, [r4, #8]
 1069 00ac 0720     		movs	r0, #7
 1070 00ae D1F10101 		rsbs	r1, r1, #1
 1071 00b2 38BF     		it	cc
 1072 00b4 0021     		movcc	r1, #0
 1073              		.loc 1 457 0
 1074 00b6 BDE8F840 		pop	{r3, r4, r5, r6, r7, lr}
 1075              		.loc 1 456 0
 1076 00ba FFF7FEBF 		b	_test_assert
ARM GAS  /tmp/ccIJOhmt.s 			page 20


 1077              	.L26:
 1078 00be 00BF     		.align	2
 1079              	.L25:
 1080 00c0 00000000 		.word	rlist
 1081 00c4 00000000 		.word	.LANCHOR2
 1082              		.cfi_endproc
 1083              	.LFE27:
 1084              		.size	mtx5_execute, .-mtx5_execute
 1085 00c8 AFF30080 		.section	.text.mtx4_execute,"ax",%progbits
 1085      AFF30080 
 1086              		.align	2
 1087              		.p2align 4,,15
 1088              		.thumb
 1089              		.thumb_func
 1090              		.type	mtx4_execute, %function
 1091              	mtx4_execute:
 1092              	.LFB25:
 1093              		.loc 1 365 0
 1094              		.cfi_startproc
 1095              		@ args = 0, pretend = 0, frame = 0
 1096              		@ frame_needed = 0, uses_anonymous_args = 0
 1097 0000 2DE9F047 		push	{r4, r5, r6, r7, r8, r9, sl, lr}
 1098              	.LCFI18:
 1099              		.cfi_def_cfa_offset 32
 1100              		.cfi_offset 14, -4
 1101              		.cfi_offset 10, -8
 1102              		.cfi_offset 9, -12
 1103              		.cfi_offset 8, -16
 1104              		.cfi_offset 7, -20
 1105              		.cfi_offset 6, -24
 1106              		.cfi_offset 5, -28
 1107              		.cfi_offset 4, -32
 1108              		.loc 1 368 0
 1109 0004 914D     		ldr	r5, .L30
 1110              		.loc 1 371 0
 1111 0006 924F     		ldr	r7, .L30+4
 1112              		.loc 1 368 0
 1113 0008 AB69     		ldr	r3, [r5, #24]
 1114              		.loc 1 371 0
 1115 000a D7F800A0 		ldr	sl, [r7, #0]
 1116              		.loc 1 368 0
 1117 000e 9C68     		ldr	r4, [r3, #8]
 1118              	.LVL35:
 1119              		.loc 1 371 0
 1120 0010 904E     		ldr	r6, .L30+8
 1121              		.loc 1 369 0
 1122 0012 04F10108 		add	r8, r4, #1
 1123              	.LVL36:
 1124              		.loc 1 365 0
 1125 0016 82B0     		sub	sp, sp, #8
 1126              	.LCFI19:
 1127              		.cfi_def_cfa_offset 40
 1128              		.loc 1 371 0
 1129 0018 4FF49871 		mov	r1, #304
 1130 001c 4246     		mov	r2, r8
 1131 001e 8E4B     		ldr	r3, .L30+12
 1132 0020 5046     		mov	r0, sl
ARM GAS  /tmp/ccIJOhmt.s 			page 21


 1133 0022 0096     		str	r6, [sp, #0]
 1134 0024 FFF7FEFF 		bl	chThdCreateStatic
 1135              	.LVL37:
 1136 0028 8C4E     		ldr	r6, .L30+16
 1137              		.loc 1 372 0
 1138 002a D7F80490 		ldr	r9, [r7, #4]
 1139 002e DFF83CE2 		ldr	lr, .L30+32
 1140              		.loc 1 370 0
 1141 0032 A71C     		adds	r7, r4, #2
 1142              	.LVL38:
 1143              		.loc 1 372 0
 1144 0034 4FF49871 		mov	r1, #304
 1145              		.loc 1 371 0
 1146 0038 3060     		str	r0, [r6, #0]
 1147              		.loc 1 372 0
 1148 003a 3A46     		mov	r2, r7
 1149 003c 884B     		ldr	r3, .L30+20
 1150 003e 4846     		mov	r0, r9
 1151 0040 CDF800E0 		str	lr, [sp, #0]
 1152 0044 FFF7FEFF 		bl	chThdCreateStatic
 1153 0048 7060     		str	r0, [r6, #4]
 1154              		.loc 1 373 0
 1155 004a 8648     		ldr	r0, .L30+24
 1156 004c FFF7FEFF 		bl	chMtxLock
 1157              		.loc 1 374 0
 1158 0050 AB69     		ldr	r3, [r5, #24]
 1159 0052 0120     		movs	r0, #1
 1160 0054 9968     		ldr	r1, [r3, #8]
 1161 0056 0A1B     		subs	r2, r1, r4
 1162 0058 5142     		rsbs	r1, r2, #0
 1163 005a 41EB0201 		adc	r1, r1, r2
 1164 005e FFF7FEFF 		bl	_test_assert
 1165 0062 10B1     		cbz	r0, .L29
 1166              	.L27:
 1167              		.loc 1 409 0
 1168 0064 02B0     		add	sp, sp, #8
 1169 0066 BDE8F087 		pop	{r4, r5, r6, r7, r8, r9, sl, pc}
 1170              	.L29:
 1171              		.loc 1 375 0
 1172 006a 6420     		movs	r0, #100
 1173 006c FFF7FEFF 		bl	chThdSleep
 1174              		.loc 1 376 0
 1175 0070 AB69     		ldr	r3, [r5, #24]
 1176 0072 0220     		movs	r0, #2
 1177 0074 9968     		ldr	r1, [r3, #8]
 1178 0076 C8EB0103 		rsb	r3, r8, r1
 1179 007a 5942     		rsbs	r1, r3, #0
 1180 007c 41EB0301 		adc	r1, r1, r3
 1181 0080 FFF7FEFF 		bl	_test_assert
 1182 0084 0028     		cmp	r0, #0
 1183 0086 EDD1     		bne	.L27
 1184              		.loc 1 377 0
 1185 0088 7748     		ldr	r0, .L30+28
 1186 008a FFF7FEFF 		bl	chMtxLock
 1187              		.loc 1 378 0
 1188 008e AB69     		ldr	r3, [r5, #24]
 1189 0090 0320     		movs	r0, #3
ARM GAS  /tmp/ccIJOhmt.s 			page 22


 1190 0092 9968     		ldr	r1, [r3, #8]
 1191 0094 C8EB010C 		rsb	ip, r8, r1
 1192 0098 DCF10001 		rsbs	r1, ip, #0
 1193 009c 41EB0C01 		adc	r1, r1, ip
 1194 00a0 FFF7FEFF 		bl	_test_assert
 1195 00a4 0028     		cmp	r0, #0
 1196 00a6 DDD1     		bne	.L27
 1197              		.loc 1 379 0
 1198 00a8 6420     		movs	r0, #100
 1199 00aa FFF7FEFF 		bl	chThdSleep
 1200              		.loc 1 380 0
 1201 00ae AB69     		ldr	r3, [r5, #24]
 1202 00b0 0420     		movs	r0, #4
 1203 00b2 9968     		ldr	r1, [r3, #8]
 1204 00b4 C7EB010E 		rsb	lr, r7, r1
 1205 00b8 DEF10001 		rsbs	r1, lr, #0
 1206 00bc 41EB0E01 		adc	r1, r1, lr
 1207 00c0 FFF7FEFF 		bl	_test_assert
 1208 00c4 0028     		cmp	r0, #0
 1209 00c6 CDD1     		bne	.L27
 1210              		.loc 1 381 0
 1211 00c8 FFF7FEFF 		bl	chMtxUnlock
 1212              		.loc 1 382 0
 1213 00cc AB69     		ldr	r3, [r5, #24]
 1214 00ce 0520     		movs	r0, #5
 1215 00d0 9968     		ldr	r1, [r3, #8]
 1216 00d2 C8EB0102 		rsb	r2, r8, r1
 1217 00d6 5142     		rsbs	r1, r2, #0
 1218 00d8 41EB0201 		adc	r1, r1, r2
 1219 00dc FFF7FEFF 		bl	_test_assert
 1220 00e0 0028     		cmp	r0, #0
 1221 00e2 BFD1     		bne	.L27
 1222              		.loc 1 383 0
 1223 00e4 6420     		movs	r0, #100
 1224 00e6 FFF7FEFF 		bl	chThdSleep
 1225              		.loc 1 384 0
 1226 00ea AB69     		ldr	r3, [r5, #24]
 1227 00ec 0620     		movs	r0, #6
 1228 00ee 9968     		ldr	r1, [r3, #8]
 1229 00f0 C8EB0103 		rsb	r3, r8, r1
 1230 00f4 5942     		rsbs	r1, r3, #0
 1231 00f6 41EB0301 		adc	r1, r1, r3
 1232 00fa FFF7FEFF 		bl	_test_assert
 1233 00fe 0028     		cmp	r0, #0
 1234 0100 B0D1     		bne	.L27
 1235              		.loc 1 385 0
 1236 0102 FFF7FEFF 		bl	chMtxUnlockAll
 1237              		.loc 1 386 0
 1238 0106 AB69     		ldr	r3, [r5, #24]
 1239 0108 0720     		movs	r0, #7
 1240 010a 9968     		ldr	r1, [r3, #8]
 1241 010c C4EB010C 		rsb	ip, r4, r1
 1242 0110 DCF10001 		rsbs	r1, ip, #0
 1243 0114 41EB0C01 		adc	r1, r1, ip
 1244 0118 FFF7FEFF 		bl	_test_assert
 1245 011c 0028     		cmp	r0, #0
 1246 011e A1D1     		bne	.L27
ARM GAS  /tmp/ccIJOhmt.s 			page 23


 1247              		.loc 1 387 0
 1248 0120 FFF7FEFF 		bl	test_wait_threads
 1249              		.loc 1 390 0
 1250 0124 DFF848E1 		ldr	lr, .L30+36
 1251 0128 4FF49871 		mov	r1, #304
 1252 012c 4246     		mov	r2, r8
 1253 012e 4A4B     		ldr	r3, .L30+12
 1254 0130 5046     		mov	r0, sl
 1255 0132 CDF800E0 		str	lr, [sp, #0]
 1256 0136 FFF7FEFF 		bl	chThdCreateStatic
 1257              		.loc 1 391 0
 1258 013a DFF838E1 		ldr	lr, .L30+40
 1259 013e 4FF49871 		mov	r1, #304
 1260              		.loc 1 390 0
 1261 0142 3060     		str	r0, [r6, #0]
 1262              		.loc 1 391 0
 1263 0144 464B     		ldr	r3, .L30+20
 1264 0146 3A46     		mov	r2, r7
 1265 0148 4846     		mov	r0, r9
 1266 014a CDF800E0 		str	lr, [sp, #0]
 1267 014e FFF7FEFF 		bl	chThdCreateStatic
 1268 0152 7060     		str	r0, [r6, #4]
 1269              		.loc 1 392 0
 1270 0154 4348     		ldr	r0, .L30+24
 1271 0156 FFF7FEFF 		bl	chMtxLock
 1272              		.loc 1 393 0
 1273 015a AB69     		ldr	r3, [r5, #24]
 1274 015c 0820     		movs	r0, #8
 1275 015e 9968     		ldr	r1, [r3, #8]
 1276 0160 C4EB010E 		rsb	lr, r4, r1
 1277 0164 DEF10001 		rsbs	r1, lr, #0
 1278 0168 41EB0E01 		adc	r1, r1, lr
 1279 016c FFF7FEFF 		bl	_test_assert
 1280 0170 0028     		cmp	r0, #0
 1281 0172 7FF477AF 		bne	.L27
 1282              		.loc 1 394 0
 1283 0176 6420     		movs	r0, #100
 1284 0178 FFF7FEFF 		bl	chThdSleep
 1285              		.loc 1 395 0
 1286 017c AB69     		ldr	r3, [r5, #24]
 1287 017e 0920     		movs	r0, #9
 1288 0180 9968     		ldr	r1, [r3, #8]
 1289 0182 C8EB0102 		rsb	r2, r8, r1
 1290 0186 5142     		rsbs	r1, r2, #0
 1291 0188 41EB0201 		adc	r1, r1, r2
 1292 018c FFF7FEFF 		bl	_test_assert
 1293 0190 0028     		cmp	r0, #0
 1294 0192 7FF467AF 		bne	.L27
 1295              		.loc 1 396 0
 1296 0196 3448     		ldr	r0, .L30+28
 1297 0198 FFF7FEFF 		bl	chMtxLock
 1298              		.loc 1 397 0
 1299 019c AB69     		ldr	r3, [r5, #24]
 1300 019e 0A20     		movs	r0, #10
 1301 01a0 9968     		ldr	r1, [r3, #8]
 1302 01a2 C8EB0103 		rsb	r3, r8, r1
 1303 01a6 5942     		rsbs	r1, r3, #0
ARM GAS  /tmp/ccIJOhmt.s 			page 24


 1304 01a8 41EB0301 		adc	r1, r1, r3
 1305 01ac FFF7FEFF 		bl	_test_assert
 1306 01b0 0028     		cmp	r0, #0
 1307 01b2 7FF457AF 		bne	.L27
 1308              		.loc 1 398 0
 1309 01b6 6420     		movs	r0, #100
 1310 01b8 FFF7FEFF 		bl	chThdSleep
 1311              		.loc 1 399 0
 1312 01bc AB69     		ldr	r3, [r5, #24]
 1313 01be 0B20     		movs	r0, #11
 1314 01c0 9968     		ldr	r1, [r3, #8]
 1315 01c2 C7EB010C 		rsb	ip, r7, r1
 1316 01c6 DCF10001 		rsbs	r1, ip, #0
 1317 01ca 41EB0C01 		adc	r1, r1, ip
 1318 01ce FFF7FEFF 		bl	_test_assert
 1319 01d2 0646     		mov	r6, r0
 1320 01d4 0028     		cmp	r0, #0
 1321 01d6 7FF445AF 		bne	.L27
 1322              	.LBB7:
 1323              		.loc 1 400 0
 1324 01da 2023     		movs	r3, #32
 1325              	.LVL39:
 1326              	@ 400 "../../test/testmtx.c" 1
 1327 01dc 83F31188 		msr     BASEPRI, r3
 1328              	@ 0 "" 2
 1329              	.LVL40:
 1330              		.thumb
 1331              	.LBE7:
 1332              		.loc 1 401 0
 1333 01e0 FFF7FEFF 		bl	chMtxUnlockS
 1334              	.LVL41:
 1335              	.LBB8:
 1336              		.loc 1 402 0
 1337 01e4 3346     		mov	r3, r6
 1338              	.LVL42:
 1339              	@ 402 "../../test/testmtx.c" 1
 1340 01e6 83F31188 		msr     BASEPRI, r3
 1341              	@ 0 "" 2
 1342              	.LVL43:
 1343              		.thumb
 1344              	.LBE8:
 1345              		.loc 1 403 0
 1346 01ea AB69     		ldr	r3, [r5, #24]
 1347              	.LVL44:
 1348 01ec 0C20     		movs	r0, #12
 1349 01ee 9968     		ldr	r1, [r3, #8]
 1350 01f0 C8EB010E 		rsb	lr, r8, r1
 1351 01f4 DEF10001 		rsbs	r1, lr, #0
 1352 01f8 41EB0E01 		adc	r1, r1, lr
 1353 01fc FFF7FEFF 		bl	_test_assert
 1354 0200 0028     		cmp	r0, #0
 1355 0202 7FF42FAF 		bne	.L27
 1356              		.loc 1 404 0
 1357 0206 6420     		movs	r0, #100
 1358 0208 FFF7FEFF 		bl	chThdSleep
 1359              		.loc 1 405 0
 1360 020c AB69     		ldr	r3, [r5, #24]
ARM GAS  /tmp/ccIJOhmt.s 			page 25


 1361 020e 0D20     		movs	r0, #13
 1362 0210 9968     		ldr	r1, [r3, #8]
 1363 0212 C8EB0102 		rsb	r2, r8, r1
 1364 0216 5142     		rsbs	r1, r2, #0
 1365 0218 41EB0201 		adc	r1, r1, r2
 1366 021c FFF7FEFF 		bl	_test_assert
 1367 0220 0028     		cmp	r0, #0
 1368 0222 7FF41FAF 		bne	.L27
 1369              		.loc 1 406 0
 1370 0226 FFF7FEFF 		bl	chMtxUnlockAll
 1371              		.loc 1 407 0
 1372 022a AB69     		ldr	r3, [r5, #24]
 1373 022c 0E20     		movs	r0, #14
 1374 022e 9968     		ldr	r1, [r3, #8]
 1375 0230 0B1B     		subs	r3, r1, r4
 1376 0232 5942     		rsbs	r1, r3, #0
 1377 0234 41EB0301 		adc	r1, r1, r3
 1378 0238 FFF7FEFF 		bl	_test_assert
 1379 023c 0028     		cmp	r0, #0
 1380 023e 7FF411AF 		bne	.L27
 1381              		.loc 1 409 0
 1382 0242 02B0     		add	sp, sp, #8
 1383 0244 BDE8F047 		pop	{r4, r5, r6, r7, r8, r9, sl, lr}
 1384              		.loc 1 408 0
 1385 0248 FFF7FEBF 		b	test_wait_threads
 1386              	.L31:
 1387              		.align	2
 1388              	.L30:
 1389 024c 00000000 		.word	rlist
 1390 0250 00000000 		.word	wa
 1391 0254 08000000 		.word	.LC2
 1392 0258 00000000 		.word	thread4a
 1393 025c 00000000 		.word	threads
 1394 0260 00000000 		.word	thread4b
 1395 0264 00000000 		.word	.LANCHOR1
 1396 0268 00000000 		.word	.LANCHOR2
 1397 026c 00000000 		.word	.LC0
 1398 0270 14000000 		.word	.LC5
 1399 0274 04000000 		.word	.LC1
 1400              		.cfi_endproc
 1401              	.LFE25:
 1402              		.size	mtx4_execute, .-mtx4_execute
 1403 0278 AFF30080 		.section	.text.thread4b,"ax",%progbits
 1403      AFF30080 
 1404              		.align	2
 1405              		.p2align 4,,15
 1406              		.thumb
 1407              		.thumb_func
 1408              		.type	thread4b, %function
 1409              	thread4b:
 1410              	.LFB24:
 1411              		.loc 1 356 0
 1412              		.cfi_startproc
 1413              		@ args = 0, pretend = 0, frame = 0
 1414              		@ frame_needed = 0, uses_anonymous_args = 0
 1415              	.LVL45:
 1416 0000 08B5     		push	{r3, lr}
ARM GAS  /tmp/ccIJOhmt.s 			page 26


 1417              	.LCFI20:
 1418              		.cfi_def_cfa_offset 8
 1419              		.cfi_offset 14, -4
 1420              		.cfi_offset 3, -8
 1421              		.loc 1 359 0
 1422 0002 9620     		movs	r0, #150
 1423              	.LVL46:
 1424 0004 FFF7FEFF 		bl	chThdSleep
 1425              		.loc 1 360 0
 1426 0008 40F20000 		movw	r0, #:lower16:.LANCHOR2
 1427 000c C0F20000 		movt	r0, #:upper16:.LANCHOR2
 1428 0010 FFF7FEFF 		bl	chMtxLock
 1429              		.loc 1 361 0
 1430 0014 FFF7FEFF 		bl	chMtxUnlock
 1431              		.loc 1 363 0
 1432 0018 0020     		movs	r0, #0
 1433 001a 08BD     		pop	{r3, pc}
 1434              		.cfi_endproc
 1435              	.LFE24:
 1436              		.size	thread4b, .-thread4b
 1437 001c AFF30080 		.section	.text.thread4a,"ax",%progbits
 1438              		.align	2
 1439              		.p2align 4,,15
 1440              		.thumb
 1441              		.thumb_func
 1442              		.type	thread4a, %function
 1443              	thread4a:
 1444              	.LFB23:
 1445              		.loc 1 347 0
 1446              		.cfi_startproc
 1447              		@ args = 0, pretend = 0, frame = 0
 1448              		@ frame_needed = 0, uses_anonymous_args = 0
 1449              	.LVL47:
 1450 0000 08B5     		push	{r3, lr}
 1451              	.LCFI21:
 1452              		.cfi_def_cfa_offset 8
 1453              		.cfi_offset 14, -4
 1454              		.cfi_offset 3, -8
 1455              		.loc 1 350 0
 1456 0002 3220     		movs	r0, #50
 1457              	.LVL48:
 1458 0004 FFF7FEFF 		bl	chThdSleep
 1459              		.loc 1 351 0
 1460 0008 40F20000 		movw	r0, #:lower16:.LANCHOR1
 1461 000c C0F20000 		movt	r0, #:upper16:.LANCHOR1
 1462 0010 FFF7FEFF 		bl	chMtxLock
 1463              		.loc 1 352 0
 1464 0014 FFF7FEFF 		bl	chMtxUnlock
 1465              		.loc 1 354 0
 1466 0018 0020     		movs	r0, #0
 1467 001a 08BD     		pop	{r3, pc}
 1468              		.cfi_endproc
 1469              	.LFE23:
 1470              		.size	thread4a, .-thread4a
 1471 001c AFF30080 		.section	.text.mtx3_execute,"ax",%progbits
 1472              		.align	2
 1473              		.p2align 4,,15
ARM GAS  /tmp/ccIJOhmt.s 			page 27


 1474              		.thumb
 1475              		.thumb_func
 1476              		.type	mtx3_execute, %function
 1477              	mtx3_execute:
 1478              	.LFB21:
 1479              		.loc 1 308 0
 1480              		.cfi_startproc
 1481              		@ args = 0, pretend = 0, frame = 0
 1482              		@ frame_needed = 0, uses_anonymous_args = 0
 1483 0000 2DE9F041 		push	{r4, r5, r6, r7, r8, lr}
 1484              	.LCFI22:
 1485              		.cfi_def_cfa_offset 24
 1486              		.cfi_offset 14, -4
 1487              		.cfi_offset 8, -8
 1488              		.cfi_offset 7, -12
 1489              		.cfi_offset 6, -16
 1490              		.cfi_offset 5, -20
 1491              		.cfi_offset 4, -24
 1492              		.loc 1 313 0
 1493 0004 2D4F     		ldr	r7, .L37
 1494              		.loc 1 308 0
 1495 0006 82B0     		sub	sp, sp, #8
 1496              	.LCFI23:
 1497              		.cfi_def_cfa_offset 32
 1498              		.loc 1 311 0
 1499 0008 FFF7FEFF 		bl	test_wait_tick
 1500              		.loc 1 313 0
 1501 000c BB69     		ldr	r3, [r7, #24]
 1502 000e 2C4E     		ldr	r6, .L37+4
 1503 0010 9A68     		ldr	r2, [r3, #8]
 1504              		.loc 1 312 0
 1505 0012 2C4C     		ldr	r4, .L37+8
 1506              		.loc 1 313 0
 1507 0014 0025     		movs	r5, #0
 1508 0016 3068     		ldr	r0, [r6, #0]
 1509 0018 4FF49871 		mov	r1, #304
 1510 001c 053A     		subs	r2, r2, #5
 1511 001e 2A4B     		ldr	r3, .L37+12
 1512              		.loc 1 312 0
 1513 0020 D4F80C80 		ldr	r8, [r4, #12]
 1514              	.LVL49:
 1515              		.loc 1 313 0
 1516 0024 0095     		str	r5, [sp, #0]
 1517 0026 FFF7FEFF 		bl	chThdCreateStatic
 1518              		.loc 1 314 0
 1519 002a BB69     		ldr	r3, [r7, #24]
 1520              		.loc 1 313 0
 1521 002c 274C     		ldr	r4, .L37+16
 1522              		.loc 1 314 0
 1523 002e 9A68     		ldr	r2, [r3, #8]
 1524 0030 D6F804E0 		ldr	lr, [r6, #4]
 1525              		.loc 1 313 0
 1526 0034 2060     		str	r0, [r4, #0]
 1527              		.loc 1 314 0
 1528 0036 4FF49871 		mov	r1, #304
 1529 003a 043A     		subs	r2, r2, #4
 1530 003c 244B     		ldr	r3, .L37+20
ARM GAS  /tmp/ccIJOhmt.s 			page 28


 1531 003e 7046     		mov	r0, lr
 1532 0040 0095     		str	r5, [sp, #0]
 1533 0042 FFF7FEFF 		bl	chThdCreateStatic
 1534              		.loc 1 315 0
 1535 0046 BB69     		ldr	r3, [r7, #24]
 1536 0048 D6F808E0 		ldr	lr, [r6, #8]
 1537 004c 9A68     		ldr	r2, [r3, #8]
 1538 004e 4FF49871 		mov	r1, #304
 1539              		.loc 1 314 0
 1540 0052 6060     		str	r0, [r4, #4]
 1541              		.loc 1 315 0
 1542 0054 033A     		subs	r2, r2, #3
 1543 0056 1F4B     		ldr	r3, .L37+24
 1544 0058 7046     		mov	r0, lr
 1545 005a 0095     		str	r5, [sp, #0]
 1546 005c FFF7FEFF 		bl	chThdCreateStatic
 1547              		.loc 1 316 0
 1548 0060 BB69     		ldr	r3, [r7, #24]
 1549 0062 D6F80CE0 		ldr	lr, [r6, #12]
 1550 0066 9A68     		ldr	r2, [r3, #8]
 1551 0068 4FF49871 		mov	r1, #304
 1552              		.loc 1 315 0
 1553 006c A060     		str	r0, [r4, #8]
 1554              		.loc 1 316 0
 1555 006e 023A     		subs	r2, r2, #2
 1556 0070 7046     		mov	r0, lr
 1557 0072 194B     		ldr	r3, .L37+28
 1558 0074 0095     		str	r5, [sp, #0]
 1559 0076 FFF7FEFF 		bl	chThdCreateStatic
 1560              		.loc 1 317 0
 1561 007a BB69     		ldr	r3, [r7, #24]
 1562 007c 3669     		ldr	r6, [r6, #16]
 1563 007e 9A68     		ldr	r2, [r3, #8]
 1564 0080 4FF49871 		mov	r1, #304
 1565              		.loc 1 316 0
 1566 0084 E060     		str	r0, [r4, #12]
 1567              		.loc 1 317 0
 1568 0086 013A     		subs	r2, r2, #1
 1569 0088 144B     		ldr	r3, .L37+32
 1570 008a 3046     		mov	r0, r6
 1571 008c 0095     		str	r5, [sp, #0]
 1572 008e FFF7FEFF 		bl	chThdCreateStatic
 1573 0092 2061     		str	r0, [r4, #16]
 1574              		.loc 1 318 0
 1575 0094 FFF7FEFF 		bl	test_wait_threads
 1576              		.loc 1 319 0
 1577 0098 0120     		movs	r0, #1
 1578 009a 1149     		ldr	r1, .L37+36
 1579 009c FFF7FEFF 		bl	_test_assert_sequence
 1580 00a0 10B1     		cbz	r0, .L36
 1581              		.loc 1 321 0
 1582 00a2 02B0     		add	sp, sp, #8
 1583 00a4 BDE8F081 		pop	{r4, r5, r6, r7, r8, pc}
 1584              	.L36:
 1585              		.loc 1 320 0
 1586 00a8 0220     		movs	r0, #2
 1587 00aa 08F16E01 		add	r1, r8, #110
ARM GAS  /tmp/ccIJOhmt.s 			page 29


 1588 00ae 08F17302 		add	r2, r8, #115
 1589              		.loc 1 321 0
 1590 00b2 02B0     		add	sp, sp, #8
 1591 00b4 BDE8F041 		pop	{r4, r5, r6, r7, r8, lr}
 1592              		.loc 1 320 0
 1593 00b8 FFF7FEBF 		b	_test_assert_time_window
 1594              	.L38:
 1595              		.align	2
 1596              	.L37:
 1597 00bc 00000000 		.word	rlist
 1598 00c0 00000000 		.word	wa
 1599 00c4 00000000 		.word	vtlist
 1600 00c8 00000000 		.word	thread3LL
 1601 00cc 00000000 		.word	threads
 1602 00d0 00000000 		.word	thread3L
 1603 00d4 00000000 		.word	thread3M
 1604 00d8 00000000 		.word	thread3H
 1605 00dc 00000000 		.word	thread3HH
 1606 00e0 18000000 		.word	.LC6
 1607              		.cfi_endproc
 1608              	.LFE21:
 1609              		.size	mtx3_execute, .-mtx3_execute
 1610 00e4 AFF30080 		.section	.text.mtx2_execute,"ax",%progbits
 1610      AFF30080 
 1610      AFF30080 
 1611              		.align	2
 1612              		.p2align 4,,15
 1613              		.thumb
 1614              		.thumb_func
 1615              		.type	mtx2_execute, %function
 1616              	mtx2_execute:
 1617              	.LFB14:
 1618              		.loc 1 190 0
 1619              		.cfi_startproc
 1620              		@ args = 0, pretend = 0, frame = 0
 1621              		@ frame_needed = 0, uses_anonymous_args = 0
 1622 0000 2DE9F041 		push	{r4, r5, r6, r7, r8, lr}
 1623              	.LCFI24:
 1624              		.cfi_def_cfa_offset 24
 1625              		.cfi_offset 14, -4
 1626              		.cfi_offset 8, -8
 1627              		.cfi_offset 7, -12
 1628              		.cfi_offset 6, -16
 1629              		.cfi_offset 5, -20
 1630              		.cfi_offset 4, -24
 1631              		.loc 1 195 0
 1632 0004 204F     		ldr	r7, .L42
 1633              		.loc 1 190 0
 1634 0006 82B0     		sub	sp, sp, #8
 1635              	.LCFI25:
 1636              		.cfi_def_cfa_offset 32
 1637              		.loc 1 193 0
 1638 0008 FFF7FEFF 		bl	test_wait_tick
 1639              		.loc 1 195 0
 1640 000c BB69     		ldr	r3, [r7, #24]
 1641 000e 1F4E     		ldr	r6, .L42+4
 1642 0010 9A68     		ldr	r2, [r3, #8]
ARM GAS  /tmp/ccIJOhmt.s 			page 30


 1643              		.loc 1 194 0
 1644 0012 1F4C     		ldr	r4, .L42+8
 1645              		.loc 1 195 0
 1646 0014 0025     		movs	r5, #0
 1647 0016 3068     		ldr	r0, [r6, #0]
 1648 0018 4FF49871 		mov	r1, #304
 1649 001c 013A     		subs	r2, r2, #1
 1650 001e 1D4B     		ldr	r3, .L42+12
 1651              		.loc 1 194 0
 1652 0020 D4F80C80 		ldr	r8, [r4, #12]
 1653              	.LVL50:
 1654              		.loc 1 195 0
 1655 0024 0095     		str	r5, [sp, #0]
 1656 0026 FFF7FEFF 		bl	chThdCreateStatic
 1657              		.loc 1 196 0
 1658 002a BB69     		ldr	r3, [r7, #24]
 1659 002c D6F804E0 		ldr	lr, [r6, #4]
 1660 0030 9A68     		ldr	r2, [r3, #8]
 1661              		.loc 1 195 0
 1662 0032 194C     		ldr	r4, .L42+16
 1663              		.loc 1 196 0
 1664 0034 4FF49871 		mov	r1, #304
 1665              		.loc 1 195 0
 1666 0038 2060     		str	r0, [r4, #0]
 1667              		.loc 1 196 0
 1668 003a 023A     		subs	r2, r2, #2
 1669 003c 7046     		mov	r0, lr
 1670 003e 174B     		ldr	r3, .L42+20
 1671 0040 0095     		str	r5, [sp, #0]
 1672 0042 FFF7FEFF 		bl	chThdCreateStatic
 1673              		.loc 1 197 0
 1674 0046 BB69     		ldr	r3, [r7, #24]
 1675 0048 B668     		ldr	r6, [r6, #8]
 1676 004a 9A68     		ldr	r2, [r3, #8]
 1677 004c 4FF49871 		mov	r1, #304
 1678              		.loc 1 196 0
 1679 0050 6060     		str	r0, [r4, #4]
 1680              		.loc 1 197 0
 1681 0052 033A     		subs	r2, r2, #3
 1682 0054 124B     		ldr	r3, .L42+24
 1683 0056 3046     		mov	r0, r6
 1684 0058 0095     		str	r5, [sp, #0]
 1685 005a FFF7FEFF 		bl	chThdCreateStatic
 1686 005e A060     		str	r0, [r4, #8]
 1687              		.loc 1 198 0
 1688 0060 FFF7FEFF 		bl	test_wait_threads
 1689              		.loc 1 199 0
 1690 0064 0120     		movs	r0, #1
 1691 0066 0F49     		ldr	r1, .L42+28
 1692 0068 FFF7FEFF 		bl	_test_assert_sequence
 1693 006c 10B1     		cbz	r0, .L41
 1694              		.loc 1 201 0
 1695 006e 02B0     		add	sp, sp, #8
 1696 0070 BDE8F081 		pop	{r4, r5, r6, r7, r8, pc}
 1697              	.L41:
 1698              		.loc 1 200 0
 1699 0074 0220     		movs	r0, #2
ARM GAS  /tmp/ccIJOhmt.s 			page 31


 1700 0076 08F16401 		add	r1, r8, #100
 1701 007a 08F16902 		add	r2, r8, #105
 1702              		.loc 1 201 0
 1703 007e 02B0     		add	sp, sp, #8
 1704 0080 BDE8F041 		pop	{r4, r5, r6, r7, r8, lr}
 1705              		.loc 1 200 0
 1706 0084 FFF7FEBF 		b	_test_assert_time_window
 1707              	.L43:
 1708              		.align	2
 1709              	.L42:
 1710 0088 00000000 		.word	rlist
 1711 008c 00000000 		.word	wa
 1712 0090 00000000 		.word	vtlist
 1713 0094 00000000 		.word	thread2H
 1714 0098 00000000 		.word	threads
 1715 009c 00000000 		.word	thread2M
 1716 00a0 00000000 		.word	thread2L
 1717 00a4 0C000000 		.word	.LC3
 1718              		.cfi_endproc
 1719              	.LFE14:
 1720              		.size	mtx2_execute, .-mtx2_execute
 1721 00a8 AFF30080 		.section	.text.thread3HH,"ax",%progbits
 1721      AFF30080 
 1722              		.align	2
 1723              		.p2align 4,,15
 1724              		.thumb
 1725              		.thumb_func
 1726              		.type	thread3HH, %function
 1727              	thread3HH:
 1728              	.LFB20:
 1729              		.loc 1 297 0
 1730              		.cfi_startproc
 1731              		@ args = 0, pretend = 0, frame = 0
 1732              		@ frame_needed = 0, uses_anonymous_args = 0
 1733              	.LVL51:
 1734 0000 08B5     		push	{r3, lr}
 1735              	.LCFI26:
 1736              		.cfi_def_cfa_offset 8
 1737              		.cfi_offset 14, -4
 1738              		.cfi_offset 3, -8
 1739              		.loc 1 300 0
 1740 0002 3220     		movs	r0, #50
 1741              	.LVL52:
 1742 0004 FFF7FEFF 		bl	chThdSleep
 1743              		.loc 1 301 0
 1744 0008 40F20000 		movw	r0, #:lower16:.LANCHOR1
 1745 000c C0F20000 		movt	r0, #:upper16:.LANCHOR1
 1746 0010 FFF7FEFF 		bl	chMtxLock
 1747              		.loc 1 302 0
 1748 0014 0A20     		movs	r0, #10
 1749 0016 FFF7FEFF 		bl	test_cpu_pulse
 1750              		.loc 1 303 0
 1751 001a FFF7FEFF 		bl	chMtxUnlock
 1752              		.loc 1 304 0
 1753 001e 4120     		movs	r0, #65
 1754 0020 FFF7FEFF 		bl	test_emit_token
 1755              		.loc 1 306 0
ARM GAS  /tmp/ccIJOhmt.s 			page 32


 1756 0024 0020     		movs	r0, #0
 1757 0026 08BD     		pop	{r3, pc}
 1758              		.cfi_endproc
 1759              	.LFE20:
 1760              		.size	thread3HH, .-thread3HH
 1761 0028 AFF30080 		.section	.text.thread3H,"ax",%progbits
 1761      AFF30080 
 1762              		.align	2
 1763              		.p2align 4,,15
 1764              		.thumb
 1765              		.thumb_func
 1766              		.type	thread3H, %function
 1767              	thread3H:
 1768              	.LFB19:
 1769              		.loc 1 287 0
 1770              		.cfi_startproc
 1771              		@ args = 0, pretend = 0, frame = 0
 1772              		@ frame_needed = 0, uses_anonymous_args = 0
 1773              	.LVL53:
 1774 0000 08B5     		push	{r3, lr}
 1775              	.LCFI27:
 1776              		.cfi_def_cfa_offset 8
 1777              		.cfi_offset 14, -4
 1778              		.cfi_offset 3, -8
 1779              		.loc 1 290 0
 1780 0002 2820     		movs	r0, #40
 1781              	.LVL54:
 1782 0004 FFF7FEFF 		bl	chThdSleep
 1783              		.loc 1 291 0
 1784 0008 1420     		movs	r0, #20
 1785 000a FFF7FEFF 		bl	test_cpu_pulse
 1786              		.loc 1 292 0
 1787 000e 4220     		movs	r0, #66
 1788 0010 FFF7FEFF 		bl	test_emit_token
 1789              		.loc 1 294 0
 1790 0014 0020     		movs	r0, #0
 1791 0016 08BD     		pop	{r3, pc}
 1792              		.cfi_endproc
 1793              	.LFE19:
 1794              		.size	thread3H, .-thread3H
 1795 0018 AFF30080 		.section	.text.thread3M,"ax",%progbits
 1795      AFF30080 
 1796              		.align	2
 1797              		.p2align 4,,15
 1798              		.thumb
 1799              		.thumb_func
 1800              		.type	thread3M, %function
 1801              	thread3M:
 1802              	.LFB18:
 1803              		.loc 1 275 0
 1804              		.cfi_startproc
 1805              		@ args = 0, pretend = 0, frame = 0
 1806              		@ frame_needed = 0, uses_anonymous_args = 0
 1807              	.LVL55:
 1808 0000 08B5     		push	{r3, lr}
 1809              	.LCFI28:
 1810              		.cfi_def_cfa_offset 8
ARM GAS  /tmp/ccIJOhmt.s 			page 33


 1811              		.cfi_offset 14, -4
 1812              		.cfi_offset 3, -8
 1813              		.loc 1 278 0
 1814 0002 1420     		movs	r0, #20
 1815              	.LVL56:
 1816 0004 FFF7FEFF 		bl	chThdSleep
 1817              		.loc 1 279 0
 1818 0008 40F20000 		movw	r0, #:lower16:.LANCHOR1
 1819 000c C0F20000 		movt	r0, #:upper16:.LANCHOR1
 1820 0010 FFF7FEFF 		bl	chMtxLock
 1821              		.loc 1 280 0
 1822 0014 0A20     		movs	r0, #10
 1823 0016 FFF7FEFF 		bl	test_cpu_pulse
 1824              		.loc 1 281 0
 1825 001a FFF7FEFF 		bl	chMtxUnlock
 1826              		.loc 1 282 0
 1827 001e 4320     		movs	r0, #67
 1828 0020 FFF7FEFF 		bl	test_emit_token
 1829              		.loc 1 284 0
 1830 0024 0020     		movs	r0, #0
 1831 0026 08BD     		pop	{r3, pc}
 1832              		.cfi_endproc
 1833              	.LFE18:
 1834              		.size	thread3M, .-thread3M
 1835 0028 AFF30080 		.section	.text.thread3L,"ax",%progbits
 1835      AFF30080 
 1836              		.align	2
 1837              		.p2align 4,,15
 1838              		.thumb
 1839              		.thumb_func
 1840              		.type	thread3L, %function
 1841              	thread3L:
 1842              	.LFB17:
 1843              		.loc 1 259 0
 1844              		.cfi_startproc
 1845              		@ args = 0, pretend = 0, frame = 0
 1846              		@ frame_needed = 0, uses_anonymous_args = 0
 1847              	.LVL57:
 1848 0000 08B5     		push	{r3, lr}
 1849              	.LCFI29:
 1850              		.cfi_def_cfa_offset 8
 1851              		.cfi_offset 14, -4
 1852              		.cfi_offset 3, -8
 1853              		.loc 1 262 0
 1854 0002 0A20     		movs	r0, #10
 1855              	.LVL58:
 1856 0004 FFF7FEFF 		bl	chThdSleep
 1857              		.loc 1 263 0
 1858 0008 40F20000 		movw	r0, #:lower16:.LANCHOR1
 1859 000c C0F20000 		movt	r0, #:upper16:.LANCHOR1
 1860 0010 FFF7FEFF 		bl	chMtxLock
 1861              		.loc 1 264 0
 1862 0014 1420     		movs	r0, #20
 1863 0016 FFF7FEFF 		bl	test_cpu_pulse
 1864              		.loc 1 265 0
 1865 001a 40F20000 		movw	r0, #:lower16:.LANCHOR2
 1866 001e C0F20000 		movt	r0, #:upper16:.LANCHOR2
ARM GAS  /tmp/ccIJOhmt.s 			page 34


 1867 0022 FFF7FEFF 		bl	chMtxLock
 1868              		.loc 1 266 0
 1869 0026 0A20     		movs	r0, #10
 1870 0028 FFF7FEFF 		bl	test_cpu_pulse
 1871              		.loc 1 267 0
 1872 002c FFF7FEFF 		bl	chMtxUnlock
 1873              		.loc 1 268 0
 1874 0030 0A20     		movs	r0, #10
 1875 0032 FFF7FEFF 		bl	test_cpu_pulse
 1876              		.loc 1 269 0
 1877 0036 FFF7FEFF 		bl	chMtxUnlock
 1878              		.loc 1 270 0
 1879 003a 4420     		movs	r0, #68
 1880 003c FFF7FEFF 		bl	test_emit_token
 1881              		.loc 1 272 0
 1882 0040 0020     		movs	r0, #0
 1883 0042 08BD     		pop	{r3, pc}
 1884              		.cfi_endproc
 1885              	.LFE17:
 1886              		.size	thread3L, .-thread3L
 1887 0044 AFF30080 		.section	.text.thread3LL,"ax",%progbits
 1887      AFF30080 
 1887      AFF30080 
 1888              		.align	2
 1889              		.p2align 4,,15
 1890              		.thumb
 1891              		.thumb_func
 1892              		.type	thread3LL, %function
 1893              	thread3LL:
 1894              	.LFB16:
 1895              		.loc 1 248 0
 1896              		.cfi_startproc
 1897              		@ args = 0, pretend = 0, frame = 0
 1898              		@ frame_needed = 0, uses_anonymous_args = 0
 1899              	.LVL59:
 1900              		.loc 1 251 0
 1901 0000 40F20000 		movw	r0, #:lower16:.LANCHOR2
 1902              	.LVL60:
 1903              		.loc 1 248 0
 1904 0004 08B5     		push	{r3, lr}
 1905              	.LCFI30:
 1906              		.cfi_def_cfa_offset 8
 1907              		.cfi_offset 14, -4
 1908              		.cfi_offset 3, -8
 1909              		.loc 1 251 0
 1910 0006 C0F20000 		movt	r0, #:upper16:.LANCHOR2
 1911 000a FFF7FEFF 		bl	chMtxLock
 1912              		.loc 1 252 0
 1913 000e 1E20     		movs	r0, #30
 1914 0010 FFF7FEFF 		bl	test_cpu_pulse
 1915              		.loc 1 253 0
 1916 0014 FFF7FEFF 		bl	chMtxUnlock
 1917              		.loc 1 254 0
 1918 0018 4520     		movs	r0, #69
 1919 001a FFF7FEFF 		bl	test_emit_token
 1920              		.loc 1 256 0
 1921 001e 0020     		movs	r0, #0
ARM GAS  /tmp/ccIJOhmt.s 			page 35


 1922 0020 08BD     		pop	{r3, pc}
 1923              		.cfi_endproc
 1924              	.LFE16:
 1925              		.size	thread3LL, .-thread3LL
 1926 0022 00BFAFF3 		.section	.text.thread2L,"ax",%progbits
 1926      0080AFF3 
 1926      0080AFF3 
 1926      0080
 1927              		.align	2
 1928              		.p2align 4,,15
 1929              		.thumb
 1930              		.thumb_func
 1931              		.type	thread2L, %function
 1932              	thread2L:
 1933              	.LFB11:
 1934              		.loc 1 157 0
 1935              		.cfi_startproc
 1936              		@ args = 0, pretend = 0, frame = 0
 1937              		@ frame_needed = 0, uses_anonymous_args = 0
 1938              	.LVL61:
 1939              		.loc 1 160 0
 1940 0000 40F20000 		movw	r0, #:lower16:.LANCHOR2
 1941              	.LVL62:
 1942              		.loc 1 157 0
 1943 0004 08B5     		push	{r3, lr}
 1944              	.LCFI31:
 1945              		.cfi_def_cfa_offset 8
 1946              		.cfi_offset 14, -4
 1947              		.cfi_offset 3, -8
 1948              		.loc 1 160 0
 1949 0006 C0F20000 		movt	r0, #:upper16:.LANCHOR2
 1950 000a FFF7FEFF 		bl	chMtxLock
 1951              		.loc 1 161 0
 1952 000e 2820     		movs	r0, #40
 1953 0010 FFF7FEFF 		bl	test_cpu_pulse
 1954              		.loc 1 162 0
 1955 0014 FFF7FEFF 		bl	chMtxUnlock
 1956              		.loc 1 163 0
 1957 0018 0A20     		movs	r0, #10
 1958 001a FFF7FEFF 		bl	test_cpu_pulse
 1959              		.loc 1 164 0
 1960 001e 4320     		movs	r0, #67
 1961 0020 FFF7FEFF 		bl	test_emit_token
 1962              		.loc 1 166 0
 1963 0024 0020     		movs	r0, #0
 1964 0026 08BD     		pop	{r3, pc}
 1965              		.cfi_endproc
 1966              	.LFE11:
 1967              		.size	thread2L, .-thread2L
 1968 0028 AFF30080 		.section	.text.thread2M,"ax",%progbits
 1968      AFF30080 
 1969              		.align	2
 1970              		.p2align 4,,15
 1971              		.thumb
 1972              		.thumb_func
 1973              		.type	thread2M, %function
 1974              	thread2M:
ARM GAS  /tmp/ccIJOhmt.s 			page 36


 1975              	.LFB12:
 1976              		.loc 1 169 0
 1977              		.cfi_startproc
 1978              		@ args = 0, pretend = 0, frame = 0
 1979              		@ frame_needed = 0, uses_anonymous_args = 0
 1980              	.LVL63:
 1981 0000 08B5     		push	{r3, lr}
 1982              	.LCFI32:
 1983              		.cfi_def_cfa_offset 8
 1984              		.cfi_offset 14, -4
 1985              		.cfi_offset 3, -8
 1986              		.loc 1 172 0
 1987 0002 1420     		movs	r0, #20
 1988              	.LVL64:
 1989 0004 FFF7FEFF 		bl	chThdSleep
 1990              		.loc 1 173 0
 1991 0008 2820     		movs	r0, #40
 1992 000a FFF7FEFF 		bl	test_cpu_pulse
 1993              		.loc 1 174 0
 1994 000e 4220     		movs	r0, #66
 1995 0010 FFF7FEFF 		bl	test_emit_token
 1996              		.loc 1 176 0
 1997 0014 0020     		movs	r0, #0
 1998 0016 08BD     		pop	{r3, pc}
 1999              		.cfi_endproc
 2000              	.LFE12:
 2001              		.size	thread2M, .-thread2M
 2002 0018 AFF30080 		.section	.text.thread2H,"ax",%progbits
 2002      AFF30080 
 2003              		.align	2
 2004              		.p2align 4,,15
 2005              		.thumb
 2006              		.thumb_func
 2007              		.type	thread2H, %function
 2008              	thread2H:
 2009              	.LFB13:
 2010              		.loc 1 179 0
 2011              		.cfi_startproc
 2012              		@ args = 0, pretend = 0, frame = 0
 2013              		@ frame_needed = 0, uses_anonymous_args = 0
 2014              	.LVL65:
 2015 0000 08B5     		push	{r3, lr}
 2016              	.LCFI33:
 2017              		.cfi_def_cfa_offset 8
 2018              		.cfi_offset 14, -4
 2019              		.cfi_offset 3, -8
 2020              		.loc 1 182 0
 2021 0002 2820     		movs	r0, #40
 2022              	.LVL66:
 2023 0004 FFF7FEFF 		bl	chThdSleep
 2024              		.loc 1 183 0
 2025 0008 40F20000 		movw	r0, #:lower16:.LANCHOR2
 2026 000c C0F20000 		movt	r0, #:upper16:.LANCHOR2
 2027 0010 FFF7FEFF 		bl	chMtxLock
 2028              		.loc 1 184 0
 2029 0014 0A20     		movs	r0, #10
 2030 0016 FFF7FEFF 		bl	test_cpu_pulse
ARM GAS  /tmp/ccIJOhmt.s 			page 37


 2031              		.loc 1 185 0
 2032 001a FFF7FEFF 		bl	chMtxUnlock
 2033              		.loc 1 186 0
 2034 001e 4120     		movs	r0, #65
 2035 0020 FFF7FEFF 		bl	test_emit_token
 2036              		.loc 1 188 0
 2037 0024 0020     		movs	r0, #0
 2038 0026 08BD     		pop	{r3, pc}
 2039              		.cfi_endproc
 2040              	.LFE13:
 2041              		.size	thread2H, .-thread2H
 2042              		.global	patternmtx
 2043              		.global	testmtx8
 2044              		.global	testmtx7
 2045              		.global	testmtx6
 2046              		.global	testmtx5
 2047              		.global	testmtx4
 2048              		.global	testmtx3
 2049              		.global	testmtx2
 2050              		.global	testmtx1
 2051 0028 AFF30080 		.section	.rodata.testmtx5,"a",%progbits
 2051      AFF30080 
 2052              		.align	2
 2053              		.type	testmtx5, %object
 2054              		.size	testmtx5, 16
 2055              	testmtx5:
 2056 0000 64000000 		.word	.LC10
 2057 0004 00000000 		.word	mtx5_setup
 2058 0008 00000000 		.word	0
 2059 000c 00000000 		.word	mtx5_execute
 2060              		.section	.rodata.testmtx6,"a",%progbits
 2061              		.align	2
 2062              		.type	testmtx6, %object
 2063              		.size	testmtx6, 16
 2064              	testmtx6:
 2065 0000 4C000000 		.word	.LC9
 2066 0004 00000000 		.word	mtx6_setup
 2067 0008 00000000 		.word	0
 2068 000c 00000000 		.word	mtx6_execute
 2069              		.section	.rodata.testmtx7,"a",%progbits
 2070              		.align	2
 2071              		.type	testmtx7, %object
 2072              		.size	testmtx7, 16
 2073              	testmtx7:
 2074 0000 34000000 		.word	.LC8
 2075 0004 00000000 		.word	mtx7_setup
 2076 0008 00000000 		.word	0
 2077 000c 00000000 		.word	mtx7_execute
 2078              		.section	.rodata.testmtx8,"a",%progbits
 2079              		.align	2
 2080              		.type	testmtx8, %object
 2081              		.size	testmtx8, 16
 2082              	testmtx8:
 2083 0000 20000000 		.word	.LC7
 2084 0004 00000000 		.word	mtx8_setup
 2085 0008 00000000 		.word	0
 2086 000c 00000000 		.word	mtx8_execute
ARM GAS  /tmp/ccIJOhmt.s 			page 38


 2087              		.section	.data.m1,"aw",%progbits
 2088              		.align	2
 2089              		.set	.LANCHOR2,. + 0
 2090              		.type	m1, %object
 2091              		.size	m1, 16
 2092              	m1:
 2093 0000 00000000 		.word	m1
 2094 0004 00000000 		.word	m1
 2095 0008 00000000 		.word	0
 2096 000c 00000000 		.word	0
 2097              		.section	.data.m2,"aw",%progbits
 2098              		.align	2
 2099              		.set	.LANCHOR1,. + 0
 2100              		.type	m2, %object
 2101              		.size	m2, 16
 2102              	m2:
 2103 0000 00000000 		.word	m2
 2104 0004 00000000 		.word	m2
 2105 0008 00000000 		.word	0
 2106 000c 00000000 		.word	0
 2107              		.section	.rodata.str1.4,"aMS",%progbits,1
 2108              		.align	2
 2109              	.LC0:
 2110 0000 4100     		.ascii	"A\000"
 2111 0002 0000     		.space	2
 2112              	.LC1:
 2113 0004 4300     		.ascii	"C\000"
 2114 0006 0000     		.space	2
 2115              	.LC2:
 2116 0008 4200     		.ascii	"B\000"
 2117 000a 0000     		.space	2
 2118              	.LC3:
 2119 000c 41424300 		.ascii	"ABC\000"
 2120              	.LC4:
 2121 0010 4500     		.ascii	"E\000"
 2122 0012 0000     		.space	2
 2123              	.LC5:
 2124 0014 4400     		.ascii	"D\000"
 2125 0016 0000     		.space	2
 2126              	.LC6:
 2127 0018 41424344 		.ascii	"ABCDE\000"
 2127      4500
 2128 001e 0000     		.space	2
 2129              	.LC7:
 2130 0020 436F6E64 		.ascii	"CondVar, boost test\000"
 2130      5661722C 
 2130      20626F6F 
 2130      73742074 
 2130      65737400 
 2131              	.LC8:
 2132 0034 436F6E64 		.ascii	"CondVar, broadcast test\000"
 2132      5661722C 
 2132      2062726F 
 2132      61646361 
 2132      73742074 
 2133              	.LC9:
 2134 004c 436F6E64 		.ascii	"CondVar, signal test\000"
ARM GAS  /tmp/ccIJOhmt.s 			page 39


 2134      5661722C 
 2134      20736967 
 2134      6E616C20 
 2134      74657374 
 2135 0061 000000   		.space	3
 2136              	.LC10:
 2137 0064 4D757465 		.ascii	"Mutexes, status\000"
 2137      7865732C 
 2137      20737461 
 2137      74757300 
 2138              	.LC11:
 2139 0074 4D757465 		.ascii	"Mutexes, priority return\000"
 2139      7865732C 
 2139      20707269 
 2139      6F726974 
 2139      79207265 
 2140 008d 000000   		.space	3
 2141              	.LC12:
 2142 0090 4D757465 		.ascii	"Mutexes, priority inheritance, complex case\000"
 2142      7865732C 
 2142      20707269 
 2142      6F726974 
 2142      7920696E 
 2143              	.LC13:
 2144 00bc 4D757465 		.ascii	"Mutexes, priority inheritance, simple case\000"
 2144      7865732C 
 2144      20707269 
 2144      6F726974 
 2144      7920696E 
 2145 00e7 00       		.space	1
 2146              	.LC14:
 2147 00e8 4D757465 		.ascii	"Mutexes, priority enqueuing test\000"
 2147      7865732C 
 2147      20707269 
 2147      6F726974 
 2147      7920656E 
 2148 0109 000000   		.section	.rodata.patternmtx,"a",%progbits
 2149              		.align	2
 2150              		.type	patternmtx, %object
 2151              		.size	patternmtx, 36
 2152              	patternmtx:
 2153 0000 00000000 		.word	testmtx1
 2154 0004 00000000 		.word	testmtx2
 2155 0008 00000000 		.word	testmtx3
 2156 000c 00000000 		.word	testmtx4
 2157 0010 00000000 		.word	testmtx5
 2158 0014 00000000 		.word	testmtx6
 2159 0018 00000000 		.word	testmtx7
 2160 001c 00000000 		.word	testmtx8
 2161 0020 00000000 		.word	0
 2162              		.section	.data.c1,"aw",%progbits
 2163              		.align	2
 2164              		.set	.LANCHOR0,. + 0
 2165              		.type	c1, %object
 2166              		.size	c1, 8
 2167              	c1:
 2168 0000 00000000 		.word	c1
ARM GAS  /tmp/ccIJOhmt.s 			page 40


 2169 0004 00000000 		.word	c1
 2170              		.section	.rodata.testmtx1,"a",%progbits
 2171              		.align	2
 2172              		.type	testmtx1, %object
 2173              		.size	testmtx1, 16
 2174              	testmtx1:
 2175 0000 E8000000 		.word	.LC14
 2176 0004 00000000 		.word	mtx1_setup
 2177 0008 00000000 		.word	0
 2178 000c 00000000 		.word	mtx1_execute
 2179              		.section	.rodata.testmtx2,"a",%progbits
 2180              		.align	2
 2181              		.type	testmtx2, %object
 2182              		.size	testmtx2, 16
 2183              	testmtx2:
 2184 0000 BC000000 		.word	.LC13
 2185 0004 00000000 		.word	mtx2_setup
 2186 0008 00000000 		.word	0
 2187 000c 00000000 		.word	mtx2_execute
 2188              		.section	.rodata.testmtx3,"a",%progbits
 2189              		.align	2
 2190              		.type	testmtx3, %object
 2191              		.size	testmtx3, 16
 2192              	testmtx3:
 2193 0000 90000000 		.word	.LC12
 2194 0004 00000000 		.word	mtx3_setup
 2195 0008 00000000 		.word	0
 2196 000c 00000000 		.word	mtx3_execute
 2197              		.section	.rodata.testmtx4,"a",%progbits
 2198              		.align	2
 2199              		.type	testmtx4, %object
 2200              		.size	testmtx4, 16
 2201              	testmtx4:
 2202 0000 74000000 		.word	.LC11
 2203 0004 00000000 		.word	mtx4_setup
 2204 0008 00000000 		.word	0
 2205 000c 00000000 		.word	mtx4_execute
 2206              		.text
 2207              	.Letext0:
 2208              		.file 2 "/opt/paparazzi/arm-multilib/lib/gcc/arm-none-eabi/4.6.2/../../../../arm-none-eabi/include
 2209              		.file 3 "../../os/ports/GCC/ARMCMx/chtypes.h"
 2210              		.file 4 "../../os/kernel/include/chlists.h"
 2211              		.file 5 "../../os/kernel/include/chthreads.h"
 2212              		.file 6 "../../os/ports/GCC/ARMCMx/chcore_v7m.h"
 2213              		.file 7 "../../os/kernel/include/chvt.h"
 2214              		.file 8 "../../os/kernel/include/chschd.h"
 2215              		.file 9 "../../os/kernel/include/chmtx.h"
 2216              		.file 10 "../../os/kernel/include/chcond.h"
 2217              		.file 11 "../../test/test.h"