ARM GAS  /tmp/ccC3IEGB.s 			page 1


   1              		.syntax unified
   2              		.cpu cortex-m3
   3              		.fpu softvfp
   4              		.eabi_attribute 20, 1
   5              		.eabi_attribute 21, 1
   6              		.eabi_attribute 23, 3
   7              		.eabi_attribute 24, 1
   8              		.eabi_attribute 25, 1
   9              		.eabi_attribute 26, 1
  10              		.eabi_attribute 30, 2
  11              		.eabi_attribute 18, 4
  12              		.thumb
  13              		.file	"tm.c"
  14              		.text
  15              	.Ltext0:
  16              		.cfi_sections	.debug_frame
  17              		.section	.text.tm_start,"ax",%progbits
  18              		.align	2
  19              		.p2align 4,,15
  20              		.thumb
  21              		.thumb_func
  22              		.type	tm_start, %function
  23              	tm_start:
  24              	.LFB63:
  25              		.file 1 "../../os/hal/src/tm.c"
  26              		.loc 1 69 0
  27              		.cfi_startproc
  28              		@ args = 0, pretend = 0, frame = 0
  29              		@ frame_needed = 0, uses_anonymous_args = 0
  30              		@ link register save eliminated.
  31              	.LVL0:
  32              		.loc 1 71 0
  33 0000 4FF48053 		mov	r3, #4096
  34 0004 CEF20003 		movt	r3, 57344
  35 0008 5B68     		ldr	r3, [r3, #4]
  36 000a 8360     		str	r3, [r0, #8]
  37              		.loc 1 72 0
  38 000c 7047     		bx	lr
  39              		.cfi_endproc
  40              	.LFE63:
  41              		.size	tm_start, .-tm_start
  42              		.section	.text.tm_stop,"ax",%progbits
  43              		.align	2
  44              		.p2align 4,,15
  45              		.thumb
  46              		.thumb_func
  47              		.type	tm_stop, %function
  48              	tm_stop:
  49              	.LFB64:
  50              		.loc 1 81 0
  51              		.cfi_startproc
  52              		@ args = 0, pretend = 0, frame = 0
  53              		@ frame_needed = 0, uses_anonymous_args = 0
  54              		@ link register save eliminated.
  55              	.LVL1:
  56              		.loc 1 83 0
  57 0000 4FF48053 		mov	r3, #4096
ARM GAS  /tmp/ccC3IEGB.s 			page 2


  58 0004 CEF20003 		movt	r3, 57344
  59              		.loc 1 84 0
  60 0008 0849     		ldr	r1, .L7
  61              		.loc 1 83 0
  62 000a 5A68     		ldr	r2, [r3, #4]
  63              	.LVL2:
  64              		.loc 1 84 0
  65 000c 8368     		ldr	r3, [r0, #8]
  66 000e 0968     		ldr	r1, [r1, #0]
  67 0010 D31A     		subs	r3, r2, r3
  68              		.loc 1 85 0
  69 0012 C268     		ldr	r2, [r0, #12]
  70              	.LVL3:
  71              		.loc 1 84 0
  72 0014 5B1A     		subs	r3, r3, r1
  73              		.loc 1 85 0
  74 0016 9342     		cmp	r3, r2
  75              		.loc 1 84 0
  76 0018 8360     		str	r3, [r0, #8]
  77              		.loc 1 85 0
  78 001a 04D8     		bhi	.L6
  79              	.LVL4:
  80              	.LBB6:
  81              	.LBB7:
  82              		.loc 1 87 0
  83 001c 0269     		ldr	r2, [r0, #16]
  84 001e 9342     		cmp	r3, r2
  85              		.loc 1 88 0
  86 0020 38BF     		it	cc
  87 0022 0361     		strcc	r3, [r0, #16]
  88 0024 7047     		bx	lr
  89              	.LVL5:
  90              	.L6:
  91              	.LBE7:
  92              	.LBE6:
  93              		.loc 1 86 0
  94 0026 C360     		str	r3, [r0, #12]
  95 0028 7047     		bx	lr
  96              	.L8:
  97 002a 00BF     		.align	2
  98              	.L7:
  99 002c 00000000 		.word	.LANCHOR0
 100              		.cfi_endproc
 101              	.LFE64:
 102              		.size	tm_stop, .-tm_stop
 103              		.section	.text.tmInit,"ax",%progbits
 104              		.align	2
 105              		.p2align 4,,15
 106              		.global	tmInit
 107              		.thumb
 108              		.thumb_func
 109              		.type	tmInit, %function
 110              	tmInit:
 111              	.LFB65:
 112              		.loc 1 104 0
 113              		.cfi_startproc
 114              		@ args = 0, pretend = 0, frame = 24
ARM GAS  /tmp/ccC3IEGB.s 			page 3


 115              		@ frame_needed = 0, uses_anonymous_args = 0
 116 0000 10B5     		push	{r4, lr}
 117              	.LCFI0:
 118              		.cfi_def_cfa_offset 8
 119              		.cfi_offset 14, -4
 120              		.cfi_offset 4, -8
 121              	.LBB8:
 122              	.LBB9:
 123              		.loc 1 126 0
 124 0002 40F20002 		movw	r2, #:lower16:tm_start
 125              	.LBE9:
 126              	.LBE8:
 127              		.loc 1 104 0
 128 0006 86B0     		sub	sp, sp, #24
 129              	.LCFI1:
 130              		.cfi_def_cfa_offset 32
 131              	.LBB13:
 132              	.LBB10:
 133              		.loc 1 126 0
 134 0008 C0F20002 		movt	r2, #:upper16:tm_start
 135              	.LBE10:
 136              	.LBE13:
 137              		.loc 1 110 0
 138 000c 40F20004 		movw	r4, #:lower16:.LANCHOR0
 139 0010 0023     		movs	r3, #0
 140 0012 C0F20004 		movt	r4, #:upper16:.LANCHOR0
 141              	.LBB14:
 142              	.LBB11:
 143              		.loc 1 126 0
 144 0016 0192     		str	r2, [sp, #4]
 145              		.loc 1 127 0
 146 0018 40F20002 		movw	r2, #:lower16:tm_stop
 147 001c C0F20002 		movt	r2, #:upper16:tm_stop
 148              	.LBE11:
 149              	.LBE14:
 150              		.loc 1 112 0
 151 0020 01A8     		add	r0, sp, #4
 152              		.loc 1 110 0
 153 0022 2360     		str	r3, [r4, #0]
 154              	.LVL6:
 155              	.LBB15:
 156              	.LBB12:
 157              		.loc 1 128 0
 158 0024 0393     		str	r3, [sp, #12]
 159              		.loc 1 129 0
 160 0026 0493     		str	r3, [sp, #16]
 161              		.loc 1 130 0
 162 0028 4FF0FF33 		mov	r3, #-1
 163              		.loc 1 127 0
 164 002c 0292     		str	r2, [sp, #8]
 165              		.loc 1 130 0
 166 002e 0593     		str	r3, [sp, #20]
 167              	.LBE12:
 168              	.LBE15:
 169              		.loc 1 112 0
 170 0030 FFF7FEFF 		bl	tm_start
 171              	.LVL7:
ARM GAS  /tmp/ccC3IEGB.s 			page 4


 172              		.loc 1 113 0
 173 0034 029B     		ldr	r3, [sp, #8]
 174 0036 01A8     		add	r0, sp, #4
 175              	.LVL8:
 176 0038 9847     		blx	r3
 177              	.LVL9:
 178              		.loc 1 114 0
 179 003a 039B     		ldr	r3, [sp, #12]
 180 003c 2360     		str	r3, [r4, #0]
 181              		.loc 1 115 0
 182 003e 06B0     		add	sp, sp, #24
 183 0040 10BD     		pop	{r4, pc}
 184              		.cfi_endproc
 185              	.LFE65:
 186              		.size	tmInit, .-tmInit
 187 0042 00BFAFF3 		.section	.text.tmObjectInit,"ax",%progbits
 187      0080AFF3 
 187      0080AFF3 
 187      0080
 188              		.align	2
 189              		.p2align 4,,15
 190              		.global	tmObjectInit
 191              		.thumb
 192              		.thumb_func
 193              		.type	tmObjectInit, %function
 194              	tmObjectInit:
 195              	.LFB66:
 196              		.loc 1 124 0
 197              		.cfi_startproc
 198              		@ args = 0, pretend = 0, frame = 0
 199              		@ frame_needed = 0, uses_anonymous_args = 0
 200              		@ link register save eliminated.
 201              	.LVL10:
 202              		.loc 1 126 0
 203 0000 40F20002 		movw	r2, #:lower16:tm_start
 204 0004 C0F20002 		movt	r2, #:upper16:tm_start
 205              		.loc 1 128 0
 206 0008 0023     		movs	r3, #0
 207              		.loc 1 126 0
 208 000a 0260     		str	r2, [r0, #0]
 209              		.loc 1 127 0
 210 000c 40F20002 		movw	r2, #:lower16:tm_stop
 211 0010 C0F20002 		movt	r2, #:upper16:tm_stop
 212              		.loc 1 128 0
 213 0014 8360     		str	r3, [r0, #8]
 214              		.loc 1 129 0
 215 0016 C360     		str	r3, [r0, #12]
 216              		.loc 1 130 0
 217 0018 4FF0FF33 		mov	r3, #-1
 218              		.loc 1 127 0
 219 001c 4260     		str	r2, [r0, #4]
 220              		.loc 1 130 0
 221 001e 0361     		str	r3, [r0, #16]
 222              		.loc 1 131 0
 223 0020 7047     		bx	lr
 224              		.cfi_endproc
 225              	.LFE66:
ARM GAS  /tmp/ccC3IEGB.s 			page 5


 226              		.size	tmObjectInit, .-tmObjectInit
 227 0022 00BFAFF3 		.section	.bss.measurement_offset,"aw",%nobits
 227      0080AFF3 
 227      0080AFF3 
 227      0080
 228              		.align	2
 229              		.set	.LANCHOR0,. + 0
 230              		.type	measurement_offset, %object
 231              		.size	measurement_offset, 4
 232              	measurement_offset:
 233 0000 00000000 		.space	4
 234              		.text
 235              	.Letext0:
 236              		.file 2 "/opt/paparazzi/arm-multilib/lib/gcc/arm-none-eabi/4.6.2/../../../../arm-none-eabi/include
 237              		.file 3 "../../os/ports/common/ARMCMx/nvic.h"
 238              		.file 4 "../../os/hal/platforms/STM32F1xx/hal_lld.h"
 239              		.file 5 "../../os/hal/include/tm.h"
 240              		.file 6 "../../os/ports/common/ARMCMx/CMSIS/include/core_cm3.h"